cdebian_linux.config
ConfigCore
p0
(tRp1
(Vbase
p2
tp3
(dp4
Varches
p5
(lp6
Valpha
p7
aVamd64
p8
aVarm64
p9
aVarm64ilp32
p10
aVarmel
p11
aVarmhf
p12
aVhppa
p13
aVi386
p14
aVm68k
p15
aVmips
p16
aVmips64
p17
aVmips64el
p18
aVmips64r6
p19
aVmips64r6el
p20
aVmipsel
p21
aVmipsn32
p22
aVmipsn32el
p23
aVmipsn32r6
p24
aVmipsn32r6el
p25
aVmipsr6
p26
aVmipsr6el
p27
aVpowerpc
p28
aVpowerpcspe
p29
aVppc64
p30
aVppc64el
p31
aVs390
p32
aVs390x
p33
aVsh3
p34
aVsh4
p35
aVsparc
p36
aVsparc64
p37
aVtilegx
p38
aVx32
p39
asVfeaturesets
p40
(lp41
Vnone
p42
aVrt
p43
asVcompiler
p44
Vgcc-6
p45
ss(Vbuild
p46
tp47
(dp48
Vsigned-modules
p49
I00
sVdebug-info
p50
I01
ss(Vbase
p51
NVrt
p52
tp53
(dp54
Venabled
p55
I00
ss(Vdescription
p56
tp57
(dp58
Vpart-long-up
p59
VThis kernel is not suitable for SMP (multi-processor,\u000amulti-core or hyper-threaded) systems.
p60
sVpart-long-xen
p61
VThis kernel also runs on a Xen hypervisor.\u000aIt supports both privileged (dom0) and unprivileged (domU) operation.
p62
ss(Vrelations
p63
tp64
(dp65
Vinitramfs-tools
p66
Vinitramfs-tools (>= 0.120+deb8u2)
p67
sVgcc-6
p68
Vgcc-6 <!stage1 !cross>, gcc-6-@gnu-type-package@ <!stage1 cross>
p69
sVinitramfs-fallback
p70
Vlinux-initramfs-tool
p71
ss(Vimage
p72
tp73
(dp74
Vinitramfs-generators
p75
(lp76
Vinitramfs-tools
p77
aVinitramfs-fallback
p78
ass(Vabi
p79
tp80
(dp81
Vabiname
p82
V1
p83
sVignore-changes
p84
(lp85
V__cpuhp_*
p86
aVbpf_analyzer
p87
aVcxl_*
p88
aVdax_flush
p89
aVinet_add_protocol
p90
aVinet_del_protocol
p91
aViommu_device_*
p92
aVkvm_async_pf_task_wait
p93
aVmm_iommu_*
p94
aVmv_mbus_*
p95
aVperf_*
p96
aVregister_cxl_calls
p97
aVregister_key_type
p98
aVunregister_cxl_calls
p99
aV*_hw_breakpoint
p100
aVmodule:arch/x86/kvm/*
p101
aVmodule:drivers/crypto/ccp/*
p102
aVmodule:drivers/hv/*
p103
aVmodule:drivers/iio/common/hid-sensors/*
p104
aVmodule:drivers/iio/common/st_sensors/**
p105
aVmodule:drivers/mtd/nand/*
p106
aVmodule:drivers/net/wireless/**
p107
aVmodule:drivers/nvdimm/*
p108
aVmodule:drivers/power/supply/bq27xxx_battery
p109
aVmodule:drivers/scsi/cxgbi/*
p110
aVmodule:drivers/scsi/libiscs*
p111
aVmodule:drivers/scsi/qla2xxx/qla2xxx
p112
aVmodule:drivers/scsi/ufs/*
p113
aVmodule:drivers/target/**
p114
aVmodule:drivers/usb/chipidea/**
p115
aVmodule:drivers/usb/gadget/**
p116
aVmodule:drivers/usb/host/**
p117
aVmodule:drivers/usb/musb/**
p118
aVmodule:fs/nfs/**
p119
aVmodule:net/ceph/libceph
p120
aVmodule:net/l2tp/**
p121
aVmodule:sound/core/seq/**
p122
aVmodule:sound/firewire/snd-firewire-lib
p123
aVbtree_*
p124
aVvisitor*
p125
aVcan_rx_register
p126
aVip6_xmit
p127
aVmodule:net/dccp/dccp
p128
aVmodule:net/rds/rds
p129
aVdevfreq_*
p130
aVdevm_devfreq_*
p131
aVupdate_devfreq
p132
aVmodule:drivers/infiniband/**
p133
aVacpi_ec_add_query_handler
p134
aVacpi_ec_remove_query_handler
p135
aVfirst_ec
p136
aVdebugfs_create_automount
p137
aVmodule:drivers/iio/imu/inv_mpu6050/*
p138
ass(Vbase
p139
Valpha
p140
tp141
(dp142
Vfeaturesets
p143
(lp144
Vnone
p145
asVkernel-arch
p146
Valpha
p147
ss(Vdescription
p148
g140
NValpha-smp
p149
tp150
(dp151
Vhardware
p152
VAlpha SMP
p153
sVhardware-long
p154
VDEC Alpha SMP systems with extended kernel start address (Wildfire, Titan, Marvel)
p155
ss(Vbuild
p156
g140
tp157
(dp158
Vsigned-modules
p159
I00
sVimage-file
p160
Varch/alpha/boot/vmlinux.gz
p161
ss(Vdescription
p162
g140
NValpha-generic
p163
tp164
(dp165
Vhardware
p166
VAlpha
p167
sVhardware-long
p168
VDEC Alpha systems with extended kernel start address (Wildfire, Titan, Marvel)
p169
ss(Vimage
p170
g140
tp171
(dp172
Vsuggests
p173
Vaboot, fdutils
p174
sVinstall-stem
p175
Vvmlinuz
p176
ss(Vbase
p177
g140
g145
tp178
(dp179
Vflavours
p180
(lp181
Valpha-generic
p182
aValpha-smp
p183
asVimplicit-flavour
p184
I01
ss(Vbase
p185
Vamd64
p186
tp187
(dp188
Vfeaturesets
p189
(lp190
Vnone
p191
aVrt
p192
asVkernel-arch
p193
Vx86
p194
ss(Vdescription
p195
g186
NVamd64
p196
tp197
(dp198
Vhardware
p199
V64-bit PCs
p200
sVhardware-long
p201
VPCs with AMD64, Intel 64 or VIA Nano processors
p202
ss(Vbuild
p203
g186
tp204
(dp205
Vvdso
p206
I01
sVimage-file
p207
Varch/x86/boot/bzImage
p208
sVdebug-info
p209
I01
ss(Vrelations
p210
g186
tp211
(dp212
Vheaders%gcc-6
p213
Vlinux-compiler-gcc-6-x86
p214
ss(Vimage
p215
g186
tp216
(dp217
Vbreaks
p218
Vxserver-xorg-input-vmmouse (<< 1:13.0.99)
p219
sVinstall-stem
p220
Vvmlinuz
p221
sVbootloaders
p222
(lp223
Vgrub-pc
p224
aVgrub-efi-amd64
p225
aVextlinux
p226
ass(Vbase
p227
g186
Vnone
p228
tp229
(dp230
Vflavours
p231
(lp232
Vamd64
p233
ass(Vdescription
p234
g186
g228
Vamd64
p235
tp236
(dp237
Vparts
p238
(lp239
Vxen
p240
ass(Vbase
p241
g186
Vrt
p242
tp243
(dp244
Vflavours
p245
(lp246
Vamd64
p247
ass(Vbase
p248
Varm64
p249
tp250
(dp251
Vfeaturesets
p252
(lp253
Vnone
p254
asVkernel-arch
p255
Varm64
p256
ss(Vdescription
p257
g249
NVarm64
p258
tp259
(dp260
Vhardware
p261
V64-bit ARMv8 machines
p262
ss(Vbuild
p263
g249
tp264
(dp265
Vvdso
p266
I01
sVimage-file
p267
Varch/arm64/boot/Image
p268
sVdebug-info
p269
I01
ss(Vimage
p270
g249
NVarm64
p271
tp272
(dp273
s(Vimage
p274
g249
tp275
(dp276
Vbreaks
p277
Vlibmozjs185-1.0, libmozjs-24-0 (<< 24.2.0-5.1~)
p278
sVinstall-stem
p279
Vvmlinuz
p280
ss(Vbase
p281
g249
Vnone
p282
tp283
(dp284
Vflavours
p285
(lp286
Varm64
p287
ass(Vbase
p288
Varm64ilp32
p289
tp290
(dp291
Vfeaturesets
p292
(lp293
sVkernel-arch
p294
Varm64
p295
ss(Vbase
p296
Varmel
p297
tp298
(dp299
g143
(lp300
g145
asVkernel-arch
p301
Varm
p302
ss(Vbuild
p303
g297
tp304
(dp305
Vsigned-modules
p306
I00
sVimage-file
p307
Varch/arm/boot/zImage
p308
sVuncompressed-image-file
p309
Varch/arm/boot/Image
p310
ss(Vimage
p311
g297
NVmarvell
p312
tp313
(dp314
Vrecommends
p315
Vu-boot-tools
p316
sVbreaks
p317
Vflash-kernel (<< 3.57~)
p318
sVcheck-size-with-dtb
p319
I01
sVcheck-size
p320
L2097080L
sVcheck-uncompressed-size
p321
L7340032L
ss(Vdescription
p322
g297
NVmarvell
p323
tp324
(dp325
Vhardware
p326
VMarvell Kirkwood/Orion
p327
sVhardware-long
p328
VMarvell Kirkwood based systems (SheevaPlug, QNAP TS-119/TS-219, etc)\u000aand Orion 5181, 5182 and 5281 based systems (QNAP TS-109/TS-209, etc)
p329
ss(Vrelations
p330
g297
tp331
(dp332
Vheaders%gcc-6
p333
Vlinux-compiler-gcc-6-arm
p334
ss(Vabi
p335
g297
tp336
(dp337
Vignore-changes
p338
(lp339
Vselinux_is_enabled
p340
ass(Vimage
p341
g297
tp342
(dp343
Vinstall-stem
p344
Vvmlinuz
p345
ss(g177
g297
g145
tp346
(dp347
g180
(lp348
Vmarvell
p349
asg184
I01
ss(Vbase
p350
Varmhf
p351
tp352
(dp353
g143
(lp354
g145
asVkernel-arch
p355
Varm
p356
ss(Vdescription
p357
g351
NVarmmp
p358
tp359
(dp360
Vhardware
p361
VARMv7 multiplatform compatible SoCs
p362
sVhardware-long
p363
VARMv7 multiplatform kernel. See\u000ahttps://wiki.debian.org/DebianKernel/ARMMP for details of supported\u000aplatforms
p364
ss(Vbuild
p365
g351
tp366
(dp367
Vvdso
p368
I01
sVimage-file
p369
Varch/arm/boot/zImage
p370
ss(Vdescription
p371
g351
NVarmmp-lpae
p372
tp373
(dp374
Vhardware
p375
VARMv7 multiplatform compatible SoCs supporting LPAE
p376
sVhardware-long
p377
VARMv7 multiplatform kernel supporting LPAE. See\u000ahttps://wiki.debian.org/DebianKernel/ARMMP for details of supported\u000aplatforms.
p378
ss(Vrelations
p379
g351
tp380
(dp381
Vheaders%gcc-6
p382
Vlinux-compiler-gcc-6-arm
p383
ss(Vimage
p384
g351
tp385
(dp386
Vinstall-stem
p387
Vvmlinuz
p388
ss(g177
g351
g145
tp389
(dp390
g180
(lp391
Varmmp
p392
aVarmmp-lpae
p393
asg184
I01
ss(Vbase
p394
Vhppa
p395
tp396
(dp397
g143
(lp398
g145
asVkernel-arch
p399
Vparisc
p400
ss(Vbuild
p401
g395
tp402
(dp403
Vsigned-modules
p404
I00
sVimage-file
p405
Vvmlinux
p406
ss(Vdescription
p407
g395
NVparisc64-smp
p408
tp409
(dp410
Vhardware
p411
Vmultiprocessor 64-bit PA-RISC
p412
sVhardware-long
p413
VHP PA-RISC 64-bit SMP systems with support for more than 4 GB RAM
p414
ss(Vbase
p415
g395
NVparisc64-smp
p416
tp417
(dp418
Vcflags
p419
V-fno-cse-follow-jumps
p420
sVoverride-host-type
p421
Vhppa64-linux-gnu
p422
ss(Vrelations
p423
g395
tp424
(dp425
Vgcc-6
p426
Vgcc-6 <!stage1 !cross>, binutils-hppa64-linux-gnu <!stage1 !cross>, gcc-6-hppa64-linux-gnu <!stage1 !cross>, gcc-6-hppa-linux-gnu <!stage1 cross>, binutils-hppa64-linux-gnu <!stage1 cross>, gcc-6-hppa64-linux-gnu <!stage1 cross>
p427
ss(Vdescription
p428
g395
NVparisc
p429
tp430
(dp431
Vhardware
p432
V32-bit PA-RISC
p433
sVhardware-long
p434
VHP PA-RISC 32-bit systems with max 4 GB RAM
p435
ss(Vimage
p436
g395
tp437
(dp438
Vsuggests
p439
Vpalo
p440
sVinstall-stem
p441
Vvmlinux
p442
ss(g177
g395
g145
tp443
(dp444
g180
(lp445
Vparisc
p446
aVparisc64-smp
p447
asg184
I01
ss(Vbase
p448
Vi386
p449
tp450
(dp451
Vfeaturesets
p452
(lp453
Vnone
p454
aVrt
p455
asVkernel-arch
p456
Vx86
p457
ss(Vbuild
p458
g449
tp459
(dp460
Vvdso
p461
I01
sVimage-file
p462
Varch/x86/boot/bzImage
p463
ss(Vdescription
p464
g449
NV686-pae
p465
tp466
(dp467
Vhardware
p468
Vmodern PCs
p469
sVhardware-long
p470
VPCs with one or more processors supporting PAE
p471
sVparts
p472
(lp473
Vpae
p474
ass(Vdescription
p475
g449
tp476
(dp477
Vpart-long-pae
p478
VThis kernel requires PAE (Physical Address Extension).\u000aThis feature is supported by the Intel Pentium Pro/II/III/4/4M/D, Xeon,\u000aCore and Atom; AMD Geode NX, Athlon (K7), Duron, Opteron, Sempron,\u000aTurion or Phenom; Transmeta Efficeon; VIA C7; and some other processors.
p479
ss(Vbuild
p480
g449
NV686-pae
p481
tp482
(dp483
Vdebug-info
p484
I01
ss(Vdescription
p485
g449
NV686
p486
tp487
(dp488
Vhardware
p489
Volder PCs
p490
sVhardware-long
p491
VPCs with one or more processors not supporting PAE
p492
ss(Vrelations
p493
g449
tp494
(dp495
Vheaders%gcc-6
p496
Vlinux-compiler-gcc-6-x86
p497
ss(Vimage
p498
g449
tp499
(dp500
Vbreaks
p501
Vxserver-xorg-input-vmmouse (<< 1:13.0.99)
p502
sVinstall-stem
p503
Vvmlinuz
p504
sVbootloaders
p505
(lp506
Vgrub-pc
p507
aVextlinux
p508
ass(Vbase
p509
g449
Vnone
p510
tp511
(dp512
Vflavours
p513
(lp514
V686
p515
aV686-pae
p516
ass(Vdescription
p517
g449
g510
V686-pae
p518
tp519
(dp520
Vparts
p521
(lp522
Vxen
p523
ass(Vbase
p524
g449
Vrt
p525
tp526
(dp527
Vflavours
p528
(lp529
V686-pae
p530
ass(Vbase
p531
Vm68k
p532
tp533
(dp534
Vcflags
p535
V-ffreestanding
p536
sg143
(lp537
g145
asVkernel-arch
p538
Vm68k
p539
ss(Vbuild
p540
g532
tp541
(dp542
Vsigned-modules
p543
I00
sVimage-file
p544
Vvmlinux.gz
p545
ss(Vdescription
p546
g532
NVm68k
p547
tp548
(dp549
Vhardware
p550
VMotorola MC68020+ family
p551
ss(Vimage
p552
g532
tp553
(dp554
Vsuggests
p555
Vvmelilo, fdutils
p556
sVinstall-stem
p557
Vvmlinuz
p558
ss(g177
g532
g145
tp559
(dp560
g180
(lp561
Vm68k
p562
asg184
I01
ss(Vbase
p563
Vmips
p564
tp565
(dp566
g143
(lp567
g145
asVkernel-arch
p568
Vmips
p569
ss(Vbuild
p570
g564
tp571
(dp572
Vsigned-modules
p573
I00
sVimage-file
p574
Vvmlinux
p575
ss(Vimage
p576
g564
NV4kc-malta
p577
tp578
(dp579
Vconfigs
p580
(lp581
Vkernelarch-mips/config.malta
p582
aVkernelarch-mips/config.mips32r2
p583
ass(Vimage
p584
g564
NV5kc-malta
p585
tp586
(dp587
Vconfigs
p588
(lp589
Vkernelarch-mips/config.malta
p590
aVkernelarch-mips/config.mips64r2
p591
ass(Vdescription
p592
g564
NVocteon
p593
tp594
(dp595
Vhardware
p596
VOcteon
p597
sVhardware-long
p598
VCavium Networks Octeon
p599
ss(Vimage
p600
g564
NVocteon
p601
tp602
(dp603
Vconfigs
p604
(lp605
Vkernelarch-mips/config.octeon
p606
ass(Vimage
p607
g564
tp608
(dp609
Vinstall-stem
p610
Vvmlinux
p611
ss(Vdescription
p612
g564
NV5kc-malta
p613
tp614
(dp615
Vhardware
p616
VMIPS Malta (64-bit)
p617
sVhardware-long
p618
VMIPS Malta boards (64-bit)
p619
ss(Vdescription
p620
g564
NV4kc-malta
p621
tp622
(dp623
Vhardware
p624
VMIPS Malta
p625
sVhardware-long
p626
VMIPS Malta boards
p627
ss(g177
g564
g145
tp628
(dp629
g180
(lp630
V4kc-malta
p631
aV5kc-malta
p632
aVocteon
p633
asg184
I01
ss(Vbase
p634
Vmips64
p635
tp636
(dp637
g143
(lp638
g145
asVkernel-arch
p639
Vmips
p640
ss(Vbuild
p641
g635
tp642
(dp643
Vsigned-modules
p644
I00
sVimage-file
p645
Vvmlinux
p646
ss(Vimage
p647
g635
NV5kc-malta
p648
tp649
(dp650
Vconfigs
p651
(lp652
Vkernelarch-mips/config.malta
p653
aVkernelarch-mips/config.mips64r2
p654
ass(Vdescription
p655
g635
NVocteon
p656
tp657
(dp658
Vhardware
p659
VOcteon
p660
sVhardware-long
p661
VCavium Networks Octeon
p662
ss(Vimage
p663
g635
tp664
(dp665
Vinstall-stem
p666
Vvmlinux
p667
ss(Vdescription
p668
g635
NV5kc-malta
p669
tp670
(dp671
Vhardware
p672
VMIPS Malta
p673
sVhardware-long
p674
VMIPS Malta boards
p675
ss(Vimage
p676
g635
NVocteon
p677
tp678
(dp679
Vconfigs
p680
(lp681
Vkernelarch-mips/config.octeon
p682
ass(g177
g635
g145
tp683
(dp684
g180
(lp685
V5kc-malta
p686
aVocteon
p687
asg184
I01
ss(Vbase
p688
Vmips64el
p689
tp690
(dp691
g143
(lp692
g145
asVkernel-arch
p693
Vmips
p694
ss(Vimage
p695
g689
NVloongson-3
p696
tp697
(dp698
Vconfigs
p699
(lp700
Vkernelarch-mips/config.loongson-3
p701
ass(Vbuild
p702
g689
tp703
(dp704
Vsigned-modules
p705
I00
sVimage-file
p706
Vvmlinux
p707
ss(Vimage
p708
g689
NV5kc-malta
p709
tp710
(dp711
Vconfigs
p712
(lp713
Vkernelarch-mips/config.malta
p714
aVkernelarch-mips/config.mips64r2
p715
ass(Vdescription
p716
g689
NVocteon
p717
tp718
(dp719
Vhardware
p720
VOcteon
p721
sVhardware-long
p722
VCavium Networks Octeon
p723
ss(Vdescription
p724
g689
NVloongson-3
p725
tp726
(dp727
Vhardware
p728
VLoongson 3A/3B
p729
sVhardware-long
p730
VLoongson 3A or 3B based systems (e.g. from Loongson or Lemote)
p731
ss(Vimage
p732
g689
tp733
(dp734
Vinstall-stem
p735
Vvmlinux
p736
ss(Vdescription
p737
g689
NV5kc-malta
p738
tp739
(dp740
Vhardware
p741
VMIPS Malta
p742
sVhardware-long
p743
VMIPS Malta boards
p744
ss(Vimage
p745
g689
NVocteon
p746
tp747
(dp748
Vconfigs
p749
(lp750
Vkernelarch-mips/config.octeon
p751
ass(g177
g689
g145
tp752
(dp753
g180
(lp754
V5kc-malta
p755
aVloongson-3
p756
aVocteon
p757
asg184
I01
ss(Vbase
p758
Vmips64r6
p759
tp760
(dp761
g143
(lp762
g145
asVkernel-arch
p763
Vmips
p764
ss(Vbuild
p765
g759
tp766
(dp767
Vsigned-modules
p768
I00
sVimage-file
p769
Vvmlinux
p770
ss(Vimage
p771
g759
tp772
(dp773
Vinstall-stem
p774
Vvmlinux
p775
ss(Vimage
p776
g759
NVmips64r6
p777
tp778
(dp779
Vconfigs
p780
(lp781
Vkernelarch-mips/config.malta
p782
aVkernelarch-mips/config.mips64r6
p783
ass(Vdescription
p784
g759
NVmips64r6
p785
tp786
(dp787
Vhardware
p788
VMIPS R6 (64 bit, big endian)
p789
sVhardware-long
p790
VMIPS R6 (64 bit, big endian)
p791
ss(g177
g759
g145
tp792
(dp793
g180
(lp794
Vmips64r6
p795
asg184
I01
ss(Vbase
p796
Vmips64r6el
p797
tp798
(dp799
g143
(lp800
g145
asVkernel-arch
p801
Vmips
p802
ss(Vimage
p803
g797
NVmips64r6el
p804
tp805
(dp806
Vconfigs
p807
(lp808
Vkernelarch-mips/config.malta
p809
aVkernelarch-mips/config.mips64r6
p810
ass(Vbuild
p811
g797
tp812
(dp813
Vsigned-modules
p814
I00
sVimage-file
p815
Vvmlinux
p816
ss(Vdescription
p817
g797
NVmips64r6el
p818
tp819
(dp820
Vhardware
p821
VMIPS R6 (64 bit, little endian)
p822
sVhardware-long
p823
VMIPS R6 (64 bit, little endian)
p824
ss(Vimage
p825
g797
tp826
(dp827
Vinstall-stem
p828
Vvmlinux
p829
ss(g177
g797
g145
tp830
(dp831
g180
(lp832
Vmips64r6el
p833
asg184
I01
ss(Vbase
p834
Vmipsel
p835
tp836
(dp837
g143
(lp838
g145
asVkernel-arch
p839
Vmips
p840
ss(Vimage
p841
g835
NVloongson-3
p842
tp843
(dp844
Vconfigs
p845
(lp846
Vkernelarch-mips/config.loongson-3
p847
ass(Vbuild
p848
g835
tp849
(dp850
Vsigned-modules
p851
I00
sVimage-file
p852
Vvmlinux
p853
ss(Vimage
p854
g835
NV4kc-malta
p855
tp856
(dp857
Vconfigs
p858
(lp859
Vkernelarch-mips/config.malta
p860
aVkernelarch-mips/config.mips32r2
p861
ass(Vimage
p862
g835
NV5kc-malta
p863
tp864
(dp865
Vconfigs
p866
(lp867
Vkernelarch-mips/config.malta
p868
aVkernelarch-mips/config.mips64r2
p869
ass(Vdescription
p870
g835
NVocteon
p871
tp872
(dp873
Vhardware
p874
VOcteon
p875
sVhardware-long
p876
VCavium Networks Octeon
p877
ss(Vdescription
p878
g835
NVloongson-3
p879
tp880
(dp881
Vhardware
p882
VLoongson 3A/3B
p883
sVhardware-long
p884
VLoongson 3A or 3B based systems (e.g. from Loongson or Lemote)
p885
ss(Vimage
p886
g835
NVocteon
p887
tp888
(dp889
Vconfigs
p890
(lp891
Vkernelarch-mips/config.octeon
p892
ass(Vimage
p893
g835
tp894
(dp895
Vinstall-stem
p896
Vvmlinux
p897
ss(Vdescription
p898
g835
NV5kc-malta
p899
tp900
(dp901
Vhardware
p902
VMIPS Malta (64-bit)
p903
sVhardware-long
p904
VMIPS Malta boards (64-bit)
p905
ss(Vdescription
p906
g835
NV4kc-malta
p907
tp908
(dp909
Vhardware
p910
VMIPS Malta
p911
sVhardware-long
p912
VMIPS Malta boards
p913
ss(g177
g835
g145
tp914
(dp915
g180
(lp916
V4kc-malta
p917
aV5kc-malta
p918
aVloongson-3
p919
aVocteon
p920
asg184
I01
ss(Vbase
p921
Vmipsn32
p922
tp923
(dp924
Vfeaturesets
p925
(lp926
sVkernel-arch
p927
Vmips
p928
ss(Vbase
p929
Vmipsn32el
p930
tp931
(dp932
Vfeaturesets
p933
(lp934
sVkernel-arch
p935
Vmips
p936
ss(Vbase
p937
Vmipsn32r6
p938
tp939
(dp940
Vfeaturesets
p941
(lp942
sVkernel-arch
p943
Vmips
p944
ss(Vbase
p945
Vmipsn32r6el
p946
tp947
(dp948
Vfeaturesets
p949
(lp950
sVkernel-arch
p951
Vmips
p952
ss(Vbase
p953
Vmipsr6
p954
tp955
(dp956
g143
(lp957
g145
asVkernel-arch
p958
Vmips
p959
ss(Vbuild
p960
g954
tp961
(dp962
Vsigned-modules
p963
I00
sVimage-file
p964
Vvmlinux
p965
ss(Vdescription
p966
g954
NVmips32r6
p967
tp968
(dp969
Vhardware
p970
VMIPS R6 (32 bit, big endian)
p971
sVhardware-long
p972
VMIPS R6 (32 bit, big endian)
p973
ss(Vdescription
p974
g954
NVmips64r6
p975
tp976
(dp977
Vhardware
p978
VMIPS R6 (64 bit, big endian)
p979
sVhardware-long
p980
VMIPS R6 (64 bit, big endian)
p981
ss(Vimage
p982
g954
NVmips64r6
p983
tp984
(dp985
Vconfigs
p986
(lp987
Vkernelarch-mips/config.malta
p988
aVkernelarch-mips/config.mips64r6
p989
ass(Vimage
p990
g954
tp991
(dp992
Vinstall-stem
p993
Vvmlinux
p994
ss(Vimage
p995
g954
NVmips32r6
p996
tp997
(dp998
Vconfigs
p999
(lp1000
Vkernelarch-mips/config.malta
p1001
aVkernelarch-mips/config.mips32r6
p1002
ass(g177
g954
g145
tp1003
(dp1004
g180
(lp1005
Vmips32r6
p1006
aVmips64r6
p1007
asg184
I01
ss(Vbase
p1008
Vmipsr6el
p1009
tp1010
(dp1011
g143
(lp1012
g145
asVkernel-arch
p1013
Vmips
p1014
ss(Vimage
p1015
g1009
NVmips32r6el
p1016
tp1017
(dp1018
Vconfigs
p1019
(lp1020
Vkernelarch-mips/config.malta
p1021
aVkernelarch-mips/config.mips32r6
p1022
ass(Vdescription
p1023
g1009
NVmips64r6el
p1024
tp1025
(dp1026
Vhardware
p1027
VMIPS R6 (64 bit, little endian)
p1028
sVhardware-long
p1029
VMIPS R6 (64 bit, little endian)
p1030
ss(Vdescription
p1031
g1009
NVmips32r6el
p1032
tp1033
(dp1034
Vhardware
p1035
VMIPS R6 (32 bit, little endian)
p1036
sVhardware-long
p1037
VMIPS R6 (32 bit, little endian)
p1038
ss(Vimage
p1039
g1009
NVmips64r6el
p1040
tp1041
(dp1042
Vconfigs
p1043
(lp1044
Vkernelarch-mips/config.malta
p1045
aVkernelarch-mips/config.mips64r6
p1046
ass(Vbuild
p1047
g1009
tp1048
(dp1049
Vsigned-modules
p1050
I00
sVimage-file
p1051
Vvmlinux
p1052
ss(Vimage
p1053
g1009
tp1054
(dp1055
Vinstall-stem
p1056
Vvmlinux
p1057
ss(g177
g1009
g145
tp1058
(dp1059
g180
(lp1060
Vmips32r6el
p1061
aVmips64r6el
p1062
asg184
I01
ss(Vbase
p1063
Vpowerpc
p1064
tp1065
(dp1066
g143
(lp1067
g145
asVkernel-arch
p1068
Vpowerpc
p1069
ss(Vdescription
p1070
g1064
NVpowerpc64
p1071
tp1072
(dp1073
Vhardware
p1074
V64-bit PowerPC
p1075
ss(Vbuild
p1076
g1064
tp1077
(dp1078
Vvdso
p1079
I01
sVimage-file
p1080
Vvmlinux
p1081
ss(Vimage
p1082
g1064
NVpowerpc-smp
p1083
tp1084
(dp1085
Vconfigs
p1086
(lp1087
Vpowerpc/config.powerpc
p1088
aVpowerpc/config.powerpc-smp
p1089
ass(Vdescription
p1090
g1064
NVpowerpc
p1091
tp1092
(dp1093
Vhardware
p1094
Vuniprocessor 32-bit PowerPC
p1095
ss(Vimage
p1096
g1064
NVpowerpc64
p1097
tp1098
(dp1099
Vconfigs
p1100
(lp1101
Vkernelarch-powerpc/config-arch-64
p1102
aVkernelarch-powerpc/config-arch-64-be
p1103
ass(Vdescription
p1104
g1064
NVpowerpc-smp
p1105
tp1106
(dp1107
Vhardware
p1108
Vmultiprocessor 32-bit PowerPC
p1109
ss(Vimage
p1110
g1064
tp1111
(dp1112
Vsuggests
p1113
Vmkvmlinuz
p1114
sVinstall-stem
p1115
Vvmlinux
p1116
sVconfigs
p1117
(lp1118
ss(g177
g1064
g145
tp1119
(dp1120
g180
(lp1121
Vpowerpc
p1122
aVpowerpc-smp
p1123
aVpowerpc64
p1124
asg184
I01
ss(Vbase
p1125
Vpowerpcspe
p1126
tp1127
(dp1128
g143
(lp1129
g145
asVkernel-arch
p1130
Vpowerpc
p1131
ss(Vbuild
p1132
g1126
tp1133
(dp1134
Vsigned-modules
p1135
I00
sVimage-file
p1136
Vvmlinux
p1137
sVvdso
p1138
I01
ss(Vimage
p1139
g1126
tp1140
(dp1141
Vsuggests
p1142
Vmkvmlinuz
p1143
sVinstall-stem
p1144
Vvmlinux
p1145
ss(Vdescription
p1146
g1126
tp1147
(dp1148
Vhardware
p1149
V32-bit PowerPC with SPE (instead of AltiVec) with SMP support
p1150
ss(g177
g1126
g145
tp1151
(dp1152
g180
(lp1153
Vpowerpcspe
p1154
asg184
I01
ss(Vbase
p1155
Vppc64
p1156
tp1157
(dp1158
g143
(lp1159
g145
asVkernel-arch
p1160
Vpowerpc
p1161
ss(Vdescription
p1162
g1156
NVpowerpc64
p1163
tp1164
(dp1165
Vhardware
p1166
V64-bit PowerPC
p1167
ss(Vbuild
p1168
g1156
tp1169
(dp1170
Vsigned-modules
p1171
I00
sVimage-file
p1172
Vvmlinux
p1173
sVvdso
p1174
I01
ss(Vimage
p1175
g1156
NVpowerpc64
p1176
tp1177
(dp1178
Vconfigs
p1179
(lp1180
Vkernelarch-powerpc/config-arch-64
p1181
aVkernelarch-powerpc/config-arch-64-be
p1182
ass(Vimage
p1183
g1156
tp1184
(dp1185
Vsuggests
p1186
Vmkvmlinuz
p1187
sVinstall-stem
p1188
Vvmlinux
p1189
sVconfigs
p1190
(lp1191
ss(g177
g1156
g145
tp1192
(dp1193
g180
(lp1194
Vpowerpc64
p1195
asg184
I01
ss(Vbase
p1196
Vppc64el
p1197
tp1198
(dp1199
g143
(lp1200
g145
asVkernel-arch
p1201
Vpowerpc
p1202
ss(Vdescription
p1203
g1197
NVpowerpc64le
p1204
tp1205
(dp1206
Vhardware
p1207
VLittle-endian 64-bit PowerPC
p1208
ss(Vbuild
p1209
g1197
tp1210
(dp1211
Vvdso
p1212
I01
sVimage-file
p1213
Vvmlinux
p1214
ss(Vimage
p1215
g1197
tp1216
(dp1217
Vsuggests
p1218
Vmkvmlinuz
p1219
sVinstall-stem
p1220
Vvmlinux
p1221
sVconfigs
p1222
(lp1223
ss(Vimage
p1224
g1197
NVpowerpc64le
p1225
tp1226
(dp1227
Vconfigs
p1228
(lp1229
Vkernelarch-powerpc/config-arch-64
p1230
aVkernelarch-powerpc/config-arch-64-le
p1231
ass(g177
g1197
g145
tp1232
(dp1233
g180
(lp1234
Vpowerpc64le
p1235
asg184
I01
ss(Vbase
p1236
Vs390
p1237
tp1238
(dp1239
Vfeaturesets
p1240
(lp1241
sVkernel-arch
p1242
Vs390
p1243
ss(Vbase
p1244
Vs390x
p1245
tp1246
(dp1247
g143
(lp1248
g145
asVkernel-arch
p1249
Vs390
p1250
ss(Vdescription
p1251
g1245
NVs390x
p1252
tp1253
(dp1254
Vhardware
p1255
VIBM zSeries
p1256
ss(Vbuild
p1257
g1245
tp1258
(dp1259
Vvdso
p1260
I01
sVimage-file
p1261
Varch/s390/boot/image
p1262
ss(Vbuild
p1263
g1245
NVs390x
p1264
tp1265
(dp1266
Vdebug-info
p1267
I01
ss(Vrelations
p1268
g1245
tp1269
(dp1270
Vheaders%gcc-6
p1271
Vlinux-compiler-gcc-6-s390
p1272
ss(Vimage
p1273
g1245
tp1274
(dp1275
Vinstall-stem
p1276
Vvmlinuz
p1277
sVbootloaders
p1278
(lp1279
Vs390-tools
p1280
ass(g177
g1245
g145
tp1281
(dp1282
g180
(lp1283
Vs390x
p1284
asg184
I01
ss(Vbase
p1285
Vsh3
p1286
tp1287
(dp1288
Vfeaturesets
p1289
(lp1290
sVkernel-arch
p1291
Vsh
p1292
ss(Vbase
p1293
Vsh4
p1294
tp1295
(dp1296
g143
(lp1297
g145
asVkernel-arch
p1298
Vsh
p1299
ss(Vbuild
p1300
g1294
tp1301
(dp1302
Vsigned-modules
p1303
I00
sVimage-file
p1304
Varch/sh/boot/zImage
p1305
ss(Vdescription
p1306
g1294
NVsh7751r
p1307
tp1308
(dp1309
Vhardware
p1310
Vsh7751r
p1311
sVhardware-long
p1312
VRenesas SH7751R R2D plus board
p1313
ss(Vdescription
p1314
g1294
NVsh7785lcr
p1315
tp1316
(dp1317
Vhardware
p1318
Vsh7785lcr
p1319
sVhardware-long
p1320
VRenesas SH7785 reference board
p1321
ss(Vimage
p1322
g1294
tp1323
(dp1324
Vinstall-stem
p1325
Vvmlinuz
p1326
ss(Vimage
p1327
g1294
NVsh7785lcr
p1328
tp1329
(dp1330
Vrecommends
p1331
Vu-boot-tools
p1332
sVcheck-size
p1333
L4194304L
ss(g177
g1294
g145
tp1334
(dp1335
g180
(lp1336
Vsh7751r
p1337
aVsh7785lcr
p1338
asg184
I01
ss(Vbase
p1339
Vsparc
p1340
tp1341
(dp1342
Vfeaturesets
p1343
(lp1344
sVkernel-arch
p1345
Vsparc
p1346
ss(Vbase
p1347
Vsparc64
p1348
tp1349
(dp1350
g143
(lp1351
g145
asVkernel-arch
p1352
Vsparc
p1353
ss(Vbuild
p1354
g1348
tp1355
(dp1356
Vsigned-modules
p1357
I00
sVimage-file
p1358
Varch/sparc/boot/zImage
p1359
ss(Vimage
p1360
g1348
NVsparc64
p1361
tp1362
(dp1363
Vconfigs
p1364
(lp1365
Vkernelarch-sparc/config-up
p1366
ass(Vimage
p1367
g1348
NVsparc64-smp
p1368
tp1369
(dp1370
Vconfigs
p1371
(lp1372
Vkernelarch-sparc/config-smp
p1373
ass(Vimage
p1374
g1348
tp1375
(dp1376
Vsuggests
p1377
Vsilo, fdutils
p1378
sVinstall-stem
p1379
Vvmlinuz
p1380
sVconfigs
p1381
(lp1382
ss(Vdescription
p1383
g1348
NVsparc64-smp
p1384
tp1385
(dp1386
Vhardware
p1387
Vmultiprocessor 64-bit UltraSPARC
p1388
ss(Vdescription
p1389
g1348
NVsparc64
p1390
tp1391
(dp1392
Vhardware
p1393
Vuniprocessor 64-bit UltraSPARC
p1394
ss(g177
g1348
g145
tp1395
(dp1396
g180
(lp1397
Vsparc64
p1398
aVsparc64-smp
p1399
asg184
I01
ss(Vbase
p1400
Vtilegx
p1401
tp1402
(dp1403
Vfeaturesets
p1404
(lp1405
sVkernel-arch
p1406
Vtile
p1407
ss(Vbase
p1408
Vx32
p1409
tp1410
(dp1411
Vfeaturesets
p1412
(lp1413
sVkernel-arch
p1414
Vx86
p1415
ss(Vdescription
p1416
NVrt
p1417
tp1418
(dp1419
Vparts
p1420
(lp1421
Vrt
p1422
asVpart-long-rt
p1423
VThis kernel includes the PREEMPT_RT realtime patch set.
p1424
sVpart-short-rt
p1425
VPREEMPT_RT
p1426
ss(Vabi
p1427
Ng1417
tp1428
(dp1429
Vignore-changes
p1430
(lp1431
V*
p1432
ass(Vversion
p1433
tp1434
(dp1435
Vupstream
p1436
V4.13
p1437
sVsource
p1438
V4.13.10-1
p1439
sVabiname
p1440
V4.13.0-1
p1441
sVabiname_base
p1442
V4.13.0
p1443
ss.