cdebian_linux.config
ConfigCore
p0
(tRp1
(Vabi
p2
tp3
(dp4
Vabiname
p5
V1
p6
sVignore-changes
p7
(lp8
V__cpuhp_*
p9
aV__xive_vm_h_*
p10
aVbpf_analyzer
p11
aVcxl_*
p12
aVdax_flush
p13
aVieee80211_nullfunc_get
p14
aVinet_add_protocol
p15
aVinet_del_protocol
p16
aViommu_device_*
p17
aVkvm_async_pf_task_wait
p18
aVkvmppc_*
p19
aVmm_iommu_*
p20
aVmv_mbus_*
p21
aVperf_*
p22
aVregister_cxl_calls
p23
aVregister_key_type
p24
aVunregister_cxl_calls
p25
aV*_hw_breakpoint
p26
aVmodule:arch/x86/kvm/*
p27
aVmodule:drivers/crypto/ccp/*
p28
aVmodule:drivers/hv/*
p29
aVmodule:drivers/iio/common/hid-sensors/*
p30
aVmodule:drivers/iio/common/st_sensors/**
p31
aVmodule:drivers/mtd/nand/*
p32
aVmodule:drivers/net/wireless/**
p33
aVmodule:drivers/nvdimm/*
p34
aVmodule:drivers/power/supply/bq27xxx_battery
p35
aVmodule:drivers/scsi/cxgbi/*
p36
aVmodule:drivers/scsi/libiscs*
p37
aVmodule:drivers/scsi/qla2xxx/qla2xxx
p38
aVmodule:drivers/scsi/ufs/*
p39
aVmodule:drivers/target/**
p40
aVmodule:drivers/usb/chipidea/**
p41
aVmodule:drivers/usb/gadget/**
p42
aVmodule:drivers/usb/host/**
p43
aVmodule:drivers/usb/musb/**
p44
aVmodule:fs/nfs/**
p45
aVmodule:net/ceph/libceph
p46
aVmodule:net/l2tp/**
p47
aVmodule:net/rxrpc/rxrpc
p48
aVmodule:sound/core/seq/**
p49
aVmodule:sound/firewire/snd-firewire-lib
p50
aVbtree_*
p51
aVvisitor*
p52
aVcan_rx_register
p53
aVip6_xmit
p54
aVmodule:net/dccp/dccp
p55
aVmodule:net/rds/rds
p56
aVdevfreq_*
p57
aVdevm_devfreq_*
p58
aVupdate_devfreq
p59
aVmodule:drivers/infiniband/**
p60
aVacpi_ec_add_query_handler
p61
aVacpi_ec_remove_query_handler
p62
aVfirst_ec
p63
aVdebugfs_create_automount
p64
aVmodule:drivers/iio/imu/inv_mpu6050/*
p65
ass(Vbase
p66
tp67
(dp68
Varches
p69
(lp70
Valpha
p71
aVamd64
p72
aVarm64
p73
aVarm64ilp32
p74
aVarmel
p75
aVarmhf
p76
aVhppa
p77
aVi386
p78
aVm68k
p79
aVmips
p80
aVmips64
p81
aVmips64el
p82
aVmips64r6
p83
aVmips64r6el
p84
aVmipsel
p85
aVmipsn32
p86
aVmipsn32el
p87
aVmipsn32r6
p88
aVmipsn32r6el
p89
aVmipsr6
p90
aVmipsr6el
p91
aVpowerpc
p92
aVpowerpcspe
p93
aVppc64
p94
aVppc64el
p95
aVs390
p96
aVs390x
p97
aVsh3
p98
aVsh4
p99
aVsparc
p100
aVsparc64
p101
aVtilegx
p102
aVx32
p103
asVcompiler
p104
Vgcc-7
p105
sVfeaturesets
p106
(lp107
Vnone
p108
aVrt
p109
ass(Vbuild
p110
tp111
(dp112
Vdebug-info
p113
I01
sVsigned-modules
p114
I00
ss(Vbase
p115
NVrt
p116
tp117
(dp118
Venabled
p119
I00
ss(Vdescription
p120
tp121
(dp122
Vpart-long-up
p123
VThis kernel is not suitable for SMP (multi-processor,\u000amulti-core or hyper-threaded) systems.
p124
sVpart-long-xen
p125
VThis kernel also runs on a Xen hypervisor.\u000aIt supports both privileged (dom0) and unprivileged (domU) operation.
p126
ss(Vimage
p127
tp128
(dp129
Vinitramfs-generators
p130
(lp131
Vinitramfs-tools
p132
aVinitramfs-fallback
p133
asVrecommends
p134
Vapparmor
p135
ss(Vrelations
p136
tp137
(dp138
Vgcc-7
p139
Vgcc-7 <!stage1 !cross>, gcc-7-@gnu-type-package@ <!stage1 cross>
p140
sVinitramfs-fallback
p141
Vlinux-initramfs-tool
p142
sVinitramfs-tools
p143
Vinitramfs-tools (>= 0.120+deb8u2)
p144
ss(Vbase
p145
Valpha
p146
tp147
(dp148
Vkernel-arch
p149
Valpha
p150
sVfeaturesets
p151
(lp152
Vnone
p153
ass(Vbuild
p154
g146
tp155
(dp156
Vimage-file
p157
Varch/alpha/boot/vmlinux.gz
p158
sVsigned-modules
p159
I00
ss(Vimage
p160
g146
tp161
(dp162
Vsuggests
p163
Vaboot, fdutils
p164
sVinstall-stem
p165
Vvmlinuz
p166
ss(Vdescription
p167
g146
NValpha-generic
p168
tp169
(dp170
Vhardware
p171
VAlpha
p172
sVhardware-long
p173
VDEC Alpha systems with extended kernel start address (Wildfire, Titan, Marvel)
p174
ss(Vdescription
p175
g146
NValpha-smp
p176
tp177
(dp178
Vhardware
p179
VAlpha SMP
p180
sVhardware-long
p181
VDEC Alpha SMP systems with extended kernel start address (Wildfire, Titan, Marvel)
p182
ss(Vbase
p183
g146
g153
tp184
(dp185
Vflavours
p186
(lp187
Valpha-generic
p188
aValpha-smp
p189
asVimplicit-flavour
p190
I01
ss(Vbase
p191
Vamd64
p192
tp193
(dp194
Vfeaturesets
p195
(lp196
Vnone
p197
aVrt
p198
asVkernel-arch
p199
Vx86
p200
ss(Vbuild
p201
g192
tp202
(dp203
Vdebug-info
p204
I01
sVimage-file
p205
Varch/x86/boot/bzImage
p206
sVvdso
p207
I01
ss(Vimage
p208
g192
tp209
(dp210
Vbootloaders
p211
(lp212
Vgrub-pc
p213
aVgrub-efi-amd64
p214
aVextlinux
p215
asVinstall-stem
p216
Vvmlinuz
p217
sVbreaks
p218
Vxserver-xorg-input-vmmouse (<< 1:13.0.99)
p219
ss(Vrelations
p220
g192
tp221
(dp222
Vgcc-7
p223
Vgcc-7 (>= 7.2.0-20~) <!stage1 !cross>, gcc-7-x86-64-linux-gnu (>= 7.2.0-20~) <!stage1 cross>
p224
sVheaders%gcc-7
p225
Vlinux-compiler-gcc-7-x86 (>= 4.14.17-1~)
p226
ss(Vdescription
p227
g192
NVamd64
p228
tp229
(dp230
Vhardware
p231
V64-bit PCs
p232
sVhardware-long
p233
VPCs with AMD64, Intel 64 or VIA Nano processors
p234
ss(Vdescription
p235
g192
NVcloud-amd64
p236
tp237
(dp238
Vhardware
p239
Vx86-64 cloud
p240
sVhardware-long
p241
VAmazon EC2, Google Compute Engine and Microsoft Azure cloud platforms
p242
ss(Vbase
p243
g192
Vnone
p244
tp245
(dp246
Vflavours
p247
(lp248
Vamd64
p249
aVcloud-amd64
p250
ass(Vdescription
p251
g192
g244
Vamd64
p252
tp253
(dp254
Vparts
p255
(lp256
Vxen
p257
ass(Vbase
p258
g192
Vrt
p259
tp260
(dp261
Vflavours
p262
(lp263
Vamd64
p264
ass(Vbase
p265
Varm64
p266
tp267
(dp268
Vkernel-arch
p269
Varm64
p270
sVfeaturesets
p271
(lp272
Vnone
p273
ass(Vbuild
p274
g266
tp275
(dp276
Vdebug-info
p277
I01
sVimage-file
p278
Varch/arm64/boot/Image
p279
sVvdso
p280
I01
ss(Vimage
p281
g266
tp282
(dp283
Vinstall-stem
p284
Vvmlinuz
p285
sVbreaks
p286
Vlibmozjs185-1.0, libmozjs-24-0 (<< 24.2.0-5.1~)
p287
ss(Vdescription
p288
g266
NVarm64
p289
tp290
(dp291
Vhardware
p292
V64-bit ARMv8 machines
p293
ss(Vimage
p294
g266
NVarm64
p295
tp296
(dp297
s(Vbase
p298
g266
Vnone
p299
tp300
(dp301
Vflavours
p302
(lp303
Varm64
p304
ass(Vbase
p305
Varm64ilp32
p306
tp307
(dp308
Vkernel-arch
p309
Varm64
p310
sVfeaturesets
p311
(lp312
ss(Vbase
p313
Varmel
p314
tp315
(dp316
Vflavours
p317
(lp318
sVkernel-arch
p319
Varm
p320
ss(Vbuild
p321
g314
tp322
(dp323
Vimage-file
p324
Varch/arm/boot/zImage
p325
sVsigned-modules
p326
I00
sVuncompressed-image-file
p327
Varch/arm/boot/Image
p328
ss(Vimage
p329
g314
tp330
(dp331
Vinstall-stem
p332
Vvmlinuz
p333
ss(Vrelations
p334
g314
tp335
(dp336
Vheaders%gcc-7
p337
Vlinux-compiler-gcc-7-arm
p338
ss(Vdescription
p339
g314
NVmarvell
p340
tp341
(dp342
Vhardware
p343
VMarvell Kirkwood/Orion
p344
sVhardware-long
p345
VMarvell Kirkwood based systems (SheevaPlug, QNAP TS-119/TS-219, etc)\u000aand Orion 5181, 5182 and 5281 based systems (QNAP TS-109/TS-209, etc)
p346
ss(Vimage
p347
g314
NVmarvell
p348
tp349
(dp350
Vrecommends
p351
Vu-boot-tools
p352
sVcheck-size
p353
L2097080L
sVcheck-size-with-dtb
p354
I01
sVcheck-uncompressed-size
p355
L7340032L
sVbreaks
p356
Vflash-kernel (<< 3.57~)
p357
ss(Vbase
p358
Varmhf
p359
tp360
(dp361
Vkernel-arch
p362
Varm
p363
sg151
(lp364
g153
ass(Vbuild
p365
g359
tp366
(dp367
Vimage-file
p368
Varch/arm/boot/zImage
p369
sVvdso
p370
I01
ss(Vimage
p371
g359
tp372
(dp373
Vinstall-stem
p374
Vvmlinuz
p375
ss(Vrelations
p376
g359
tp377
(dp378
Vheaders%gcc-7
p379
Vlinux-compiler-gcc-7-arm
p380
ss(Vdescription
p381
g359
NVarmmp
p382
tp383
(dp384
Vhardware
p385
VARMv7 multiplatform compatible SoCs
p386
sVhardware-long
p387
VARMv7 multiplatform kernel. See\u000ahttps://wiki.debian.org/DebianKernel/ARMMP for details of supported\u000aplatforms
p388
ss(Vdescription
p389
g359
NVarmmp-lpae
p390
tp391
(dp392
Vhardware
p393
VARMv7 multiplatform compatible SoCs supporting LPAE
p394
sVhardware-long
p395
VARMv7 multiplatform kernel supporting LPAE. See\u000ahttps://wiki.debian.org/DebianKernel/ARMMP for details of supported\u000aplatforms.
p396
ss(g183
g359
g153
tp397
(dp398
g186
(lp399
Varmmp
p400
aVarmmp-lpae
p401
asg190
I01
ss(Vbase
p402
Vhppa
p403
tp404
(dp405
Vkernel-arch
p406
Vparisc
p407
sg151
(lp408
g153
ass(Vbuild
p409
g403
tp410
(dp411
Vimage-file
p412
Vvmlinux
p413
sVsigned-modules
p414
I00
ss(Vimage
p415
g403
tp416
(dp417
Vsuggests
p418
Vpalo
p419
sVinstall-stem
p420
Vvmlinux
p421
ss(Vdescription
p422
g403
NVparisc
p423
tp424
(dp425
Vhardware
p426
V32-bit PA-RISC
p427
sVhardware-long
p428
VHP PA-RISC 32-bit systems with max 4 GB RAM
p429
ss(Vbase
p430
g403
NVparisc64-smp
p431
tp432
(dp433
Vcflags
p434
V-fno-cse-follow-jumps
p435
sVoverride-host-type
p436
Vhppa64-linux-gnu
p437
ss(Vdescription
p438
g403
NVparisc64-smp
p439
tp440
(dp441
Vhardware
p442
Vmultiprocessor 64-bit PA-RISC
p443
sVhardware-long
p444
VHP PA-RISC 64-bit SMP systems with support for more than 4 GB RAM
p445
ss(Vrelations
p446
g403
tp447
(dp448
Vgcc-7
p449
Vgcc-7 <!stage1 !cross>, binutils-hppa64-linux-gnu <!stage1 !cross>, gcc-7-hppa64-linux-gnu <!stage1 !cross>, gcc-7-hppa-linux-gnu <!stage1 cross>, binutils-hppa64-linux-gnu <!stage1 cross>, gcc-7-hppa64-linux-gnu <!stage1 cross>
p450
ss(g183
g403
g153
tp451
(dp452
g186
(lp453
Vparisc
p454
aVparisc64-smp
p455
asg190
I01
ss(Vbase
p456
Vi386
p457
tp458
(dp459
Vfeaturesets
p460
(lp461
Vnone
p462
aVrt
p463
asVkernel-arch
p464
Vx86
p465
ss(Vbuild
p466
g457
tp467
(dp468
Vimage-file
p469
Varch/x86/boot/bzImage
p470
sVvdso
p471
I01
ss(Vdescription
p472
g457
tp473
(dp474
Vpart-long-pae
p475
VThis kernel requires PAE (Physical Address Extension).\u000aThis feature is supported by the Intel Pentium Pro/II/III/4/4M/D, Xeon,\u000aCore and Atom; AMD Geode NX, Athlon (K7), Duron, Opteron, Sempron,\u000aTurion or Phenom; Transmeta Efficeon; VIA C7; and some other processors.
p476
ss(Vimage
p477
g457
tp478
(dp479
Vbootloaders
p480
(lp481
Vgrub-pc
p482
aVextlinux
p483
asVinstall-stem
p484
Vvmlinuz
p485
sVbreaks
p486
Vxserver-xorg-input-vmmouse (<< 1:13.0.99)
p487
ss(Vrelations
p488
g457
tp489
(dp490
Vgcc-7
p491
Vgcc-7 (>= 7.2.0-20~) <!stage1 !cross>, gcc-7-i686-linux-gnu (>= 7.2.0-20~) <!stage1 cross>
p492
sVheaders%gcc-7
p493
Vlinux-compiler-gcc-7-x86 (>= 4.14.17-1~)
p494
ss(Vdescription
p495
g457
NV686
p496
tp497
(dp498
Vhardware
p499
Volder PCs
p500
sVhardware-long
p501
VPCs with one or more processors not supporting PAE
p502
ss(Vbuild
p503
g457
NV686-pae
p504
tp505
(dp506
Vdebug-info
p507
I01
ss(Vdescription
p508
g457
NV686-pae
p509
tp510
(dp511
Vhardware
p512
Vmodern PCs
p513
sVhardware-long
p514
VPCs with one or more processors supporting PAE
p515
sVparts
p516
(lp517
Vpae
p518
ass(Vbase
p519
g457
Vnone
p520
tp521
(dp522
Vflavours
p523
(lp524
V686
p525
aV686-pae
p526
ass(Vdescription
p527
g457
g520
V686-pae
p528
tp529
(dp530
Vparts
p531
(lp532
Vxen
p533
ass(Vbase
p534
g457
Vrt
p535
tp536
(dp537
Vflavours
p538
(lp539
V686-pae
p540
ass(Vbase
p541
Vm68k
p542
tp543
(dp544
Vcflags
p545
V-ffreestanding
p546
sVkernel-arch
p547
Vm68k
p548
sg151
(lp549
g153
ass(Vbuild
p550
g542
tp551
(dp552
Vimage-file
p553
Vvmlinux
p554
sVsigned-modules
p555
I00
ss(Vimage
p556
g542
tp557
(dp558
Vsuggests
p559
Vvmelilo, fdutils
p560
sVinstall-stem
p561
Vvmlinux
p562
ss(Vdescription
p563
g542
NVm68k
p564
tp565
(dp566
Vhardware
p567
VMotorola MC68020+ family
p568
ss(g183
g542
g153
tp569
(dp570
g186
(lp571
Vm68k
p572
asg190
I01
ss(Vbase
p573
Vmips
p574
tp575
(dp576
Vkernel-arch
p577
Vmips
p578
sg151
(lp579
g153
ass(Vbuild
p580
g574
tp581
(dp582
Vimage-file
p583
Vvmlinux
p584
sVsigned-modules
p585
I00
ss(Vimage
p586
g574
tp587
(dp588
Vinstall-stem
p589
Vvmlinux
p590
ss(Vdescription
p591
g574
NV4kc-malta
p592
tp593
(dp594
Vhardware
p595
VMIPS Malta
p596
sVhardware-long
p597
VMIPS Malta boards
p598
ss(Vimage
p599
g574
NV4kc-malta
p600
tp601
(dp602
Vconfigs
p603
(lp604
Vkernelarch-mips/config.malta
p605
aVkernelarch-mips/config.mips32r2
p606
ass(Vdescription
p607
g574
NV5kc-malta
p608
tp609
(dp610
Vhardware
p611
VMIPS Malta (64-bit)
p612
sVhardware-long
p613
VMIPS Malta boards (64-bit)
p614
ss(Vimage
p615
g574
NV5kc-malta
p616
tp617
(dp618
Vconfigs
p619
(lp620
Vkernelarch-mips/config.malta
p621
aVkernelarch-mips/config.mips64r2
p622
ass(Vdescription
p623
g574
NVocteon
p624
tp625
(dp626
Vhardware
p627
VOcteon
p628
sVhardware-long
p629
VCavium Networks Octeon
p630
ss(Vimage
p631
g574
NVocteon
p632
tp633
(dp634
Vconfigs
p635
(lp636
Vkernelarch-mips/config.octeon
p637
ass(g183
g574
g153
tp638
(dp639
g186
(lp640
V4kc-malta
p641
aV5kc-malta
p642
aVocteon
p643
asg190
I01
ss(Vbase
p644
Vmips64
p645
tp646
(dp647
Vkernel-arch
p648
Vmips
p649
sg151
(lp650
g153
ass(Vbuild
p651
g645
tp652
(dp653
Vimage-file
p654
Vvmlinux
p655
sVsigned-modules
p656
I00
ss(Vimage
p657
g645
tp658
(dp659
Vinstall-stem
p660
Vvmlinux
p661
ss(Vdescription
p662
g645
NV5kc-malta
p663
tp664
(dp665
Vhardware
p666
VMIPS Malta
p667
sVhardware-long
p668
VMIPS Malta boards
p669
ss(Vimage
p670
g645
NV5kc-malta
p671
tp672
(dp673
Vconfigs
p674
(lp675
Vkernelarch-mips/config.malta
p676
aVkernelarch-mips/config.mips64r2
p677
ass(Vdescription
p678
g645
NVocteon
p679
tp680
(dp681
Vhardware
p682
VOcteon
p683
sVhardware-long
p684
VCavium Networks Octeon
p685
ss(Vimage
p686
g645
NVocteon
p687
tp688
(dp689
Vconfigs
p690
(lp691
Vkernelarch-mips/config.octeon
p692
ass(g183
g645
g153
tp693
(dp694
g186
(lp695
V5kc-malta
p696
aVocteon
p697
asg190
I01
ss(Vbase
p698
Vmips64el
p699
tp700
(dp701
Vkernel-arch
p702
Vmips
p703
sg151
(lp704
g153
ass(Vbuild
p705
g699
tp706
(dp707
Vimage-file
p708
Vvmlinux
p709
sVsigned-modules
p710
I00
ss(Vimage
p711
g699
tp712
(dp713
Vinstall-stem
p714
Vvmlinux
p715
ss(Vdescription
p716
g699
NV5kc-malta
p717
tp718
(dp719
Vhardware
p720
VMIPS Malta
p721
sVhardware-long
p722
VMIPS Malta boards
p723
ss(Vimage
p724
g699
NV5kc-malta
p725
tp726
(dp727
Vconfigs
p728
(lp729
Vkernelarch-mips/config.malta
p730
aVkernelarch-mips/config.mips64r2
p731
ass(Vdescription
p732
g699
NVloongson-3
p733
tp734
(dp735
Vhardware
p736
VLoongson 3A/3B
p737
sVhardware-long
p738
VLoongson 3A or 3B based systems (e.g. from Loongson or Lemote)
p739
ss(Vimage
p740
g699
NVloongson-3
p741
tp742
(dp743
Vconfigs
p744
(lp745
Vkernelarch-mips/config.loongson-3
p746
ass(Vdescription
p747
g699
NVocteon
p748
tp749
(dp750
Vhardware
p751
VOcteon
p752
sVhardware-long
p753
VCavium Networks Octeon
p754
ss(Vimage
p755
g699
NVocteon
p756
tp757
(dp758
Vconfigs
p759
(lp760
Vkernelarch-mips/config.octeon
p761
ass(g183
g699
g153
tp762
(dp763
g186
(lp764
V5kc-malta
p765
aVloongson-3
p766
aVocteon
p767
asg190
I01
ss(Vbase
p768
Vmips64r6
p769
tp770
(dp771
Vkernel-arch
p772
Vmips
p773
sg151
(lp774
g153
ass(Vbuild
p775
g769
tp776
(dp777
Vimage-file
p778
Vvmlinux
p779
sVsigned-modules
p780
I00
ss(Vimage
p781
g769
tp782
(dp783
Vinstall-stem
p784
Vvmlinux
p785
ss(Vdescription
p786
g769
NVmips64r6
p787
tp788
(dp789
Vhardware
p790
VMIPS R6 (64 bit, big endian)
p791
sVhardware-long
p792
VMIPS R6 (64 bit, big endian)
p793
ss(Vimage
p794
g769
NVmips64r6
p795
tp796
(dp797
Vconfigs
p798
(lp799
Vkernelarch-mips/config.malta
p800
aVkernelarch-mips/config.mips64r6
p801
ass(g183
g769
g153
tp802
(dp803
g186
(lp804
Vmips64r6
p805
asg190
I01
ss(Vbase
p806
Vmips64r6el
p807
tp808
(dp809
Vkernel-arch
p810
Vmips
p811
sg151
(lp812
g153
ass(Vbuild
p813
g807
tp814
(dp815
Vimage-file
p816
Vvmlinux
p817
sVsigned-modules
p818
I00
ss(Vimage
p819
g807
tp820
(dp821
Vinstall-stem
p822
Vvmlinux
p823
ss(Vdescription
p824
g807
NVmips64r6el
p825
tp826
(dp827
Vhardware
p828
VMIPS R6 (64 bit, little endian)
p829
sVhardware-long
p830
VMIPS R6 (64 bit, little endian)
p831
ss(Vimage
p832
g807
NVmips64r6el
p833
tp834
(dp835
Vconfigs
p836
(lp837
Vkernelarch-mips/config.malta
p838
aVkernelarch-mips/config.mips64r6
p839
ass(g183
g807
g153
tp840
(dp841
g186
(lp842
Vmips64r6el
p843
asg190
I01
ss(Vbase
p844
Vmipsel
p845
tp846
(dp847
Vkernel-arch
p848
Vmips
p849
sg151
(lp850
g153
ass(Vbuild
p851
g845
tp852
(dp853
Vimage-file
p854
Vvmlinux
p855
sVsigned-modules
p856
I00
ss(Vimage
p857
g845
tp858
(dp859
Vinstall-stem
p860
Vvmlinux
p861
ss(Vdescription
p862
g845
NV4kc-malta
p863
tp864
(dp865
Vhardware
p866
VMIPS Malta
p867
sVhardware-long
p868
VMIPS Malta boards
p869
ss(Vimage
p870
g845
NV4kc-malta
p871
tp872
(dp873
Vconfigs
p874
(lp875
Vkernelarch-mips/config.malta
p876
aVkernelarch-mips/config.mips32r2
p877
ass(Vdescription
p878
g845
NV5kc-malta
p879
tp880
(dp881
Vhardware
p882
VMIPS Malta (64-bit)
p883
sVhardware-long
p884
VMIPS Malta boards (64-bit)
p885
ss(Vimage
p886
g845
NV5kc-malta
p887
tp888
(dp889
Vconfigs
p890
(lp891
Vkernelarch-mips/config.malta
p892
aVkernelarch-mips/config.mips64r2
p893
ass(Vdescription
p894
g845
NVloongson-3
p895
tp896
(dp897
Vhardware
p898
VLoongson 3A/3B
p899
sVhardware-long
p900
VLoongson 3A or 3B based systems (e.g. from Loongson or Lemote)
p901
ss(Vimage
p902
g845
NVloongson-3
p903
tp904
(dp905
Vconfigs
p906
(lp907
Vkernelarch-mips/config.loongson-3
p908
ass(Vdescription
p909
g845
NVocteon
p910
tp911
(dp912
Vhardware
p913
VOcteon
p914
sVhardware-long
p915
VCavium Networks Octeon
p916
ss(Vimage
p917
g845
NVocteon
p918
tp919
(dp920
Vconfigs
p921
(lp922
Vkernelarch-mips/config.octeon
p923
ass(g183
g845
g153
tp924
(dp925
g186
(lp926
V4kc-malta
p927
aV5kc-malta
p928
aVloongson-3
p929
aVocteon
p930
asg190
I01
ss(Vbase
p931
Vmipsn32
p932
tp933
(dp934
Vkernel-arch
p935
Vmips
p936
sVfeaturesets
p937
(lp938
ss(Vbase
p939
Vmipsn32el
p940
tp941
(dp942
Vkernel-arch
p943
Vmips
p944
sVfeaturesets
p945
(lp946
ss(Vbase
p947
Vmipsn32r6
p948
tp949
(dp950
Vkernel-arch
p951
Vmips
p952
sVfeaturesets
p953
(lp954
ss(Vbase
p955
Vmipsn32r6el
p956
tp957
(dp958
Vkernel-arch
p959
Vmips
p960
sVfeaturesets
p961
(lp962
ss(Vbase
p963
Vmipsr6
p964
tp965
(dp966
Vkernel-arch
p967
Vmips
p968
sg151
(lp969
g153
ass(Vbuild
p970
g964
tp971
(dp972
Vimage-file
p973
Vvmlinux
p974
sVsigned-modules
p975
I00
ss(Vimage
p976
g964
tp977
(dp978
Vinstall-stem
p979
Vvmlinux
p980
ss(Vdescription
p981
g964
NVmips32r6
p982
tp983
(dp984
Vhardware
p985
VMIPS R6 (32 bit, big endian)
p986
sVhardware-long
p987
VMIPS R6 (32 bit, big endian)
p988
ss(Vimage
p989
g964
NVmips32r6
p990
tp991
(dp992
Vconfigs
p993
(lp994
Vkernelarch-mips/config.malta
p995
aVkernelarch-mips/config.mips32r6
p996
ass(Vdescription
p997
g964
NVmips64r6
p998
tp999
(dp1000
Vhardware
p1001
VMIPS R6 (64 bit, big endian)
p1002
sVhardware-long
p1003
VMIPS R6 (64 bit, big endian)
p1004
ss(Vimage
p1005
g964
NVmips64r6
p1006
tp1007
(dp1008
Vconfigs
p1009
(lp1010
Vkernelarch-mips/config.malta
p1011
aVkernelarch-mips/config.mips64r6
p1012
ass(g183
g964
g153
tp1013
(dp1014
g186
(lp1015
Vmips32r6
p1016
aVmips64r6
p1017
asg190
I01
ss(Vbase
p1018
Vmipsr6el
p1019
tp1020
(dp1021
Vkernel-arch
p1022
Vmips
p1023
sg151
(lp1024
g153
ass(Vbuild
p1025
g1019
tp1026
(dp1027
Vimage-file
p1028
Vvmlinux
p1029
sVsigned-modules
p1030
I00
ss(Vimage
p1031
g1019
tp1032
(dp1033
Vinstall-stem
p1034
Vvmlinux
p1035
ss(Vdescription
p1036
g1019
NVmips32r6el
p1037
tp1038
(dp1039
Vhardware
p1040
VMIPS R6 (32 bit, little endian)
p1041
sVhardware-long
p1042
VMIPS R6 (32 bit, little endian)
p1043
ss(Vimage
p1044
g1019
NVmips32r6el
p1045
tp1046
(dp1047
Vconfigs
p1048
(lp1049
Vkernelarch-mips/config.malta
p1050
aVkernelarch-mips/config.mips32r6
p1051
ass(Vdescription
p1052
g1019
NVmips64r6el
p1053
tp1054
(dp1055
Vhardware
p1056
VMIPS R6 (64 bit, little endian)
p1057
sVhardware-long
p1058
VMIPS R6 (64 bit, little endian)
p1059
ss(Vimage
p1060
g1019
NVmips64r6el
p1061
tp1062
(dp1063
Vconfigs
p1064
(lp1065
Vkernelarch-mips/config.malta
p1066
aVkernelarch-mips/config.mips64r6
p1067
ass(g183
g1019
g153
tp1068
(dp1069
g186
(lp1070
Vmips32r6el
p1071
aVmips64r6el
p1072
asg190
I01
ss(Vbase
p1073
Vpowerpc
p1074
tp1075
(dp1076
Vkernel-arch
p1077
Vpowerpc
p1078
sg151
(lp1079
g153
ass(Vbuild
p1080
g1074
tp1081
(dp1082
Vimage-file
p1083
Vvmlinux
p1084
sVvdso
p1085
I01
ss(Vimage
p1086
g1074
tp1087
(dp1088
Vconfigs
p1089
(lp1090
sVsuggests
p1091
Vmkvmlinuz
p1092
sVinstall-stem
p1093
Vvmlinux
p1094
ss(Vdescription
p1095
g1074
NVpowerpc
p1096
tp1097
(dp1098
Vhardware
p1099
Vuniprocessor 32-bit PowerPC
p1100
ss(Vdescription
p1101
g1074
NVpowerpc-smp
p1102
tp1103
(dp1104
Vhardware
p1105
Vmultiprocessor 32-bit PowerPC
p1106
ss(Vimage
p1107
g1074
NVpowerpc-smp
p1108
tp1109
(dp1110
Vconfigs
p1111
(lp1112
Vpowerpc/config.powerpc
p1113
aVpowerpc/config.powerpc-smp
p1114
ass(Vdescription
p1115
g1074
NVpowerpc64
p1116
tp1117
(dp1118
Vhardware
p1119
V64-bit PowerPC
p1120
ss(Vimage
p1121
g1074
NVpowerpc64
p1122
tp1123
(dp1124
Vconfigs
p1125
(lp1126
Vkernelarch-powerpc/config-arch-64
p1127
aVkernelarch-powerpc/config-arch-64-be
p1128
ass(g183
g1074
g153
tp1129
(dp1130
g186
(lp1131
Vpowerpc
p1132
aVpowerpc-smp
p1133
aVpowerpc64
p1134
asg190
I01
ss(Vbase
p1135
Vpowerpcspe
p1136
tp1137
(dp1138
Vkernel-arch
p1139
Vpowerpc
p1140
sg151
(lp1141
g153
ass(Vbuild
p1142
g1136
tp1143
(dp1144
Vimage-file
p1145
Vvmlinux
p1146
sVsigned-modules
p1147
I00
sVvdso
p1148
I01
ss(Vimage
p1149
g1136
tp1150
(dp1151
Vsuggests
p1152
Vmkvmlinuz
p1153
sVinstall-stem
p1154
Vvmlinux
p1155
ss(Vdescription
p1156
g1136
tp1157
(dp1158
Vhardware
p1159
V32-bit PowerPC with SPE (instead of AltiVec) with SMP support
p1160
ss(g183
g1136
g153
tp1161
(dp1162
g186
(lp1163
Vpowerpcspe
p1164
asg190
I01
ss(Vbase
p1165
Vppc64
p1166
tp1167
(dp1168
Vkernel-arch
p1169
Vpowerpc
p1170
sg151
(lp1171
g153
ass(Vbuild
p1172
g1166
tp1173
(dp1174
Vimage-file
p1175
Vvmlinux
p1176
sVsigned-modules
p1177
I00
sVvdso
p1178
I01
ss(Vimage
p1179
g1166
tp1180
(dp1181
Vconfigs
p1182
(lp1183
sVsuggests
p1184
Vmkvmlinuz
p1185
sVinstall-stem
p1186
Vvmlinux
p1187
ss(Vdescription
p1188
g1166
NVpowerpc64
p1189
tp1190
(dp1191
Vhardware
p1192
V64-bit PowerPC
p1193
ss(Vimage
p1194
g1166
NVpowerpc64
p1195
tp1196
(dp1197
Vconfigs
p1198
(lp1199
Vkernelarch-powerpc/config-arch-64
p1200
aVkernelarch-powerpc/config-arch-64-be
p1201
ass(g183
g1166
g153
tp1202
(dp1203
g186
(lp1204
Vpowerpc64
p1205
asg190
I01
ss(Vbase
p1206
Vppc64el
p1207
tp1208
(dp1209
Vkernel-arch
p1210
Vpowerpc
p1211
sg151
(lp1212
g153
ass(Vbuild
p1213
g1207
tp1214
(dp1215
Vimage-file
p1216
Vvmlinux
p1217
sVvdso
p1218
I01
ss(Vimage
p1219
g1207
tp1220
(dp1221
Vconfigs
p1222
(lp1223
sVsuggests
p1224
Vmkvmlinuz
p1225
sVinstall-stem
p1226
Vvmlinux
p1227
ss(Vdescription
p1228
g1207
NVpowerpc64le
p1229
tp1230
(dp1231
Vhardware
p1232
VLittle-endian 64-bit PowerPC
p1233
ss(Vimage
p1234
g1207
NVpowerpc64le
p1235
tp1236
(dp1237
Vconfigs
p1238
(lp1239
Vkernelarch-powerpc/config-arch-64
p1240
aVkernelarch-powerpc/config-arch-64-le
p1241
ass(g183
g1207
g153
tp1242
(dp1243
g186
(lp1244
Vpowerpc64le
p1245
asg190
I01
ss(Vbase
p1246
Vs390
p1247
tp1248
(dp1249
Vkernel-arch
p1250
Vs390
p1251
sVfeaturesets
p1252
(lp1253
ss(Vbase
p1254
Vs390x
p1255
tp1256
(dp1257
Vkernel-arch
p1258
Vs390
p1259
sg151
(lp1260
g153
ass(Vbuild
p1261
g1255
tp1262
(dp1263
Vimage-file
p1264
Varch/s390/boot/image
p1265
sVvdso
p1266
I01
ss(Vimage
p1267
g1255
tp1268
(dp1269
Vbootloaders
p1270
(lp1271
Vs390-tools
p1272
asVinstall-stem
p1273
Vvmlinuz
p1274
ss(Vrelations
p1275
g1255
tp1276
(dp1277
Vheaders%gcc-7
p1278
Vlinux-compiler-gcc-7-s390
p1279
ss(Vbuild
p1280
g1255
NVs390x
p1281
tp1282
(dp1283
Vdebug-info
p1284
I01
ss(Vdescription
p1285
g1255
NVs390x
p1286
tp1287
(dp1288
Vhardware
p1289
VIBM zSeries
p1290
ss(g183
g1255
g153
tp1291
(dp1292
g186
(lp1293
Vs390x
p1294
asg190
I01
ss(Vbase
p1295
Vsh3
p1296
tp1297
(dp1298
Vkernel-arch
p1299
Vsh
p1300
sVfeaturesets
p1301
(lp1302
ss(Vbase
p1303
Vsh4
p1304
tp1305
(dp1306
Vkernel-arch
p1307
Vsh
p1308
sg151
(lp1309
g153
ass(Vbuild
p1310
g1304
tp1311
(dp1312
Vimage-file
p1313
Varch/sh/boot/zImage
p1314
sVsigned-modules
p1315
I00
ss(Vimage
p1316
g1304
tp1317
(dp1318
Vinstall-stem
p1319
Vvmlinuz
p1320
ss(Vdescription
p1321
g1304
NVsh7751r
p1322
tp1323
(dp1324
Vhardware
p1325
Vsh7751r
p1326
sVhardware-long
p1327
VRenesas SH7751R R2D plus board
p1328
ss(Vdescription
p1329
g1304
NVsh7785lcr
p1330
tp1331
(dp1332
Vhardware
p1333
Vsh7785lcr
p1334
sVhardware-long
p1335
VRenesas SH7785 reference board
p1336
ss(Vimage
p1337
g1304
NVsh7785lcr
p1338
tp1339
(dp1340
Vrecommends
p1341
Vu-boot-tools
p1342
sVcheck-size
p1343
L4194304L
ss(g183
g1304
g153
tp1344
(dp1345
g186
(lp1346
Vsh7751r
p1347
aVsh7785lcr
p1348
asg190
I01
ss(Vbase
p1349
Vsparc
p1350
tp1351
(dp1352
Vkernel-arch
p1353
Vsparc
p1354
sVfeaturesets
p1355
(lp1356
ss(Vbase
p1357
Vsparc64
p1358
tp1359
(dp1360
Vkernel-arch
p1361
Vsparc
p1362
sg151
(lp1363
g153
ass(Vbuild
p1364
g1358
tp1365
(dp1366
Vimage-file
p1367
Varch/sparc/boot/zImage
p1368
sVsigned-modules
p1369
I00
ss(Vimage
p1370
g1358
tp1371
(dp1372
Vconfigs
p1373
(lp1374
sVsuggests
p1375
Vsilo, fdutils
p1376
sVinstall-stem
p1377
Vvmlinuz
p1378
ss(Vdescription
p1379
g1358
NVsparc64
p1380
tp1381
(dp1382
Vhardware
p1383
Vuniprocessor 64-bit UltraSPARC
p1384
ss(Vimage
p1385
g1358
NVsparc64
p1386
tp1387
(dp1388
Vconfigs
p1389
(lp1390
Vkernelarch-sparc/config-up
p1391
ass(Vdescription
p1392
g1358
NVsparc64-smp
p1393
tp1394
(dp1395
Vhardware
p1396
Vmultiprocessor 64-bit UltraSPARC
p1397
ss(Vimage
p1398
g1358
NVsparc64-smp
p1399
tp1400
(dp1401
Vconfigs
p1402
(lp1403
Vkernelarch-sparc/config-smp
p1404
ass(g183
g1358
g153
tp1405
(dp1406
g186
(lp1407
Vsparc64
p1408
aVsparc64-smp
p1409
asg190
I01
ss(Vbase
p1410
Vtilegx
p1411
tp1412
(dp1413
Vkernel-arch
p1414
Vtile
p1415
sVfeaturesets
p1416
(lp1417
ss(Vbase
p1418
Vx32
p1419
tp1420
(dp1421
Vkernel-arch
p1422
Vx86
p1423
sVfeaturesets
p1424
(lp1425
ss(Vabi
p1426
NVrt
p1427
tp1428
(dp1429
Vignore-changes
p1430
(lp1431
V*
p1432
ass(Vdescription
p1433
Ng1427
tp1434
(dp1435
Vpart-long-rt
p1436
VThis kernel includes the PREEMPT_RT realtime patch set.
p1437
sVpart-short-rt
p1438
VPREEMPT_RT
p1439
sVparts
p1440
(lp1441
Vrt
p1442
ass(Vversion
p1443
tp1444
(dp1445
Vsource
p1446
V4.15.4-1
p1447
sVupstream
p1448
V4.15
p1449
sVabiname_base
p1450
V4.15.0
p1451
sVabiname
p1452
V4.15.0-1
p1453
ss.