ccopy_reg
_reconstructor
p0
(cdebian_linux.config
ConfigCore
p1
c__builtin__
dict
p2
(dp3
(S'description'
p4
S'i386'
p5
NS'amd64'
p6
tp7
(dp8
S'hardware'
p9
S'64-bit PCs'
p10
sS'parts'
p11
(lp12
S'xen'
p13
asS'hardware-long'
p14
S'PCs with AMD64, Intel 64 or VIA Nano processors'
p15
ss(S'image'
p16
S'amd64'
p17
tp18
(dp19
S'install-stem'
p20
S'vmlinuz'
p21
sS'configs'
p22
(lp23
sS'bootloaders'
p24
(lp25
S'grub-pc'
p26
aS'grub-efi'
p27
aS'extlinux'
p28
ass(S'image'
p29
S'sparc64'
p30
NS'sparc64-smp'
p31
tp32
(dp33
S'configs'
p34
(lp35
S'kernelarch-sparc/config-smp'
p36
ass(S'description'
p37
S'ppc64el'
p38
NS'powerpc64le'
p39
tp40
(dp41
S'hardware'
p42
S'Little-endian 64-bit PowerPC'
p43
ss(S'base'
p44
g17
S'none'
p45
tp46
(dp47
S'flavours'
p48
(lp49
S'amd64'
p50
ass(S'abi'
p51
S'armel'
p52
NS'ixp4xx'
p53
tp54
(dp55
S'ignore-changes'
p56
(lp57
S'__ring_buffer_alloc'
p58
aS'dcookie_register'
p59
aS'dcookie_unregister'
p60
aS'get_dcookie'
p61
aS'prof_on'
p62
aS'profile_event_register'
p63
aS'profile_event_unregister'
p64
aS'profile_hits'
p65
aS'ring_buffer_alloc_read_page'
p66
aS'ring_buffer_bytes_cpu'
p67
aS'ring_buffer_change_overwrite'
p68
aS'ring_buffer_commit_overrun_cpu'
p69
aS'ring_buffer_consume'
p70
aS'ring_buffer_discard_commit'
p71
aS'ring_buffer_dropped_events_cpu'
p72
aS'ring_buffer_empty'
p73
aS'ring_buffer_empty_cpu'
p74
aS'ring_buffer_entries'
p75
aS'ring_buffer_entries_cpu'
p76
aS'ring_buffer_event_data'
p77
aS'ring_buffer_event_length'
p78
aS'ring_buffer_free'
p79
aS'ring_buffer_free_read_page'
p80
aS'ring_buffer_iter_empty'
p81
aS'ring_buffer_iter_peek'
p82
aS'ring_buffer_iter_reset'
p83
aS'ring_buffer_lock_reserve'
p84
aS'ring_buffer_normalize_time_stamp'
p85
aS'ring_buffer_oldest_event_ts'
p86
aS'ring_buffer_overrun_cpu'
p87
aS'ring_buffer_overruns'
p88
aS'ring_buffer_peek'
p89
aS'ring_buffer_read'
p90
aS'ring_buffer_read_events_cpu'
p91
aS'ring_buffer_read_finish'
p92
aS'ring_buffer_read_page'
p93
aS'ring_buffer_read_prepare'
p94
aS'ring_buffer_read_prepare_sync'
p95
aS'ring_buffer_read_start'
p96
aS'ring_buffer_record_disable'
p97
aS'ring_buffer_record_disable_cpu'
p98
aS'ring_buffer_record_enable'
p99
aS'ring_buffer_record_enable_cpu'
p100
aS'ring_buffer_record_off'
p101
aS'ring_buffer_record_on'
p102
aS'ring_buffer_reset'
p103
aS'ring_buffer_reset_cpu'
p104
aS'ring_buffer_resize'
p105
aS'ring_buffer_size'
p106
aS'ring_buffer_swap_cpu'
p107
aS'ring_buffer_time_stamp'
p108
aS'ring_buffer_unlock_commit'
p109
aS'ring_buffer_write'
p110
aS'task_handoff_register'
p111
aS'task_handoff_unregister'
p112
aS'trace_clock_local'
p113
ass(S'description'
p114
S'sparc'
p115
NS'sparc64'
p116
tp117
(dp118
S'hardware'
p119
S'uniprocessor 64-bit UltraSPARC'
p120
ss(S'image'
p121
S'ia64'
p122
tp123
(dp124
S'suggests'
p125
S'fdutils'
p126
sS'bootloaders'
p127
(lp128
S'elilo'
p129
asS'install-stem'
p130
S'vmlinuz'
p131
ss(S'image'
p132
S'mips'
p133
NS'r5k-ip32'
p134
tp135
(dp136
S'configs'
p137
(lp138
S'kernelarch-mips/config.r5k-ip32'
p139
ass(S'image'
p140
g5
NS'586'
p141
tp142
(dp143
S'configs'
p144
(lp145
S'kernelarch-x86/config-arch-32'
p146
aS'i386/config.586'
p147
ass(S'image'
p148
S'powerpc'
p149
NS'powerpc-smp'
p150
tp151
(dp152
S'configs'
p153
(lp154
S'powerpc/config.powerpc'
p155
aS'powerpc/config.powerpc-smp'
p156
ass(S'image'
p157
S'mips64'
p158
NS'5kc-malta'
p159
tp160
(dp161
S'configs'
p162
(lp163
S'kernelarch-mips/config.5kc-malta'
p164
ass(S'description'
p165
g17
g45
S'amd64'
p166
tp167
(dp168
S'parts'
p169
(lp170
S'xen'
p171
ass(S'description'
p172
S'sh4'
p173
NS'sh7785lcr'
p174
tp175
(dp176
S'hardware'
p177
S'sh7785lcr'
p178
sS'hardware-long'
p179
S'Renesas SH7785 reference board'
p180
ss(S'base'
p181
S'ppc64'
p182
S'none'
p183
tp184
(dp185
S'implicit-flavour'
p186
I01
sS'flavours'
p187
(lp188
S'powerpc64'
p189
ass(S'image'
p190
g133
NS'r4k-ip22'
p191
tp192
(dp193
S'configs'
p194
(lp195
S'kernelarch-mips/config.r4k-ip22'
p196
ass(S'image'
p197
g52
NS'kirkwood'
p198
tp199
(dp200
S'check-size'
p201
S'2097080'
p202
sS'breaks'
p203
S'flash-kernel (<< 3.14~)'
p204
sS'recommends'
p205
S'u-boot-tools'
p206
ss(S'description'
p207
S'm68k'
p208
NS'm68k'
p209
tp210
(dp211
S'hardware'
p212
S'Motorola MC68020+ family'
p213
ss(S'abi'
p214
g52
NS'orion5x'
p215
tp216
(dp217
S'ignore-changes'
p218
(lp219
S'__ring_buffer_alloc'
p220
aS'dcookie_register'
p221
aS'dcookie_unregister'
p222
aS'get_dcookie'
p223
aS'prof_on'
p224
aS'profile_event_register'
p225
aS'profile_event_unregister'
p226
aS'profile_hits'
p227
aS'ring_buffer_alloc_read_page'
p228
aS'ring_buffer_bytes_cpu'
p229
aS'ring_buffer_change_overwrite'
p230
aS'ring_buffer_commit_overrun_cpu'
p231
aS'ring_buffer_consume'
p232
aS'ring_buffer_discard_commit'
p233
aS'ring_buffer_dropped_events_cpu'
p234
aS'ring_buffer_empty'
p235
aS'ring_buffer_empty_cpu'
p236
aS'ring_buffer_entries'
p237
aS'ring_buffer_entries_cpu'
p238
aS'ring_buffer_event_data'
p239
aS'ring_buffer_event_length'
p240
aS'ring_buffer_free'
p241
aS'ring_buffer_free_read_page'
p242
aS'ring_buffer_iter_empty'
p243
aS'ring_buffer_iter_peek'
p244
aS'ring_buffer_iter_reset'
p245
aS'ring_buffer_lock_reserve'
p246
aS'ring_buffer_normalize_time_stamp'
p247
aS'ring_buffer_oldest_event_ts'
p248
aS'ring_buffer_overrun_cpu'
p249
aS'ring_buffer_overruns'
p250
aS'ring_buffer_peek'
p251
aS'ring_buffer_read'
p252
aS'ring_buffer_read_events_cpu'
p253
aS'ring_buffer_read_finish'
p254
aS'ring_buffer_read_page'
p255
aS'ring_buffer_read_prepare'
p256
aS'ring_buffer_read_prepare_sync'
p257
aS'ring_buffer_read_start'
p258
aS'ring_buffer_record_disable'
p259
aS'ring_buffer_record_disable_cpu'
p260
aS'ring_buffer_record_enable'
p261
aS'ring_buffer_record_enable_cpu'
p262
aS'ring_buffer_record_off'
p263
aS'ring_buffer_record_on'
p264
aS'ring_buffer_reset'
p265
aS'ring_buffer_reset_cpu'
p266
aS'ring_buffer_resize'
p267
aS'ring_buffer_size'
p268
aS'ring_buffer_swap_cpu'
p269
aS'ring_buffer_time_stamp'
p270
aS'ring_buffer_unlock_commit'
p271
aS'ring_buffer_write'
p272
aS'task_handoff_register'
p273
aS'task_handoff_unregister'
p274
aS'trace_clock_local'
p275
ass(S'image'
p276
g133
NS'sb1-bcm91250a'
p277
tp278
(dp279
S'configs'
p280
(lp281
S'kernelarch-mips/config.sb1-bcm91250a'
p282
ass(S'base'
p283
S'alpha'
p284
tp285
(dp286
S'kernel-arch'
p287
S'alpha'
p288
sS'featuresets'
p289
(lp290
g183
ass(S'base'
p291
NS'rt'
p292
tp293
(dp294
S'enabled'
p295
I00
ss(g181
S'armhf'
p296
g183
tp297
(dp298
g186
I01
sg187
(lp299
S'armmp'
p300
aS'armmp-lpae'
p301
ass(S'description'
p302
g17
NS'amd64'
p303
tp304
(dp305
S'hardware'
p306
S'64-bit PCs'
p307
sS'hardware-long'
p308
S'PCs with AMD64, Intel 64 or VIA Nano processors'
p309
ss(S'description'
p310
g133
NS'sb1-bcm91250a'
p311
tp312
(dp313
S'hardware'
p314
S'BCM91250A'
p315
sS'hardware-long'
p316
S'Broadcom BCM91250A systems (aka SWARM)'
p317
ss(S'base'
p318
g5
S'rt'
p319
tp320
(dp321
S'flavours'
p322
(lp323
S'686-pae'
p324
ass(g181
g208
g183
tp325
(dp326
g186
I01
sg187
(lp327
S'm68k'
p328
ass(S'image'
p329
g38
tp330
(dp331
S'suggests'
p332
S'mkvmlinuz'
p333
sS'configs'
p334
(lp335
sS'install-stem'
p336
S'vmlinux'
p337
ss(S'relations'
p338
g5
tp339
(dp340
S'headers%gcc-4.9'
p341
S'linux-compiler-gcc-4.9-x86 (>= 3.16.51-3+deb8u2~), linux-kbuild-3.16 (>= 3.16.56-1)'
p342
ss(S'image'
p343
g149
tp344
(dp345
S'suggests'
p346
S'mkvmlinuz'
p347
sS'configs'
p348
(lp349
sS'install-stem'
p350
S'vmlinux'
p351
ss(S'base'
p352
g17
S'rt'
p353
tp354
(dp355
S'flavours'
p356
(lp357
S'amd64'
p358
ass(S'description'
p359
g133
NS'r5k-ip32'
p360
tp361
(dp362
S'hardware'
p363
S'SGI IP32'
p364
sS'hardware-long'
p365
S'SGI IP32 systems (O2)'
p366
ss(S'build'
p367
g38
tp368
(dp369
S'image-file'
p370
S'vmlinux'
p371
ss(S'build'
p372
g182
tp373
(dp374
S'image-file'
p375
S'vmlinux'
p376
ss(S'description'
p377
g5
S'none'
p378
S'amd64'
p379
tp380
(dp381
S'parts'
p382
(lp383
S'xen'
p384
ass(S'base'
p385
S'arm64'
p386
tp387
(dp388
S'kernel-arch'
p389
S'arm64'
p390
sS'featuresets'
p391
(lp392
S'none'
p393
ass(S'base'
p394
g5
tp395
(dp396
S'kernel-arch'
p397
S'x86'
p398
sS'featuresets'
p399
(lp400
S'none'
p401
aS'rt'
p402
asS'compiler'
p403
S'gcc-4.9'
p404
ss(S'base'
p405
S'mipsel'
p406
tp407
(dp408
S'kernel-arch'
p409
S'mips'
p410
sg289
(lp411
g183
ass(S'relations'
p412
g17
tp413
(dp414
S'headers%gcc-4.9'
p415
S'linux-compiler-gcc-4.9-x86 (>= 3.16.51-3+deb8u2~), linux-kbuild-3.16 (>= 3.16.56-1)'
p416
ss(g181
S'hppa'
p417
g183
tp418
(dp419
g186
I01
sg187
(lp420
S'parisc'
p421
aS'parisc64-smp'
p422
ass(S'description'
p423
g52
NS'kirkwood'
p424
tp425
(dp426
S'hardware'
p427
S'Marvell Kirkwood'
p428
sS'hardware-long'
p429
S'Marvell Kirkwood based systems (SheevaPlug, QNAP TS-119/TS-219, etc)'
p430
ss(S'base'
p431
g417
tp432
(dp433
S'kernel-arch'
p434
S'parisc'
p435
sg289
(lp436
g183
ass(S'image'
p437
g115
NS'sparc64-smp'
p438
tp439
(dp440
S'configs'
p441
(lp442
S'kernelarch-sparc/config-smp'
p443
ass(S'relations'
p444
S's390'
p445
tp446
(dp447
S'headers%gcc-4.8'
p448
S'linux-compiler-gcc-4.8-s390'
p449
ss(S'base'
p450
g417
NS'parisc64-smp'
p451
tp452
(dp453
S'override-host-type'
p454
S'hppa64-linux-gnu'
p455
sS'cflags'
p456
S'-fno-cse-follow-jumps'
p457
ss(S'description'
p458
g149
NS'powerpc64'
p459
tp460
(dp461
S'hardware'
p462
S'64-bit PowerPC'
p463
ss(S'image'
p464
S's390x'
p465
NS's390x'
p466
tp467
(dp468
S'configs'
p469
(lp470
S'kernelarch-s390/config-arch-64'
p471
ass(S'relations'
p472
tp473
(dp474
S'gcc-4.9'
p475
S'gcc-4.9 (>= 4.9.2-10+deb7u1), gcc-4.9 (<< 4.9.2-11)'
p476
sS'gcc-4.8'
p477
S'gcc-4.8'
p478
sS'initramfs-fallback'
p479
S'linux-initramfs-tool'
p480
sS'gcc-4.7'
p481
S'gcc-4.7'
p482
sS'gcc-4.6'
p483
S'gcc-4.6'
p484
sS'gcc-4.4'
p485
S'gcc-4.4'
p486
sS'initramfs-tools'
p487
S'initramfs-tools (>= 0.110~)'
p488
ss(S'description'
p489
g133
NS'4kc-malta'
p490
tp491
(dp492
S'hardware'
p493
S'MIPS Malta'
p494
sS'hardware-long'
p495
S'MIPS Malta boards'
p496
ss(S'image'
p497
g296
NS'armmp-lpae'
p498
tp499
(dp500
S'configs'
p501
(lp502
S'armhf/config.armmp'
p503
aS'armhf/config.lpae'
p504
ass(S'build'
p505
S'powerpcspe'
p506
tp507
(dp508
S'image-file'
p509
S'vmlinux'
p510
ss(g181
g173
g183
tp511
(dp512
g186
I01
sg187
(lp513
S'sh7751r'
p514
aS'sh7785lcr'
p515
ass(S'build'
p516
g417
tp517
(dp518
S'image-file'
p519
S'vmlinux'
p520
ss(S'build'
p521
S'mips64el'
p522
tp523
(dp524
S'image-file'
p525
S'vmlinux'
p526
ss(S'base'
p527
g296
tp528
(dp529
S'kernel-arch'
p530
S'arm'
p531
sg289
(lp532
g183
ass(S'image'
p533
g406
NS'sb1-bcm91250a'
p534
tp535
(dp536
S'configs'
p537
(lp538
S'kernelarch-mips/config.sb1-bcm91250a'
p539
ass(S'description'
p540
g465
NS's390x'
p541
tp542
(dp543
S'hardware'
p544
S'IBM zSeries'
p545
ss(S'description'
p546
g406
NS'4kc-malta'
p547
tp548
(dp549
S'hardware'
p550
S'MIPS Malta'
p551
sS'hardware-long'
p552
S'MIPS Malta boards'
p553
ss(S'base'
p554
g52
tp555
(dp556
S'kernel-arch'
p557
S'arm'
p558
sg289
(lp559
g183
ass(S'description'
p560
g386
NS'arm64'
p561
tp562
(dp563
S'hardware'
p564
S'64-bit ARMv8 machines'
p565
ss(S'build'
p566
g386
tp567
(dp568
S'debug-info'
p569
I01
sS'image-file'
p570
S'arch/arm64/boot/Image'
p571
ss(S'base'
p572
g115
tp573
(dp574
S'kernel-arch'
p575
S'sparc'
p576
sg289
(lp577
g183
ass(S'base'
p578
g506
tp579
(dp580
S'kernel-arch'
p581
S'powerpc'
p582
sg289
(lp583
g183
ass(S'description'
p584
g52
NS'orion5x'
p585
tp586
(dp587
S'hardware'
p588
S'Marvell Orion'
p589
sS'hardware-long'
p590
S'Marvell Orion 5181, 5182 and 5281 based systems (QNAP TS-109/TS-209, etc)'
p591
ss(S'image'
p592
g522
NS'octeon'
p593
tp594
(dp595
S'configs'
p596
(lp597
S'kernelarch-mips/config.octeon'
p598
ass(S'image'
p599
g5
NS'amd64'
p600
tp601
(dp602
S'configs'
p603
(lp604
S'kernelarch-x86/config-arch-64'
p605
asS'recommends'
p606
S'libc6-i686'
p607
ss(g181
g445
g183
tp608
(dp609
g186
I01
sg187
(lp610
S's390x'
p611
ass(S'build'
p612
g133
tp613
(dp614
S'image-file'
p615
S'vmlinux'
p616
ss(S'base'
p617
S'or1k'
p618
tp619
(dp620
S'kernel-arch'
p621
S'openrisc'
p622
sS'featuresets'
p623
(lp624
ss(g181
g465
g183
tp625
(dp626
g186
I01
sg187
(lp627
S's390x'
p628
ass(S'base'
p629
g133
tp630
(dp631
S'kernel-arch'
p632
S'mips'
p633
sg289
(lp634
g183
ass(S'build'
p635
g17
tp636
(dp637
S'debug-info'
p638
I01
sS'image-file'
p639
S'arch/x86/boot/bzImage'
p640
ss(g181
g406
g183
tp641
(dp642
g186
I01
sg187
(lp643
S'sb1-bcm91250a'
p644
aS'4kc-malta'
p645
aS'5kc-malta'
p646
aS'loongson-2e'
p647
aS'loongson-2f'
p648
aS'loongson-3'
p649
ass(S'description'
p650
NS'rt'
p651
tp652
(dp653
S'part-long-rt'
p654
S'This kernel includes the PREEMPT_RT realtime patch set.'
p655
sS'parts'
p656
(lp657
S'rt'
p658
asS'part-short-rt'
p659
S'PREEMPT_RT'
p660
ss(S'build'
p661
g115
tp662
(dp663
S'image-file'
p664
S'arch/sparc/boot/zImage'
p665
ss(S'image'
p666
g406
tp667
(dp668
S'install-stem'
p669
S'vmlinux'
p670
ss(S'image'
p671
g115
NS'sparc64'
p672
tp673
(dp674
S'configs'
p675
(lp676
S'kernelarch-sparc/config-up'
p677
ass(S'description'
p678
g284
NS'alpha-smp'
p679
tp680
(dp681
S'hardware'
p682
S'Alpha SMP'
p683
sS'hardware-long'
p684
S'DEC Alpha SMP systems with extended kernel start address (Wildfire, Titan, Marvel)'
p685
ss(S'build'
p686
g465
NS's390x'
p687
tp688
(dp689
S'debug-info'
p690
I01
ss(S'build'
p691
g406
tp692
(dp693
S'image-file'
p694
S'vmlinux'
p695
ss(S'base'
p696
g158
tp697
(dp698
S'kernel-arch'
p699
S'mips'
p700
sg289
(lp701
g183
ass(S'base'
p702
g17
tp703
(dp704
S'kernel-arch'
p705
S'x86'
p706
sS'featuresets'
p707
(lp708
S'none'
p709
aS'rt'
p710
asS'compiler'
p711
S'gcc-4.9'
p712
ss(S'base'
p713
g122
tp714
(dp715
S'kernel-arch'
p716
S'ia64'
p717
sg289
(lp718
g183
asS'compiler'
p719
S'gcc-4.6'
p720
ss(S'image'
p721
g406
NS'loongson-2e'
p722
tp723
(dp724
S'configs'
p725
(lp726
S'kernelarch-mips/config.loongson-2e'
p727
ass(S'description'
p728
g5
NS'686-pae'
p729
tp730
(dp731
S'hardware'
p732
S'modern PCs'
p733
sS'parts'
p734
(lp735
S'pae'
p736
asS'hardware-long'
p737
S'PCs with one or more processors supporting PAE'
p738
ss(S'base'
p739
g445
tp740
(dp741
S'kernel-arch'
p742
S's390'
p743
sg289
(lp744
g183
ass(g181
g52
g183
tp745
(dp746
g186
I01
sg187
(lp747
S'ixp4xx'
p748
aS'kirkwood'
p749
aS'orion5x'
p750
aS'versatile'
p751
ass(S'description'
p752
g506
tp753
(dp754
S'hardware'
p755
S'32-bit PowerPC with SPE (instead of AltiVec) with SMP support'
p756
ss(S'description'
p757
g406
NS'loongson-2e'
p758
tp759
(dp760
S'hardware'
p761
S'Loongson 2E'
p762
sS'hardware-long'
p763
S'Lemote Loongson 2E systems'
p764
ss(S'description'
p765
g115
NS'sparc32'
p766
tp767
(dp768
S'hardware'
p769
S'uniprocessor sparc32 (sun4m)'
p770
ss(S'image'
p771
g133
NS'5kc-malta'
p772
tp773
(dp774
S'configs'
p775
(lp776
S'kernelarch-mips/config.5kc-malta'
p777
ass(S'description'
p778
g182
NS'powerpc64'
p779
tp780
(dp781
S'hardware'
p782
S'64-bit PowerPC'
p783
ss(S'image'
p784
g30
NS'sparc64'
p785
tp786
(dp787
S'configs'
p788
(lp789
S'kernelarch-sparc/config-up'
p790
ass(S'description'
p791
g5
tp792
(dp793
S'part-long-pae'
p794
S'This kernel requires PAE (Physical Address Extension).\nThis feature is supported by the Intel Pentium Pro/II/III/4/4M/D, Xeon,\nCore and Atom; AMD Geode NX, Athlon (K7), Duron, Opteron, Sempron,\nTurion or Phenom; Transmeta Efficeon; VIA C7; and some other processors.'
p795
ss(S'image'
p796
g296
tp797
(dp798
S'suggests'
p799
S'fdutils'
p800
sS'configs'
p801
(lp802
S'kernelarch-arm/config'
p803
aS'armhf/config'
p804
asS'install-stem'
p805
S'vmlinuz'
p806
ss(S'xen'
p807
g17
g45
S'amd64'
p808
tp809
(dp810
S'flavours'
p811
(lp812
S'amd64'
p813
ass(S'image'
p814
g52
tp815
(dp816
S'suggests'
p817
S'fdutils'
p818
sS'configs'
p819
(lp820
S'kernelarch-arm/config'
p821
aS'armel/config'
p822
asS'install-stem'
p823
S'vmlinuz'
p824
ss(S'image'
p825
g445
tp826
(dp827
S'install-stem'
p828
S'vmlinuz'
p829
sS'configs'
p830
(lp831
sS'bootloaders'
p832
(lp833
S's390-tools'
p834
ass(S'description'
p835
g296
NS'armmp-lpae'
p836
tp837
(dp838
S'hardware'
p839
S'ARMv7 multiplatform compatible SoCs supporting LPAE'
p840
sS'hardware-long'
p841
S'ARMv7 multiplatform kernel supporting LPAE. See\nhttps://wiki.debian.org/DebianKernel/ARMMP for details of supported\nplatforms.'
p842
ss(S'image'
p843
g417
tp844
(dp845
S'suggests'
p846
S'palo'
p847
sS'install-stem'
p848
S'vmlinux'
p849
ss(S'description'
p850
g296
NS'armmp'
p851
tp852
(dp853
S'hardware'
p854
S'ARMv7 multiplatform compatible SoCs'
p855
sS'hardware-long'
p856
S'ARMv7 multiplatform kernel. See\nhttps://wiki.debian.org/DebianKernel/ARMMP for details of supported\nplatforms'
p857
ss(g181
g158
g183
tp858
(dp859
g186
I01
sg187
(lp860
S'sb1-bcm91250a'
p861
aS'5kc-malta'
p862
aS'octeon'
p863
ass(S'relations'
p864
g417
tp865
(dp866
S'gcc-4.8'
p867
S'gcc-4.8, binutils-hppa64, gcc-4.8-hppa64'
p868
ss(S'image'
p869
g17
NS'amd64'
p870
tp871
(dp872
S'configs'
p873
(lp874
S'kernelarch-x86/config-arch-64'
p875
ass(S'image'
p876
g522
NS'loongson-3'
p877
tp878
(dp879
S'configs'
p880
(lp881
S'kernelarch-mips/config.loongson-3'
p882
ass(S'image'
p883
g522
NS'sb1-bcm91250a'
p884
tp885
(dp886
S'configs'
p887
(lp888
S'kernelarch-mips/config.sb1-bcm91250a'
p889
ass(S'description'
p890
g158
NS'sb1-bcm91250a'
p891
tp892
(dp893
S'hardware'
p894
S'BCM91250A'
p895
sS'hardware-long'
p896
S'Broadcom BCM91250A systems (aka SWARM)'
p897
ss(S'description'
p898
g173
NS'sh7751r'
p899
tp900
(dp901
S'hardware'
p902
S'sh7751r'
p903
sS'hardware-long'
p904
S'Renesas SH7751R R2D plus board'
p905
ss(S'description'
p906
g133
NS'5kc-malta'
p907
tp908
(dp909
S'hardware'
p910
S'MIPS Malta (64-bit)'
p911
sS'hardware-long'
p912
S'MIPS Malta boards (64-bit)'
p913
ss(S'image'
p914
g133
NS'octeon'
p915
tp916
(dp917
S'configs'
p918
(lp919
S'kernelarch-mips/config.octeon'
p920
ass(S'description'
p921
g445
NS's390x'
p922
tp923
(dp924
S'hardware'
p925
S'IBM zSeries'
p926
ss(S'image'
p927
g284
tp928
(dp929
S'suggests'
p930
S'aboot, fdutils'
p931
sS'install-stem'
p932
S'vmlinuz'
p933
ss(S'abi'
p934
Ng651
tp935
(dp936
S'ignore-changes'
p937
(lp938
S'*'
p939
ass(S'base'
p940
g30
tp941
(dp942
S'kernel-arch'
p943
S'sparc'
p944
sg289
(lp945
g183
ass(S'description'
p946
g149
NS'powerpc-smp'
p947
tp948
(dp949
S'hardware'
p950
S'multiprocessor 32-bit PowerPC'
p951
ss(S'version'
p952
tp953
(dp954
S'abiname'
p955
S'3.16.0-10'
p956
sS'source'
p957
V3.16.70-1
p958
sS'abiname_base'
p959
S'3.16.0'
p960
sS'upstream'
p961
S'3.16'
p962
ss(S'description'
p963
g158
NS'5kc-malta'
p964
tp965
(dp966
S'hardware'
p967
S'MIPS Malta'
p968
sS'hardware-long'
p969
S'MIPS Malta boards'
p970
ss(S'base'
p971
g465
tp972
(dp973
S'kernel-arch'
p974
S's390'
p975
sg289
(lp976
g183
ass(S'description'
p977
g417
NS'parisc'
p978
tp979
(dp980
S'hardware'
p981
S'32-bit PA-RISC'
p982
sS'hardware-long'
p983
S'HP PA-RISC 32-bit systems with max 4 GB RAM'
p984
ss(S'description'
p985
g133
NS'r4k-ip22'
p986
tp987
(dp988
S'hardware'
p989
S'SGI IP22'
p990
sS'hardware-long'
p991
S'SGI IP22 systems (Indy, Indigo2)'
p992
ss(S'image'
p993
g173
NS'sh7785lcr'
p994
tp995
(dp996
S'check-size'
p997
S'4194304'
p998
sS'recommends'
p999
S'u-boot-tools'
p1000
ss(S'image'
p1001
g182
tp1002
(dp1003
S'suggests'
p1004
S'mkvmlinuz'
p1005
sS'configs'
p1006
(lp1007
sS'install-stem'
p1008
S'vmlinux'
p1009
ss(S'image'
p1010
g133
tp1011
(dp1012
S'install-stem'
p1013
S'vmlinux'
p1014
ss(S'image'
p1015
g5
tp1016
(dp1017
S'install-stem'
p1018
S'vmlinuz'
p1019
sS'configs'
p1020
(lp1021
sS'bootloaders'
p1022
(lp1023
S'grub-pc'
p1024
aS'extlinux'
p1025
ass(S'description'
p1026
g149
NS'powerpc'
p1027
tp1028
(dp1029
S'hardware'
p1030
S'uniprocessor 32-bit PowerPC'
p1031
ss(S'relations'
p1032
g149
tp1033
(dp1034
S'gcc-4.8'
p1035
S'gcc-4.8 (>= 4.8.2-21)'
p1036
ss(g181
g284
g183
tp1037
(dp1038
g186
I01
sg187
(lp1039
S'alpha-generic'
p1040
aS'alpha-smp'
p1041
ass(S'description'
p1042
g5
g378
S'686-pae'
p1043
tp1044
(dp1045
S'parts'
p1046
(lp1047
S'xen'
p1048
ass(S'base'
p1049
S'x32'
p1050
tp1051
(dp1052
S'kernel-arch'
p1053
S'x86'
p1054
sS'featuresets'
p1055
(lp1056
ss(S'base'
p1057
g182
tp1058
(dp1059
S'kernel-arch'
p1060
S'powerpc'
p1061
sg289
(lp1062
g183
ass(S'build'
p1063
g465
tp1064
(dp1065
S'image-file'
p1066
S'arch/s390/boot/image'
p1067
ss(g181
g133
g183
tp1068
(dp1069
g186
I01
sg187
(lp1070
S'r4k-ip22'
p1071
aS'r5k-ip32'
p1072
aS'sb1-bcm91250a'
p1073
aS'4kc-malta'
p1074
aS'5kc-malta'
p1075
aS'octeon'
p1076
ass(S'build'
p1077
g284
tp1078
(dp1079
S'image-file'
p1080
S'arch/alpha/boot/vmlinux.gz'
p1081
ss(S'description'
p1082
g406
NS'sb1-bcm91250a'
p1083
tp1084
(dp1085
S'hardware'
p1086
S'BCM91250A'
p1087
sS'hardware-long'
p1088
S'Broadcom BCM91250A systems (aka SWARM)'
p1089
ss(S'image'
p1090
g406
NS'loongson-3'
p1091
tp1092
(dp1093
S'configs'
p1094
(lp1095
S'kernelarch-mips/config.loongson-3'
p1096
ass(S'image'
p1097
g406
NS'4kc-malta'
p1098
tp1099
(dp1100
S'configs'
p1101
(lp1102
S'kernelarch-mips/config.4kc-malta'
p1103
ass(S'description'
p1104
g406
NS'loongson-3'
p1105
tp1106
(dp1107
S'hardware'
p1108
S'Loongson 3A/3B'
p1109
sS'hardware-long'
p1110
S'Loongson 3A or 3B based systems (e.g. from Loongson or Lemote)'
p1111
ss(S'image'
p1112
g158
NS'octeon'
p1113
tp1114
(dp1115
S'configs'
p1116
(lp1117
S'kernelarch-mips/config.octeon'
p1118
ass(g181
g122
g183
tp1119
(dp1120
g186
I01
sg187
(lp1121
S'itanium'
p1122
aS'mckinley'
p1123
ass(S'description'
p1124
g284
NS'alpha-generic'
p1125
tp1126
(dp1127
S'hardware'
p1128
S'Alpha'
p1129
sS'hardware-long'
p1130
S'DEC Alpha systems with extended kernel start address (Wildfire, Titan, Marvel)'
p1131
ss(S'image'
p1132
g208
tp1133
(dp1134
S'suggests'
p1135
S'vmelilo, fdutils'
p1136
sS'install-stem'
p1137
S'vmlinuz'
p1138
ss(S'description'
p1139
g30
NS'sparc64'
p1140
tp1141
(dp1142
S'hardware'
p1143
S'uniprocessor 64-bit UltraSPARC'
p1144
ss(S'base'
p1145
g386
S'none'
p1146
tp1147
(dp1148
S'flavours'
p1149
(lp1150
S'arm64'
p1151
ass(S'build'
p1152
g158
tp1153
(dp1154
S'image-file'
p1155
S'vmlinux'
p1156
ss(S'build'
p1157
g296
tp1158
(dp1159
S'image-file'
p1160
S'arch/arm/boot/zImage'
p1161
ss(S'build'
p1162
g149
tp1163
(dp1164
S'image-file'
p1165
S'vmlinux'
p1166
ss(S'abi'
p1167
g52
NS'kirkwood'
p1168
tp1169
(dp1170
S'ignore-changes'
p1171
(lp1172
S'zs_create_pool'
p1173
aS'zs_destroy_pool'
p1174
aS'zs_free'
p1175
aS'zs_get_total_size_bytes'
p1176
aS'zs_malloc'
p1177
aS'zs_map_object'
p1178
aS'zs_unmap_object'
p1179
aS'fips_enabled'
p1180
aS'dcookie_register'
p1181
aS'dcookie_unregister'
p1182
aS'get_dcookie'
p1183
aS'prof_on'
p1184
aS'profile_event_register'
p1185
aS'profile_event_unregister'
p1186
aS'profile_hits'
p1187
aS'ring_buffer_swap_cpu'
p1188
aS'task_handoff_register'
p1189
aS'task_handoff_unregister'
p1190
aS'disable_kprobe'
p1191
aS'enable_kprobe'
p1192
aS'jprobe_return'
p1193
aS'profile_hits'
p1194
aS'register_jprobe'
p1195
aS'register_jprobes'
p1196
aS'register_kprobe'
p1197
aS'register_kprobes'
p1198
aS'register_kretprobe'
p1199
aS'register_kretprobes'
p1200
aS'unregister_jprobe'
p1201
aS'unregister_jprobes'
p1202
aS'unregister_kprobe'
p1203
aS'unregister_kprobes'
p1204
aS'unregister_kretprobe'
p1205
aS'unregister_kretprobes'
p1206
ass(S'description'
p1207
g133
NS'octeon'
p1208
tp1209
(dp1210
S'hardware'
p1211
S'Octeon'
p1212
sS'hardware-long'
p1213
S'Cavium Networks Octeon'
p1214
ss(S'build'
p1215
g122
tp1216
(dp1217
S'image-file'
p1218
S'vmlinux.gz'
p1219
ss(S'image'
p1220
g386
NS'arm64'
p1221
tp1222
(dp1223
s(S'image'
p1224
g52
NS'orion5x'
p1225
tp1226
(dp1227
S'check-size'
p1228
S'1572792'
p1229
sS'configs'
p1230
(lp1231
S'armel/config-reduced'
p1232
aS'armel/config.orion5x'
p1233
asS'recommends'
p1234
S'u-boot-tools'
p1235
ss(S'description'
p1236
g52
NS'ixp4xx'
p1237
tp1238
(dp1239
S'hardware'
p1240
S'IXP4xx'
p1241
sS'hardware-long'
p1242
S'IXP4xx based systems (Linksys NSLU2, etc)'
p1243
ss(S'image'
p1244
g173
tp1245
(dp1246
S'suggests'
p1247
S'fdutils'
p1248
sS'install-stem'
p1249
S'vmlinuz'
p1250
ss(S'image'
p1251
g158
NS'sb1-bcm91250a'
p1252
tp1253
(dp1254
S'configs'
p1255
(lp1256
S'kernelarch-mips/config.sb1-bcm91250a'
p1257
ass(g181
g115
g183
tp1258
(dp1259
g186
I01
sg187
(lp1260
S'sparc64'
p1261
aS'sparc64-smp'
p1262
ass(g181
g522
g183
tp1263
(dp1264
g186
I01
sg187
(lp1265
S'sb1-bcm91250a'
p1266
aS'5kc-malta'
p1267
aS'loongson-3'
p1268
aS'octeon'
p1269
ass(S'image'
p1270
g115
tp1271
(dp1272
S'suggests'
p1273
S'silo, fdutils'
p1274
sS'configs'
p1275
(lp1276
sS'install-stem'
p1277
S'vmlinuz'
p1278
ss(S'description'
p1279
tp1280
(dp1281
S'part-long-up'
p1282
S'This kernel is not suitable for SMP (multi-processor,\nmulti-core or hyper-threaded) systems.'
p1283
sS'part-long-xen'
p1284
S'This kernel also runs on a Xen hypervisor.\nIt supports both privileged (dom0) and unprivileged (domU) operation.'
p1285
ss(S'build'
p1286
g30
tp1287
(dp1288
S'image-file'
p1289
S'arch/sparc/boot/zImage'
p1290
ss(S'relations'
p1291
g296
tp1292
(dp1293
S'headers%gcc-4.8'
p1294
S'linux-compiler-gcc-4.8-arm'
p1295
ss(S'image'
p1296
g5
NS'686-pae'
p1297
tp1298
(dp1299
S'configs'
p1300
(lp1301
S'kernelarch-x86/config-arch-32'
p1302
aS'i386/config.686-pae'
p1303
asS'recommends'
p1304
S'libc6-i686'
p1305
ss(S'image'
p1306
g406
NS'loongson-2f'
p1307
tp1308
(dp1309
S'configs'
p1310
(lp1311
S'kernelarch-mips/config.loongson-2f'
p1312
asS'recommends'
p1313
S'libc6-loongson2f'
p1314
ss(S'image'
p1315
g149
NS'powerpc64'
p1316
tp1317
(dp1318
S'configs'
p1319
(lp1320
S'kernelarch-powerpc/config-arch-64'
p1321
aS'kernelarch-powerpc/config-arch-64-be'
p1322
ass(S'description'
p1323
g158
NS'octeon'
p1324
tp1325
(dp1326
S'hardware'
p1327
S'Octeon'
p1328
sS'hardware-long'
p1329
S'Cavium Networks Octeon'
p1330
ss(S'image'
p1331
g30
tp1332
(dp1333
S'suggests'
p1334
S'silo, fdutils'
p1335
sS'configs'
p1336
(lp1337
sS'install-stem'
p1338
S'vmlinuz'
p1339
ss(S'relations'
p1340
g465
tp1341
(dp1342
S'headers%gcc-4.8'
p1343
S'linux-compiler-gcc-4.8-s390'
p1344
ss(S'description'
p1345
g52
NS'versatile'
p1346
tp1347
(dp1348
S'hardware'
p1349
S'Versatile'
p1350
sS'hardware-long'
p1351
S'Versatile systems (PB, AB, Qemu)'
p1352
ss(S'base'
p1353
g149
tp1354
(dp1355
S'kernel-arch'
p1356
S'powerpc'
p1357
sg289
(lp1358
g183
ass(S'description'
p1359
g5
NS'586'
p1360
tp1361
(dp1362
S'hardware'
p1363
S'older PCs'
p1364
sS'parts'
p1365
(lp1366
S'up'
p1367
asS'hardware-long'
p1368
S'PCs with a single processor not supporting PAE'
p1369
ss(S'description'
p1370
g30
NS'sparc64-smp'
p1371
tp1372
(dp1373
S'hardware'
p1374
S'multiprocessor 64-bit UltraSPARC'
p1375
ss(S'description'
p1376
g522
NS'loongson-3'
p1377
tp1378
(dp1379
S'hardware'
p1380
S'Loongson 3A/3B'
p1381
sS'hardware-long'
p1382
S'Loongson 3A or 3B based systems (e.g. from Loongson or Lemote)'
p1383
ss(S'description'
p1384
g522
NS'octeon'
p1385
tp1386
(dp1387
S'hardware'
p1388
S'Octeon'
p1389
sS'hardware-long'
p1390
S'Cavium Networks Octeon'
p1391
ss(S'description'
p1392
g522
NS'sb1-bcm91250a'
p1393
tp1394
(dp1395
S'hardware'
p1396
S'BCM91250A'
p1397
sS'hardware-long'
p1398
S'Broadcom BCM91250A systems (aka SWARM)'
p1399
ss(S'image'
p1400
g182
NS'powerpc64'
p1401
tp1402
(dp1403
S'configs'
p1404
(lp1405
S'kernelarch-powerpc/config-arch-64'
p1406
aS'kernelarch-powerpc/config-arch-64-be'
p1407
ass(S'build'
p1408
g445
NS's390x'
p1409
tp1410
(dp1411
S'debug-info'
p1412
I01
ss(S'description'
p1413
g417
NS'parisc64-smp'
p1414
tp1415
(dp1416
S'hardware'
p1417
S'multiprocessor 64-bit PA-RISC'
p1418
sS'hardware-long'
p1419
S'HP PA-RISC 64-bit SMP systems with support for more than 4 GB RAM'
p1420
ss(S'image'
p1421
g158
tp1422
(dp1423
S'install-stem'
p1424
S'vmlinux'
p1425
ss(S'build'
p1426
g445
tp1427
(dp1428
S'image-file'
p1429
S'arch/s390/boot/image'
p1430
ss(S'image'
p1431
g506
tp1432
(dp1433
S'suggests'
p1434
S'mkvmlinuz'
p1435
sS'install-stem'
p1436
S'vmlinux'
p1437
ss(S'description'
p1438
g122
NS'itanium'
p1439
tp1440
(dp1441
S'hardware'
p1442
S'Itanium'
p1443
ss(S'image'
p1444
g133
NS'4kc-malta'
p1445
tp1446
(dp1447
S'configs'
p1448
(lp1449
S'kernelarch-mips/config.4kc-malta'
p1450
ass(S'abi'
p1451
tp1452
(dp1453
S'abiname'
p1454
S'10'
p1455
sS'ignore-changes'
p1456
(lp1457
S'module:arch/x86/kvm/kvm'
p1458
aS'module:arch/powerpc/kvm/kvm'
p1459
aS'module:drivers/edac/edac_mce_amd'
p1460
aS'module:drivers/hid/hid-sensor-hub'
p1461
aS'module:drivers/iio/**'
p1462
aS'module:drivers/md/dm-snapshot'
p1463
aS'module:drivers/mmc/host/*'
p1464
aS'module:drivers/misc/mei/*'
p1465
aS'module:drivers/mtd/spi-nor/spi-nor'
p1466
aS'module:drivers/net/can/can-dev'
p1467
aS'module:drivers/net/ethernet/**'
p1468
aS'module:drivers/net/wireless/**'
p1469
aS'module:drivers/s390/net/qeth'
p1470
aS'module:drivers/s390/net/qeth*'
p1471
aS'module:drivers/scsi/cxgbi/*'
p1472
aS'module:drivers/scsi/libiscs*'
p1473
aS'module:drivers/scsi/qla2xxx/qla2xxx'
p1474
aS'module:drivers/staging/usbip/*'
p1475
aS'module:drivers/target/iscsi/iscsi_target_mod'
p1476
aS'module:drivers/target/target_core_mod'
p1477
aS'module:drivers/usb/musb/*'
p1478
aS'module:fs/nfs/nfs'
p1479
aS'module:fs/ocfs2/**'
p1480
aS'module:net/ceph/libceph'
p1481
aS'module:net/l2tp/*'
p1482
aS'module:net/rds/rds'
p1483
aS'module:net/vmw_vsock/*'
p1484
aS'module:sound/firewire/snd-firewire-lib'
p1485
aS'module:sound/i2c/other/snd-ak4113'
p1486
aS'module:sound/i2c/other/snd-ak4114'
p1487
aS'module:sound/pci/emu10k1/*'
p1488
aS'azx_alloc_cmd_io'
p1489
aS'azx_free_cmd_io'
p1490
aS'azx_get_response'
p1491
aS'azx_init_cmd_io'
p1492
aS'azx_send_cmd'
p1493
aS'can_rx_register'
p1494
aS'cfi_*'
p1495
aS'cpuidle_*'
p1496
aS'fuse_*'
p1497
aS'inet_add_protocol'
p1498
aS'inet_del_protocol'
p1499
aS'inet_frag_*'
p1500
aS'inet_frags_*'
p1501
aS'injectm'
p1502
aS'kvm_async_pf_task_wait'
p1503
aS'kvmppc_*'
p1504
aS'mtd_do_chip_probe'
p1505
aS'musb_*'
p1506
aS'nft_register_set'
p1507
aS'nft_unregister_set'
p1508
aS'perf_trace_*'
p1509
aS'sdhci_*'
p1510
aS'tcp_make_synack'
p1511
aS'tcp_parse_options'
p1512
aS'tcp_try_fastopen'
p1513
aS'__add_pages'
p1514
aS'__fib_lookup'
p1515
aS'__remove_pages'
p1516
aS'fib_table_lookup'
p1517
aS'nf_register_queue_handler'
p1518
aS'of_device_is_stdout_path'
p1519
aS'module:sound/soc/*'
p1520
aS'blk_rq_check_limits'
p1521
aS'clk_divider_ro_ops'
p1522
aS'tick_nohz_idle_enter'
p1523
aS'tick_nohz_idle_exit'
p1524
aS'skb_copy_and_csum_datagram_iovec'
p1525
aS'module:net/dccp/dccp'
p1526
aS'fl6_*'
p1527
aS'inet_sk_diag_fill'
p1528
aS'ip6_append_data'
p1529
aS'ip6_datagram_send_ctl'
p1530
aS'ip6_xmit'
p1531
aS'ipv6_dup_options'
p1532
aS'ipv6_fixup_options'
p1533
aS'ipv6_push_nfrag_opts'
p1534
aS'tcp_cong_avoid_ai'
p1535
aS'tcp_slow_start'
p1536
aS'__scm_destroy'
p1537
aS'__scm_send'
p1538
aS'scm_detach_fds'
p1539
aS'scm_fp_dup'
p1540
aS'af_alg_*'
p1541
aS'xt_compat_match_from_user'
p1542
aS'efivar_validate'
p1543
aS'zpci_disable_device'
p1544
aS'zpci_enable_device'
p1545
aS'zpci_stop_device'
p1546
aS'fsnotify_*_group'
p1547
aS'fsnotify_*_mark'
p1548
aS'module:drivers/infiniband/**'
p1549
ass(S'relations'
p1550
g182
tp1551
(dp1552
S'gcc-4.8'
p1553
S'gcc-4.8 (>= 4.8.2-21)'
p1554
ss(g181
g506
g183
tp1555
(dp1556
g186
I01
sg187
(lp1557
S'powerpcspe'
p1558
ass(S'description'
p1559
g406
NS'loongson-2f'
p1560
tp1561
(dp1562
S'hardware'
p1563
S'Loongson 2F'
p1564
sS'hardware-long'
p1565
S'Lemote Loongson 2F systems'
p1566
ss(S'description'
p1567
g522
NS'5kc-malta'
p1568
tp1569
(dp1570
S'hardware'
p1571
S'MIPS Malta'
p1572
sS'hardware-long'
p1573
S'MIPS Malta boards'
p1574
ss(S'image'
p1575
g38
NS'powerpc64le'
p1576
tp1577
(dp1578
S'configs'
p1579
(lp1580
S'kernelarch-powerpc/config-arch-64'
p1581
aS'kernelarch-powerpc/config-arch-64-le'
p1582
ass(S'base'
p1583
g5
g378
tp1584
(dp1585
S'flavours'
p1586
(lp1587
S'586'
p1588
aS'686-pae'
p1589
aS'amd64'
p1590
ass(S'base'
p1591
tp1592
(dp1593
S'arches'
p1594
(lp1595
S'alpha'
p1596
aS'amd64'
p1597
aS'arm64'
p1598
aS'armel'
p1599
aS'armhf'
p1600
aS'hppa'
p1601
aS'i386'
p1602
aS'ia64'
p1603
aS'm68k'
p1604
aS'mips'
p1605
aS'mipsel'
p1606
aS'mips64'
p1607
aS'mips64el'
p1608
aS'or1k'
p1609
aS'powerpc'
p1610
aS'powerpcspe'
p1611
aS'ppc64'
p1612
aS'ppc64el'
p1613
aS's390'
p1614
aS's390x'
p1615
aS'sh4'
p1616
aS'sparc'
p1617
aS'sparc64'
p1618
aS'x32'
p1619
asS'featuresets'
p1620
(lp1621
S'none'
p1622
aS'rt'
p1623
asS'compiler'
p1624
S'gcc-4.8'
p1625
ss(S'build'
p1626
g208
tp1627
(dp1628
S'image-file'
p1629
S'vmlinux.gz'
p1630
ss(S'description'
p1631
g115
NS'sparc64-smp'
p1632
tp1633
(dp1634
S'hardware'
p1635
S'multiprocessor 64-bit UltraSPARC'
p1636
ss(S'build'
p1637
g52
tp1638
(dp1639
S'image-file'
p1640
S'arch/arm/boot/zImage'
p1641
ss(g181
g149
g183
tp1642
(dp1643
g186
I01
sg187
(lp1644
S'powerpc'
p1645
aS'powerpc-smp'
p1646
aS'powerpc64'
p1647
ass(S'image'
p1648
g522
tp1649
(dp1650
S'install-stem'
p1651
S'vmlinux'
p1652
ss(S'image'
p1653
g445
NS's390x'
p1654
tp1655
(dp1656
S'configs'
p1657
(lp1658
S'kernelarch-s390/config-arch-64'
p1659
ass(S'build'
p1660
g5
NS'686-pae'
p1661
tp1662
(dp1663
S'debug-info'
p1664
I01
ss(S'base'
p1665
g38
tp1666
(dp1667
S'kernel-arch'
p1668
S'powerpc'
p1669
sg289
(lp1670
g183
ass(S'base'
p1671
g522
tp1672
(dp1673
S'kernel-arch'
p1674
S'mips'
p1675
sg289
(lp1676
g183
ass(S'base'
p1677
g208
tp1678
(dp1679
S'kernel-arch'
p1680
S'm68k'
p1681
sg289
(lp1682
g183
asS'cflags'
p1683
S'-ffreestanding'
p1684
sS'compiler'
p1685
S'gcc-4.8'
p1686
ss(S'description'
p1687
g406
NS'5kc-malta'
p1688
tp1689
(dp1690
S'hardware'
p1691
S'MIPS Malta (64-bit)'
p1692
sS'hardware-long'
p1693
S'MIPS Malta boards (64-bit)'
p1694
ss(S'image'
p1695
tp1696
(dp1697
S'initramfs-generators'
p1698
(lp1699
S'initramfs-tools'
p1700
aS'initramfs-fallback'
p1701
asS'type'
p1702
S'plain'
p1703
ss(S'image'
p1704
g115
NS'sparc32'
p1705
tp1706
(dp1707
S'image-postproc'
p1708
S'sparc32-image-postproc'
p1709
ss(S'image'
p1710
g406
NS'5kc-malta'
p1711
tp1712
(dp1713
S'configs'
p1714
(lp1715
S'kernelarch-mips/config.5kc-malta'
p1716
ass(S'image'
p1717
g52
NS'ixp4xx'
p1718
tp1719
(dp1720
S'check-size'
p1721
S'1441760'
p1722
sS'configs'
p1723
(lp1724
S'armel/config-reduced'
p1725
aS'armel/config.ixp4xx'
p1726
ass(S'relations'
p1727
g52
tp1728
(dp1729
S'headers%gcc-4.8'
p1730
S'linux-compiler-gcc-4.8-arm'
p1731
ss(g181
g30
g183
tp1732
(dp1733
g186
I01
sg187
(lp1734
S'sparc64'
p1735
aS'sparc64-smp'
p1736
ass(S'image'
p1737
g522
NS'5kc-malta'
p1738
tp1739
(dp1740
S'configs'
p1741
(lp1742
S'kernelarch-mips/config.5kc-malta'
p1743
ass(S'description'
p1744
g122
NS'mckinley'
p1745
tp1746
(dp1747
S'hardware'
p1748
S'Itanium II'
p1749
ss(S'base'
p1750
g173
tp1751
(dp1752
S'kernel-arch'
p1753
S'sh'
p1754
sg289
(lp1755
g183
ass(S'build'
p1756
g173
tp1757
(dp1758
S'image-file'
p1759
S'arch/sh/boot/zImage'
p1760
ss(S'image'
p1761
g465
tp1762
(dp1763
S'install-stem'
p1764
S'vmlinuz'
p1765
sS'configs'
p1766
(lp1767
sS'bootloaders'
p1768
(lp1769
S's390-tools'
p1770
ass(S'image'
p1771
g386
tp1772
(dp1773
S'install-stem'
p1774
S'vmlinuz'
p1775
ss(S'build'
p1776
g5
tp1777
(dp1778
S'image-file'
p1779
S'arch/x86/boot/bzImage'
p1780
ss(g181
g38
g183
tp1781
(dp1782
g186
I01
sg187
(lp1783
S'powerpc64le'
p1784
asstp1785
Rp1786
.