cdebian_linux.config
ConfigCore
p0
(tRp1
(Vabi
p2
tp3
(dp4
Vabiname
p5
V3
p6
sVignore-changes
p7
(lp8
V__cpuhp_*
p9
aV__xive_vm_h_*
p10
aVbpf_analyzer
p11
aVcxl_*
p12
aVdax_flush
p13
aVinet_add_protocol
p14
aVinet_del_protocol
p15
aViommu_device_*
p16
aVkvm_async_pf_task_wait
p17
aVkvmppc_*
p18
aVmm_iommu_*
p19
aVmv_mbus_*
p20
aVperf_*
p21
aVregister_cxl_calls
p22
aVregister_key_type
p23
aVunregister_cxl_calls
p24
aV*_hw_breakpoint
p25
aVmodule:arch/x86/kvm/*
p26
aVmodule:drivers/crypto/ccp/*
p27
aVmodule:drivers/hv/*
p28
aVmodule:drivers/iio/common/hid-sensors/*
p29
aVmodule:drivers/iio/common/st_sensors/**
p30
aVmodule:drivers/mtd/nand/*
p31
aVmodule:drivers/net/wireless/**
p32
aVmodule:drivers/nvdimm/*
p33
aVmodule:drivers/power/supply/bq27xxx_battery
p34
aVmodule:drivers/scsi/cxgbi/*
p35
aVmodule:drivers/scsi/libiscs*
p36
aVmodule:drivers/scsi/qla2xxx/qla2xxx
p37
aVmodule:drivers/scsi/ufs/*
p38
aVmodule:drivers/target/**
p39
aVmodule:drivers/usb/chipidea/**
p40
aVmodule:drivers/usb/gadget/**
p41
aVmodule:drivers/usb/host/**
p42
aVmodule:drivers/usb/musb/**
p43
aVmodule:fs/nfs/**
p44
aVmodule:net/ceph/libceph
p45
aVmodule:net/l2tp/**
p46
aVmodule:sound/core/seq/**
p47
aVmodule:sound/firewire/snd-firewire-lib
p48
aVbtree_*
p49
aVvisitor*
p50
aVcan_rx_register
p51
aVip6_xmit
p52
aVmodule:net/dccp/dccp
p53
aVmodule:net/rds/rds
p54
aVdevfreq_*
p55
aVdevm_devfreq_*
p56
aVupdate_devfreq
p57
aVmodule:drivers/infiniband/**
p58
aVacpi_ec_add_query_handler
p59
aVacpi_ec_remove_query_handler
p60
aVfirst_ec
p61
aVdebugfs_create_automount
p62
aVmodule:drivers/iio/imu/inv_mpu6050/*
p63
ass(Vbase
p64
tp65
(dp66
Varches
p67
(lp68
Valpha
p69
aVamd64
p70
aVarm64
p71
aVarm64ilp32
p72
aVarmel
p73
aVarmhf
p74
aVhppa
p75
aVi386
p76
aVm68k
p77
aVmips
p78
aVmips64
p79
aVmips64el
p80
aVmips64r6
p81
aVmips64r6el
p82
aVmipsel
p83
aVmipsn32
p84
aVmipsn32el
p85
aVmipsn32r6
p86
aVmipsn32r6el
p87
aVmipsr6
p88
aVmipsr6el
p89
aVpowerpc
p90
aVpowerpcspe
p91
aVppc64
p92
aVppc64el
p93
aVs390
p94
aVs390x
p95
aVsh3
p96
aVsh4
p97
aVsparc
p98
aVsparc64
p99
aVtilegx
p100
aVx32
p101
asVcompiler
p102
Vgcc-7
p103
sVfeaturesets
p104
(lp105
Vnone
p106
aVrt
p107
ass(Vbuild
p108
tp109
(dp110
Vdebug-info
p111
I01
sVsigned-modules
p112
I00
ss(Vbase
p113
NVrt
p114
tp115
(dp116
Venabled
p117
I01
ss(Vdescription
p118
tp119
(dp120
Vpart-long-up
p121
VThis kernel is not suitable for SMP (multi-processor,\u000amulti-core or hyper-threaded) systems.
p122
sVpart-long-xen
p123
VThis kernel also runs on a Xen hypervisor.\u000aIt supports both privileged (dom0) and unprivileged (domU) operation.
p124
ss(Vimage
p125
tp126
(dp127
Vinitramfs-generators
p128
(lp129
Vinitramfs-tools
p130
aVinitramfs-fallback
p131
asVrecommends
p132
Vapparmor
p133
ss(Vrelations
p134
tp135
(dp136
Vgcc-7
p137
Vgcc-7 <!stage1 !cross>, gcc-7-@gnu-type-package@ <!stage1 cross>
p138
sVinitramfs-fallback
p139
Vlinux-initramfs-tool
p140
sVinitramfs-tools
p141
Vinitramfs-tools (>= 0.120+deb8u2)
p142
ss(Vbase
p143
Valpha
p144
tp145
(dp146
Vkernel-arch
p147
Valpha
p148
sVfeaturesets
p149
(lp150
Vnone
p151
ass(Vbuild
p152
g144
tp153
(dp154
Vimage-file
p155
Varch/alpha/boot/vmlinux.gz
p156
sVsigned-modules
p157
I00
ss(Vimage
p158
g144
tp159
(dp160
Vsuggests
p161
Vaboot, fdutils
p162
sVinstall-stem
p163
Vvmlinuz
p164
ss(Vdescription
p165
g144
NValpha-generic
p166
tp167
(dp168
Vhardware
p169
VAlpha
p170
sVhardware-long
p171
VDEC Alpha systems with extended kernel start address (Wildfire, Titan, Marvel)
p172
ss(Vdescription
p173
g144
NValpha-smp
p174
tp175
(dp176
Vhardware
p177
VAlpha SMP
p178
sVhardware-long
p179
VDEC Alpha SMP systems with extended kernel start address (Wildfire, Titan, Marvel)
p180
ss(Vbase
p181
g144
g151
tp182
(dp183
Vflavours
p184
(lp185
Valpha-generic
p186
aValpha-smp
p187
asVimplicit-flavour
p188
I01
ss(Vbase
p189
Vamd64
p190
tp191
(dp192
Vfeaturesets
p193
(lp194
Vnone
p195
aVrt
p196
asVkernel-arch
p197
Vx86
p198
ss(Vbuild
p199
g190
tp200
(dp201
Vdebug-info
p202
I01
sVimage-file
p203
Varch/x86/boot/bzImage
p204
sVvdso
p205
I01
ss(Vimage
p206
g190
tp207
(dp208
Vbootloaders
p209
(lp210
Vgrub-pc
p211
aVgrub-efi-amd64
p212
aVextlinux
p213
asVinstall-stem
p214
Vvmlinuz
p215
sVbreaks
p216
Vxserver-xorg-input-vmmouse (<< 1:13.0.99)
p217
ss(Vrelations
p218
g190
tp219
(dp220
Vheaders%gcc-7
p221
Vlinux-compiler-gcc-7-x86
p222
ss(Vdescription
p223
g190
NVamd64
p224
tp225
(dp226
Vhardware
p227
V64-bit PCs
p228
sVhardware-long
p229
VPCs with AMD64, Intel 64 or VIA Nano processors
p230
ss(Vbase
p231
g190
Vnone
p232
tp233
(dp234
Vflavours
p235
(lp236
Vamd64
p237
ass(Vdescription
p238
g190
g232
Vamd64
p239
tp240
(dp241
Vparts
p242
(lp243
Vxen
p244
ass(Vbase
p245
g190
Vrt
p246
tp247
(dp248
Vflavours
p249
(lp250
Vamd64
p251
ass(Vbase
p252
Varm64
p253
tp254
(dp255
Vkernel-arch
p256
Varm64
p257
sVfeaturesets
p258
(lp259
Vnone
p260
ass(Vbuild
p261
g253
tp262
(dp263
Vdebug-info
p264
I01
sVimage-file
p265
Varch/arm64/boot/Image
p266
sVvdso
p267
I01
ss(Vimage
p268
g253
tp269
(dp270
Vinstall-stem
p271
Vvmlinuz
p272
sVbreaks
p273
Vlibmozjs185-1.0, libmozjs-24-0 (<< 24.2.0-5.1~)
p274
ss(Vdescription
p275
g253
NVarm64
p276
tp277
(dp278
Vhardware
p279
V64-bit ARMv8 machines
p280
ss(Vimage
p281
g253
NVarm64
p282
tp283
(dp284
s(Vbase
p285
g253
Vnone
p286
tp287
(dp288
Vflavours
p289
(lp290
Varm64
p291
ass(Vbase
p292
Varm64ilp32
p293
tp294
(dp295
Vkernel-arch
p296
Varm64
p297
sVfeaturesets
p298
(lp299
ss(Vbase
p300
Varmel
p301
tp302
(dp303
Vkernel-arch
p304
Varm
p305
sg149
(lp306
g151
ass(Vbuild
p307
g301
tp308
(dp309
Vimage-file
p310
Varch/arm/boot/zImage
p311
sVsigned-modules
p312
I00
sVuncompressed-image-file
p313
Varch/arm/boot/Image
p314
ss(Vimage
p315
g301
tp316
(dp317
Vinstall-stem
p318
Vvmlinuz
p319
ss(Vrelations
p320
g301
tp321
(dp322
Vheaders%gcc-7
p323
Vlinux-compiler-gcc-7-arm
p324
ss(Vdescription
p325
g301
NVmarvell
p326
tp327
(dp328
Vhardware
p329
VMarvell Kirkwood/Orion
p330
sVhardware-long
p331
VMarvell Kirkwood based systems (SheevaPlug, QNAP TS-119/TS-219, etc)\u000aand Orion 5181, 5182 and 5281 based systems (QNAP TS-109/TS-209, etc)
p332
ss(Vimage
p333
g301
NVmarvell
p334
tp335
(dp336
Vrecommends
p337
Vu-boot-tools
p338
sVcheck-size
p339
L2097080L
sVcheck-size-with-dtb
p340
I01
sVcheck-uncompressed-size
p341
L7340032L
sVbreaks
p342
Vflash-kernel (<< 3.57~)
p343
ss(g181
g301
g151
tp344
(dp345
g184
(lp346
Vmarvell
p347
asg188
I01
ss(Vbase
p348
Varmhf
p349
tp350
(dp351
Vkernel-arch
p352
Varm
p353
sVfeaturesets
p354
(lp355
ss(Vbase
p356
Vhppa
p357
tp358
(dp359
Vkernel-arch
p360
Vparisc
p361
sg149
(lp362
g151
ass(Vbuild
p363
g357
tp364
(dp365
Vimage-file
p366
Vvmlinux
p367
sVsigned-modules
p368
I00
ss(Vimage
p369
g357
tp370
(dp371
Vsuggests
p372
Vpalo
p373
sVinstall-stem
p374
Vvmlinux
p375
ss(Vdescription
p376
g357
NVparisc
p377
tp378
(dp379
Vhardware
p380
V32-bit PA-RISC
p381
sVhardware-long
p382
VHP PA-RISC 32-bit systems with max 4 GB RAM
p383
ss(Vbase
p384
g357
NVparisc64-smp
p385
tp386
(dp387
Vcflags
p388
V-fno-cse-follow-jumps
p389
sVoverride-host-type
p390
Vhppa64-linux-gnu
p391
ss(Vdescription
p392
g357
NVparisc64-smp
p393
tp394
(dp395
Vhardware
p396
Vmultiprocessor 64-bit PA-RISC
p397
sVhardware-long
p398
VHP PA-RISC 64-bit SMP systems with support for more than 4 GB RAM
p399
ss(Vrelations
p400
g357
tp401
(dp402
Vgcc-7
p403
Vgcc-7 <!stage1 !cross>, binutils-hppa64-linux-gnu <!stage1 !cross>, gcc-7-hppa64-linux-gnu <!stage1 !cross>, gcc-7-hppa-linux-gnu <!stage1 cross>, binutils-hppa64-linux-gnu <!stage1 cross>, gcc-7-hppa64-linux-gnu <!stage1 cross>
p404
ss(g181
g357
g151
tp405
(dp406
g184
(lp407
Vparisc
p408
aVparisc64-smp
p409
asg188
I01
ss(Vbase
p410
Vi386
p411
tp412
(dp413
Vfeaturesets
p414
(lp415
Vnone
p416
aVrt
p417
asVkernel-arch
p418
Vx86
p419
ss(Vbuild
p420
g411
tp421
(dp422
Vimage-file
p423
Varch/x86/boot/bzImage
p424
sVvdso
p425
I01
ss(Vdescription
p426
g411
tp427
(dp428
Vpart-long-pae
p429
VThis kernel requires PAE (Physical Address Extension).\u000aThis feature is supported by the Intel Pentium Pro/II/III/4/4M/D, Xeon,\u000aCore and Atom; AMD Geode NX, Athlon (K7), Duron, Opteron, Sempron,\u000aTurion or Phenom; Transmeta Efficeon; VIA C7; and some other processors.
p430
ss(Vimage
p431
g411
tp432
(dp433
Vbootloaders
p434
(lp435
Vgrub-pc
p436
aVextlinux
p437
asVinstall-stem
p438
Vvmlinuz
p439
sVbreaks
p440
Vxserver-xorg-input-vmmouse (<< 1:13.0.99)
p441
ss(Vrelations
p442
g411
tp443
(dp444
Vheaders%gcc-7
p445
Vlinux-compiler-gcc-7-x86
p446
ss(Vdescription
p447
g411
NV686
p448
tp449
(dp450
Vhardware
p451
Volder PCs
p452
sVhardware-long
p453
VPCs with one or more processors not supporting PAE
p454
ss(Vbuild
p455
g411
NV686-pae
p456
tp457
(dp458
Vdebug-info
p459
I01
ss(Vdescription
p460
g411
NV686-pae
p461
tp462
(dp463
Vhardware
p464
Vmodern PCs
p465
sVhardware-long
p466
VPCs with one or more processors supporting PAE
p467
sVparts
p468
(lp469
Vpae
p470
ass(Vbase
p471
g411
Vnone
p472
tp473
(dp474
Vflavours
p475
(lp476
V686
p477
aV686-pae
p478
ass(Vdescription
p479
g411
g472
V686-pae
p480
tp481
(dp482
Vparts
p483
(lp484
Vxen
p485
ass(Vbase
p486
g411
Vrt
p487
tp488
(dp489
Vflavours
p490
(lp491
V686-pae
p492
ass(Vbase
p493
Vm68k
p494
tp495
(dp496
Vcflags
p497
V-ffreestanding
p498
sVkernel-arch
p499
Vm68k
p500
sg149
(lp501
g151
ass(Vbuild
p502
g494
tp503
(dp504
Vimage-file
p505
Vvmlinux
p506
sVsigned-modules
p507
I00
ss(Vimage
p508
g494
tp509
(dp510
Vsuggests
p511
Vvmelilo, fdutils
p512
sVinstall-stem
p513
Vvmlinux
p514
ss(Vdescription
p515
g494
NVm68k
p516
tp517
(dp518
Vhardware
p519
VMotorola MC68020+ family
p520
ss(g181
g494
g151
tp521
(dp522
g184
(lp523
Vm68k
p524
asg188
I01
ss(Vbase
p525
Vmips
p526
tp527
(dp528
Vkernel-arch
p529
Vmips
p530
sg149
(lp531
g151
ass(Vbuild
p532
g526
tp533
(dp534
Vimage-file
p535
Vvmlinux
p536
sVsigned-modules
p537
I00
ss(Vimage
p538
g526
tp539
(dp540
Vinstall-stem
p541
Vvmlinux
p542
ss(Vdescription
p543
g526
NV4kc-malta
p544
tp545
(dp546
Vhardware
p547
VMIPS Malta
p548
sVhardware-long
p549
VMIPS Malta boards
p550
ss(Vimage
p551
g526
NV4kc-malta
p552
tp553
(dp554
Vconfigs
p555
(lp556
Vkernelarch-mips/config.malta
p557
aVkernelarch-mips/config.mips32r2
p558
ass(Vdescription
p559
g526
NV5kc-malta
p560
tp561
(dp562
Vhardware
p563
VMIPS Malta (64-bit)
p564
sVhardware-long
p565
VMIPS Malta boards (64-bit)
p566
ss(Vimage
p567
g526
NV5kc-malta
p568
tp569
(dp570
Vconfigs
p571
(lp572
Vkernelarch-mips/config.malta
p573
aVkernelarch-mips/config.mips64r2
p574
ass(Vdescription
p575
g526
NVocteon
p576
tp577
(dp578
Vhardware
p579
VOcteon
p580
sVhardware-long
p581
VCavium Networks Octeon
p582
ss(Vimage
p583
g526
NVocteon
p584
tp585
(dp586
Vconfigs
p587
(lp588
Vkernelarch-mips/config.octeon
p589
ass(g181
g526
g151
tp590
(dp591
g184
(lp592
V4kc-malta
p593
aV5kc-malta
p594
aVocteon
p595
asg188
I01
ss(Vbase
p596
Vmips64
p597
tp598
(dp599
Vkernel-arch
p600
Vmips
p601
sg149
(lp602
g151
ass(Vbuild
p603
g597
tp604
(dp605
Vimage-file
p606
Vvmlinux
p607
sVsigned-modules
p608
I00
ss(Vimage
p609
g597
tp610
(dp611
Vinstall-stem
p612
Vvmlinux
p613
ss(Vdescription
p614
g597
NV5kc-malta
p615
tp616
(dp617
Vhardware
p618
VMIPS Malta
p619
sVhardware-long
p620
VMIPS Malta boards
p621
ss(Vimage
p622
g597
NV5kc-malta
p623
tp624
(dp625
Vconfigs
p626
(lp627
Vkernelarch-mips/config.malta
p628
aVkernelarch-mips/config.mips64r2
p629
ass(Vdescription
p630
g597
NVocteon
p631
tp632
(dp633
Vhardware
p634
VOcteon
p635
sVhardware-long
p636
VCavium Networks Octeon
p637
ss(Vimage
p638
g597
NVocteon
p639
tp640
(dp641
Vconfigs
p642
(lp643
Vkernelarch-mips/config.octeon
p644
ass(g181
g597
g151
tp645
(dp646
g184
(lp647
V5kc-malta
p648
aVocteon
p649
asg188
I01
ss(Vbase
p650
Vmips64el
p651
tp652
(dp653
Vkernel-arch
p654
Vmips
p655
sg149
(lp656
g151
ass(Vbuild
p657
g651
tp658
(dp659
Vimage-file
p660
Vvmlinux
p661
sVsigned-modules
p662
I00
ss(Vimage
p663
g651
tp664
(dp665
Vinstall-stem
p666
Vvmlinux
p667
ss(Vdescription
p668
g651
NV5kc-malta
p669
tp670
(dp671
Vhardware
p672
VMIPS Malta
p673
sVhardware-long
p674
VMIPS Malta boards
p675
ss(Vimage
p676
g651
NV5kc-malta
p677
tp678
(dp679
Vconfigs
p680
(lp681
Vkernelarch-mips/config.malta
p682
aVkernelarch-mips/config.mips64r2
p683
ass(Vdescription
p684
g651
NVloongson-3
p685
tp686
(dp687
Vhardware
p688
VLoongson 3A/3B
p689
sVhardware-long
p690
VLoongson 3A or 3B based systems (e.g. from Loongson or Lemote)
p691
ss(Vimage
p692
g651
NVloongson-3
p693
tp694
(dp695
Vconfigs
p696
(lp697
Vkernelarch-mips/config.loongson-3
p698
ass(Vdescription
p699
g651
NVocteon
p700
tp701
(dp702
Vhardware
p703
VOcteon
p704
sVhardware-long
p705
VCavium Networks Octeon
p706
ss(Vimage
p707
g651
NVocteon
p708
tp709
(dp710
Vconfigs
p711
(lp712
Vkernelarch-mips/config.octeon
p713
ass(g181
g651
g151
tp714
(dp715
g184
(lp716
V5kc-malta
p717
aVloongson-3
p718
aVocteon
p719
asg188
I01
ss(Vbase
p720
Vmips64r6
p721
tp722
(dp723
Vkernel-arch
p724
Vmips
p725
sg149
(lp726
g151
ass(Vbuild
p727
g721
tp728
(dp729
Vimage-file
p730
Vvmlinux
p731
sVsigned-modules
p732
I00
ss(Vimage
p733
g721
tp734
(dp735
Vinstall-stem
p736
Vvmlinux
p737
ss(Vdescription
p738
g721
NVmips64r6
p739
tp740
(dp741
Vhardware
p742
VMIPS R6 (64 bit, big endian)
p743
sVhardware-long
p744
VMIPS R6 (64 bit, big endian)
p745
ss(Vimage
p746
g721
NVmips64r6
p747
tp748
(dp749
Vconfigs
p750
(lp751
Vkernelarch-mips/config.malta
p752
aVkernelarch-mips/config.mips64r6
p753
ass(g181
g721
g151
tp754
(dp755
g184
(lp756
Vmips64r6
p757
asg188
I01
ss(Vbase
p758
Vmips64r6el
p759
tp760
(dp761
Vkernel-arch
p762
Vmips
p763
sg149
(lp764
g151
ass(Vbuild
p765
g759
tp766
(dp767
Vimage-file
p768
Vvmlinux
p769
sVsigned-modules
p770
I00
ss(Vimage
p771
g759
tp772
(dp773
Vinstall-stem
p774
Vvmlinux
p775
ss(Vdescription
p776
g759
NVmips64r6el
p777
tp778
(dp779
Vhardware
p780
VMIPS R6 (64 bit, little endian)
p781
sVhardware-long
p782
VMIPS R6 (64 bit, little endian)
p783
ss(Vimage
p784
g759
NVmips64r6el
p785
tp786
(dp787
Vconfigs
p788
(lp789
Vkernelarch-mips/config.malta
p790
aVkernelarch-mips/config.mips64r6
p791
ass(g181
g759
g151
tp792
(dp793
g184
(lp794
Vmips64r6el
p795
asg188
I01
ss(Vbase
p796
Vmipsel
p797
tp798
(dp799
Vkernel-arch
p800
Vmips
p801
sg149
(lp802
g151
ass(Vbuild
p803
g797
tp804
(dp805
Vimage-file
p806
Vvmlinux
p807
sVsigned-modules
p808
I00
ss(Vimage
p809
g797
tp810
(dp811
Vinstall-stem
p812
Vvmlinux
p813
ss(Vdescription
p814
g797
NV4kc-malta
p815
tp816
(dp817
Vhardware
p818
VMIPS Malta
p819
sVhardware-long
p820
VMIPS Malta boards
p821
ss(Vimage
p822
g797
NV4kc-malta
p823
tp824
(dp825
Vconfigs
p826
(lp827
Vkernelarch-mips/config.malta
p828
aVkernelarch-mips/config.mips32r2
p829
ass(Vdescription
p830
g797
NV5kc-malta
p831
tp832
(dp833
Vhardware
p834
VMIPS Malta (64-bit)
p835
sVhardware-long
p836
VMIPS Malta boards (64-bit)
p837
ss(Vimage
p838
g797
NV5kc-malta
p839
tp840
(dp841
Vconfigs
p842
(lp843
Vkernelarch-mips/config.malta
p844
aVkernelarch-mips/config.mips64r2
p845
ass(Vdescription
p846
g797
NVloongson-3
p847
tp848
(dp849
Vhardware
p850
VLoongson 3A/3B
p851
sVhardware-long
p852
VLoongson 3A or 3B based systems (e.g. from Loongson or Lemote)
p853
ss(Vimage
p854
g797
NVloongson-3
p855
tp856
(dp857
Vconfigs
p858
(lp859
Vkernelarch-mips/config.loongson-3
p860
ass(Vdescription
p861
g797
NVocteon
p862
tp863
(dp864
Vhardware
p865
VOcteon
p866
sVhardware-long
p867
VCavium Networks Octeon
p868
ss(Vimage
p869
g797
NVocteon
p870
tp871
(dp872
Vconfigs
p873
(lp874
Vkernelarch-mips/config.octeon
p875
ass(g181
g797
g151
tp876
(dp877
g184
(lp878
V4kc-malta
p879
aV5kc-malta
p880
aVloongson-3
p881
aVocteon
p882
asg188
I01
ss(Vbase
p883
Vmipsn32
p884
tp885
(dp886
Vkernel-arch
p887
Vmips
p888
sVfeaturesets
p889
(lp890
ss(Vbase
p891
Vmipsn32el
p892
tp893
(dp894
Vkernel-arch
p895
Vmips
p896
sVfeaturesets
p897
(lp898
ss(Vbase
p899
Vmipsn32r6
p900
tp901
(dp902
Vkernel-arch
p903
Vmips
p904
sVfeaturesets
p905
(lp906
ss(Vbase
p907
Vmipsn32r6el
p908
tp909
(dp910
Vkernel-arch
p911
Vmips
p912
sVfeaturesets
p913
(lp914
ss(Vbase
p915
Vmipsr6
p916
tp917
(dp918
Vkernel-arch
p919
Vmips
p920
sg149
(lp921
g151
ass(Vbuild
p922
g916
tp923
(dp924
Vimage-file
p925
Vvmlinux
p926
sVsigned-modules
p927
I00
ss(Vimage
p928
g916
tp929
(dp930
Vinstall-stem
p931
Vvmlinux
p932
ss(Vdescription
p933
g916
NVmips32r6
p934
tp935
(dp936
Vhardware
p937
VMIPS R6 (32 bit, big endian)
p938
sVhardware-long
p939
VMIPS R6 (32 bit, big endian)
p940
ss(Vimage
p941
g916
NVmips32r6
p942
tp943
(dp944
Vconfigs
p945
(lp946
Vkernelarch-mips/config.malta
p947
aVkernelarch-mips/config.mips32r6
p948
ass(Vdescription
p949
g916
NVmips64r6
p950
tp951
(dp952
Vhardware
p953
VMIPS R6 (64 bit, big endian)
p954
sVhardware-long
p955
VMIPS R6 (64 bit, big endian)
p956
ss(Vimage
p957
g916
NVmips64r6
p958
tp959
(dp960
Vconfigs
p961
(lp962
Vkernelarch-mips/config.malta
p963
aVkernelarch-mips/config.mips64r6
p964
ass(g181
g916
g151
tp965
(dp966
g184
(lp967
Vmips32r6
p968
aVmips64r6
p969
asg188
I01
ss(Vbase
p970
Vmipsr6el
p971
tp972
(dp973
Vkernel-arch
p974
Vmips
p975
sg149
(lp976
g151
ass(Vbuild
p977
g971
tp978
(dp979
Vimage-file
p980
Vvmlinux
p981
sVsigned-modules
p982
I00
ss(Vimage
p983
g971
tp984
(dp985
Vinstall-stem
p986
Vvmlinux
p987
ss(Vdescription
p988
g971
NVmips32r6el
p989
tp990
(dp991
Vhardware
p992
VMIPS R6 (32 bit, little endian)
p993
sVhardware-long
p994
VMIPS R6 (32 bit, little endian)
p995
ss(Vimage
p996
g971
NVmips32r6el
p997
tp998
(dp999
Vconfigs
p1000
(lp1001
Vkernelarch-mips/config.malta
p1002
aVkernelarch-mips/config.mips32r6
p1003
ass(Vdescription
p1004
g971
NVmips64r6el
p1005
tp1006
(dp1007
Vhardware
p1008
VMIPS R6 (64 bit, little endian)
p1009
sVhardware-long
p1010
VMIPS R6 (64 bit, little endian)
p1011
ss(Vimage
p1012
g971
NVmips64r6el
p1013
tp1014
(dp1015
Vconfigs
p1016
(lp1017
Vkernelarch-mips/config.malta
p1018
aVkernelarch-mips/config.mips64r6
p1019
ass(g181
g971
g151
tp1020
(dp1021
g184
(lp1022
Vmips32r6el
p1023
aVmips64r6el
p1024
asg188
I01
ss(Vbase
p1025
Vpowerpc
p1026
tp1027
(dp1028
Vkernel-arch
p1029
Vpowerpc
p1030
sg149
(lp1031
g151
ass(Vbuild
p1032
g1026
tp1033
(dp1034
Vimage-file
p1035
Vvmlinux
p1036
sVvdso
p1037
I01
ss(Vimage
p1038
g1026
tp1039
(dp1040
Vconfigs
p1041
(lp1042
sVsuggests
p1043
Vmkvmlinuz
p1044
sVinstall-stem
p1045
Vvmlinux
p1046
ss(Vdescription
p1047
g1026
NVpowerpc
p1048
tp1049
(dp1050
Vhardware
p1051
Vuniprocessor 32-bit PowerPC
p1052
ss(Vdescription
p1053
g1026
NVpowerpc-smp
p1054
tp1055
(dp1056
Vhardware
p1057
Vmultiprocessor 32-bit PowerPC
p1058
ss(Vimage
p1059
g1026
NVpowerpc-smp
p1060
tp1061
(dp1062
Vconfigs
p1063
(lp1064
Vpowerpc/config.powerpc
p1065
aVpowerpc/config.powerpc-smp
p1066
ass(Vdescription
p1067
g1026
NVpowerpc64
p1068
tp1069
(dp1070
Vhardware
p1071
V64-bit PowerPC
p1072
ss(Vimage
p1073
g1026
NVpowerpc64
p1074
tp1075
(dp1076
Vconfigs
p1077
(lp1078
Vkernelarch-powerpc/config-arch-64
p1079
aVkernelarch-powerpc/config-arch-64-be
p1080
ass(g181
g1026
g151
tp1081
(dp1082
g184
(lp1083
Vpowerpc
p1084
aVpowerpc-smp
p1085
aVpowerpc64
p1086
asg188
I01
ss(Vbase
p1087
Vpowerpcspe
p1088
tp1089
(dp1090
Vkernel-arch
p1091
Vpowerpc
p1092
sg149
(lp1093
g151
ass(Vbuild
p1094
g1088
tp1095
(dp1096
Vimage-file
p1097
Vvmlinux
p1098
sVsigned-modules
p1099
I00
sVvdso
p1100
I01
ss(Vimage
p1101
g1088
tp1102
(dp1103
Vsuggests
p1104
Vmkvmlinuz
p1105
sVinstall-stem
p1106
Vvmlinux
p1107
ss(Vdescription
p1108
g1088
tp1109
(dp1110
Vhardware
p1111
V32-bit PowerPC with SPE (instead of AltiVec) with SMP support
p1112
ss(g181
g1088
g151
tp1113
(dp1114
g184
(lp1115
Vpowerpcspe
p1116
asg188
I01
ss(Vbase
p1117
Vppc64
p1118
tp1119
(dp1120
Vkernel-arch
p1121
Vpowerpc
p1122
sg149
(lp1123
g151
ass(Vbuild
p1124
g1118
tp1125
(dp1126
Vimage-file
p1127
Vvmlinux
p1128
sVsigned-modules
p1129
I00
sVvdso
p1130
I01
ss(Vimage
p1131
g1118
tp1132
(dp1133
Vconfigs
p1134
(lp1135
sVsuggests
p1136
Vmkvmlinuz
p1137
sVinstall-stem
p1138
Vvmlinux
p1139
ss(Vdescription
p1140
g1118
NVpowerpc64
p1141
tp1142
(dp1143
Vhardware
p1144
V64-bit PowerPC
p1145
ss(Vimage
p1146
g1118
NVpowerpc64
p1147
tp1148
(dp1149
Vconfigs
p1150
(lp1151
Vkernelarch-powerpc/config-arch-64
p1152
aVkernelarch-powerpc/config-arch-64-be
p1153
ass(g181
g1118
g151
tp1154
(dp1155
g184
(lp1156
Vpowerpc64
p1157
asg188
I01
ss(Vbase
p1158
Vppc64el
p1159
tp1160
(dp1161
Vkernel-arch
p1162
Vpowerpc
p1163
sg149
(lp1164
g151
ass(Vbuild
p1165
g1159
tp1166
(dp1167
Vimage-file
p1168
Vvmlinux
p1169
sVvdso
p1170
I01
ss(Vimage
p1171
g1159
tp1172
(dp1173
Vconfigs
p1174
(lp1175
sVsuggests
p1176
Vmkvmlinuz
p1177
sVinstall-stem
p1178
Vvmlinux
p1179
ss(Vdescription
p1180
g1159
NVpowerpc64le
p1181
tp1182
(dp1183
Vhardware
p1184
VLittle-endian 64-bit PowerPC
p1185
ss(Vimage
p1186
g1159
NVpowerpc64le
p1187
tp1188
(dp1189
Vconfigs
p1190
(lp1191
Vkernelarch-powerpc/config-arch-64
p1192
aVkernelarch-powerpc/config-arch-64-le
p1193
ass(g181
g1159
g151
tp1194
(dp1195
g184
(lp1196
Vpowerpc64le
p1197
asg188
I01
ss(Vbase
p1198
Vs390
p1199
tp1200
(dp1201
Vkernel-arch
p1202
Vs390
p1203
sVfeaturesets
p1204
(lp1205
ss(Vbase
p1206
Vs390x
p1207
tp1208
(dp1209
Vkernel-arch
p1210
Vs390
p1211
sg149
(lp1212
g151
ass(Vbuild
p1213
g1207
tp1214
(dp1215
Vimage-file
p1216
Varch/s390/boot/image
p1217
sVvdso
p1218
I01
ss(Vimage
p1219
g1207
tp1220
(dp1221
Vbootloaders
p1222
(lp1223
Vs390-tools
p1224
asVinstall-stem
p1225
Vvmlinuz
p1226
ss(Vrelations
p1227
g1207
tp1228
(dp1229
Vheaders%gcc-7
p1230
Vlinux-compiler-gcc-7-s390
p1231
ss(Vbuild
p1232
g1207
NVs390x
p1233
tp1234
(dp1235
Vdebug-info
p1236
I01
ss(Vdescription
p1237
g1207
NVs390x
p1238
tp1239
(dp1240
Vhardware
p1241
VIBM zSeries
p1242
ss(g181
g1207
g151
tp1243
(dp1244
g184
(lp1245
Vs390x
p1246
asg188
I01
ss(Vbase
p1247
Vsh3
p1248
tp1249
(dp1250
Vkernel-arch
p1251
Vsh
p1252
sVfeaturesets
p1253
(lp1254
ss(Vbase
p1255
Vsh4
p1256
tp1257
(dp1258
Vkernel-arch
p1259
Vsh
p1260
sg149
(lp1261
g151
ass(Vbuild
p1262
g1256
tp1263
(dp1264
Vimage-file
p1265
Varch/sh/boot/zImage
p1266
sVsigned-modules
p1267
I00
ss(Vimage
p1268
g1256
tp1269
(dp1270
Vinstall-stem
p1271
Vvmlinuz
p1272
ss(Vdescription
p1273
g1256
NVsh7751r
p1274
tp1275
(dp1276
Vhardware
p1277
Vsh7751r
p1278
sVhardware-long
p1279
VRenesas SH7751R R2D plus board
p1280
ss(Vdescription
p1281
g1256
NVsh7785lcr
p1282
tp1283
(dp1284
Vhardware
p1285
Vsh7785lcr
p1286
sVhardware-long
p1287
VRenesas SH7785 reference board
p1288
ss(Vimage
p1289
g1256
NVsh7785lcr
p1290
tp1291
(dp1292
Vrecommends
p1293
Vu-boot-tools
p1294
sVcheck-size
p1295
L4194304L
ss(g181
g1256
g151
tp1296
(dp1297
g184
(lp1298
Vsh7751r
p1299
aVsh7785lcr
p1300
asg188
I01
ss(Vbase
p1301
Vsparc
p1302
tp1303
(dp1304
Vkernel-arch
p1305
Vsparc
p1306
sVfeaturesets
p1307
(lp1308
ss(Vbase
p1309
Vsparc64
p1310
tp1311
(dp1312
Vkernel-arch
p1313
Vsparc
p1314
sg149
(lp1315
g151
ass(Vbuild
p1316
g1310
tp1317
(dp1318
Vimage-file
p1319
Varch/sparc/boot/zImage
p1320
sVsigned-modules
p1321
I00
ss(Vimage
p1322
g1310
tp1323
(dp1324
Vconfigs
p1325
(lp1326
sVsuggests
p1327
Vsilo, fdutils
p1328
sVinstall-stem
p1329
Vvmlinuz
p1330
ss(Vdescription
p1331
g1310
NVsparc64
p1332
tp1333
(dp1334
Vhardware
p1335
Vuniprocessor 64-bit UltraSPARC
p1336
ss(Vimage
p1337
g1310
NVsparc64
p1338
tp1339
(dp1340
Vconfigs
p1341
(lp1342
Vkernelarch-sparc/config-up
p1343
ass(Vdescription
p1344
g1310
NVsparc64-smp
p1345
tp1346
(dp1347
Vhardware
p1348
Vmultiprocessor 64-bit UltraSPARC
p1349
ss(Vimage
p1350
g1310
NVsparc64-smp
p1351
tp1352
(dp1353
Vconfigs
p1354
(lp1355
Vkernelarch-sparc/config-smp
p1356
ass(g181
g1310
g151
tp1357
(dp1358
g184
(lp1359
Vsparc64
p1360
aVsparc64-smp
p1361
asg188
I01
ss(Vbase
p1362
Vtilegx
p1363
tp1364
(dp1365
Vkernel-arch
p1366
Vtile
p1367
sVfeaturesets
p1368
(lp1369
ss(Vbase
p1370
Vx32
p1371
tp1372
(dp1373
Vkernel-arch
p1374
Vx86
p1375
sVfeaturesets
p1376
(lp1377
ss(Vabi
p1378
NVrt
p1379
tp1380
(dp1381
Vignore-changes
p1382
(lp1383
V*
p1384
ass(Vdescription
p1385
Ng1379
tp1386
(dp1387
Vpart-long-rt
p1388
VThis kernel includes the PREEMPT_RT realtime patch set.
p1389
sVpart-short-rt
p1390
VPREEMPT_RT
p1391
sVparts
p1392
(lp1393
Vrt
p1394
ass(Vversion
p1395
tp1396
(dp1397
Vsource
p1398
V4.14.13-1+rpi1
p1399
sVupstream
p1400
V4.14
p1401
sVabiname_base
p1402
V4.14.0
p1403
sVabiname
p1404
V4.14.0-3
p1405
ss.