cdebian_linux.config
ConfigCore
p0
(tRp1
(Vabi
p2
tp3
(dp4
Vabiname
p5
V2
p6
sVignore-changes
p7
(lp8
V__cpuhp_*
p9
aV__xive_vm_h_*
p10
aVbpf_analyzer
p11
aVcxl_*
p12
aVdax_flush
p13
aVieee80211_nullfunc_get
p14
aVinet_add_protocol
p15
aVinet_del_protocol
p16
aViommu_device_*
p17
aVkvm_async_pf_task_wait
p18
aVkvmppc_*
p19
aVmm_iommu_*
p20
aVmv_mbus_*
p21
aVperf_*
p22
aVregister_cxl_calls
p23
aVregister_key_type
p24
aVunregister_cxl_calls
p25
aV*_hw_breakpoint
p26
aVmodule:arch/x86/kvm/*
p27
aVmodule:drivers/crypto/ccp/*
p28
aVmodule:drivers/hv/*
p29
aVmodule:drivers/iio/**
p30
aVmodule:drivers/misc/cxl/*
p31
aVmodule:drivers/mtd/nand/*
p32
aVmodule:drivers/net/wireless/**
p33
aVmodule:drivers/nvdimm/*
p34
aVmodule:drivers/power/supply/bq27xxx_battery
p35
aVmodule:drivers/scsi/cxgbi/*
p36
aVmodule:drivers/scsi/libiscs*
p37
aVmodule:drivers/scsi/qla2xxx/qla2xxx
p38
aVmodule:drivers/scsi/ufs/*
p39
aVmodule:drivers/target/**
p40
aVmodule:drivers/usb/chipidea/**
p41
aVmodule:drivers/usb/gadget/**
p42
aVmodule:drivers/usb/host/**
p43
aVmodule:drivers/usb/musb/**
p44
aVmodule:fs/nfs/**
p45
aVmodule:net/ceph/libceph
p46
aVmodule:net/l2tp/**
p47
aVmodule:net/rxrpc/rxrpc
p48
aVmodule:sound/core/seq/**
p49
aVmodule:sound/firewire/snd-firewire-lib
p50
aVbtree_*
p51
aVvisitor*
p52
aVcan_rx_register
p53
aVip6_xmit
p54
aVmodule:net/dccp/dccp
p55
aVmodule:net/rds/rds
p56
aVdevfreq_*
p57
aVdevm_devfreq_*
p58
aVupdate_devfreq
p59
aVmodule:drivers/infiniband/**
p60
aVacpi_ec_add_query_handler
p61
aVacpi_ec_remove_query_handler
p62
aVfirst_ec
p63
aVdebugfs_create_automount
p64
aVmodule:drivers/iio/imu/inv_mpu6050/*
p65
aVdrm_crtc_accurate_vblank_count
p66
ass(Vbase
p67
tp68
(dp69
Varches
p70
(lp71
Valpha
p72
aVamd64
p73
aVarm64
p74
aVarm64ilp32
p75
aVarmel
p76
aVarmhf
p77
aVhppa
p78
aVi386
p79
aVia64
p80
aVm68k
p81
aVmips
p82
aVmips64
p83
aVmips64el
p84
aVmips64r6
p85
aVmips64r6el
p86
aVmipsel
p87
aVmipsn32
p88
aVmipsn32el
p89
aVmipsn32r6
p90
aVmipsn32r6el
p91
aVmipsr6
p92
aVmipsr6el
p93
aVpowerpc
p94
aVpowerpcspe
p95
aVppc64
p96
aVppc64el
p97
aVs390
p98
aVs390x
p99
aVsh3
p100
aVsh4
p101
aVsparc
p102
aVsparc64
p103
aVtilegx
p104
aVx32
p105
asVcompiler
p106
Vgcc-7
p107
sVfeaturesets
p108
(lp109
Vnone
p110
aVrt
p111
ass(Vbuild
p112
tp113
(dp114
Vdebug-info
p115
I01
sVsigned-code
p116
I00
ss(Vbase
p117
NVrt
p118
tp119
(dp120
Venabled
p121
I01
ss(Vdescription
p122
tp123
(dp124
Vpart-long-up
p125
VThis kernel is not suitable for SMP (multi-processor,\u000amulti-core or hyper-threaded) systems.
p126
ss(Vimage
p127
tp128
(dp129
Vinitramfs-generators
p130
(lp131
Vinitramfs-tools
p132
aVinitramfs-fallback
p133
asVrecommends
p134
Vapparmor
p135
ss(Vrelations
p136
tp137
(dp138
Vgcc-7
p139
Vgcc-7 <!stage1 !cross>, gcc-7-@gnu-type-package@ <!stage1 cross>
p140
sVinitramfs-fallback
p141
Vlinux-initramfs-tool
p142
sVinitramfs-tools
p143
Vinitramfs-tools (>= 0.120+deb8u2)
p144
ss(Vbase
p145
Valpha
p146
tp147
(dp148
Vkernel-arch
p149
Valpha
p150
sVfeaturesets
p151
(lp152
Vnone
p153
ass(Vbuild
p154
g146
tp155
(dp156
Vimage-file
p157
Varch/alpha/boot/vmlinux.gz
p158
ss(Vimage
p159
g146
tp160
(dp161
Vsuggests
p162
Vaboot, fdutils
p163
sVinstall-stem
p164
Vvmlinuz
p165
ss(Vdescription
p166
g146
NValpha-generic
p167
tp168
(dp169
Vhardware
p170
VAlpha
p171
sVhardware-long
p172
VDEC Alpha systems with extended kernel start address (Wildfire, Titan, Marvel)
p173
ss(Vdescription
p174
g146
NValpha-smp
p175
tp176
(dp177
Vhardware
p178
VAlpha SMP
p179
sVhardware-long
p180
VDEC Alpha SMP systems with extended kernel start address (Wildfire, Titan, Marvel)
p181
ss(Vbase
p182
g146
g153
tp183
(dp184
Vflavours
p185
(lp186
Valpha-generic
p187
aValpha-smp
p188
asVimplicit-flavour
p189
I01
ss(Vbase
p190
Vamd64
p191
tp192
(dp193
Vfeaturesets
p194
(lp195
Vnone
p196
aVrt
p197
asVkernel-arch
p198
Vx86
p199
ss(Vbuild
p200
g191
tp201
(dp202
Vdebug-info
p203
I01
sVimage-file
p204
Varch/x86/boot/bzImage
p205
sVvdso
p206
I01
ss(Vimage
p207
g191
tp208
(dp209
Vbootloaders
p210
(lp211
Vgrub-pc
p212
aVgrub-efi-amd64
p213
aVextlinux
p214
asVinstall-stem
p215
Vvmlinuz
p216
sVbreaks
p217
Vxserver-xorg-input-vmmouse (<< 1:13.0.99)
p218
ss(Vrelations
p219
g191
tp220
(dp221
Vgcc-7
p222
Vgcc-7 (>= 7.2.0-20~) <!stage1 !cross>, gcc-7-x86-64-linux-gnu (>= 7.2.0-20~) <!stage1 cross>
p223
sVheaders%gcc-7
p224
Vlinux-compiler-gcc-7-x86 (>= 4.14.17-1~)
p225
ss(Vdescription
p226
g191
NVamd64
p227
tp228
(dp229
Vhardware
p230
V64-bit PCs
p231
sVhardware-long
p232
VPCs with AMD64, Intel 64 or VIA Nano processors
p233
ss(Vdescription
p234
g191
NVcloud-amd64
p235
tp236
(dp237
Vhardware
p238
Vx86-64 cloud
p239
sVhardware-long
p240
VAmazon EC2, Google Compute Engine and Microsoft Azure cloud platforms
p241
ss(Vbase
p242
g191
Vnone
p243
tp244
(dp245
Vflavours
p246
(lp247
Vamd64
p248
aVcloud-amd64
p249
ass(Vbase
p250
g191
Vrt
p251
tp252
(dp253
Vflavours
p254
(lp255
Vamd64
p256
ass(Vbase
p257
Varm64
p258
tp259
(dp260
Vkernel-arch
p261
Varm64
p262
sVfeaturesets
p263
(lp264
Vnone
p265
ass(Vbuild
p266
g258
tp267
(dp268
Vdebug-info
p269
I01
sVimage-file
p270
Varch/arm64/boot/Image
p271
sVvdso
p272
I01
ss(Vimage
p273
g258
tp274
(dp275
Vinstall-stem
p276
Vvmlinuz
p277
sVbreaks
p278
Vlibmozjs185-1.0, libmozjs-24-0 (<< 24.2.0-5.1~)
p279
ss(Vdescription
p280
g258
NVarm64
p281
tp282
(dp283
Vhardware
p284
V64-bit ARMv8 machines
p285
ss(Vimage
p286
g258
NVarm64
p287
tp288
(dp289
s(Vbase
p290
g258
Vnone
p291
tp292
(dp293
Vflavours
p294
(lp295
Varm64
p296
ass(Vbase
p297
Varm64ilp32
p298
tp299
(dp300
Vkernel-arch
p301
Varm64
p302
sVfeaturesets
p303
(lp304
ss(Vbase
p305
Varmel
p306
tp307
(dp308
Vkernel-arch
p309
Varm
p310
sg151
(lp311
g153
ass(Vbuild
p312
g306
tp313
(dp314
Vimage-file
p315
Varch/arm/boot/zImage
p316
sVuncompressed-image-file
p317
Varch/arm/boot/Image
p318
ss(Vimage
p319
g306
tp320
(dp321
Vinstall-stem
p322
Vvmlinuz
p323
ss(Vrelations
p324
g306
tp325
(dp326
Vheaders%gcc-7
p327
Vlinux-compiler-gcc-7-arm
p328
ss(Vdescription
p329
g306
NVmarvell
p330
tp331
(dp332
Vhardware
p333
VMarvell Kirkwood/Orion
p334
sVhardware-long
p335
VMarvell Kirkwood and Orion based systems (https://wiki.debian.org/ArmEabiPort#Supported_hardware)
p336
ss(Vimage
p337
g306
NVmarvell
p338
tp339
(dp340
Vrecommends
p341
Vu-boot-tools
p342
sVcheck-size
p343
L2097080L
sVcheck-size-with-dtb
p344
I01
sVcheck-uncompressed-size
p345
L7340032L
sVbreaks
p346
Vflash-kernel (<< 3.57~)
p347
ss(g182
g306
g153
tp348
(dp349
g185
(lp350
Vmarvell
p351
asg189
I01
ss(Vbase
p352
Varmhf
p353
tp354
(dp355
Vkernel-arch
p356
Varm
p357
sg151
(lp358
g153
ass(Vbuild
p359
g353
tp360
(dp361
Vimage-file
p362
Varch/arm/boot/zImage
p363
sVvdso
p364
I01
ss(Vimage
p365
g353
tp366
(dp367
Vinstall-stem
p368
Vvmlinuz
p369
ss(Vrelations
p370
g353
tp371
(dp372
Vheaders%gcc-7
p373
Vlinux-compiler-gcc-7-arm
p374
ss(Vdescription
p375
g353
NVarmmp
p376
tp377
(dp378
Vhardware
p379
VARMv7 multiplatform compatible SoCs
p380
sVhardware-long
p381
VARMv7 multiplatform kernel. See\u000ahttps://wiki.debian.org/DebianKernel/ARMMP for details of supported\u000aplatforms
p382
ss(Vdescription
p383
g353
NVarmmp-lpae
p384
tp385
(dp386
Vhardware
p387
VARMv7 multiplatform compatible SoCs supporting LPAE
p388
sVhardware-long
p389
VARMv7 multiplatform kernel supporting LPAE. See\u000ahttps://wiki.debian.org/DebianKernel/ARMMP for details of supported\u000aplatforms.
p390
ss(g182
g353
g153
tp391
(dp392
g185
(lp393
Varmmp
p394
aVarmmp-lpae
p395
asg189
I01
ss(Vbase
p396
Vhppa
p397
tp398
(dp399
Vkernel-arch
p400
Vparisc
p401
sg151
(lp402
g153
ass(Vbuild
p403
g397
tp404
(dp405
Vimage-file
p406
Varch/parisc/boot/bzImage
p407
sVdebug-info
p408
I01
ss(Vimage
p409
g397
tp410
(dp411
Vsuggests
p412
Vpalo
p413
sVinstall-stem
p414
Vvmlinuz
p415
ss(Vdescription
p416
g397
NVparisc
p417
tp418
(dp419
Vhardware
p420
V32-bit PA-RISC
p421
sVhardware-long
p422
VHP PA-RISC 32-bit systems with max 4 GB RAM
p423
ss(Vdescription
p424
g397
NVparisc-smp
p425
tp426
(dp427
Vhardware
p428
Vmultiprocessor 32-bit PA-RISC
p429
sVhardware-long
p430
VHP PA-RISC 32-bit SMP systems with max 4 GB RAM
p431
ss(Vbase
p432
g397
NVparisc64-smp
p433
tp434
(dp435
Vcflags
p436
V-fno-cse-follow-jumps
p437
sVoverride-host-type
p438
Vhppa64-linux-gnu
p439
ss(Vdescription
p440
g397
NVparisc64-smp
p441
tp442
(dp443
Vhardware
p444
Vmultiprocessor 64-bit PA-RISC
p445
sVhardware-long
p446
VHP PA-RISC 64-bit SMP systems with support for more than 4 GB RAM
p447
ss(Vrelations
p448
g397
tp449
(dp450
Vgcc-7
p451
Vgcc-7 <!stage1 !cross>, binutils-hppa64-linux-gnu <!stage1 !cross>, gcc-7-hppa64-linux-gnu <!stage1 !cross>, gcc-7-hppa-linux-gnu <!stage1 cross>, binutils-hppa64-linux-gnu <!stage1 cross>, gcc-7-hppa64-linux-gnu <!stage1 cross>
p452
ss(g182
g397
g153
tp453
(dp454
g185
(lp455
Vparisc
p456
aVparisc-smp
p457
aVparisc64-smp
p458
asg189
I01
ss(Vbase
p459
Vi386
p460
tp461
(dp462
Vfeaturesets
p463
(lp464
Vnone
p465
aVrt
p466
asVkernel-arch
p467
Vx86
p468
ss(Vbuild
p469
g460
tp470
(dp471
Vimage-file
p472
Varch/x86/boot/bzImage
p473
sVvdso
p474
I01
ss(Vdescription
p475
g460
tp476
(dp477
Vpart-long-pae
p478
VThis kernel requires PAE (Physical Address Extension).\u000aThis feature is supported by the Intel Pentium Pro/II/III/4/4M/D, Xeon,\u000aCore and Atom; AMD Geode NX, Athlon (K7), Duron, Opteron, Sempron,\u000aTurion or Phenom; Transmeta Efficeon; VIA C7; and some other processors.
p479
ss(Vimage
p480
g460
tp481
(dp482
Vbootloaders
p483
(lp484
Vgrub-pc
p485
aVextlinux
p486
asVinstall-stem
p487
Vvmlinuz
p488
sVbreaks
p489
Vxserver-xorg-input-vmmouse (<< 1:13.0.99)
p490
ss(Vrelations
p491
g460
tp492
(dp493
Vgcc-7
p494
Vgcc-7 (>= 7.2.0-20~) <!stage1 !cross>, gcc-7-i686-linux-gnu (>= 7.2.0-20~) <!stage1 cross>
p495
sVheaders%gcc-7
p496
Vlinux-compiler-gcc-7-x86 (>= 4.14.17-1~)
p497
ss(Vdescription
p498
g460
NV686
p499
tp500
(dp501
Vhardware
p502
Volder PCs
p503
sVhardware-long
p504
VPCs with one or more processors not supporting PAE
p505
ss(Vbuild
p506
g460
NV686-pae
p507
tp508
(dp509
Vdebug-info
p510
I01
ss(Vdescription
p511
g460
NV686-pae
p512
tp513
(dp514
Vhardware
p515
Vmodern PCs
p516
sVhardware-long
p517
VPCs with one or more processors supporting PAE
p518
sVparts
p519
(lp520
Vpae
p521
ass(Vbase
p522
g460
Vnone
p523
tp524
(dp525
Vflavours
p526
(lp527
V686
p528
aV686-pae
p529
ass(Vbase
p530
g460
Vrt
p531
tp532
(dp533
Vflavours
p534
(lp535
V686-pae
p536
ass(Vbase
p537
Via64
p538
tp539
(dp540
Vkernel-arch
p541
Via64
p542
sg151
(lp543
g153
ass(Vbuild
p544
g538
tp545
(dp546
Vimage-file
p547
Vvmlinux.gz
p548
ss(Vimage
p549
g538
tp550
(dp551
Vbootloaders
p552
(lp553
Velilo
p554
asVinstall-stem
p555
Vvmlinuz
p556
ss(Vdescription
p557
g538
NVitanium
p558
tp559
(dp560
Vhardware
p561
VItanium (Merced)
p562
sVhardware-long
p563
Vsystems with original Itanium (Merced) processors
p564
ss(Vdescription
p565
g538
NVmckinley
p566
tp567
(dp568
Vhardware
p569
VItanium 2+
p570
sVhardware-long
p571
Vsystems with Itanium 2 or 9300/9500/9700-series processors
p572
ss(g182
g538
g153
tp573
(dp574
g185
(lp575
Vitanium
p576
aVmckinley
p577
asg189
I01
ss(Vbase
p578
Vm68k
p579
tp580
(dp581
Vcflags
p582
V-ffreestanding
p583
sVkernel-arch
p584
Vm68k
p585
sg151
(lp586
g153
ass(Vbuild
p587
g579
tp588
(dp589
Vimage-file
p590
Vvmlinux
p591
ss(Vimage
p592
g579
tp593
(dp594
Vsuggests
p595
Vvmelilo, fdutils
p596
sVinstall-stem
p597
Vvmlinux
p598
ss(Vdescription
p599
g579
NVm68k
p600
tp601
(dp602
Vhardware
p603
VMotorola MC68020+ family
p604
ss(g182
g579
g153
tp605
(dp606
g185
(lp607
Vm68k
p608
asg189
I01
ss(Vbase
p609
Vmips
p610
tp611
(dp612
Vkernel-arch
p613
Vmips
p614
sg151
(lp615
g153
ass(Vbuild
p616
g610
tp617
(dp618
Vimage-file
p619
Vvmlinux
p620
ss(Vimage
p621
g610
tp622
(dp623
Vinstall-stem
p624
Vvmlinux
p625
ss(Vdescription
p626
g610
NV4kc-malta
p627
tp628
(dp629
Vhardware
p630
VMIPS Malta
p631
sVhardware-long
p632
VMIPS Malta boards
p633
ss(Vimage
p634
g610
NV4kc-malta
p635
tp636
(dp637
Vconfigs
p638
(lp639
Vkernelarch-mips/config.malta
p640
aVkernelarch-mips/config.mips32r2
p641
ass(Vdescription
p642
g610
NV5kc-malta
p643
tp644
(dp645
Vhardware
p646
VMIPS Malta (64-bit)
p647
sVhardware-long
p648
VMIPS Malta boards (64-bit)
p649
ss(Vimage
p650
g610
NV5kc-malta
p651
tp652
(dp653
Vconfigs
p654
(lp655
Vkernelarch-mips/config.malta
p656
aVkernelarch-mips/config.mips64r2
p657
ass(Vdescription
p658
g610
NVocteon
p659
tp660
(dp661
Vhardware
p662
VOcteon
p663
sVhardware-long
p664
VCavium Networks Octeon
p665
ss(Vimage
p666
g610
NVocteon
p667
tp668
(dp669
Vconfigs
p670
(lp671
Vkernelarch-mips/config.octeon
p672
ass(g182
g610
g153
tp673
(dp674
g185
(lp675
V4kc-malta
p676
aV5kc-malta
p677
aVocteon
p678
asg189
I01
ss(Vbase
p679
Vmips64
p680
tp681
(dp682
Vkernel-arch
p683
Vmips
p684
sg151
(lp685
g153
ass(Vbuild
p686
g680
tp687
(dp688
Vimage-file
p689
Vvmlinux
p690
ss(Vimage
p691
g680
tp692
(dp693
Vinstall-stem
p694
Vvmlinux
p695
ss(Vdescription
p696
g680
NV5kc-malta
p697
tp698
(dp699
Vhardware
p700
VMIPS Malta
p701
sVhardware-long
p702
VMIPS Malta boards
p703
ss(Vimage
p704
g680
NV5kc-malta
p705
tp706
(dp707
Vconfigs
p708
(lp709
Vkernelarch-mips/config.malta
p710
aVkernelarch-mips/config.mips64r2
p711
ass(Vdescription
p712
g680
NVocteon
p713
tp714
(dp715
Vhardware
p716
VOcteon
p717
sVhardware-long
p718
VCavium Networks Octeon
p719
ss(Vimage
p720
g680
NVocteon
p721
tp722
(dp723
Vconfigs
p724
(lp725
Vkernelarch-mips/config.octeon
p726
ass(g182
g680
g153
tp727
(dp728
g185
(lp729
V5kc-malta
p730
aVocteon
p731
asg189
I01
ss(Vbase
p732
Vmips64el
p733
tp734
(dp735
Vkernel-arch
p736
Vmips
p737
sg151
(lp738
g153
ass(Vbuild
p739
g733
tp740
(dp741
Vimage-file
p742
Vvmlinux
p743
ss(Vimage
p744
g733
tp745
(dp746
Vinstall-stem
p747
Vvmlinux
p748
ss(Vdescription
p749
g733
NV5kc-malta
p750
tp751
(dp752
Vhardware
p753
VMIPS Malta
p754
sVhardware-long
p755
VMIPS Malta boards
p756
ss(Vimage
p757
g733
NV5kc-malta
p758
tp759
(dp760
Vconfigs
p761
(lp762
Vkernelarch-mips/config.malta
p763
aVkernelarch-mips/config.mips64r2
p764
ass(Vdescription
p765
g733
NVloongson-3
p766
tp767
(dp768
Vhardware
p769
VLoongson 3A/3B
p770
sVhardware-long
p771
VLoongson 3A or 3B based systems (e.g. from Loongson or Lemote)
p772
ss(Vimage
p773
g733
NVloongson-3
p774
tp775
(dp776
Vconfigs
p777
(lp778
Vkernelarch-mips/config.loongson-3
p779
ass(Vdescription
p780
g733
NVocteon
p781
tp782
(dp783
Vhardware
p784
VOcteon
p785
sVhardware-long
p786
VCavium Networks Octeon
p787
ss(Vimage
p788
g733
NVocteon
p789
tp790
(dp791
Vconfigs
p792
(lp793
Vkernelarch-mips/config.octeon
p794
ass(g182
g733
g153
tp795
(dp796
g185
(lp797
V5kc-malta
p798
aVloongson-3
p799
aVocteon
p800
asg189
I01
ss(Vbase
p801
Vmips64r6
p802
tp803
(dp804
Vkernel-arch
p805
Vmips
p806
sg151
(lp807
g153
ass(Vbuild
p808
g802
tp809
(dp810
Vimage-file
p811
Vvmlinux
p812
ss(Vimage
p813
g802
tp814
(dp815
Vinstall-stem
p816
Vvmlinux
p817
ss(Vdescription
p818
g802
NVmips64r6
p819
tp820
(dp821
Vhardware
p822
VMIPS R6 (64 bit, big endian)
p823
sVhardware-long
p824
VMIPS R6 (64 bit, big endian)
p825
ss(Vimage
p826
g802
NVmips64r6
p827
tp828
(dp829
Vconfigs
p830
(lp831
Vkernelarch-mips/config.malta
p832
aVkernelarch-mips/config.mips64r6
p833
ass(g182
g802
g153
tp834
(dp835
g185
(lp836
Vmips64r6
p837
asg189
I01
ss(Vbase
p838
Vmips64r6el
p839
tp840
(dp841
Vkernel-arch
p842
Vmips
p843
sg151
(lp844
g153
ass(Vbuild
p845
g839
tp846
(dp847
Vimage-file
p848
Vvmlinux
p849
ss(Vimage
p850
g839
tp851
(dp852
Vinstall-stem
p853
Vvmlinux
p854
ss(Vdescription
p855
g839
NVmips64r6el
p856
tp857
(dp858
Vhardware
p859
VMIPS R6 (64 bit, little endian)
p860
sVhardware-long
p861
VMIPS R6 (64 bit, little endian)
p862
ss(Vimage
p863
g839
NVmips64r6el
p864
tp865
(dp866
Vconfigs
p867
(lp868
Vkernelarch-mips/config.malta
p869
aVkernelarch-mips/config.mips64r6
p870
ass(g182
g839
g153
tp871
(dp872
g185
(lp873
Vmips64r6el
p874
asg189
I01
ss(Vbase
p875
Vmipsel
p876
tp877
(dp878
Vkernel-arch
p879
Vmips
p880
sg151
(lp881
g153
ass(Vbuild
p882
g876
tp883
(dp884
Vimage-file
p885
Vvmlinux
p886
ss(Vimage
p887
g876
tp888
(dp889
Vinstall-stem
p890
Vvmlinux
p891
ss(Vdescription
p892
g876
NV4kc-malta
p893
tp894
(dp895
Vhardware
p896
VMIPS Malta
p897
sVhardware-long
p898
VMIPS Malta boards
p899
ss(Vimage
p900
g876
NV4kc-malta
p901
tp902
(dp903
Vconfigs
p904
(lp905
Vkernelarch-mips/config.malta
p906
aVkernelarch-mips/config.mips32r2
p907
ass(Vdescription
p908
g876
NV5kc-malta
p909
tp910
(dp911
Vhardware
p912
VMIPS Malta (64-bit)
p913
sVhardware-long
p914
VMIPS Malta boards (64-bit)
p915
ss(Vimage
p916
g876
NV5kc-malta
p917
tp918
(dp919
Vconfigs
p920
(lp921
Vkernelarch-mips/config.malta
p922
aVkernelarch-mips/config.mips64r2
p923
ass(Vdescription
p924
g876
NVloongson-3
p925
tp926
(dp927
Vhardware
p928
VLoongson 3A/3B
p929
sVhardware-long
p930
VLoongson 3A or 3B based systems (e.g. from Loongson or Lemote)
p931
ss(Vimage
p932
g876
NVloongson-3
p933
tp934
(dp935
Vconfigs
p936
(lp937
Vkernelarch-mips/config.loongson-3
p938
ass(Vdescription
p939
g876
NVocteon
p940
tp941
(dp942
Vhardware
p943
VOcteon
p944
sVhardware-long
p945
VCavium Networks Octeon
p946
ss(Vimage
p947
g876
NVocteon
p948
tp949
(dp950
Vconfigs
p951
(lp952
Vkernelarch-mips/config.octeon
p953
ass(g182
g876
g153
tp954
(dp955
g185
(lp956
V4kc-malta
p957
aV5kc-malta
p958
aVloongson-3
p959
aVocteon
p960
asg189
I01
ss(Vbase
p961
Vmipsn32
p962
tp963
(dp964
Vkernel-arch
p965
Vmips
p966
sVfeaturesets
p967
(lp968
ss(Vbase
p969
Vmipsn32el
p970
tp971
(dp972
Vkernel-arch
p973
Vmips
p974
sVfeaturesets
p975
(lp976
ss(Vbase
p977
Vmipsn32r6
p978
tp979
(dp980
Vkernel-arch
p981
Vmips
p982
sVfeaturesets
p983
(lp984
ss(Vbase
p985
Vmipsn32r6el
p986
tp987
(dp988
Vkernel-arch
p989
Vmips
p990
sVfeaturesets
p991
(lp992
ss(Vbase
p993
Vmipsr6
p994
tp995
(dp996
Vkernel-arch
p997
Vmips
p998
sg151
(lp999
g153
ass(Vbuild
p1000
g994
tp1001
(dp1002
Vimage-file
p1003
Vvmlinux
p1004
ss(Vimage
p1005
g994
tp1006
(dp1007
Vinstall-stem
p1008
Vvmlinux
p1009
ss(Vdescription
p1010
g994
NVmips32r6
p1011
tp1012
(dp1013
Vhardware
p1014
VMIPS R6 (32 bit, big endian)
p1015
sVhardware-long
p1016
VMIPS R6 (32 bit, big endian)
p1017
ss(Vimage
p1018
g994
NVmips32r6
p1019
tp1020
(dp1021
Vconfigs
p1022
(lp1023
Vkernelarch-mips/config.malta
p1024
aVkernelarch-mips/config.mips32r6
p1025
ass(Vdescription
p1026
g994
NVmips64r6
p1027
tp1028
(dp1029
Vhardware
p1030
VMIPS R6 (64 bit, big endian)
p1031
sVhardware-long
p1032
VMIPS R6 (64 bit, big endian)
p1033
ss(Vimage
p1034
g994
NVmips64r6
p1035
tp1036
(dp1037
Vconfigs
p1038
(lp1039
Vkernelarch-mips/config.malta
p1040
aVkernelarch-mips/config.mips64r6
p1041
ass(g182
g994
g153
tp1042
(dp1043
g185
(lp1044
Vmips32r6
p1045
aVmips64r6
p1046
asg189
I01
ss(Vbase
p1047
Vmipsr6el
p1048
tp1049
(dp1050
Vkernel-arch
p1051
Vmips
p1052
sg151
(lp1053
g153
ass(Vbuild
p1054
g1048
tp1055
(dp1056
Vimage-file
p1057
Vvmlinux
p1058
ss(Vimage
p1059
g1048
tp1060
(dp1061
Vinstall-stem
p1062
Vvmlinux
p1063
ss(Vdescription
p1064
g1048
NVmips32r6el
p1065
tp1066
(dp1067
Vhardware
p1068
VMIPS R6 (32 bit, little endian)
p1069
sVhardware-long
p1070
VMIPS R6 (32 bit, little endian)
p1071
ss(Vimage
p1072
g1048
NVmips32r6el
p1073
tp1074
(dp1075
Vconfigs
p1076
(lp1077
Vkernelarch-mips/config.malta
p1078
aVkernelarch-mips/config.mips32r6
p1079
ass(Vdescription
p1080
g1048
NVmips64r6el
p1081
tp1082
(dp1083
Vhardware
p1084
VMIPS R6 (64 bit, little endian)
p1085
sVhardware-long
p1086
VMIPS R6 (64 bit, little endian)
p1087
ss(Vimage
p1088
g1048
NVmips64r6el
p1089
tp1090
(dp1091
Vconfigs
p1092
(lp1093
Vkernelarch-mips/config.malta
p1094
aVkernelarch-mips/config.mips64r6
p1095
ass(g182
g1048
g153
tp1096
(dp1097
g185
(lp1098
Vmips32r6el
p1099
aVmips64r6el
p1100
asg189
I01
ss(Vbase
p1101
Vpowerpc
p1102
tp1103
(dp1104
Vkernel-arch
p1105
Vpowerpc
p1106
sg151
(lp1107
g153
ass(Vbuild
p1108
g1102
tp1109
(dp1110
Vimage-file
p1111
Vvmlinux
p1112
sVvdso
p1113
I01
ss(Vimage
p1114
g1102
tp1115
(dp1116
Vconfigs
p1117
(lp1118
sVsuggests
p1119
Vmkvmlinuz
p1120
sVinstall-stem
p1121
Vvmlinux
p1122
ss(Vdescription
p1123
g1102
NVpowerpc
p1124
tp1125
(dp1126
Vhardware
p1127
Vuniprocessor 32-bit PowerPC
p1128
ss(Vdescription
p1129
g1102
NVpowerpc-smp
p1130
tp1131
(dp1132
Vhardware
p1133
Vmultiprocessor 32-bit PowerPC
p1134
ss(Vimage
p1135
g1102
NVpowerpc-smp
p1136
tp1137
(dp1138
Vconfigs
p1139
(lp1140
Vpowerpc/config.powerpc
p1141
aVpowerpc/config.powerpc-smp
p1142
ass(Vdescription
p1143
g1102
NVpowerpc64
p1144
tp1145
(dp1146
Vhardware
p1147
V64-bit PowerPC
p1148
ss(Vimage
p1149
g1102
NVpowerpc64
p1150
tp1151
(dp1152
Vconfigs
p1153
(lp1154
Vkernelarch-powerpc/config-arch-64
p1155
aVkernelarch-powerpc/config-arch-64-be
p1156
ass(g182
g1102
g153
tp1157
(dp1158
g185
(lp1159
Vpowerpc
p1160
aVpowerpc-smp
p1161
aVpowerpc64
p1162
asg189
I01
ss(Vbase
p1163
Vpowerpcspe
p1164
tp1165
(dp1166
Vkernel-arch
p1167
Vpowerpc
p1168
sg151
(lp1169
g153
ass(Vbuild
p1170
g1164
tp1171
(dp1172
Vimage-file
p1173
Vvmlinux
p1174
sVvdso
p1175
I01
ss(Vimage
p1176
g1164
tp1177
(dp1178
Vsuggests
p1179
Vmkvmlinuz
p1180
sVinstall-stem
p1181
Vvmlinux
p1182
ss(Vdescription
p1183
g1164
tp1184
(dp1185
Vhardware
p1186
V32-bit PowerPC with SPE (instead of AltiVec) with SMP support
p1187
ss(g182
g1164
g153
tp1188
(dp1189
g185
(lp1190
Vpowerpcspe
p1191
asg189
I01
ss(Vbase
p1192
Vppc64
p1193
tp1194
(dp1195
Vkernel-arch
p1196
Vpowerpc
p1197
sg151
(lp1198
g153
ass(Vbuild
p1199
g1193
tp1200
(dp1201
Vimage-file
p1202
Vvmlinux
p1203
sVvdso
p1204
I01
ss(Vimage
p1205
g1193
tp1206
(dp1207
Vconfigs
p1208
(lp1209
sVsuggests
p1210
Vmkvmlinuz
p1211
sVinstall-stem
p1212
Vvmlinux
p1213
ss(Vdescription
p1214
g1193
NVpowerpc64
p1215
tp1216
(dp1217
Vhardware
p1218
V64-bit PowerPC
p1219
ss(Vimage
p1220
g1193
NVpowerpc64
p1221
tp1222
(dp1223
Vconfigs
p1224
(lp1225
Vkernelarch-powerpc/config-arch-64
p1226
aVkernelarch-powerpc/config-arch-64-be
p1227
ass(g182
g1193
g153
tp1228
(dp1229
g185
(lp1230
Vpowerpc64
p1231
asg189
I01
ss(Vbase
p1232
Vppc64el
p1233
tp1234
(dp1235
Vkernel-arch
p1236
Vpowerpc
p1237
sg151
(lp1238
g153
ass(Vbuild
p1239
g1233
tp1240
(dp1241
Vimage-file
p1242
Vvmlinux
p1243
sVvdso
p1244
I01
ss(Vimage
p1245
g1233
tp1246
(dp1247
Vconfigs
p1248
(lp1249
sVsuggests
p1250
Vmkvmlinuz
p1251
sVinstall-stem
p1252
Vvmlinux
p1253
ss(Vdescription
p1254
g1233
NVpowerpc64le
p1255
tp1256
(dp1257
Vhardware
p1258
VLittle-endian 64-bit PowerPC
p1259
ss(Vimage
p1260
g1233
NVpowerpc64le
p1261
tp1262
(dp1263
Vconfigs
p1264
(lp1265
Vkernelarch-powerpc/config-arch-64
p1266
aVkernelarch-powerpc/config-arch-64-le
p1267
ass(g182
g1233
g153
tp1268
(dp1269
g185
(lp1270
Vpowerpc64le
p1271
asg189
I01
ss(Vbase
p1272
Vs390
p1273
tp1274
(dp1275
Vkernel-arch
p1276
Vs390
p1277
sVfeaturesets
p1278
(lp1279
ss(Vbase
p1280
Vs390x
p1281
tp1282
(dp1283
Vkernel-arch
p1284
Vs390
p1285
sg151
(lp1286
g153
ass(Vbuild
p1287
g1281
tp1288
(dp1289
Vimage-file
p1290
Varch/s390/boot/image
p1291
sVvdso
p1292
I01
ss(Vimage
p1293
g1281
tp1294
(dp1295
Vbootloaders
p1296
(lp1297
Vs390-tools
p1298
asVinstall-stem
p1299
Vvmlinuz
p1300
ss(Vrelations
p1301
g1281
tp1302
(dp1303
Vheaders%gcc-7
p1304
Vlinux-compiler-gcc-7-s390
p1305
ss(Vbuild
p1306
g1281
NVs390x
p1307
tp1308
(dp1309
Vdebug-info
p1310
I01
ss(Vdescription
p1311
g1281
NVs390x
p1312
tp1313
(dp1314
Vhardware
p1315
VIBM zSeries
p1316
ss(g182
g1281
g153
tp1317
(dp1318
g185
(lp1319
Vs390x
p1320
asg189
I01
ss(Vbase
p1321
Vsh3
p1322
tp1323
(dp1324
Vkernel-arch
p1325
Vsh
p1326
sVfeaturesets
p1327
(lp1328
ss(Vbase
p1329
Vsh4
p1330
tp1331
(dp1332
Vkernel-arch
p1333
Vsh
p1334
sg151
(lp1335
g153
ass(Vbuild
p1336
g1330
tp1337
(dp1338
Vimage-file
p1339
Varch/sh/boot/zImage
p1340
ss(Vimage
p1341
g1330
tp1342
(dp1343
Vinstall-stem
p1344
Vvmlinuz
p1345
ss(Vdescription
p1346
g1330
NVsh7751r
p1347
tp1348
(dp1349
Vhardware
p1350
Vsh7751r
p1351
sVhardware-long
p1352
VRenesas SH7751R R2D plus board
p1353
ss(Vdescription
p1354
g1330
NVsh7785lcr
p1355
tp1356
(dp1357
Vhardware
p1358
Vsh7785lcr
p1359
sVhardware-long
p1360
VRenesas SH7785 reference board
p1361
ss(Vimage
p1362
g1330
NVsh7785lcr
p1363
tp1364
(dp1365
Vrecommends
p1366
Vu-boot-tools
p1367
sVcheck-size
p1368
L4194304L
ss(g182
g1330
g153
tp1369
(dp1370
g185
(lp1371
Vsh7751r
p1372
aVsh7785lcr
p1373
asg189
I01
ss(Vbase
p1374
Vsparc
p1375
tp1376
(dp1377
Vkernel-arch
p1378
Vsparc
p1379
sVfeaturesets
p1380
(lp1381
ss(Vbase
p1382
Vsparc64
p1383
tp1384
(dp1385
Vkernel-arch
p1386
Vsparc
p1387
sg151
(lp1388
g153
ass(Vbuild
p1389
g1383
tp1390
(dp1391
Vimage-file
p1392
Varch/sparc/boot/zImage
p1393
ss(Vimage
p1394
g1383
tp1395
(dp1396
Vconfigs
p1397
(lp1398
sVsuggests
p1399
Vsilo, fdutils
p1400
sVinstall-stem
p1401
Vvmlinuz
p1402
ss(Vdescription
p1403
g1383
NVsparc64
p1404
tp1405
(dp1406
Vhardware
p1407
Vuniprocessor 64-bit UltraSPARC
p1408
ss(Vimage
p1409
g1383
NVsparc64
p1410
tp1411
(dp1412
Vconfigs
p1413
(lp1414
Vkernelarch-sparc/config-up
p1415
ass(Vdescription
p1416
g1383
NVsparc64-smp
p1417
tp1418
(dp1419
Vhardware
p1420
Vmultiprocessor 64-bit UltraSPARC
p1421
ss(Vimage
p1422
g1383
NVsparc64-smp
p1423
tp1424
(dp1425
Vconfigs
p1426
(lp1427
Vkernelarch-sparc/config-smp
p1428
ass(g182
g1383
g153
tp1429
(dp1430
g185
(lp1431
Vsparc64
p1432
aVsparc64-smp
p1433
asg189
I01
ss(Vbase
p1434
Vtilegx
p1435
tp1436
(dp1437
Vkernel-arch
p1438
Vtile
p1439
sVfeaturesets
p1440
(lp1441
ss(Vbase
p1442
Vx32
p1443
tp1444
(dp1445
Vkernel-arch
p1446
Vx86
p1447
sVfeaturesets
p1448
(lp1449
ss(Vabi
p1450
NVrt
p1451
tp1452
(dp1453
Vignore-changes
p1454
(lp1455
V*
p1456
ass(Vdescription
p1457
Ng1451
tp1458
(dp1459
Vpart-long-rt
p1460
VThis kernel includes the PREEMPT_RT realtime patch set.
p1461
sVpart-short-rt
p1462
VPREEMPT_RT
p1463
sVparts
p1464
(lp1465
Vrt
p1466
ass(Vversion
p1467
tp1468
(dp1469
Vsource
p1470
V4.16.16-2
p1471
sVupstream
p1472
V4.16
p1473
sVabiname_base
p1474
V4.16.0
p1475
sVabiname
p1476
V4.16.0-2
p1477
ss.