cdebian_linux.config
ConfigCore
p0
(tRp1
(Vabi
p2
tp3
(dp4
Vabiname
p5
V1
p6
sVignore-changes
p7
(lp8
V__cpuhp_*
p9
aV__xive_vm_h_*
p10
aVbpf_analyzer
p11
aVcxl_*
p12
aVdax_flush
p13
aVinet_add_protocol
p14
aVinet_del_protocol
p15
aViommu_device_*
p16
aVkvm_async_pf_task_wait
p17
aVkvmppc_*
p18
aVmm_iommu_*
p19
aVmv_mbus_*
p20
aVperf_*
p21
aVregister_cxl_calls
p22
aVregister_key_type
p23
aVunregister_cxl_calls
p24
aV*_hw_breakpoint
p25
aVmodule:arch/x86/kvm/*
p26
aVmodule:drivers/crypto/ccp/*
p27
aVmodule:drivers/hv/*
p28
aVmodule:drivers/iio/common/hid-sensors/*
p29
aVmodule:drivers/iio/common/st_sensors/**
p30
aVmodule:drivers/mtd/nand/*
p31
aVmodule:drivers/net/wireless/**
p32
aVmodule:drivers/nvdimm/*
p33
aVmodule:drivers/power/supply/bq27xxx_battery
p34
aVmodule:drivers/scsi/cxgbi/*
p35
aVmodule:drivers/scsi/libiscs*
p36
aVmodule:drivers/scsi/qla2xxx/qla2xxx
p37
aVmodule:drivers/scsi/ufs/*
p38
aVmodule:drivers/target/**
p39
aVmodule:drivers/usb/chipidea/**
p40
aVmodule:drivers/usb/gadget/**
p41
aVmodule:drivers/usb/host/**
p42
aVmodule:drivers/usb/musb/**
p43
aVmodule:fs/nfs/**
p44
aVmodule:net/ceph/libceph
p45
aVmodule:net/l2tp/**
p46
aVmodule:sound/core/seq/**
p47
aVmodule:sound/firewire/snd-firewire-lib
p48
aVbtree_*
p49
aVvisitor*
p50
aVcan_rx_register
p51
aVip6_xmit
p52
aVmodule:net/dccp/dccp
p53
aVmodule:net/rds/rds
p54
aVdevfreq_*
p55
aVdevm_devfreq_*
p56
aVupdate_devfreq
p57
aVmodule:drivers/infiniband/**
p58
aVacpi_ec_add_query_handler
p59
aVacpi_ec_remove_query_handler
p60
aVfirst_ec
p61
aVdebugfs_create_automount
p62
aVmodule:drivers/iio/imu/inv_mpu6050/*
p63
ass(Vbase
p64
tp65
(dp66
Varches
p67
(lp68
Valpha
p69
aVamd64
p70
aVarm64
p71
aVarm64ilp32
p72
aVarmel
p73
aVarmhf
p74
aVhppa
p75
aVi386
p76
aVm68k
p77
aVmips
p78
aVmips64
p79
aVmips64el
p80
aVmips64r6
p81
aVmips64r6el
p82
aVmipsel
p83
aVmipsn32
p84
aVmipsn32el
p85
aVmipsn32r6
p86
aVmipsn32r6el
p87
aVmipsr6
p88
aVmipsr6el
p89
aVpowerpc
p90
aVpowerpcspe
p91
aVppc64
p92
aVppc64el
p93
aVs390
p94
aVs390x
p95
aVsh3
p96
aVsh4
p97
aVsparc
p98
aVsparc64
p99
aVtilegx
p100
aVx32
p101
asVcompiler
p102
Vgcc-6
p103
sVfeaturesets
p104
(lp105
Vnone
p106
aVrt
p107
ass(Vbuild
p108
tp109
(dp110
Vdebug-info
p111
I01
sVsigned-modules
p112
I00
ss(Vbase
p113
NVrt
p114
tp115
(dp116
Venabled
p117
I00
ss(Vdescription
p118
tp119
(dp120
Vpart-long-up
p121
VThis kernel is not suitable for SMP (multi-processor,\u000amulti-core or hyper-threaded) systems.
p122
sVpart-long-xen
p123
VThis kernel also runs on a Xen hypervisor.\u000aIt supports both privileged (dom0) and unprivileged (domU) operation.
p124
ss(Vimage
p125
tp126
(dp127
Vinitramfs-generators
p128
(lp129
Vinitramfs-tools
p130
aVinitramfs-fallback
p131
asVrecommends
p132
Vapparmor
p133
ss(Vrelations
p134
tp135
(dp136
Vgcc-6
p137
Vgcc-6 <!stage1 !cross>, gcc-6-@gnu-type-package@ <!stage1 cross>
p138
sVinitramfs-fallback
p139
Vlinux-initramfs-tool
p140
sVinitramfs-tools
p141
Vinitramfs-tools (>= 0.120+deb8u2)
p142
ss(Vbase
p143
Valpha
p144
tp145
(dp146
Vkernel-arch
p147
Valpha
p148
sVfeaturesets
p149
(lp150
Vnone
p151
ass(Vbuild
p152
g144
tp153
(dp154
Vimage-file
p155
Varch/alpha/boot/vmlinux.gz
p156
sVsigned-modules
p157
I00
ss(Vimage
p158
g144
tp159
(dp160
Vsuggests
p161
Vaboot, fdutils
p162
sVinstall-stem
p163
Vvmlinuz
p164
ss(Vdescription
p165
g144
NValpha-generic
p166
tp167
(dp168
Vhardware
p169
VAlpha
p170
sVhardware-long
p171
VDEC Alpha systems with extended kernel start address (Wildfire, Titan, Marvel)
p172
ss(Vdescription
p173
g144
NValpha-smp
p174
tp175
(dp176
Vhardware
p177
VAlpha SMP
p178
sVhardware-long
p179
VDEC Alpha SMP systems with extended kernel start address (Wildfire, Titan, Marvel)
p180
ss(Vbase
p181
g144
g151
tp182
(dp183
Vflavours
p184
(lp185
Valpha-generic
p186
aValpha-smp
p187
asVimplicit-flavour
p188
I01
ss(Vbase
p189
Vamd64
p190
tp191
(dp192
Vfeaturesets
p193
(lp194
Vnone
p195
aVrt
p196
asVkernel-arch
p197
Vx86
p198
ss(Vbuild
p199
g190
tp200
(dp201
Vdebug-info
p202
I01
sVimage-file
p203
Varch/x86/boot/bzImage
p204
sVvdso
p205
I01
ss(Vimage
p206
g190
tp207
(dp208
Vbootloaders
p209
(lp210
Vgrub-pc
p211
aVgrub-efi-amd64
p212
aVextlinux
p213
asVinstall-stem
p214
Vvmlinuz
p215
sVbreaks
p216
Vxserver-xorg-input-vmmouse (<< 1:13.0.99)
p217
ss(Vrelations
p218
g190
tp219
(dp220
Vheaders%gcc-6
p221
Vlinux-compiler-gcc-6-x86
p222
ss(Vdescription
p223
g190
NVamd64
p224
tp225
(dp226
Vhardware
p227
V64-bit PCs
p228
sVhardware-long
p229
VPCs with AMD64, Intel 64 or VIA Nano processors
p230
ss(Vbase
p231
g190
Vnone
p232
tp233
(dp234
Vflavours
p235
(lp236
Vamd64
p237
ass(Vdescription
p238
g190
g232
Vamd64
p239
tp240
(dp241
Vparts
p242
(lp243
Vxen
p244
ass(Vbase
p245
g190
Vrt
p246
tp247
(dp248
Vflavours
p249
(lp250
Vamd64
p251
ass(Vbase
p252
Varm64
p253
tp254
(dp255
Vkernel-arch
p256
Varm64
p257
sVfeaturesets
p258
(lp259
Vnone
p260
ass(Vbuild
p261
g253
tp262
(dp263
Vdebug-info
p264
I01
sVimage-file
p265
Varch/arm64/boot/Image
p266
sVvdso
p267
I01
ss(Vimage
p268
g253
tp269
(dp270
Vinstall-stem
p271
Vvmlinuz
p272
sVbreaks
p273
Vlibmozjs185-1.0, libmozjs-24-0 (<< 24.2.0-5.1~)
p274
ss(Vdescription
p275
g253
NVarm64
p276
tp277
(dp278
Vhardware
p279
V64-bit ARMv8 machines
p280
ss(Vimage
p281
g253
NVarm64
p282
tp283
(dp284
s(Vbase
p285
g253
Vnone
p286
tp287
(dp288
Vflavours
p289
(lp290
Varm64
p291
ass(Vbase
p292
Varm64ilp32
p293
tp294
(dp295
Vkernel-arch
p296
Varm64
p297
sVfeaturesets
p298
(lp299
ss(Vabi
p300
Varmel
p301
tp302
(dp303
Vignore-changes
p304
(lp305
Vselinux_is_enabled
p306
ass(Vbase
p307
g301
tp308
(dp309
Vkernel-arch
p310
Varm
p311
sg149
(lp312
g151
ass(Vbuild
p313
g301
tp314
(dp315
Vimage-file
p316
Varch/arm/boot/zImage
p317
sVsigned-modules
p318
I00
sVuncompressed-image-file
p319
Varch/arm/boot/Image
p320
ss(Vimage
p321
g301
tp322
(dp323
Vinstall-stem
p324
Vvmlinuz
p325
ss(Vrelations
p326
g301
tp327
(dp328
Vheaders%gcc-6
p329
Vlinux-compiler-gcc-6-arm
p330
ss(Vdescription
p331
g301
NVmarvell
p332
tp333
(dp334
Vhardware
p335
VMarvell Kirkwood/Orion
p336
sVhardware-long
p337
VMarvell Kirkwood based systems (SheevaPlug, QNAP TS-119/TS-219, etc)\u000aand Orion 5181, 5182 and 5281 based systems (QNAP TS-109/TS-209, etc)
p338
ss(Vimage
p339
g301
NVmarvell
p340
tp341
(dp342
Vrecommends
p343
Vu-boot-tools
p344
sVcheck-size
p345
L2097080L
sVcheck-size-with-dtb
p346
I01
sVcheck-uncompressed-size
p347
L7340032L
sVbreaks
p348
Vflash-kernel (<< 3.57~)
p349
ss(g181
g301
g151
tp350
(dp351
g184
(lp352
Vmarvell
p353
asg188
I01
ss(Vbase
p354
Varmhf
p355
tp356
(dp357
Vkernel-arch
p358
Varm
p359
sg149
(lp360
g151
ass(Vbuild
p361
g355
tp362
(dp363
Vimage-file
p364
Varch/arm/boot/zImage
p365
sVvdso
p366
I01
ss(Vimage
p367
g355
tp368
(dp369
Vinstall-stem
p370
Vvmlinuz
p371
ss(Vrelations
p372
g355
tp373
(dp374
Vheaders%gcc-6
p375
Vlinux-compiler-gcc-6-arm
p376
ss(Vdescription
p377
g355
NVarmmp
p378
tp379
(dp380
Vhardware
p381
VARMv7 multiplatform compatible SoCs
p382
sVhardware-long
p383
VARMv7 multiplatform kernel. See\u000ahttps://wiki.debian.org/DebianKernel/ARMMP for details of supported\u000aplatforms
p384
ss(Vdescription
p385
g355
NVarmmp-lpae
p386
tp387
(dp388
Vhardware
p389
VARMv7 multiplatform compatible SoCs supporting LPAE
p390
sVhardware-long
p391
VARMv7 multiplatform kernel supporting LPAE. See\u000ahttps://wiki.debian.org/DebianKernel/ARMMP for details of supported\u000aplatforms.
p392
ss(g181
g355
g151
tp393
(dp394
g184
(lp395
Varmmp
p396
aVarmmp-lpae
p397
asg188
I01
ss(Vbase
p398
Vhppa
p399
tp400
(dp401
Vkernel-arch
p402
Vparisc
p403
sg149
(lp404
g151
ass(Vbuild
p405
g399
tp406
(dp407
Vimage-file
p408
Vvmlinux
p409
sVsigned-modules
p410
I00
ss(Vimage
p411
g399
tp412
(dp413
Vsuggests
p414
Vpalo
p415
sVinstall-stem
p416
Vvmlinux
p417
ss(Vdescription
p418
g399
NVparisc
p419
tp420
(dp421
Vhardware
p422
V32-bit PA-RISC
p423
sVhardware-long
p424
VHP PA-RISC 32-bit systems with max 4 GB RAM
p425
ss(Vbase
p426
g399
NVparisc64-smp
p427
tp428
(dp429
Vcflags
p430
V-fno-cse-follow-jumps
p431
sVoverride-host-type
p432
Vhppa64-linux-gnu
p433
ss(Vdescription
p434
g399
NVparisc64-smp
p435
tp436
(dp437
Vhardware
p438
Vmultiprocessor 64-bit PA-RISC
p439
sVhardware-long
p440
VHP PA-RISC 64-bit SMP systems with support for more than 4 GB RAM
p441
ss(Vrelations
p442
g399
tp443
(dp444
Vgcc-6
p445
Vgcc-6 <!stage1 !cross>, binutils-hppa64-linux-gnu <!stage1 !cross>, gcc-6-hppa64-linux-gnu <!stage1 !cross>, gcc-6-hppa-linux-gnu <!stage1 cross>, binutils-hppa64-linux-gnu <!stage1 cross>, gcc-6-hppa64-linux-gnu <!stage1 cross>
p446
ss(g181
g399
g151
tp447
(dp448
g184
(lp449
Vparisc
p450
aVparisc64-smp
p451
asg188
I01
ss(Vbase
p452
Vi386
p453
tp454
(dp455
Vfeaturesets
p456
(lp457
Vnone
p458
aVrt
p459
asVkernel-arch
p460
Vx86
p461
ss(Vbuild
p462
g453
tp463
(dp464
Vimage-file
p465
Varch/x86/boot/bzImage
p466
sVvdso
p467
I01
ss(Vdescription
p468
g453
tp469
(dp470
Vpart-long-pae
p471
VThis kernel requires PAE (Physical Address Extension).\u000aThis feature is supported by the Intel Pentium Pro/II/III/4/4M/D, Xeon,\u000aCore and Atom; AMD Geode NX, Athlon (K7), Duron, Opteron, Sempron,\u000aTurion or Phenom; Transmeta Efficeon; VIA C7; and some other processors.
p472
ss(Vimage
p473
g453
tp474
(dp475
Vbootloaders
p476
(lp477
Vgrub-pc
p478
aVextlinux
p479
asVinstall-stem
p480
Vvmlinuz
p481
sVbreaks
p482
Vxserver-xorg-input-vmmouse (<< 1:13.0.99)
p483
ss(Vrelations
p484
g453
tp485
(dp486
Vheaders%gcc-6
p487
Vlinux-compiler-gcc-6-x86
p488
ss(Vdescription
p489
g453
NV686
p490
tp491
(dp492
Vhardware
p493
Volder PCs
p494
sVhardware-long
p495
VPCs with one or more processors not supporting PAE
p496
ss(Vbuild
p497
g453
NV686-pae
p498
tp499
(dp500
Vdebug-info
p501
I01
ss(Vdescription
p502
g453
NV686-pae
p503
tp504
(dp505
Vhardware
p506
Vmodern PCs
p507
sVhardware-long
p508
VPCs with one or more processors supporting PAE
p509
sVparts
p510
(lp511
Vpae
p512
ass(Vbase
p513
g453
Vnone
p514
tp515
(dp516
Vflavours
p517
(lp518
V686
p519
aV686-pae
p520
ass(Vdescription
p521
g453
g514
V686-pae
p522
tp523
(dp524
Vparts
p525
(lp526
Vxen
p527
ass(Vbase
p528
g453
Vrt
p529
tp530
(dp531
Vflavours
p532
(lp533
V686-pae
p534
ass(Vbase
p535
Vm68k
p536
tp537
(dp538
Vcflags
p539
V-ffreestanding
p540
sVkernel-arch
p541
Vm68k
p542
sg149
(lp543
g151
ass(Vbuild
p544
g536
tp545
(dp546
Vimage-file
p547
Vvmlinux.gz
p548
sVsigned-modules
p549
I00
ss(Vimage
p550
g536
tp551
(dp552
Vsuggests
p553
Vvmelilo, fdutils
p554
sVinstall-stem
p555
Vvmlinuz
p556
ss(Vdescription
p557
g536
NVm68k
p558
tp559
(dp560
Vhardware
p561
VMotorola MC68020+ family
p562
ss(g181
g536
g151
tp563
(dp564
g184
(lp565
Vm68k
p566
asg188
I01
ss(Vbase
p567
Vmips
p568
tp569
(dp570
Vkernel-arch
p571
Vmips
p572
sg149
(lp573
g151
ass(Vbuild
p574
g568
tp575
(dp576
Vimage-file
p577
Vvmlinux
p578
sVsigned-modules
p579
I00
ss(Vimage
p580
g568
tp581
(dp582
Vinstall-stem
p583
Vvmlinux
p584
ss(Vdescription
p585
g568
NV4kc-malta
p586
tp587
(dp588
Vhardware
p589
VMIPS Malta
p590
sVhardware-long
p591
VMIPS Malta boards
p592
ss(Vimage
p593
g568
NV4kc-malta
p594
tp595
(dp596
Vconfigs
p597
(lp598
Vkernelarch-mips/config.malta
p599
aVkernelarch-mips/config.mips32r2
p600
ass(Vdescription
p601
g568
NV5kc-malta
p602
tp603
(dp604
Vhardware
p605
VMIPS Malta (64-bit)
p606
sVhardware-long
p607
VMIPS Malta boards (64-bit)
p608
ss(Vimage
p609
g568
NV5kc-malta
p610
tp611
(dp612
Vconfigs
p613
(lp614
Vkernelarch-mips/config.malta
p615
aVkernelarch-mips/config.mips64r2
p616
ass(Vdescription
p617
g568
NVocteon
p618
tp619
(dp620
Vhardware
p621
VOcteon
p622
sVhardware-long
p623
VCavium Networks Octeon
p624
ss(Vimage
p625
g568
NVocteon
p626
tp627
(dp628
Vconfigs
p629
(lp630
Vkernelarch-mips/config.octeon
p631
ass(g181
g568
g151
tp632
(dp633
g184
(lp634
V4kc-malta
p635
aV5kc-malta
p636
aVocteon
p637
asg188
I01
ss(Vbase
p638
Vmips64
p639
tp640
(dp641
Vkernel-arch
p642
Vmips
p643
sg149
(lp644
g151
ass(Vbuild
p645
g639
tp646
(dp647
Vimage-file
p648
Vvmlinux
p649
sVsigned-modules
p650
I00
ss(Vimage
p651
g639
tp652
(dp653
Vinstall-stem
p654
Vvmlinux
p655
ss(Vdescription
p656
g639
NV5kc-malta
p657
tp658
(dp659
Vhardware
p660
VMIPS Malta
p661
sVhardware-long
p662
VMIPS Malta boards
p663
ss(Vimage
p664
g639
NV5kc-malta
p665
tp666
(dp667
Vconfigs
p668
(lp669
Vkernelarch-mips/config.malta
p670
aVkernelarch-mips/config.mips64r2
p671
ass(Vdescription
p672
g639
NVocteon
p673
tp674
(dp675
Vhardware
p676
VOcteon
p677
sVhardware-long
p678
VCavium Networks Octeon
p679
ss(Vimage
p680
g639
NVocteon
p681
tp682
(dp683
Vconfigs
p684
(lp685
Vkernelarch-mips/config.octeon
p686
ass(g181
g639
g151
tp687
(dp688
g184
(lp689
V5kc-malta
p690
aVocteon
p691
asg188
I01
ss(Vbase
p692
Vmips64el
p693
tp694
(dp695
Vkernel-arch
p696
Vmips
p697
sg149
(lp698
g151
ass(Vbuild
p699
g693
tp700
(dp701
Vimage-file
p702
Vvmlinux
p703
sVsigned-modules
p704
I00
ss(Vimage
p705
g693
tp706
(dp707
Vinstall-stem
p708
Vvmlinux
p709
ss(Vdescription
p710
g693
NV5kc-malta
p711
tp712
(dp713
Vhardware
p714
VMIPS Malta
p715
sVhardware-long
p716
VMIPS Malta boards
p717
ss(Vimage
p718
g693
NV5kc-malta
p719
tp720
(dp721
Vconfigs
p722
(lp723
Vkernelarch-mips/config.malta
p724
aVkernelarch-mips/config.mips64r2
p725
ass(Vdescription
p726
g693
NVloongson-3
p727
tp728
(dp729
Vhardware
p730
VLoongson 3A/3B
p731
sVhardware-long
p732
VLoongson 3A or 3B based systems (e.g. from Loongson or Lemote)
p733
ss(Vimage
p734
g693
NVloongson-3
p735
tp736
(dp737
Vconfigs
p738
(lp739
Vkernelarch-mips/config.loongson-3
p740
ass(Vdescription
p741
g693
NVocteon
p742
tp743
(dp744
Vhardware
p745
VOcteon
p746
sVhardware-long
p747
VCavium Networks Octeon
p748
ss(Vimage
p749
g693
NVocteon
p750
tp751
(dp752
Vconfigs
p753
(lp754
Vkernelarch-mips/config.octeon
p755
ass(g181
g693
g151
tp756
(dp757
g184
(lp758
V5kc-malta
p759
aVloongson-3
p760
aVocteon
p761
asg188
I01
ss(Vbase
p762
Vmips64r6
p763
tp764
(dp765
Vkernel-arch
p766
Vmips
p767
sg149
(lp768
g151
ass(Vbuild
p769
g763
tp770
(dp771
Vimage-file
p772
Vvmlinux
p773
sVsigned-modules
p774
I00
ss(Vimage
p775
g763
tp776
(dp777
Vinstall-stem
p778
Vvmlinux
p779
ss(Vdescription
p780
g763
NVmips64r6
p781
tp782
(dp783
Vhardware
p784
VMIPS R6 (64 bit, big endian)
p785
sVhardware-long
p786
VMIPS R6 (64 bit, big endian)
p787
ss(Vimage
p788
g763
NVmips64r6
p789
tp790
(dp791
Vconfigs
p792
(lp793
Vkernelarch-mips/config.malta
p794
aVkernelarch-mips/config.mips64r6
p795
ass(g181
g763
g151
tp796
(dp797
g184
(lp798
Vmips64r6
p799
asg188
I01
ss(Vbase
p800
Vmips64r6el
p801
tp802
(dp803
Vkernel-arch
p804
Vmips
p805
sg149
(lp806
g151
ass(Vbuild
p807
g801
tp808
(dp809
Vimage-file
p810
Vvmlinux
p811
sVsigned-modules
p812
I00
ss(Vimage
p813
g801
tp814
(dp815
Vinstall-stem
p816
Vvmlinux
p817
ss(Vdescription
p818
g801
NVmips64r6el
p819
tp820
(dp821
Vhardware
p822
VMIPS R6 (64 bit, little endian)
p823
sVhardware-long
p824
VMIPS R6 (64 bit, little endian)
p825
ss(Vimage
p826
g801
NVmips64r6el
p827
tp828
(dp829
Vconfigs
p830
(lp831
Vkernelarch-mips/config.malta
p832
aVkernelarch-mips/config.mips64r6
p833
ass(g181
g801
g151
tp834
(dp835
g184
(lp836
Vmips64r6el
p837
asg188
I01
ss(Vbase
p838
Vmipsel
p839
tp840
(dp841
Vkernel-arch
p842
Vmips
p843
sg149
(lp844
g151
ass(Vbuild
p845
g839
tp846
(dp847
Vimage-file
p848
Vvmlinux
p849
sVsigned-modules
p850
I00
ss(Vimage
p851
g839
tp852
(dp853
Vinstall-stem
p854
Vvmlinux
p855
ss(Vdescription
p856
g839
NV4kc-malta
p857
tp858
(dp859
Vhardware
p860
VMIPS Malta
p861
sVhardware-long
p862
VMIPS Malta boards
p863
ss(Vimage
p864
g839
NV4kc-malta
p865
tp866
(dp867
Vconfigs
p868
(lp869
Vkernelarch-mips/config.malta
p870
aVkernelarch-mips/config.mips32r2
p871
ass(Vdescription
p872
g839
NV5kc-malta
p873
tp874
(dp875
Vhardware
p876
VMIPS Malta (64-bit)
p877
sVhardware-long
p878
VMIPS Malta boards (64-bit)
p879
ss(Vimage
p880
g839
NV5kc-malta
p881
tp882
(dp883
Vconfigs
p884
(lp885
Vkernelarch-mips/config.malta
p886
aVkernelarch-mips/config.mips64r2
p887
ass(Vdescription
p888
g839
NVloongson-3
p889
tp890
(dp891
Vhardware
p892
VLoongson 3A/3B
p893
sVhardware-long
p894
VLoongson 3A or 3B based systems (e.g. from Loongson or Lemote)
p895
ss(Vimage
p896
g839
NVloongson-3
p897
tp898
(dp899
Vconfigs
p900
(lp901
Vkernelarch-mips/config.loongson-3
p902
ass(Vdescription
p903
g839
NVocteon
p904
tp905
(dp906
Vhardware
p907
VOcteon
p908
sVhardware-long
p909
VCavium Networks Octeon
p910
ss(Vimage
p911
g839
NVocteon
p912
tp913
(dp914
Vconfigs
p915
(lp916
Vkernelarch-mips/config.octeon
p917
ass(g181
g839
g151
tp918
(dp919
g184
(lp920
V4kc-malta
p921
aV5kc-malta
p922
aVloongson-3
p923
aVocteon
p924
asg188
I01
ss(Vbase
p925
Vmipsn32
p926
tp927
(dp928
Vkernel-arch
p929
Vmips
p930
sVfeaturesets
p931
(lp932
ss(Vbase
p933
Vmipsn32el
p934
tp935
(dp936
Vkernel-arch
p937
Vmips
p938
sVfeaturesets
p939
(lp940
ss(Vbase
p941
Vmipsn32r6
p942
tp943
(dp944
Vkernel-arch
p945
Vmips
p946
sVfeaturesets
p947
(lp948
ss(Vbase
p949
Vmipsn32r6el
p950
tp951
(dp952
Vkernel-arch
p953
Vmips
p954
sVfeaturesets
p955
(lp956
ss(Vbase
p957
Vmipsr6
p958
tp959
(dp960
Vkernel-arch
p961
Vmips
p962
sg149
(lp963
g151
ass(Vbuild
p964
g958
tp965
(dp966
Vimage-file
p967
Vvmlinux
p968
sVsigned-modules
p969
I00
ss(Vimage
p970
g958
tp971
(dp972
Vinstall-stem
p973
Vvmlinux
p974
ss(Vdescription
p975
g958
NVmips32r6
p976
tp977
(dp978
Vhardware
p979
VMIPS R6 (32 bit, big endian)
p980
sVhardware-long
p981
VMIPS R6 (32 bit, big endian)
p982
ss(Vimage
p983
g958
NVmips32r6
p984
tp985
(dp986
Vconfigs
p987
(lp988
Vkernelarch-mips/config.malta
p989
aVkernelarch-mips/config.mips32r6
p990
ass(Vdescription
p991
g958
NVmips64r6
p992
tp993
(dp994
Vhardware
p995
VMIPS R6 (64 bit, big endian)
p996
sVhardware-long
p997
VMIPS R6 (64 bit, big endian)
p998
ss(Vimage
p999
g958
NVmips64r6
p1000
tp1001
(dp1002
Vconfigs
p1003
(lp1004
Vkernelarch-mips/config.malta
p1005
aVkernelarch-mips/config.mips64r6
p1006
ass(g181
g958
g151
tp1007
(dp1008
g184
(lp1009
Vmips32r6
p1010
aVmips64r6
p1011
asg188
I01
ss(Vbase
p1012
Vmipsr6el
p1013
tp1014
(dp1015
Vkernel-arch
p1016
Vmips
p1017
sg149
(lp1018
g151
ass(Vbuild
p1019
g1013
tp1020
(dp1021
Vimage-file
p1022
Vvmlinux
p1023
sVsigned-modules
p1024
I00
ss(Vimage
p1025
g1013
tp1026
(dp1027
Vinstall-stem
p1028
Vvmlinux
p1029
ss(Vdescription
p1030
g1013
NVmips32r6el
p1031
tp1032
(dp1033
Vhardware
p1034
VMIPS R6 (32 bit, little endian)
p1035
sVhardware-long
p1036
VMIPS R6 (32 bit, little endian)
p1037
ss(Vimage
p1038
g1013
NVmips32r6el
p1039
tp1040
(dp1041
Vconfigs
p1042
(lp1043
Vkernelarch-mips/config.malta
p1044
aVkernelarch-mips/config.mips32r6
p1045
ass(Vdescription
p1046
g1013
NVmips64r6el
p1047
tp1048
(dp1049
Vhardware
p1050
VMIPS R6 (64 bit, little endian)
p1051
sVhardware-long
p1052
VMIPS R6 (64 bit, little endian)
p1053
ss(Vimage
p1054
g1013
NVmips64r6el
p1055
tp1056
(dp1057
Vconfigs
p1058
(lp1059
Vkernelarch-mips/config.malta
p1060
aVkernelarch-mips/config.mips64r6
p1061
ass(g181
g1013
g151
tp1062
(dp1063
g184
(lp1064
Vmips32r6el
p1065
aVmips64r6el
p1066
asg188
I01
ss(Vbase
p1067
Vpowerpc
p1068
tp1069
(dp1070
Vkernel-arch
p1071
Vpowerpc
p1072
sg149
(lp1073
g151
ass(Vbuild
p1074
g1068
tp1075
(dp1076
Vimage-file
p1077
Vvmlinux
p1078
sVvdso
p1079
I01
ss(Vimage
p1080
g1068
tp1081
(dp1082
Vconfigs
p1083
(lp1084
sVsuggests
p1085
Vmkvmlinuz
p1086
sVinstall-stem
p1087
Vvmlinux
p1088
ss(Vdescription
p1089
g1068
NVpowerpc
p1090
tp1091
(dp1092
Vhardware
p1093
Vuniprocessor 32-bit PowerPC
p1094
ss(Vdescription
p1095
g1068
NVpowerpc-smp
p1096
tp1097
(dp1098
Vhardware
p1099
Vmultiprocessor 32-bit PowerPC
p1100
ss(Vimage
p1101
g1068
NVpowerpc-smp
p1102
tp1103
(dp1104
Vconfigs
p1105
(lp1106
Vpowerpc/config.powerpc
p1107
aVpowerpc/config.powerpc-smp
p1108
ass(Vdescription
p1109
g1068
NVpowerpc64
p1110
tp1111
(dp1112
Vhardware
p1113
V64-bit PowerPC
p1114
ss(Vimage
p1115
g1068
NVpowerpc64
p1116
tp1117
(dp1118
Vconfigs
p1119
(lp1120
Vkernelarch-powerpc/config-arch-64
p1121
aVkernelarch-powerpc/config-arch-64-be
p1122
ass(g181
g1068
g151
tp1123
(dp1124
g184
(lp1125
Vpowerpc
p1126
aVpowerpc-smp
p1127
aVpowerpc64
p1128
asg188
I01
ss(Vbase
p1129
Vpowerpcspe
p1130
tp1131
(dp1132
Vkernel-arch
p1133
Vpowerpc
p1134
sg149
(lp1135
g151
ass(Vbuild
p1136
g1130
tp1137
(dp1138
Vimage-file
p1139
Vvmlinux
p1140
sVsigned-modules
p1141
I00
sVvdso
p1142
I01
ss(Vimage
p1143
g1130
tp1144
(dp1145
Vsuggests
p1146
Vmkvmlinuz
p1147
sVinstall-stem
p1148
Vvmlinux
p1149
ss(Vdescription
p1150
g1130
tp1151
(dp1152
Vhardware
p1153
V32-bit PowerPC with SPE (instead of AltiVec) with SMP support
p1154
ss(g181
g1130
g151
tp1155
(dp1156
g184
(lp1157
Vpowerpcspe
p1158
asg188
I01
ss(Vbase
p1159
Vppc64
p1160
tp1161
(dp1162
Vkernel-arch
p1163
Vpowerpc
p1164
sg149
(lp1165
g151
ass(Vbuild
p1166
g1160
tp1167
(dp1168
Vimage-file
p1169
Vvmlinux
p1170
sVsigned-modules
p1171
I00
sVvdso
p1172
I01
ss(Vimage
p1173
g1160
tp1174
(dp1175
Vconfigs
p1176
(lp1177
sVsuggests
p1178
Vmkvmlinuz
p1179
sVinstall-stem
p1180
Vvmlinux
p1181
ss(Vdescription
p1182
g1160
NVpowerpc64
p1183
tp1184
(dp1185
Vhardware
p1186
V64-bit PowerPC
p1187
ss(Vimage
p1188
g1160
NVpowerpc64
p1189
tp1190
(dp1191
Vconfigs
p1192
(lp1193
Vkernelarch-powerpc/config-arch-64
p1194
aVkernelarch-powerpc/config-arch-64-be
p1195
ass(g181
g1160
g151
tp1196
(dp1197
g184
(lp1198
Vpowerpc64
p1199
asg188
I01
ss(Vbase
p1200
Vppc64el
p1201
tp1202
(dp1203
Vkernel-arch
p1204
Vpowerpc
p1205
sg149
(lp1206
g151
ass(Vbuild
p1207
g1201
tp1208
(dp1209
Vimage-file
p1210
Vvmlinux
p1211
sVvdso
p1212
I01
ss(Vimage
p1213
g1201
tp1214
(dp1215
Vconfigs
p1216
(lp1217
sVsuggests
p1218
Vmkvmlinuz
p1219
sVinstall-stem
p1220
Vvmlinux
p1221
ss(Vdescription
p1222
g1201
NVpowerpc64le
p1223
tp1224
(dp1225
Vhardware
p1226
VLittle-endian 64-bit PowerPC
p1227
ss(Vimage
p1228
g1201
NVpowerpc64le
p1229
tp1230
(dp1231
Vconfigs
p1232
(lp1233
Vkernelarch-powerpc/config-arch-64
p1234
aVkernelarch-powerpc/config-arch-64-le
p1235
ass(g181
g1201
g151
tp1236
(dp1237
g184
(lp1238
Vpowerpc64le
p1239
asg188
I01
ss(Vbase
p1240
Vs390
p1241
tp1242
(dp1243
Vkernel-arch
p1244
Vs390
p1245
sVfeaturesets
p1246
(lp1247
ss(Vbase
p1248
Vs390x
p1249
tp1250
(dp1251
Vkernel-arch
p1252
Vs390
p1253
sg149
(lp1254
g151
ass(Vbuild
p1255
g1249
tp1256
(dp1257
Vimage-file
p1258
Varch/s390/boot/image
p1259
sVvdso
p1260
I01
ss(Vimage
p1261
g1249
tp1262
(dp1263
Vbootloaders
p1264
(lp1265
Vs390-tools
p1266
asVinstall-stem
p1267
Vvmlinuz
p1268
ss(Vrelations
p1269
g1249
tp1270
(dp1271
Vheaders%gcc-6
p1272
Vlinux-compiler-gcc-6-s390
p1273
ss(Vbuild
p1274
g1249
NVs390x
p1275
tp1276
(dp1277
Vdebug-info
p1278
I01
ss(Vdescription
p1279
g1249
NVs390x
p1280
tp1281
(dp1282
Vhardware
p1283
VIBM zSeries
p1284
ss(g181
g1249
g151
tp1285
(dp1286
g184
(lp1287
Vs390x
p1288
asg188
I01
ss(Vbase
p1289
Vsh3
p1290
tp1291
(dp1292
Vkernel-arch
p1293
Vsh
p1294
sVfeaturesets
p1295
(lp1296
ss(Vbase
p1297
Vsh4
p1298
tp1299
(dp1300
Vkernel-arch
p1301
Vsh
p1302
sg149
(lp1303
g151
ass(Vbuild
p1304
g1298
tp1305
(dp1306
Vimage-file
p1307
Varch/sh/boot/zImage
p1308
sVsigned-modules
p1309
I00
ss(Vimage
p1310
g1298
tp1311
(dp1312
Vinstall-stem
p1313
Vvmlinuz
p1314
ss(Vdescription
p1315
g1298
NVsh7751r
p1316
tp1317
(dp1318
Vhardware
p1319
Vsh7751r
p1320
sVhardware-long
p1321
VRenesas SH7751R R2D plus board
p1322
ss(Vdescription
p1323
g1298
NVsh7785lcr
p1324
tp1325
(dp1326
Vhardware
p1327
Vsh7785lcr
p1328
sVhardware-long
p1329
VRenesas SH7785 reference board
p1330
ss(Vimage
p1331
g1298
NVsh7785lcr
p1332
tp1333
(dp1334
Vrecommends
p1335
Vu-boot-tools
p1336
sVcheck-size
p1337
L4194304L
ss(g181
g1298
g151
tp1338
(dp1339
g184
(lp1340
Vsh7751r
p1341
aVsh7785lcr
p1342
asg188
I01
ss(Vbase
p1343
Vsparc
p1344
tp1345
(dp1346
Vkernel-arch
p1347
Vsparc
p1348
sVfeaturesets
p1349
(lp1350
ss(Vbase
p1351
Vsparc64
p1352
tp1353
(dp1354
Vkernel-arch
p1355
Vsparc
p1356
sg149
(lp1357
g151
ass(Vbuild
p1358
g1352
tp1359
(dp1360
Vimage-file
p1361
Varch/sparc/boot/zImage
p1362
sVsigned-modules
p1363
I00
ss(Vimage
p1364
g1352
tp1365
(dp1366
Vconfigs
p1367
(lp1368
sVsuggests
p1369
Vsilo, fdutils
p1370
sVinstall-stem
p1371
Vvmlinuz
p1372
ss(Vdescription
p1373
g1352
NVsparc64
p1374
tp1375
(dp1376
Vhardware
p1377
Vuniprocessor 64-bit UltraSPARC
p1378
ss(Vimage
p1379
g1352
NVsparc64
p1380
tp1381
(dp1382
Vconfigs
p1383
(lp1384
Vkernelarch-sparc/config-up
p1385
ass(Vdescription
p1386
g1352
NVsparc64-smp
p1387
tp1388
(dp1389
Vhardware
p1390
Vmultiprocessor 64-bit UltraSPARC
p1391
ss(Vimage
p1392
g1352
NVsparc64-smp
p1393
tp1394
(dp1395
Vconfigs
p1396
(lp1397
Vkernelarch-sparc/config-smp
p1398
ass(g181
g1352
g151
tp1399
(dp1400
g184
(lp1401
Vsparc64
p1402
aVsparc64-smp
p1403
asg188
I01
ss(Vbase
p1404
Vtilegx
p1405
tp1406
(dp1407
Vkernel-arch
p1408
Vtile
p1409
sVfeaturesets
p1410
(lp1411
ss(Vbase
p1412
Vx32
p1413
tp1414
(dp1415
Vkernel-arch
p1416
Vx86
p1417
sVfeaturesets
p1418
(lp1419
ss(Vabi
p1420
NVrt
p1421
tp1422
(dp1423
Vignore-changes
p1424
(lp1425
V*
p1426
ass(Vdescription
p1427
Ng1421
tp1428
(dp1429
Vpart-long-rt
p1430
VThis kernel includes the PREEMPT_RT realtime patch set.
p1431
sVpart-short-rt
p1432
VPREEMPT_RT
p1433
sVparts
p1434
(lp1435
Vrt
p1436
ass(Vversion
p1437
tp1438
(dp1439
Vsource
p1440
V4.13.13-1
p1441
sVupstream
p1442
V4.13
p1443
sVabiname_base
p1444
V4.13.0
p1445
sVabiname
p1446
V4.13.0-1
p1447
ss.