ccopy_reg
_reconstructor
p0
(cdebian_linux.config
ConfigCore
p1
c__builtin__
dict
p2
(dp3
(S'image'
p4
S'sparc'
p5
NS'sparc64'
p6
tp7
(dp8
S'configs'
p9
(lp10
S'kernelarch-sparc/config-up'
p11
ass(S'build'
p12
S'i386'
p13
NS'686-pae'
p14
tp15
(dp16
S'debug-info'
p17
I01
ss(S'image'
p18
S'amd64'
p19
tp20
(dp21
S'install-stem'
p22
S'vmlinuz'
p23
sS'configs'
p24
(lp25
sS'bootloaders'
p26
(lp27
S'grub-pc'
p28
aS'grub-efi'
p29
aS'extlinux'
p30
ass(S'description'
p31
S'ia64'
p32
NS'mckinley'
p33
tp34
(dp35
S'hardware'
p36
S'Itanium II'
p37
ss(S'base'
p38
g19
S'none'
p39
tp40
(dp41
S'flavours'
p42
(lp43
S'amd64'
p44
ass(S'description'
p45
g13
NS'amd64'
p46
tp47
(dp48
S'hardware'
p49
S'64-bit PCs'
p50
sS'parts'
p51
(lp52
S'xen'
p53
asS'hardware-long'
p54
S'PCs with AMD64, Intel 64 or VIA Nano processors'
p55
ss(S'image'
p56
S'powerpc'
p57
NS'powerpc64'
p58
tp59
(dp60
S'configs'
p61
(lp62
S'kernelarch-powerpc/config-arch-64'
p63
aS'kernelarch-powerpc/config-arch-64-be'
p64
ass(S'description'
p65
S'armhf'
p66
NS'armmp-lpae'
p67
tp68
(dp69
S'hardware'
p70
S'ARMv7 multiplatform compatible SoCs supporting LPAE'
p71
sS'hardware-long'
p72
S'ARMv7 multiplatform kernel supporting LPAE. See\nhttps://wiki.debian.org/DebianKernel/ARMMP for details of supported\nplatforms.'
p73
ss(S'image'
p74
g66
NS'armmp-lpae'
p75
tp76
(dp77
S'configs'
p78
(lp79
S'armhf/config.armmp'
p80
aS'armhf/config.lpae'
p81
ass(S'image'
p82
S'mips64el'
p83
NS'sb1-bcm91250a'
p84
tp85
(dp86
S'configs'
p87
(lp88
S'kernelarch-mips/config.sb1-bcm91250a'
p89
ass(S'image'
p90
g32
tp91
(dp92
S'suggests'
p93
S'fdutils'
p94
sS'bootloaders'
p95
(lp96
S'elilo'
p97
asS'install-stem'
p98
S'vmlinuz'
p99
ss(S'description'
p100
g57
NS'powerpc'
p101
tp102
(dp103
S'hardware'
p104
S'uniprocessor 32-bit PowerPC'
p105
ss(S'description'
p106
S'hppa'
p107
NS'parisc64-smp'
p108
tp109
(dp110
S'hardware'
p111
S'multiprocessor 64-bit PA-RISC'
p112
sS'hardware-long'
p113
S'HP PA-RISC 64-bit SMP systems with support for more than 4 GB RAM'
p114
ss(S'description'
p115
S'sh4'
p116
NS'sh7751r'
p117
tp118
(dp119
S'hardware'
p120
S'sh7751r'
p121
sS'hardware-long'
p122
S'Renesas SH7751R R2D plus board'
p123
ss(S'image'
p124
S'arm64'
p125
NS'arm64'
p126
tp127
(dp128
s(S'description'
p129
g19
g39
S'amd64'
p130
tp131
(dp132
S'parts'
p133
(lp134
S'xen'
p135
ass(S'base'
p136
S'ppc64'
p137
S'none'
p138
tp139
(dp140
S'implicit-flavour'
p141
I01
sS'flavours'
p142
(lp143
S'powerpc64'
p144
ass(S'description'
p145
S'alpha'
p146
NS'alpha-smp'
p147
tp148
(dp149
S'hardware'
p150
S'Alpha SMP'
p151
sS'hardware-long'
p152
S'DEC Alpha SMP systems with extended kernel start address (Wildfire, Titan, Marvel)'
p153
ss(S'image'
p154
S'mipsel'
p155
NS'4kc-malta'
p156
tp157
(dp158
S'configs'
p159
(lp160
S'kernelarch-mips/config.4kc-malta'
p161
ass(S'image'
p162
S'sparc64'
p163
NS'sparc64'
p164
tp165
(dp166
S'configs'
p167
(lp168
S'kernelarch-sparc/config-up'
p169
ass(S'description'
p170
g13
NS'586'
p171
tp172
(dp173
S'hardware'
p174
S'older PCs'
p175
sS'parts'
p176
(lp177
S'up'
p178
asS'hardware-long'
p179
S'PCs with a single processor not supporting PAE'
p180
ss(S'base'
p181
g146
tp182
(dp183
S'kernel-arch'
p184
S'alpha'
p185
sS'featuresets'
p186
(lp187
g138
ass(g136
g66
g138
tp188
(dp189
g141
I01
sg142
(lp190
S'armmp'
p191
aS'armmp-lpae'
p192
ass(S'build'
p193
S's390x'
p194
NS's390x'
p195
tp196
(dp197
S'debug-info'
p198
I01
ss(S'base'
p199
g13
S'rt'
p200
tp201
(dp202
S'flavours'
p203
(lp204
S'686-pae'
p205
ass(S'image'
p206
S'mips64'
p207
NS'sb1-bcm91250a'
p208
tp209
(dp210
S'configs'
p211
(lp212
S'kernelarch-mips/config.sb1-bcm91250a'
p213
ass(S'image'
p214
S'ppc64el'
p215
tp216
(dp217
S'suggests'
p218
S'mkvmlinuz'
p219
sS'configs'
p220
(lp221
sS'install-stem'
p222
S'vmlinux'
p223
ss(S'image'
p224
g194
NS's390x'
p225
tp226
(dp227
S'configs'
p228
(lp229
S'kernelarch-s390/config-arch-64'
p230
ass(S'relations'
p231
g13
tp232
(dp233
S'headers%gcc-4.8'
p234
S'linux-compiler-gcc-4.8-x86'
p235
ss(S'image'
p236
g116
NS'sh7785lcr'
p237
tp238
(dp239
S'check-size'
p240
S'4194304'
p241
sS'recommends'
p242
S'uboot-mkimage'
p243
ss(S'image'
p244
g5
NS'sparc32'
p245
tp246
(dp247
S'image-postproc'
p248
S'sparc32-image-postproc'
p249
ss(S'image'
p250
g13
NS'amd64'
p251
tp252
(dp253
S'configs'
p254
(lp255
S'kernelarch-x86/config-arch-64'
p256
asS'recommends'
p257
S'libc6-i686'
p258
ss(S'image'
p259
g57
tp260
(dp261
S'suggests'
p262
S'mkvmlinuz'
p263
sS'configs'
p264
(lp265
sS'install-stem'
p266
S'vmlinux'
p267
ss(S'description'
p268
S's390'
p269
NS's390x'
p270
tp271
(dp272
S'hardware'
p273
S'IBM zSeries'
p274
ss(S'description'
p275
S'armel'
p276
NS'orion5x'
p277
tp278
(dp279
S'hardware'
p280
S'Marvell Orion'
p281
sS'hardware-long'
p282
S'Marvell Orion 5181, 5182 and 5281 based systems (QNAP TS-109/TS-209, etc)'
p283
ss(S'base'
p284
g19
S'rt'
p285
tp286
(dp287
S'flavours'
p288
(lp289
S'amd64'
p290
ass(S'build'
p291
g215
tp292
(dp293
S'image-file'
p294
S'vmlinux'
p295
ss(S'build'
p296
g137
tp297
(dp298
S'image-file'
p299
S'vmlinux'
p300
ss(S'image'
p301
g83
NS'loongson-3'
p302
tp303
(dp304
S'configs'
p305
(lp306
S'kernelarch-mips/config.loongson-3'
p307
ass(S'description'
p308
g13
S'none'
p309
S'amd64'
p310
tp311
(dp312
S'parts'
p313
(lp314
S'xen'
p315
ass(S'description'
p316
g155
NS'loongson-3'
p317
tp318
(dp319
S'hardware'
p320
S'Loongson 3A/3B'
p321
sS'hardware-long'
p322
S'Loongson 3A or 3B based systems (e.g. from Loongson or Lemote)'
p323
ss(S'base'
p324
g125
tp325
(dp326
S'kernel-arch'
p327
S'arm64'
p328
sS'featuresets'
p329
(lp330
S'none'
p331
ass(S'base'
p332
g13
tp333
(dp334
S'kernel-arch'
p335
S'x86'
p336
sS'featuresets'
p337
(lp338
S'none'
p339
aS'rt'
p340
ass(S'image'
p341
g155
NS'loongson-3'
p342
tp343
(dp344
S'configs'
p345
(lp346
S'kernelarch-mips/config.loongson-3'
p347
ass(S'base'
p348
g155
tp349
(dp350
S'kernel-arch'
p351
S'mips'
p352
sg186
(lp353
g138
ass(S'relations'
p354
g19
tp355
(dp356
S'headers%gcc-4.8'
p357
S'linux-compiler-gcc-4.8-x86'
p358
ss(S'abi'
p359
g276
NS'kirkwood'
p360
tp361
(dp362
S'ignore-changes'
p363
(lp364
S'zs_create_pool'
p365
aS'zs_destroy_pool'
p366
aS'zs_free'
p367
aS'zs_get_total_size_bytes'
p368
aS'zs_malloc'
p369
aS'zs_map_object'
p370
aS'zs_unmap_object'
p371
aS'fips_enabled'
p372
aS'dcookie_register'
p373
aS'dcookie_unregister'
p374
aS'get_dcookie'
p375
aS'prof_on'
p376
aS'profile_event_register'
p377
aS'profile_event_unregister'
p378
aS'profile_hits'
p379
aS'ring_buffer_swap_cpu'
p380
aS'task_handoff_register'
p381
aS'task_handoff_unregister'
p382
aS'disable_kprobe'
p383
aS'enable_kprobe'
p384
aS'jprobe_return'
p385
aS'profile_hits'
p386
aS'register_jprobe'
p387
aS'register_jprobes'
p388
aS'register_kprobe'
p389
aS'register_kprobes'
p390
aS'register_kretprobe'
p391
aS'register_kretprobes'
p392
aS'unregister_jprobe'
p393
aS'unregister_jprobes'
p394
aS'unregister_kprobe'
p395
aS'unregister_kprobes'
p396
aS'unregister_kretprobe'
p397
aS'unregister_kretprobes'
p398
ass(S'description'
p399
S'mips'
p400
NS'5kc-malta'
p401
tp402
(dp403
S'hardware'
p404
S'MIPS Malta (64-bit)'
p405
sS'hardware-long'
p406
S'MIPS Malta boards (64-bit)'
p407
ss(S'image'
p408
g83
NS'octeon'
p409
tp410
(dp411
S'configs'
p412
(lp413
S'kernelarch-mips/config.octeon'
p414
ass(S'description'
p415
g19
NS'amd64'
p416
tp417
(dp418
S'hardware'
p419
S'64-bit PCs'
p420
sS'hardware-long'
p421
S'PCs with AMD64, Intel 64 or VIA Nano processors'
p422
ss(S'relations'
p423
g269
tp424
(dp425
S'headers%gcc-4.8'
p426
S'linux-compiler-gcc-4.8-s390'
p427
ss(g136
g155
g138
tp428
(dp429
g141
I01
sg142
(lp430
S'sb1-bcm91250a'
p431
aS'4kc-malta'
p432
aS'5kc-malta'
p433
aS'loongson-2e'
p434
aS'loongson-2f'
p435
aS'loongson-3'
p436
ass(S'image'
p437
g276
NS'kirkwood'
p438
tp439
(dp440
S'check-size'
p441
S'2097080'
p442
sS'breaks'
p443
S'flash-kernel (<< 3.14~)'
p444
sS'recommends'
p445
S'uboot-mkimage'
p446
ss(S'description'
p447
S'powerpcspe'
p448
tp449
(dp450
S'hardware'
p451
S'32-bit PowerPC with SPE (instead of AltiVec) with SMP support'
p452
ss(S'image'
p453
g137
NS'powerpc64'
p454
tp455
(dp456
S'configs'
p457
(lp458
S'kernelarch-powerpc/config-arch-64'
p459
aS'kernelarch-powerpc/config-arch-64-be'
p460
ass(S'relations'
p461
tp462
(dp463
S'gcc-4.8'
p464
S'gcc-4.8'
p465
sS'initramfs-fallback'
p466
S'linux-initramfs-tool'
p467
sS'gcc-4.7'
p468
S'gcc-4.7'
p469
sS'gcc-4.6'
p470
S'gcc-4.6'
p471
sS'gcc-4.4'
p472
S'gcc-4.4'
p473
sS'initramfs-tools'
p474
S'initramfs-tools (>= 0.110~)'
p475
ss(S'build'
p476
g146
tp477
(dp478
S'image-file'
p479
S'arch/alpha/boot/vmlinux.gz'
p480
ss(S'description'
p481
g57
NS'powerpc64'
p482
tp483
(dp484
S'hardware'
p485
S'64-bit PowerPC'
p486
ss(S'image'
p487
g83
NS'5kc-malta'
p488
tp489
(dp490
S'configs'
p491
(lp492
S'kernelarch-mips/config.5kc-malta'
p493
ass(S'abi'
p494
g276
NS'ixp4xx'
p495
tp496
(dp497
S'ignore-changes'
p498
(lp499
S'__ring_buffer_alloc'
p500
aS'dcookie_register'
p501
aS'dcookie_unregister'
p502
aS'get_dcookie'
p503
aS'prof_on'
p504
aS'profile_event_register'
p505
aS'profile_event_unregister'
p506
aS'profile_hits'
p507
aS'ring_buffer_alloc_read_page'
p508
aS'ring_buffer_bytes_cpu'
p509
aS'ring_buffer_change_overwrite'
p510
aS'ring_buffer_commit_overrun_cpu'
p511
aS'ring_buffer_consume'
p512
aS'ring_buffer_discard_commit'
p513
aS'ring_buffer_dropped_events_cpu'
p514
aS'ring_buffer_empty'
p515
aS'ring_buffer_empty_cpu'
p516
aS'ring_buffer_entries'
p517
aS'ring_buffer_entries_cpu'
p518
aS'ring_buffer_event_data'
p519
aS'ring_buffer_event_length'
p520
aS'ring_buffer_free'
p521
aS'ring_buffer_free_read_page'
p522
aS'ring_buffer_iter_empty'
p523
aS'ring_buffer_iter_peek'
p524
aS'ring_buffer_iter_reset'
p525
aS'ring_buffer_lock_reserve'
p526
aS'ring_buffer_normalize_time_stamp'
p527
aS'ring_buffer_oldest_event_ts'
p528
aS'ring_buffer_overrun_cpu'
p529
aS'ring_buffer_overruns'
p530
aS'ring_buffer_peek'
p531
aS'ring_buffer_read'
p532
aS'ring_buffer_read_events_cpu'
p533
aS'ring_buffer_read_finish'
p534
aS'ring_buffer_read_page'
p535
aS'ring_buffer_read_prepare'
p536
aS'ring_buffer_read_prepare_sync'
p537
aS'ring_buffer_read_start'
p538
aS'ring_buffer_record_disable'
p539
aS'ring_buffer_record_disable_cpu'
p540
aS'ring_buffer_record_enable'
p541
aS'ring_buffer_record_enable_cpu'
p542
aS'ring_buffer_record_off'
p543
aS'ring_buffer_record_on'
p544
aS'ring_buffer_reset'
p545
aS'ring_buffer_reset_cpu'
p546
aS'ring_buffer_resize'
p547
aS'ring_buffer_size'
p548
aS'ring_buffer_swap_cpu'
p549
aS'ring_buffer_time_stamp'
p550
aS'ring_buffer_unlock_commit'
p551
aS'ring_buffer_write'
p552
aS'task_handoff_register'
p553
aS'task_handoff_unregister'
p554
aS'trace_clock_local'
p555
ass(S'build'
p556
g448
tp557
(dp558
S'image-file'
p559
S'vmlinux'
p560
ss(g136
g116
g138
tp561
(dp562
g141
I01
sg142
(lp563
S'sh7751r'
p564
aS'sh7785lcr'
p565
ass(S'build'
p566
g107
tp567
(dp568
S'image-file'
p569
S'vmlinux'
p570
ss(S'image'
p571
g207
NS'octeon'
p572
tp573
(dp574
S'configs'
p575
(lp576
S'kernelarch-mips/config.octeon'
p577
ass(S'description'
p578
g57
NS'powerpc-smp'
p579
tp580
(dp581
S'hardware'
p582
S'multiprocessor 32-bit PowerPC'
p583
ss(S'base'
p584
g107
NS'parisc64-smp'
p585
tp586
(dp587
S'override-host-type'
p588
S'hppa64-linux-gnu'
p589
sS'cflags'
p590
S'-fno-cse-follow-jumps'
p591
ss(S'description'
p592
g276
NS'versatile'
p593
tp594
(dp595
S'hardware'
p596
S'Versatile'
p597
sS'hardware-long'
p598
S'Versatile systems (PB, AB, Qemu)'
p599
ss(S'base'
p600
g276
tp601
(dp602
S'kernel-arch'
p603
S'arm'
p604
sg186
(lp605
g138
ass(S'image'
p606
g155
NS'loongson-2e'
p607
tp608
(dp609
S'configs'
p610
(lp611
S'kernelarch-mips/config.loongson-2e'
p612
ass(S'description'
p613
g5
NS'sparc64'
p614
tp615
(dp616
S'hardware'
p617
S'uniprocessor 64-bit UltraSPARC'
p618
ss(S'build'
p619
g269
NS's390x'
p620
tp621
(dp622
S'debug-info'
p623
I01
ss(S'description'
p624
g155
NS'loongson-2e'
p625
tp626
(dp627
S'hardware'
p628
S'Loongson 2E'
p629
sS'hardware-long'
p630
S'Lemote Loongson 2E systems'
p631
ss(S'base'
p632
g448
tp633
(dp634
S'kernel-arch'
p635
S'powerpc'
p636
sg186
(lp637
g138
ass(S'relations'
p638
g66
tp639
(dp640
S'headers%gcc-4.8'
p641
S'linux-compiler-gcc-4.8-arm'
p642
ss(S'image'
p643
g163
NS'sparc64-smp'
p644
tp645
(dp646
S'configs'
p647
(lp648
S'kernelarch-sparc/config-smp'
p649
ass(S'description'
p650
g155
NS'loongson-2f'
p651
tp652
(dp653
S'hardware'
p654
S'Loongson 2F'
p655
sS'hardware-long'
p656
S'Lemote Loongson 2F systems'
p657
ss(S'version'
p658
tp659
(dp660
S'abiname'
p661
S'3.16.0-4'
p662
sS'source'
p663
V3.16.7-ckt9-2
p664
sS'abiname_base'
p665
S'3.16.0'
p666
sS'upstream'
p667
S'3.16'
p668
ss(S'description'
p669
g400
NS'sb1-bcm91250a'
p670
tp671
(dp672
S'hardware'
p673
S'BCM91250A'
p674
sS'hardware-long'
p675
S'Broadcom BCM91250A systems (aka SWARM)'
p676
ss(g136
g269
g138
tp677
(dp678
g141
I01
sg142
(lp679
S's390x'
p680
ass(S'build'
p681
g400
tp682
(dp683
S'image-file'
p684
S'vmlinux'
p685
ss(g136
g194
g138
tp686
(dp687
g141
I01
sg142
(lp688
S's390x'
p689
ass(S'base'
p690
g400
tp691
(dp692
S'kernel-arch'
p693
S'mips'
p694
sg186
(lp695
g138
ass(S'build'
p696
g19
tp697
(dp698
S'debug-info'
p699
I01
sS'image-file'
p700
S'arch/x86/boot/bzImage'
p701
ss(S'build'
p702
g5
tp703
(dp704
S'image-file'
p705
S'arch/sparc/boot/zImage'
p706
ss(S'image'
p707
g155
tp708
(dp709
S'install-stem'
p710
S'vmlinux'
p711
ss(S'description'
p712
g83
NS'octeon'
p713
tp714
(dp715
S'hardware'
p716
S'Octeon'
p717
sS'hardware-long'
p718
S'Cavium Networks Octeon'
p719
ss(S'image'
p720
g400
NS'r4k-ip22'
p721
tp722
(dp723
S'configs'
p724
(lp725
S'kernelarch-mips/config.r4k-ip22'
p726
ass(S'build'
p727
g57
tp728
(dp729
S'image-file'
p730
S'vmlinux'
p731
ss(S'build'
p732
g125
tp733
(dp734
S'debug-info'
p735
I01
sS'image-file'
p736
S'arch/arm64/boot/Image'
p737
ss(S'build'
p738
g155
tp739
(dp740
S'image-file'
p741
S'vmlinux'
p742
ss(S'base'
p743
g207
tp744
(dp745
S'kernel-arch'
p746
S'mips'
p747
sg186
(lp748
g138
ass(S'image'
p749
g276
NS'ixp4xx'
p750
tp751
(dp752
S'check-size'
p753
S'1441760'
p754
sS'configs'
p755
(lp756
S'armel/config-reduced'
p757
aS'armel/config.ixp4xx'
p758
ass(S'base'
p759
g19
tp760
(dp761
S'kernel-arch'
p762
S'x86'
p763
sS'featuresets'
p764
(lp765
S'none'
p766
aS'rt'
p767
ass(S'base'
p768
g32
tp769
(dp770
S'kernel-arch'
p771
S'ia64'
p772
sg186
(lp773
g138
asS'compiler'
p774
S'gcc-4.6'
p775
ss(S'description'
p776
g155
NS'4kc-malta'
p777
tp778
(dp779
S'hardware'
p780
S'MIPS Malta'
p781
sS'hardware-long'
p782
S'MIPS Malta boards'
p783
ss(S'base'
p784
g269
tp785
(dp786
S'kernel-arch'
p787
S's390'
p788
sg186
(lp789
g138
ass(S'image'
p790
g19
NS'amd64'
p791
tp792
(dp793
S'configs'
p794
(lp795
S'kernelarch-x86/config-arch-64'
p796
ass(S'description'
p797
g276
NS'ixp4xx'
p798
tp799
(dp800
S'hardware'
p801
S'IXP4xx'
p802
sS'hardware-long'
p803
S'IXP4xx based systems (Linksys NSLU2, etc)'
p804
ss(S'description'
p805
g163
NS'sparc64-smp'
p806
tp807
(dp808
S'hardware'
p809
S'multiprocessor 64-bit UltraSPARC'
p810
ss(S'image'
p811
g400
NS'4kc-malta'
p812
tp813
(dp814
S'configs'
p815
(lp816
S'kernelarch-mips/config.4kc-malta'
p817
ass(S'image'
p818
g207
NS'5kc-malta'
p819
tp820
(dp821
S'configs'
p822
(lp823
S'kernelarch-mips/config.5kc-malta'
p824
ass(S'description'
p825
g13
tp826
(dp827
S'part-long-pae'
p828
S'This kernel requires PAE (Physical Address Extension).\nThis feature is supported by the Intel Pentium Pro/II/III/4/4M/D, Xeon,\nCore and Atom; AMD Geode NX, Athlon (K7), Duron, Opteron, Sempron,\nTurion or Phenom; Transmeta Efficeon; VIA C7; and some other processors.'
p829
ss(S'description'
p830
g107
NS'parisc'
p831
tp832
(dp833
S'hardware'
p834
S'32-bit PA-RISC'
p835
sS'hardware-long'
p836
S'HP PA-RISC 32-bit systems with max 4 GB RAM'
p837
ss(S'description'
p838
S'm68k'
p839
NS'm68k'
p840
tp841
(dp842
S'hardware'
p843
S'Motorola MC68020+ family'
p844
ss(S'build'
p845
g83
tp846
(dp847
S'image-file'
p848
S'vmlinux'
p849
ss(S'xen'
p850
g19
g39
S'amd64'
p851
tp852
(dp853
S'flavours'
p854
(lp855
S'amd64'
p856
ass(S'description'
p857
g215
NS'powerpc64le'
p858
tp859
(dp860
S'hardware'
p861
S'Little-endian 64-bit PowerPC'
p862
ss(S'image'
p863
g276
tp864
(dp865
S'suggests'
p866
S'fdutils'
p867
sS'configs'
p868
(lp869
S'kernelarch-arm/config'
p870
aS'armel/config'
p871
asS'install-stem'
p872
S'vmlinuz'
p873
ss(S'image'
p874
g269
tp875
(dp876
S'install-stem'
p877
S'vmlinuz'
p878
sS'configs'
p879
(lp880
sS'bootloaders'
p881
(lp882
S's390-tools'
p883
ass(S'relations'
p884
g276
tp885
(dp886
S'headers%gcc-4.8'
p887
S'linux-compiler-gcc-4.8-arm'
p888
ss(S'image'
p889
g107
tp890
(dp891
S'suggests'
p892
S'palo'
p893
sS'install-stem'
p894
S'vmlinux'
p895
ss(g136
g207
g138
tp896
(dp897
g141
I01
sg142
(lp898
S'sb1-bcm91250a'
p899
aS'5kc-malta'
p900
aS'octeon'
p901
ass(S'relations'
p902
g107
tp903
(dp904
S'gcc-4.8'
p905
S'gcc-4.8, binutils-hppa64, gcc-4.8-hppa64'
p906
ss(S'description'
p907
g116
NS'sh7785lcr'
p908
tp909
(dp910
S'hardware'
p911
S'sh7785lcr'
p912
sS'hardware-long'
p913
S'Renesas SH7785 reference board'
p914
ss(S'description'
p915
g155
NS'sb1-bcm91250a'
p916
tp917
(dp918
S'hardware'
p919
S'BCM91250A'
p920
sS'hardware-long'
p921
S'Broadcom BCM91250A systems (aka SWARM)'
p922
ss(S'abi'
p923
NS'rt'
p924
tp925
(dp926
S'ignore-changes'
p927
(lp928
S'*'
p929
ass(S'image'
p930
g5
NS'sparc64-smp'
p931
tp932
(dp933
S'configs'
p934
(lp935
S'kernelarch-sparc/config-smp'
p936
ass(g136
g107
g138
tp937
(dp938
g141
I01
sg142
(lp939
S'parisc'
p940
aS'parisc64-smp'
p941
ass(S'image'
p942
g146
tp943
(dp944
S'suggests'
p945
S'aboot, fdutils'
p946
sS'install-stem'
p947
S'vmlinuz'
p948
ss(S'base'
p949
g163
tp950
(dp951
S'kernel-arch'
p952
S'sparc'
p953
sg186
(lp954
g138
ass(S'description'
p955
g400
NS'r5k-ip32'
p956
tp957
(dp958
S'hardware'
p959
S'SGI IP32'
p960
sS'hardware-long'
p961
S'SGI IP32 systems (O2)'
p962
ss(S'base'
p963
S'or1k'
p964
tp965
(dp966
S'kernel-arch'
p967
S'openrisc'
p968
sS'featuresets'
p969
(lp970
ss(S'description'
p971
Ng924
tp972
(dp973
S'part-long-rt'
p974
S'This kernel includes the PREEMPT_RT realtime patch set.'
p975
sS'parts'
p976
(lp977
S'rt'
p978
asS'part-short-rt'
p979
S'PREEMPT_RT'
p980
ss(S'description'
p981
g207
NS'5kc-malta'
p982
tp983
(dp984
S'hardware'
p985
S'MIPS Malta'
p986
sS'hardware-long'
p987
S'MIPS Malta boards'
p988
ss(S'description'
p989
g137
NS'powerpc64'
p990
tp991
(dp992
S'hardware'
p993
S'64-bit PowerPC'
p994
ss(g136
g276
g138
tp995
(dp996
g141
I01
sg142
(lp997
S'ixp4xx'
p998
aS'kirkwood'
p999
aS'orion5x'
p1000
aS'versatile'
p1001
ass(S'image'
p1002
g137
tp1003
(dp1004
S'suggests'
p1005
S'mkvmlinuz'
p1006
sS'configs'
p1007
(lp1008
sS'install-stem'
p1009
S'vmlinux'
p1010
ss(S'image'
p1011
g400
tp1012
(dp1013
S'install-stem'
p1014
S'vmlinux'
p1015
ss(S'image'
p1016
g13
tp1017
(dp1018
S'install-stem'
p1019
S'vmlinuz'
p1020
sS'configs'
p1021
(lp1022
sS'bootloaders'
p1023
(lp1024
S'grub-pc'
p1025
aS'extlinux'
p1026
ass(g136
g5
g138
tp1027
(dp1028
g141
I01
sg142
(lp1029
S'sparc64'
p1030
aS'sparc64-smp'
p1031
ass(S'description'
p1032
g400
NS'4kc-malta'
p1033
tp1034
(dp1035
S'hardware'
p1036
S'MIPS Malta'
p1037
sS'hardware-long'
p1038
S'MIPS Malta boards'
p1039
ss(S'relations'
p1040
g57
tp1041
(dp1042
S'gcc-4.8'
p1043
S'gcc-4.8 (>= 4.8.2-21)'
p1044
ss(g136
g146
g138
tp1045
(dp1046
g141
I01
sg142
(lp1047
S'alpha-generic'
p1048
aS'alpha-smp'
p1049
ass(S'description'
p1050
g13
g309
S'686-pae'
p1051
tp1052
(dp1053
S'parts'
p1054
(lp1055
S'xen'
p1056
ass(S'base'
p1057
S'x32'
p1058
tp1059
(dp1060
S'kernel-arch'
p1061
S'x86'
p1062
sS'featuresets'
p1063
(lp1064
ss(S'base'
p1065
g137
tp1066
(dp1067
S'kernel-arch'
p1068
S'powerpc'
p1069
sg186
(lp1070
g138
ass(S'image'
p1071
g276
NS'orion5x'
p1072
tp1073
(dp1074
S'check-size'
p1075
S'1572792'
p1076
sS'configs'
p1077
(lp1078
S'armel/config-reduced'
p1079
aS'armel/config.orion5x'
p1080
asS'recommends'
p1081
S'uboot-mkimage'
p1082
ss(S'build'
p1083
g194
tp1084
(dp1085
S'image-file'
p1086
S'arch/s390/boot/image'
p1087
ss(S'description'
p1088
g83
NS'sb1-bcm91250a'
p1089
tp1090
(dp1091
S'hardware'
p1092
S'BCM91250A'
p1093
sS'hardware-long'
p1094
S'Broadcom BCM91250A systems (aka SWARM)'
p1095
ss(g136
g400
g138
tp1096
(dp1097
g141
I01
sg142
(lp1098
S'r4k-ip22'
p1099
aS'r5k-ip32'
p1100
aS'sb1-bcm91250a'
p1101
aS'4kc-malta'
p1102
aS'5kc-malta'
p1103
aS'octeon'
p1104
ass(S'image'
p1105
g215
NS'powerpc64le'
p1106
tp1107
(dp1108
S'configs'
p1109
(lp1110
S'kernelarch-powerpc/config-arch-64'
p1111
aS'kernelarch-powerpc/config-arch-64-le'
p1112
ass(S'base'
p1113
NS'rt'
p1114
tp1115
(dp1116
S'enabled'
p1117
I00
ss(S'base'
p1118
g194
tp1119
(dp1120
S'kernel-arch'
p1121
S's390'
p1122
sg186
(lp1123
g138
ass(S'image'
p1124
g207
tp1125
(dp1126
S'install-stem'
p1127
S'vmlinux'
p1128
ss(S'abi'
p1129
g276
NS'orion5x'
p1130
tp1131
(dp1132
S'ignore-changes'
p1133
(lp1134
S'__ring_buffer_alloc'
p1135
aS'dcookie_register'
p1136
aS'dcookie_unregister'
p1137
aS'get_dcookie'
p1138
aS'prof_on'
p1139
aS'profile_event_register'
p1140
aS'profile_event_unregister'
p1141
aS'profile_hits'
p1142
aS'ring_buffer_alloc_read_page'
p1143
aS'ring_buffer_bytes_cpu'
p1144
aS'ring_buffer_change_overwrite'
p1145
aS'ring_buffer_commit_overrun_cpu'
p1146
aS'ring_buffer_consume'
p1147
aS'ring_buffer_discard_commit'
p1148
aS'ring_buffer_dropped_events_cpu'
p1149
aS'ring_buffer_empty'
p1150
aS'ring_buffer_empty_cpu'
p1151
aS'ring_buffer_entries'
p1152
aS'ring_buffer_entries_cpu'
p1153
aS'ring_buffer_event_data'
p1154
aS'ring_buffer_event_length'
p1155
aS'ring_buffer_free'
p1156
aS'ring_buffer_free_read_page'
p1157
aS'ring_buffer_iter_empty'
p1158
aS'ring_buffer_iter_peek'
p1159
aS'ring_buffer_iter_reset'
p1160
aS'ring_buffer_lock_reserve'
p1161
aS'ring_buffer_normalize_time_stamp'
p1162
aS'ring_buffer_oldest_event_ts'
p1163
aS'ring_buffer_overrun_cpu'
p1164
aS'ring_buffer_overruns'
p1165
aS'ring_buffer_peek'
p1166
aS'ring_buffer_read'
p1167
aS'ring_buffer_read_events_cpu'
p1168
aS'ring_buffer_read_finish'
p1169
aS'ring_buffer_read_page'
p1170
aS'ring_buffer_read_prepare'
p1171
aS'ring_buffer_read_prepare_sync'
p1172
aS'ring_buffer_read_start'
p1173
aS'ring_buffer_record_disable'
p1174
aS'ring_buffer_record_disable_cpu'
p1175
aS'ring_buffer_record_enable'
p1176
aS'ring_buffer_record_enable_cpu'
p1177
aS'ring_buffer_record_off'
p1178
aS'ring_buffer_record_on'
p1179
aS'ring_buffer_reset'
p1180
aS'ring_buffer_reset_cpu'
p1181
aS'ring_buffer_resize'
p1182
aS'ring_buffer_size'
p1183
aS'ring_buffer_swap_cpu'
p1184
aS'ring_buffer_time_stamp'
p1185
aS'ring_buffer_unlock_commit'
p1186
aS'ring_buffer_write'
p1187
aS'task_handoff_register'
p1188
aS'task_handoff_unregister'
p1189
aS'trace_clock_local'
p1190
ass(S'description'
p1191
g163
NS'sparc64'
p1192
tp1193
(dp1194
S'hardware'
p1195
S'uniprocessor 64-bit UltraSPARC'
p1196
ss(S'image'
p1197
g400
NS'r5k-ip32'
p1198
tp1199
(dp1200
S'configs'
p1201
(lp1202
S'kernelarch-mips/config.r5k-ip32'
p1203
ass(S'description'
p1204
g194
NS's390x'
p1205
tp1206
(dp1207
S'hardware'
p1208
S'IBM zSeries'
p1209
ss(g136
g32
g138
tp1210
(dp1211
g141
I01
sg142
(lp1212
S'itanium'
p1213
aS'mckinley'
p1214
ass(S'build'
p1215
g116
tp1216
(dp1217
S'image-file'
p1218
S'arch/sh/boot/zImage'
p1219
ss(S'image'
p1220
g839
tp1221
(dp1222
S'suggests'
p1223
S'vmelilo, fdutils'
p1224
sS'install-stem'
p1225
S'vmlinuz'
p1226
ss(S'base'
p1227
g125
S'none'
p1228
tp1229
(dp1230
S'flavours'
p1231
(lp1232
S'arm64'
p1233
ass(S'build'
p1234
g207
tp1235
(dp1236
S'image-file'
p1237
S'vmlinux'
p1238
ss(S'build'
p1239
g66
tp1240
(dp1241
S'image-file'
p1242
S'arch/arm/boot/zImage'
p1243
ss(S'build'
p1244
g32
tp1245
(dp1246
S'image-file'
p1247
S'vmlinux.gz'
p1248
ss(S'base'
p1249
g66
tp1250
(dp1251
S'kernel-arch'
p1252
S'arm'
p1253
sg186
(lp1254
g138
ass(S'description'
p1255
g146
NS'alpha-generic'
p1256
tp1257
(dp1258
S'hardware'
p1259
S'Alpha'
p1260
sS'hardware-long'
p1261
S'DEC Alpha systems with extended kernel start address (Wildfire, Titan, Marvel)'
p1262
ss(S'image'
p1263
g116
tp1264
(dp1265
S'suggests'
p1266
S'fdutils'
p1267
sS'install-stem'
p1268
S'vmlinuz'
p1269
ss(S'base'
p1270
g107
tp1271
(dp1272
S'kernel-arch'
p1273
S'parisc'
p1274
sg186
(lp1275
g138
ass(S'description'
p1276
g83
NS'5kc-malta'
p1277
tp1278
(dp1279
S'hardware'
p1280
S'MIPS Malta'
p1281
sS'hardware-long'
p1282
S'MIPS Malta boards'
p1283
ss(g136
g83
g138
tp1284
(dp1285
g141
I01
sg142
(lp1286
S'sb1-bcm91250a'
p1287
aS'5kc-malta'
p1288
aS'loongson-3'
p1289
aS'octeon'
p1290
ass(S'image'
p1291
g400
NS'5kc-malta'
p1292
tp1293
(dp1294
S'configs'
p1295
(lp1296
S'kernelarch-mips/config.5kc-malta'
p1297
ass(S'description'
p1298
tp1299
(dp1300
S'part-long-up'
p1301
S'This kernel is not suitable for SMP (multi-processor,\nmulti-core or hyper-threaded) systems.'
p1302
sS'part-long-xen'
p1303
S'This kernel also runs on a Xen hypervisor.\nIt supports both privileged (dom0) and unprivileged (domU) operation.'
p1304
ss(S'build'
p1305
g163
tp1306
(dp1307
S'image-file'
p1308
S'arch/sparc/boot/zImage'
p1309
ss(S'description'
p1310
g207
NS'octeon'
p1311
tp1312
(dp1313
S'hardware'
p1314
S'Octeon'
p1315
sS'hardware-long'
p1316
S'Cavium Networks Octeon'
p1317
ss(S'image'
p1318
g83
tp1319
(dp1320
S'install-stem'
p1321
S'vmlinux'
p1322
ss(S'image'
p1323
g5
tp1324
(dp1325
S'suggests'
p1326
S'silo, fdutils'
p1327
sS'configs'
p1328
(lp1329
sS'install-stem'
p1330
S'vmlinuz'
p1331
ss(S'image'
p1332
g13
NS'686-pae'
p1333
tp1334
(dp1335
S'configs'
p1336
(lp1337
S'kernelarch-x86/config-arch-32'
p1338
aS'i386/config.686-pae'
p1339
asS'recommends'
p1340
S'libc6-i686'
p1341
ss(S'image'
p1342
g163
tp1343
(dp1344
S'suggests'
p1345
S'silo, fdutils'
p1346
sS'configs'
p1347
(lp1348
sS'install-stem'
p1349
S'vmlinuz'
p1350
ss(S'description'
p1351
g5
NS'sparc32'
p1352
tp1353
(dp1354
S'hardware'
p1355
S'uniprocessor sparc32 (sun4m)'
p1356
ss(S'relations'
p1357
g194
tp1358
(dp1359
S'headers%gcc-4.8'
p1360
S'linux-compiler-gcc-4.8-s390'
p1361
ss(S'base'
p1362
g57
tp1363
(dp1364
S'kernel-arch'
p1365
S'powerpc'
p1366
sg186
(lp1367
g138
ass(S'description'
p1368
g83
NS'loongson-3'
p1369
tp1370
(dp1371
S'hardware'
p1372
S'Loongson 3A/3B'
p1373
sS'hardware-long'
p1374
S'Loongson 3A or 3B based systems (e.g. from Loongson or Lemote)'
p1375
ss(S'image'
p1376
g269
NS's390x'
p1377
tp1378
(dp1379
S'configs'
p1380
(lp1381
S'kernelarch-s390/config-arch-64'
p1382
ass(S'image'
p1383
g57
NS'powerpc-smp'
p1384
tp1385
(dp1386
S'configs'
p1387
(lp1388
S'powerpc/config.powerpc'
p1389
aS'powerpc/config.powerpc-smp'
p1390
ass(S'image'
p1391
g155
NS'5kc-malta'
p1392
tp1393
(dp1394
S'configs'
p1395
(lp1396
S'kernelarch-mips/config.5kc-malta'
p1397
ass(S'image'
p1398
g400
NS'octeon'
p1399
tp1400
(dp1401
S'configs'
p1402
(lp1403
S'kernelarch-mips/config.octeon'
p1404
ass(S'description'
p1405
g66
NS'armmp'
p1406
tp1407
(dp1408
S'hardware'
p1409
S'ARMv7 multiplatform compatible SoCs'
p1410
sS'hardware-long'
p1411
S'ARMv7 multiplatform kernel. See\nhttps://wiki.debian.org/DebianKernel/ARMMP for details of supported\nplatforms'
p1412
ss(S'build'
p1413
g269
tp1414
(dp1415
S'image-file'
p1416
S'arch/s390/boot/image'
p1417
ss(S'image'
p1418
g448
tp1419
(dp1420
S'suggests'
p1421
S'mkvmlinuz'
p1422
sS'install-stem'
p1423
S'vmlinux'
p1424
ss(S'image'
p1425
g66
tp1426
(dp1427
S'suggests'
p1428
S'fdutils'
p1429
sS'configs'
p1430
(lp1431
S'kernelarch-arm/config'
p1432
aS'armhf/config'
p1433
asS'install-stem'
p1434
S'vmlinuz'
p1435
ss(S'abi'
p1436
tp1437
(dp1438
S'abiname'
p1439
S'4'
p1440
sS'ignore-changes'
p1441
(lp1442
S'module:arch/x86/kvm/kvm'
p1443
aS'module:drivers/mtd/spi-nor/spi-nor'
p1444
aS'module:drivers/net/wireless/iwlwifi/iwlwifi'
p1445
aS'module:sound/i2c/other/snd-ak4113'
p1446
aS'module:sound/i2c/other/snd-ak4114'
p1447
aS'azx_alloc_cmd_io'
p1448
aS'azx_free_cmd_io'
p1449
aS'azx_get_response'
p1450
aS'azx_init_cmd_io'
p1451
aS'azx_send_cmd'
p1452
aS'__add_pages'
p1453
aS'__remove_pages'
p1454
aS'of_device_is_stdout_path'
p1455
aS'module:sound/soc/*'
p1456
aS'clk_divider_ro_ops'
p1457
aS'tick_nohz_idle_enter'
p1458
aS'tick_nohz_idle_exit'
p1459
ass(S'relations'
p1460
g137
tp1461
(dp1462
S'gcc-4.8'
p1463
S'gcc-4.8 (>= 4.8.2-21)'
p1464
ss(S'description'
p1465
g13
NS'686-pae'
p1466
tp1467
(dp1468
S'hardware'
p1469
S'modern PCs'
p1470
sS'parts'
p1471
(lp1472
S'pae'
p1473
asS'hardware-long'
p1474
S'PCs with one or more processors supporting PAE'
p1475
ss(g136
g448
g138
tp1476
(dp1477
g141
I01
sg142
(lp1478
S'powerpcspe'
p1479
ass(g136
g839
g138
tp1480
(dp1481
g141
I01
sg142
(lp1482
S'm68k'
p1483
ass(S'image'
p1484
g155
NS'sb1-bcm91250a'
p1485
tp1486
(dp1487
S'configs'
p1488
(lp1489
S'kernelarch-mips/config.sb1-bcm91250a'
p1490
ass(S'base'
p1491
g13
g309
tp1492
(dp1493
S'flavours'
p1494
(lp1495
S'586'
p1496
aS'686-pae'
p1497
aS'amd64'
p1498
ass(S'base'
p1499
tp1500
(dp1501
S'arches'
p1502
(lp1503
S'alpha'
p1504
aS'amd64'
p1505
aS'arm64'
p1506
aS'armel'
p1507
aS'armhf'
p1508
aS'hppa'
p1509
aS'i386'
p1510
aS'ia64'
p1511
aS'm68k'
p1512
aS'mips'
p1513
aS'mipsel'
p1514
aS'mips64'
p1515
aS'mips64el'
p1516
aS'or1k'
p1517
aS'powerpc'
p1518
aS'powerpcspe'
p1519
aS'ppc64'
p1520
aS'ppc64el'
p1521
aS's390'
p1522
aS's390x'
p1523
aS'sh4'
p1524
aS'sparc'
p1525
aS'sparc64'
p1526
aS'x32'
p1527
asS'featuresets'
p1528
(lp1529
S'none'
p1530
aS'rt'
p1531
asS'compiler'
p1532
S'gcc-4.8'
p1533
ss(S'build'
p1534
g839
tp1535
(dp1536
S'image-file'
p1537
S'vmlinux.gz'
p1538
ss(S'build'
p1539
g276
tp1540
(dp1541
S'image-file'
p1542
S'arch/arm/boot/zImage'
p1543
ss(g136
g57
g138
tp1544
(dp1545
g141
I01
sg142
(lp1546
S'powerpc'
p1547
aS'powerpc-smp'
p1548
aS'powerpc64'
p1549
ass(S'description'
p1550
g400
NS'r4k-ip22'
p1551
tp1552
(dp1553
S'hardware'
p1554
S'SGI IP22'
p1555
sS'hardware-long'
p1556
S'SGI IP22 systems (Indy, Indigo2)'
p1557
ss(S'description'
p1558
g5
NS'sparc64-smp'
p1559
tp1560
(dp1561
S'hardware'
p1562
S'multiprocessor 64-bit UltraSPARC'
p1563
ss(S'base'
p1564
g215
tp1565
(dp1566
S'kernel-arch'
p1567
S'powerpc'
p1568
sg186
(lp1569
g138
ass(S'base'
p1570
g83
tp1571
(dp1572
S'kernel-arch'
p1573
S'mips'
p1574
sg186
(lp1575
g138
ass(S'base'
p1576
g5
tp1577
(dp1578
S'kernel-arch'
p1579
S'sparc'
p1580
sg186
(lp1581
g138
ass(S'base'
p1582
g839
tp1583
(dp1584
S'kernel-arch'
p1585
S'm68k'
p1586
sg186
(lp1587
g138
asS'cflags'
p1588
S'-ffreestanding'
p1589
sS'compiler'
p1590
S'gcc-4.8'
p1591
ss(S'image'
p1592
tp1593
(dp1594
S'initramfs-generators'
p1595
(lp1596
S'initramfs-tools'
p1597
aS'initramfs-fallback'
p1598
asS'type'
p1599
S'plain'
p1600
ss(S'description'
p1601
g155
NS'5kc-malta'
p1602
tp1603
(dp1604
S'hardware'
p1605
S'MIPS Malta (64-bit)'
p1606
sS'hardware-long'
p1607
S'MIPS Malta boards (64-bit)'
p1608
ss(S'description'
p1609
g400
NS'octeon'
p1610
tp1611
(dp1612
S'hardware'
p1613
S'Octeon'
p1614
sS'hardware-long'
p1615
S'Cavium Networks Octeon'
p1616
ss(S'image'
p1617
g400
NS'sb1-bcm91250a'
p1618
tp1619
(dp1620
S'configs'
p1621
(lp1622
S'kernelarch-mips/config.sb1-bcm91250a'
p1623
ass(g136
g163
g138
tp1624
(dp1625
g141
I01
sg142
(lp1626
S'sparc64'
p1627
aS'sparc64-smp'
p1628
ass(S'description'
p1629
g276
NS'kirkwood'
p1630
tp1631
(dp1632
S'hardware'
p1633
S'Marvell Kirkwood'
p1634
sS'hardware-long'
p1635
S'Marvell Kirkwood based systems (SheevaPlug, QNAP TS-119/TS-219, etc)'
p1636
ss(S'description'
p1637
g125
NS'arm64'
p1638
tp1639
(dp1640
S'hardware'
p1641
S'64-bit ARMv8 machines'
p1642
ss(S'base'
p1643
g116
tp1644
(dp1645
S'kernel-arch'
p1646
S'sh'
p1647
sg186
(lp1648
g138
ass(S'image'
p1649
g13
NS'586'
p1650
tp1651
(dp1652
S'configs'
p1653
(lp1654
S'kernelarch-x86/config-arch-32'
p1655
aS'i386/config.586'
p1656
ass(S'image'
p1657
g194
tp1658
(dp1659
S'install-stem'
p1660
S'vmlinuz'
p1661
sS'configs'
p1662
(lp1663
sS'bootloaders'
p1664
(lp1665
S's390-tools'
p1666
ass(S'image'
p1667
g125
tp1668
(dp1669
S'install-stem'
p1670
S'vmlinuz'
p1671
ss(S'description'
p1672
g207
NS'sb1-bcm91250a'
p1673
tp1674
(dp1675
S'hardware'
p1676
S'BCM91250A'
p1677
sS'hardware-long'
p1678
S'Broadcom BCM91250A systems (aka SWARM)'
p1679
ss(S'image'
p1680
g155
NS'loongson-2f'
p1681
tp1682
(dp1683
S'configs'
p1684
(lp1685
S'kernelarch-mips/config.loongson-2f'
p1686
asS'recommends'
p1687
S'libc6-loongson2f'
p1688
ss(S'description'
p1689
g32
NS'itanium'
p1690
tp1691
(dp1692
S'hardware'
p1693
S'Itanium'
p1694
ss(S'build'
p1695
g13
tp1696
(dp1697
S'image-file'
p1698
S'arch/x86/boot/bzImage'
p1699
ss(g136
g215
g138
tp1700
(dp1701
g141
I01
sg142
(lp1702
S'powerpc64le'
p1703
asstp1704
Rp1705
.