cdebian_linux.config
ConfigCore
p0
(tRp1
(Vbase
p2
tp3
(dp4
Varches
p5
(lp6
Valpha
p7
aVamd64
p8
aVarm64
p9
aVarmel
p10
aVarmhf
p11
aVhppa
p12
aVi386
p13
aVm68k
p14
aVmips
p15
aVmipsel
p16
aVmipsn32
p17
aVmipsn32el
p18
aVmips64
p19
aVmips64el
p20
aVpowerpc
p21
aVpowerpcspe
p22
aVppc64
p23
aVppc64el
p24
aVs390
p25
aVs390x
p26
aVsh3
p27
aVsh4
p28
aVsparc
p29
aVsparc64
p30
aVtilegx
p31
aVx32
p32
asVfeaturesets
p33
(lp34
Vnone
p35
aVrt
p36
asVcompiler
p37
Vgcc-6
p38
ss(Vbuild
p39
tp40
(dp41
Vsigned-modules
p42
I00
sVdebug-info
p43
I01
ss(Vbase
p44
NVrt
p45
tp46
(dp47
Venabled
p48
I00
ss(Vdescription
p49
tp50
(dp51
Vpart-long-up
p52
VThis kernel is not suitable for SMP (multi-processor,\u000amulti-core or hyper-threaded) systems.
p53
sVpart-long-xen
p54
VThis kernel also runs on a Xen hypervisor.\u000aIt supports both privileged (dom0) and unprivileged (domU) operation.
p55
ss(Vrelations
p56
tp57
(dp58
Vinitramfs-tools
p59
Vinitramfs-tools (>= 0.120+deb8u2)
p60
sVgcc-6
p61
Vgcc-6 <!stage1 !cross>, gcc-6-@gnu-type-package@ <!stage1 cross>
p62
sVinitramfs-fallback
p63
Vlinux-initramfs-tool
p64
ss(Vimage
p65
tp66
(dp67
Vinitramfs-generators
p68
(lp69
Vinitramfs-tools
p70
aVinitramfs-fallback
p71
ass(Vabi
p72
tp73
(dp74
Vabiname
p75
V1
p76
sVignore-changes
p77
(lp78
V__cpuhp_*
p79
aVbpf_analyzer
p80
aVcxl_*
p81
aVmm_iommu_*
p82
aVregister_cxl_calls
p83
aVunregister_cxl_calls
p84
aVmodule:arch/x86/kvm/*
p85
aVmodule:drivers/crypto/ccp/*
p86
aVmodule:drivers/hv/*
p87
aVmodule:drivers/iio/common/hid-sensors/*
p88
aVmodule:drivers/iio/common/st_sensors/**
p89
aVmodule:drivers/net/wireless/**
p90
aVmodule:drivers/nvdimm/*
p91
aVmodule:drivers/power/supply/bq27xxx_battery
p92
aVmodule:drivers/scsi/cxgbi/*
p93
aVmodule:drivers/scsi/libiscs*
p94
aVmodule:drivers/scsi/qla2xxx/qla2xxx
p95
aVmodule:drivers/scsi/ufs/*
p96
aVmodule:drivers/target/**
p97
aVmodule:drivers/usb/chipidea/**
p98
aVmodule:drivers/usb/host/**
p99
aVmodule:drivers/usb/musb/**
p100
aVmodule:net/ceph/libceph
p101
aVmodule:net/l2tp/l2tp_core
p102
aVmodule:sound/firewire/snd-firewire-lib
p103
aVbtree_*
p104
aVvisitor*
p105
aVcan_rx_register
p106
aVip6_xmit
p107
aVmodule:net/dccp/dccp
p108
aVmodule:net/rds/rds
p109
aVdevfreq_*
p110
aVdevm_devfreq_*
p111
aVupdate_devfreq
p112
aVmodule:drivers/infiniband/**
p113
aVacpi_ec_add_query_handler
p114
aVacpi_ec_remove_query_handler
p115
aVfirst_ec
p116
aVdebugfs_create_automount
p117
aVmodule:drivers/iio/imu/inv_mpu6050/*
p118
ass(Vbase
p119
Valpha
p120
tp121
(dp122
Vfeaturesets
p123
(lp124
Vnone
p125
asVkernel-arch
p126
Valpha
p127
ss(Vdescription
p128
g120
NValpha-smp
p129
tp130
(dp131
Vhardware
p132
VAlpha SMP
p133
sVhardware-long
p134
VDEC Alpha SMP systems with extended kernel start address (Wildfire, Titan, Marvel)
p135
ss(Vbuild
p136
g120
tp137
(dp138
Vsigned-modules
p139
I00
sVimage-file
p140
Varch/alpha/boot/vmlinux.gz
p141
ss(Vdescription
p142
g120
NValpha-generic
p143
tp144
(dp145
Vhardware
p146
VAlpha
p147
sVhardware-long
p148
VDEC Alpha systems with extended kernel start address (Wildfire, Titan, Marvel)
p149
ss(Vimage
p150
g120
tp151
(dp152
Vsuggests
p153
Vaboot, fdutils
p154
sVinstall-stem
p155
Vvmlinuz
p156
ss(Vbase
p157
g120
g125
tp158
(dp159
Vflavours
p160
(lp161
Valpha-generic
p162
aValpha-smp
p163
asVimplicit-flavour
p164
I01
ss(Vbase
p165
Vamd64
p166
tp167
(dp168
Vfeaturesets
p169
(lp170
Vnone
p171
aVrt
p172
asVkernel-arch
p173
Vx86
p174
ss(Vdescription
p175
g166
NVamd64
p176
tp177
(dp178
Vhardware
p179
V64-bit PCs
p180
sVhardware-long
p181
VPCs with AMD64, Intel 64 or VIA Nano processors
p182
ss(Vbuild
p183
g166
tp184
(dp185
Vvdso
p186
I01
sVimage-file
p187
Varch/x86/boot/bzImage
p188
sVdebug-info
p189
I01
ss(Vrelations
p190
g166
tp191
(dp192
Vheaders%gcc-6
p193
Vlinux-compiler-gcc-6-x86
p194
ss(Vimage
p195
g166
tp196
(dp197
Vbreaks
p198
Vxserver-xorg-input-vmmouse (<< 1:13.0.99)
p199
sVinstall-stem
p200
Vvmlinuz
p201
sVbootloaders
p202
(lp203
Vgrub-pc
p204
aVgrub-efi-amd64
p205
aVextlinux
p206
ass(Vbase
p207
g166
Vnone
p208
tp209
(dp210
Vflavours
p211
(lp212
Vamd64
p213
ass(Vdescription
p214
g166
g208
Vamd64
p215
tp216
(dp217
Vparts
p218
(lp219
Vxen
p220
ass(Vbase
p221
g166
Vrt
p222
tp223
(dp224
Vflavours
p225
(lp226
Vamd64
p227
ass(Vbase
p228
Varm64
p229
tp230
(dp231
Vfeaturesets
p232
(lp233
Vnone
p234
asVkernel-arch
p235
Varm64
p236
ss(Vdescription
p237
g229
NVarm64
p238
tp239
(dp240
Vhardware
p241
V64-bit ARMv8 machines
p242
ss(Vbuild
p243
g229
tp244
(dp245
Vvdso
p246
I01
sVimage-file
p247
Varch/arm64/boot/Image
p248
sVdebug-info
p249
I01
ss(Vimage
p250
g229
NVarm64
p251
tp252
(dp253
s(Vimage
p254
g229
tp255
(dp256
Vbreaks
p257
Vlibmozjs185-1.0, libmozjs-24-0 (<< 24.2.0-5.1~)
p258
sVinstall-stem
p259
Vvmlinuz
p260
ss(Vbase
p261
g229
Vnone
p262
tp263
(dp264
Vflavours
p265
(lp266
Varm64
p267
ass(Vbase
p268
Varmel
p269
tp270
(dp271
g123
(lp272
g125
asVkernel-arch
p273
Varm
p274
ss(Vbuild
p275
g269
tp276
(dp277
Vsigned-modules
p278
I00
sVimage-file
p279
Varch/arm/boot/zImage
p280
ss(Vimage
p281
g269
NVmarvell
p282
tp283
(dp284
Vrecommends
p285
Vu-boot-tools
p286
sVbreaks
p287
Vflash-kernel (<< 3.57~)
p288
sVcheck-size-with-dtb
p289
I01
sVcheck-size
p290
L2097080L
ss(Vdescription
p291
g269
NVmarvell
p292
tp293
(dp294
Vhardware
p295
VMarvell Kirkwood/Orion
p296
sVhardware-long
p297
VMarvell Kirkwood based systems (SheevaPlug, QNAP TS-119/TS-219, etc)\u000aand Orion 5181, 5182 and 5281 based systems (QNAP TS-109/TS-209, etc)
p298
ss(Vrelations
p299
g269
tp300
(dp301
Vheaders%gcc-6
p302
Vlinux-compiler-gcc-6-arm
p303
ss(Vimage
p304
g269
tp305
(dp306
Vinstall-stem
p307
Vvmlinuz
p308
ss(g157
g269
g125
tp309
(dp310
g160
(lp311
Vmarvell
p312
asg164
I01
ss(Vbase
p313
Varmhf
p314
tp315
(dp316
g123
(lp317
g125
asVkernel-arch
p318
Varm
p319
ss(Vdescription
p320
g314
NVarmmp
p321
tp322
(dp323
Vhardware
p324
VARMv7 multiplatform compatible SoCs
p325
sVhardware-long
p326
VARMv7 multiplatform kernel. See\u000ahttps://wiki.debian.org/DebianKernel/ARMMP for details of supported\u000aplatforms
p327
ss(Vbuild
p328
g314
tp329
(dp330
Vvdso
p331
I01
sVimage-file
p332
Varch/arm/boot/zImage
p333
ss(Vdescription
p334
g314
NVarmmp-lpae
p335
tp336
(dp337
Vhardware
p338
VARMv7 multiplatform compatible SoCs supporting LPAE
p339
sVhardware-long
p340
VARMv7 multiplatform kernel supporting LPAE. See\u000ahttps://wiki.debian.org/DebianKernel/ARMMP for details of supported\u000aplatforms.
p341
ss(Vrelations
p342
g314
tp343
(dp344
Vheaders%gcc-6
p345
Vlinux-compiler-gcc-6-arm
p346
ss(Vimage
p347
g314
tp348
(dp349
Vinstall-stem
p350
Vvmlinuz
p351
ss(g157
g314
g125
tp352
(dp353
g160
(lp354
Varmmp
p355
aVarmmp-lpae
p356
asg164
I01
ss(Vbase
p357
Vhppa
p358
tp359
(dp360
g123
(lp361
g125
asVkernel-arch
p362
Vparisc
p363
ss(Vbuild
p364
g358
tp365
(dp366
Vsigned-modules
p367
I00
sVimage-file
p368
Vvmlinux
p369
ss(Vdescription
p370
g358
NVparisc64-smp
p371
tp372
(dp373
Vhardware
p374
Vmultiprocessor 64-bit PA-RISC
p375
sVhardware-long
p376
VHP PA-RISC 64-bit SMP systems with support for more than 4 GB RAM
p377
ss(Vbase
p378
g358
NVparisc64-smp
p379
tp380
(dp381
Vcflags
p382
V-fno-cse-follow-jumps
p383
sVoverride-host-type
p384
Vhppa64-linux-gnu
p385
ss(Vrelations
p386
g358
tp387
(dp388
Vgcc-6
p389
Vgcc-6 <!stage1 !cross>, binutils-hppa64-linux-gnu <!stage1 !cross>, gcc-6-hppa64-linux-gnu <!stage1 !cross>, gcc-6-hppa-linux-gnu <!stage1 cross>, binutils-hppa64-linux-gnu <!stage1 cross>, gcc-6-hppa64-linux-gnu <!stage1 cross>
p390
ss(Vdescription
p391
g358
NVparisc
p392
tp393
(dp394
Vhardware
p395
V32-bit PA-RISC
p396
sVhardware-long
p397
VHP PA-RISC 32-bit systems with max 4 GB RAM
p398
ss(Vimage
p399
g358
tp400
(dp401
Vsuggests
p402
Vpalo
p403
sVinstall-stem
p404
Vvmlinux
p405
ss(g157
g358
g125
tp406
(dp407
g160
(lp408
Vparisc
p409
aVparisc64-smp
p410
asg164
I01
ss(Vbase
p411
Vi386
p412
tp413
(dp414
Vfeaturesets
p415
(lp416
Vnone
p417
aVrt
p418
asVkernel-arch
p419
Vx86
p420
ss(Vbuild
p421
g412
tp422
(dp423
Vvdso
p424
I01
sVimage-file
p425
Varch/x86/boot/bzImage
p426
ss(Vdescription
p427
g412
NV686-pae
p428
tp429
(dp430
Vhardware
p431
Vmodern PCs
p432
sVhardware-long
p433
VPCs with one or more processors supporting PAE
p434
sVparts
p435
(lp436
Vpae
p437
ass(Vdescription
p438
g412
tp439
(dp440
Vpart-long-pae
p441
VThis kernel requires PAE (Physical Address Extension).\u000aThis feature is supported by the Intel Pentium Pro/II/III/4/4M/D, Xeon,\u000aCore and Atom; AMD Geode NX, Athlon (K7), Duron, Opteron, Sempron,\u000aTurion or Phenom; Transmeta Efficeon; VIA C7; and some other processors.
p442
ss(Vbuild
p443
g412
NV686-pae
p444
tp445
(dp446
Vdebug-info
p447
I01
ss(Vdescription
p448
g412
NV686
p449
tp450
(dp451
Vhardware
p452
Volder PCs
p453
sVhardware-long
p454
VPCs with one or more processors not supporting PAE
p455
ss(Vrelations
p456
g412
tp457
(dp458
Vheaders%gcc-6
p459
Vlinux-compiler-gcc-6-x86
p460
ss(Vimage
p461
g412
tp462
(dp463
Vbreaks
p464
Vxserver-xorg-input-vmmouse (<< 1:13.0.99)
p465
sVinstall-stem
p466
Vvmlinuz
p467
sVbootloaders
p468
(lp469
Vgrub-pc
p470
aVextlinux
p471
ass(Vbase
p472
g412
Vnone
p473
tp474
(dp475
Vflavours
p476
(lp477
V686
p478
aV686-pae
p479
ass(Vdescription
p480
g412
g473
V686-pae
p481
tp482
(dp483
Vparts
p484
(lp485
Vxen
p486
ass(Vbase
p487
g412
Vrt
p488
tp489
(dp490
Vflavours
p491
(lp492
V686-pae
p493
ass(Vbase
p494
Vm68k
p495
tp496
(dp497
Vcflags
p498
V-ffreestanding
p499
sg123
(lp500
g125
asVkernel-arch
p501
Vm68k
p502
ss(Vbuild
p503
g495
tp504
(dp505
Vsigned-modules
p506
I00
sVimage-file
p507
Vvmlinux.gz
p508
ss(Vdescription
p509
g495
NVm68k
p510
tp511
(dp512
Vhardware
p513
VMotorola MC68020+ family
p514
ss(Vimage
p515
g495
tp516
(dp517
Vsuggests
p518
Vvmelilo, fdutils
p519
sVinstall-stem
p520
Vvmlinuz
p521
ss(g157
g495
g125
tp522
(dp523
g160
(lp524
Vm68k
p525
asg164
I01
ss(Vbase
p526
Vmips
p527
tp528
(dp529
g123
(lp530
g125
asVkernel-arch
p531
Vmips
p532
ss(Vbuild
p533
g527
tp534
(dp535
Vsigned-modules
p536
I00
sVimage-file
p537
Vvmlinux
p538
ss(Vimage
p539
g527
NV4kc-malta
p540
tp541
(dp542
Vconfigs
p543
(lp544
Vkernelarch-mips/config.malta
p545
aVkernelarch-mips/config.mips32r2
p546
ass(Vimage
p547
g527
NV5kc-malta
p548
tp549
(dp550
Vconfigs
p551
(lp552
Vkernelarch-mips/config.malta
p553
aVkernelarch-mips/config.mips64r2
p554
ass(Vdescription
p555
g527
NVocteon
p556
tp557
(dp558
Vhardware
p559
VOcteon
p560
sVhardware-long
p561
VCavium Networks Octeon
p562
ss(Vimage
p563
g527
NVocteon
p564
tp565
(dp566
Vconfigs
p567
(lp568
Vkernelarch-mips/config.octeon
p569
ass(Vimage
p570
g527
tp571
(dp572
Vinstall-stem
p573
Vvmlinux
p574
ss(Vdescription
p575
g527
NV5kc-malta
p576
tp577
(dp578
Vhardware
p579
VMIPS Malta (64-bit)
p580
sVhardware-long
p581
VMIPS Malta boards (64-bit)
p582
ss(Vdescription
p583
g527
NV4kc-malta
p584
tp585
(dp586
Vhardware
p587
VMIPS Malta
p588
sVhardware-long
p589
VMIPS Malta boards
p590
ss(g157
g527
g125
tp591
(dp592
g160
(lp593
V4kc-malta
p594
aV5kc-malta
p595
aVocteon
p596
asg164
I01
ss(Vbase
p597
Vmipsel
p598
tp599
(dp600
g123
(lp601
g125
asVkernel-arch
p602
Vmips
p603
ss(Vimage
p604
g598
NVloongson-3
p605
tp606
(dp607
Vconfigs
p608
(lp609
Vkernelarch-mips/config.loongson-3
p610
ass(Vbuild
p611
g598
tp612
(dp613
Vsigned-modules
p614
I00
sVimage-file
p615
Vvmlinux
p616
ss(Vimage
p617
g598
NV4kc-malta
p618
tp619
(dp620
Vconfigs
p621
(lp622
Vkernelarch-mips/config.malta
p623
aVkernelarch-mips/config.mips32r2
p624
ass(Vimage
p625
g598
NV5kc-malta
p626
tp627
(dp628
Vconfigs
p629
(lp630
Vkernelarch-mips/config.malta
p631
aVkernelarch-mips/config.mips64r2
p632
ass(Vdescription
p633
g598
NVocteon
p634
tp635
(dp636
Vhardware
p637
VOcteon
p638
sVhardware-long
p639
VCavium Networks Octeon
p640
ss(Vdescription
p641
g598
NVloongson-3
p642
tp643
(dp644
Vhardware
p645
VLoongson 3A/3B
p646
sVhardware-long
p647
VLoongson 3A or 3B based systems (e.g. from Loongson or Lemote)
p648
ss(Vimage
p649
g598
NVocteon
p650
tp651
(dp652
Vconfigs
p653
(lp654
Vkernelarch-mips/config.octeon
p655
ass(Vimage
p656
g598
tp657
(dp658
Vinstall-stem
p659
Vvmlinux
p660
ss(Vdescription
p661
g598
NV5kc-malta
p662
tp663
(dp664
Vhardware
p665
VMIPS Malta (64-bit)
p666
sVhardware-long
p667
VMIPS Malta boards (64-bit)
p668
ss(Vdescription
p669
g598
NV4kc-malta
p670
tp671
(dp672
Vhardware
p673
VMIPS Malta
p674
sVhardware-long
p675
VMIPS Malta boards
p676
ss(g157
g598
g125
tp677
(dp678
g160
(lp679
V4kc-malta
p680
aV5kc-malta
p681
aVloongson-3
p682
aVocteon
p683
asg164
I01
ss(Vbase
p684
Vmipsn32
p685
tp686
(dp687
Vfeaturesets
p688
(lp689
sVkernel-arch
p690
Vmips
p691
ss(Vbase
p692
Vmipsn32el
p693
tp694
(dp695
Vfeaturesets
p696
(lp697
sVkernel-arch
p698
Vmips
p699
ss(Vbase
p700
Vmips64
p701
tp702
(dp703
g123
(lp704
g125
asVkernel-arch
p705
Vmips
p706
ss(Vbuild
p707
g701
tp708
(dp709
Vsigned-modules
p710
I00
sVimage-file
p711
Vvmlinux
p712
ss(Vimage
p713
g701
NV5kc-malta
p714
tp715
(dp716
Vconfigs
p717
(lp718
Vkernelarch-mips/config.malta
p719
aVkernelarch-mips/config.mips64r2
p720
ass(Vdescription
p721
g701
NVocteon
p722
tp723
(dp724
Vhardware
p725
VOcteon
p726
sVhardware-long
p727
VCavium Networks Octeon
p728
ss(Vimage
p729
g701
tp730
(dp731
Vinstall-stem
p732
Vvmlinux
p733
ss(Vdescription
p734
g701
NV5kc-malta
p735
tp736
(dp737
Vhardware
p738
VMIPS Malta
p739
sVhardware-long
p740
VMIPS Malta boards
p741
ss(Vimage
p742
g701
NVocteon
p743
tp744
(dp745
Vconfigs
p746
(lp747
Vkernelarch-mips/config.octeon
p748
ass(g157
g701
g125
tp749
(dp750
g160
(lp751
V5kc-malta
p752
aVocteon
p753
asg164
I01
ss(Vbase
p754
Vmips64el
p755
tp756
(dp757
g123
(lp758
g125
asVkernel-arch
p759
Vmips
p760
ss(Vimage
p761
g755
NVloongson-3
p762
tp763
(dp764
Vconfigs
p765
(lp766
Vkernelarch-mips/config.loongson-3
p767
ass(Vbuild
p768
g755
tp769
(dp770
Vsigned-modules
p771
I00
sVimage-file
p772
Vvmlinux
p773
ss(Vimage
p774
g755
NV5kc-malta
p775
tp776
(dp777
Vconfigs
p778
(lp779
Vkernelarch-mips/config.malta
p780
aVkernelarch-mips/config.mips64r2
p781
ass(Vdescription
p782
g755
NVocteon
p783
tp784
(dp785
Vhardware
p786
VOcteon
p787
sVhardware-long
p788
VCavium Networks Octeon
p789
ss(Vdescription
p790
g755
NVloongson-3
p791
tp792
(dp793
Vhardware
p794
VLoongson 3A/3B
p795
sVhardware-long
p796
VLoongson 3A or 3B based systems (e.g. from Loongson or Lemote)
p797
ss(Vimage
p798
g755
tp799
(dp800
Vinstall-stem
p801
Vvmlinux
p802
ss(Vdescription
p803
g755
NV5kc-malta
p804
tp805
(dp806
Vhardware
p807
VMIPS Malta
p808
sVhardware-long
p809
VMIPS Malta boards
p810
ss(Vimage
p811
g755
NVocteon
p812
tp813
(dp814
Vconfigs
p815
(lp816
Vkernelarch-mips/config.octeon
p817
ass(g157
g755
g125
tp818
(dp819
g160
(lp820
V5kc-malta
p821
aVloongson-3
p822
aVocteon
p823
asg164
I01
ss(Vbase
p824
Vpowerpc
p825
tp826
(dp827
g123
(lp828
g125
asVkernel-arch
p829
Vpowerpc
p830
ss(Vdescription
p831
g825
NVpowerpc64
p832
tp833
(dp834
Vhardware
p835
V64-bit PowerPC
p836
ss(Vbuild
p837
g825
tp838
(dp839
Vvdso
p840
I01
sVimage-file
p841
Vvmlinux
p842
ss(Vimage
p843
g825
NVpowerpc-smp
p844
tp845
(dp846
Vconfigs
p847
(lp848
Vpowerpc/config.powerpc
p849
aVpowerpc/config.powerpc-smp
p850
ass(Vdescription
p851
g825
NVpowerpc
p852
tp853
(dp854
Vhardware
p855
Vuniprocessor 32-bit PowerPC
p856
ss(Vimage
p857
g825
NVpowerpc64
p858
tp859
(dp860
Vconfigs
p861
(lp862
Vkernelarch-powerpc/config-arch-64
p863
aVkernelarch-powerpc/config-arch-64-be
p864
ass(Vdescription
p865
g825
NVpowerpc-smp
p866
tp867
(dp868
Vhardware
p869
Vmultiprocessor 32-bit PowerPC
p870
ss(Vimage
p871
g825
tp872
(dp873
Vsuggests
p874
Vmkvmlinuz
p875
sVinstall-stem
p876
Vvmlinux
p877
sVconfigs
p878
(lp879
ss(g157
g825
g125
tp880
(dp881
g160
(lp882
Vpowerpc
p883
aVpowerpc-smp
p884
aVpowerpc64
p885
asg164
I01
ss(Vbase
p886
Vpowerpcspe
p887
tp888
(dp889
g123
(lp890
g125
asVkernel-arch
p891
Vpowerpc
p892
ss(Vbuild
p893
g887
tp894
(dp895
Vsigned-modules
p896
I00
sVimage-file
p897
Vvmlinux
p898
sVvdso
p899
I01
ss(Vimage
p900
g887
tp901
(dp902
Vsuggests
p903
Vmkvmlinuz
p904
sVinstall-stem
p905
Vvmlinux
p906
ss(Vdescription
p907
g887
tp908
(dp909
Vhardware
p910
V32-bit PowerPC with SPE (instead of AltiVec) with SMP support
p911
ss(g157
g887
g125
tp912
(dp913
g160
(lp914
Vpowerpcspe
p915
asg164
I01
ss(Vbase
p916
Vppc64
p917
tp918
(dp919
g123
(lp920
g125
asVkernel-arch
p921
Vpowerpc
p922
ss(Vdescription
p923
g917
NVpowerpc64
p924
tp925
(dp926
Vhardware
p927
V64-bit PowerPC
p928
ss(Vbuild
p929
g917
tp930
(dp931
Vsigned-modules
p932
I00
sVimage-file
p933
Vvmlinux
p934
sVvdso
p935
I01
ss(Vimage
p936
g917
NVpowerpc64
p937
tp938
(dp939
Vconfigs
p940
(lp941
Vkernelarch-powerpc/config-arch-64
p942
aVkernelarch-powerpc/config-arch-64-be
p943
ass(Vimage
p944
g917
tp945
(dp946
Vsuggests
p947
Vmkvmlinuz
p948
sVinstall-stem
p949
Vvmlinux
p950
sVconfigs
p951
(lp952
ss(g157
g917
g125
tp953
(dp954
g160
(lp955
Vpowerpc64
p956
asg164
I01
ss(Vbase
p957
Vppc64el
p958
tp959
(dp960
g123
(lp961
g125
asVkernel-arch
p962
Vpowerpc
p963
ss(Vdescription
p964
g958
NVpowerpc64le
p965
tp966
(dp967
Vhardware
p968
VLittle-endian 64-bit PowerPC
p969
ss(Vbuild
p970
g958
tp971
(dp972
Vvdso
p973
I01
sVimage-file
p974
Vvmlinux
p975
ss(Vimage
p976
g958
tp977
(dp978
Vsuggests
p979
Vmkvmlinuz
p980
sVinstall-stem
p981
Vvmlinux
p982
sVconfigs
p983
(lp984
ss(Vimage
p985
g958
NVpowerpc64le
p986
tp987
(dp988
Vconfigs
p989
(lp990
Vkernelarch-powerpc/config-arch-64
p991
aVkernelarch-powerpc/config-arch-64-le
p992
ass(g157
g958
g125
tp993
(dp994
g160
(lp995
Vpowerpc64le
p996
asg164
I01
ss(Vbase
p997
Vs390
p998
tp999
(dp1000
Vfeaturesets
p1001
(lp1002
sVkernel-arch
p1003
Vs390
p1004
ss(Vbase
p1005
Vs390x
p1006
tp1007
(dp1008
g123
(lp1009
g125
asVkernel-arch
p1010
Vs390
p1011
ss(Vdescription
p1012
g1006
NVs390x
p1013
tp1014
(dp1015
Vhardware
p1016
VIBM zSeries
p1017
ss(Vbuild
p1018
g1006
tp1019
(dp1020
Vvdso
p1021
I01
sVimage-file
p1022
Varch/s390/boot/image
p1023
ss(Vbuild
p1024
g1006
NVs390x
p1025
tp1026
(dp1027
Vdebug-info
p1028
I01
ss(Vrelations
p1029
g1006
tp1030
(dp1031
Vheaders%gcc-6
p1032
Vlinux-compiler-gcc-6-s390
p1033
ss(Vimage
p1034
g1006
tp1035
(dp1036
Vinstall-stem
p1037
Vvmlinuz
p1038
sVbootloaders
p1039
(lp1040
Vs390-tools
p1041
ass(g157
g1006
g125
tp1042
(dp1043
g160
(lp1044
Vs390x
p1045
asg164
I01
ss(Vbase
p1046
Vsh3
p1047
tp1048
(dp1049
Vfeaturesets
p1050
(lp1051
sVkernel-arch
p1052
Vsh
p1053
ss(Vbase
p1054
Vsh4
p1055
tp1056
(dp1057
g123
(lp1058
g125
asVkernel-arch
p1059
Vsh
p1060
ss(Vbuild
p1061
g1055
tp1062
(dp1063
Vsigned-modules
p1064
I00
sVimage-file
p1065
Varch/sh/boot/zImage
p1066
ss(Vdescription
p1067
g1055
NVsh7751r
p1068
tp1069
(dp1070
Vhardware
p1071
Vsh7751r
p1072
sVhardware-long
p1073
VRenesas SH7751R R2D plus board
p1074
ss(Vdescription
p1075
g1055
NVsh7785lcr
p1076
tp1077
(dp1078
Vhardware
p1079
Vsh7785lcr
p1080
sVhardware-long
p1081
VRenesas SH7785 reference board
p1082
ss(Vimage
p1083
g1055
tp1084
(dp1085
Vinstall-stem
p1086
Vvmlinuz
p1087
ss(Vimage
p1088
g1055
NVsh7785lcr
p1089
tp1090
(dp1091
Vrecommends
p1092
Vu-boot-tools
p1093
sVcheck-size
p1094
L4194304L
ss(g157
g1055
g125
tp1095
(dp1096
g160
(lp1097
Vsh7751r
p1098
aVsh7785lcr
p1099
asg164
I01
ss(Vbase
p1100
Vsparc
p1101
tp1102
(dp1103
Vfeaturesets
p1104
(lp1105
sVkernel-arch
p1106
Vsparc
p1107
ss(Vbase
p1108
Vsparc64
p1109
tp1110
(dp1111
g123
(lp1112
g125
asVkernel-arch
p1113
Vsparc
p1114
ss(Vbuild
p1115
g1109
tp1116
(dp1117
Vsigned-modules
p1118
I00
sVimage-file
p1119
Varch/sparc/boot/zImage
p1120
ss(Vimage
p1121
g1109
NVsparc64
p1122
tp1123
(dp1124
Vconfigs
p1125
(lp1126
Vkernelarch-sparc/config-up
p1127
ass(Vimage
p1128
g1109
NVsparc64-smp
p1129
tp1130
(dp1131
Vconfigs
p1132
(lp1133
Vkernelarch-sparc/config-smp
p1134
ass(Vimage
p1135
g1109
tp1136
(dp1137
Vsuggests
p1138
Vsilo, fdutils
p1139
sVinstall-stem
p1140
Vvmlinuz
p1141
sVconfigs
p1142
(lp1143
ss(Vdescription
p1144
g1109
NVsparc64-smp
p1145
tp1146
(dp1147
Vhardware
p1148
Vmultiprocessor 64-bit UltraSPARC
p1149
ss(Vdescription
p1150
g1109
NVsparc64
p1151
tp1152
(dp1153
Vhardware
p1154
Vuniprocessor 64-bit UltraSPARC
p1155
ss(g157
g1109
g125
tp1156
(dp1157
g160
(lp1158
Vsparc64
p1159
aVsparc64-smp
p1160
asg164
I01
ss(Vbase
p1161
Vtilegx
p1162
tp1163
(dp1164
Vfeaturesets
p1165
(lp1166
sVkernel-arch
p1167
Vtile
p1168
ss(Vbase
p1169
Vx32
p1170
tp1171
(dp1172
Vfeaturesets
p1173
(lp1174
sVkernel-arch
p1175
Vx86
p1176
ss(Vdescription
p1177
NVrt
p1178
tp1179
(dp1180
Vparts
p1181
(lp1182
Vrt
p1183
asVpart-long-rt
p1184
VThis kernel includes the PREEMPT_RT realtime patch set.
p1185
sVpart-short-rt
p1186
VPREEMPT_RT
p1187
ss(Vabi
p1188
Ng1178
tp1189
(dp1190
Vignore-changes
p1191
(lp1192
V*
p1193
ass(Vversion
p1194
tp1195
(dp1196
Vupstream
p1197
V4.12
p1198
sVsource
p1199
V4.12.6-1
p1200
sVabiname
p1201
V4.12.0-1
p1202
sVabiname_base
p1203
V4.12.0
p1204
ss.