ccopy_reg
_reconstructor
p1
(cdebian_linux.config
ConfigCore
p2
c__builtin__
dict
p3
(dp4
(S'image'
S'amd64'
p5
tp6
(dp7
S'configs'
p8
(lp9
S'kernelarch-x86/config'
p10
asS'bootloaders'
p11
(lp12
S'grub-pc'
p13
aS'extlinux'
p14
aS'lilo'
p15
ass(S'description'
S'i386'
p16
NS'amd64'
tp17
(dp18
S'hardware'
p19
S'64-bit PCs'
p20
sS'hardware-long'
p21
S'PCs with AMD64, Intel 64 or VIA Nano processors'
p22
ss(S'base'
g5
S'none'
p23
tp24
(dp25
S'flavours'
p26
(lp27
S'amd64'
p28
ass(S'image'
S'armel'
p29
NS'orion5x'
tp30
(dp31
S'check-size'
p32
S'1572792'
p33
sS'recommends'
p34
S'uboot-mkimage'
p35
ss(S'build'
S's390'
p36
NS's390x'
tp37
(dp38
S'debug-info'
p39
I01
ss(S'image'
S'ia64'
p40
tp41
(dp42
S'suggests'
p43
S'fdutils'
p44
sS'bootloaders'
p45
(lp46
S'elilo'
p47
ass(S'description'
S'hppa'
p48
NS'parisc64-smp'
tp49
(dp50
S'hardware'
p51
S'multiprocessor 64-bit PA-RISC'
p52
ss(S'description'
g29
NS'versatile'
tp53
(dp54
S'hardware'
p55
S'Versatile'
p56
sS'hardware-long'
p57
S'Versatile systems (PB, AB, Qemu)'
p58
ss(S'description'
S'mips'
p59
NS'sb1a-bcm91480b'
tp60
(dp61
S'hardware'
p62
S'BCM91480B'
p63
sS'hardware-long'
p64
S'Broadcom BCM91480B systems (aka BigSur)'
p65
ss(S'description'
g40
NS'mckinley'
tp66
(dp67
S'hardware'
p68
S'Itanium II'
p69
ss(S'version'
p70
tp71
(dp72
S'abiname'
p73
S'3.2.0-6'
p74
sS'source'
p75
V3.2.102-1
p76
ss(S'description'
g5
g23
S'amd64'
tp77
(dp78
S'parts'
p79
(lp80
S'xen'
p81
ass(S'image'
S'mipsel'
p82
NS'sb1a-bcm91480b'
tp83
(dp84
S'configs'
p85
(lp86
S'mips/config.sb1a-bcm91480b'
p87
ass(S'base'
p88
S'ppc64'
p89
S'none'
p90
tp91
(dp92
S'implicit-flavour'
p93
I01
sS'flavours'
p94
(lp95
S'powerpc64'
p96
ass(S'description'
g5
NS'amd64'
tp97
(dp98
S'hardware'
p99
S'64-bit PCs'
p100
sS'hardware-long'
p101
S'PCs with AMD64, Intel 64 or VIA Nano processors'
p102
ss(S'description'
S'sparc'
p103
NS'sparc32'
tp104
(dp105
S'hardware'
p106
S'uniprocessor sparc32 (sun4m)'
p107
ss(S'description'
g40
NS'itanium'
tp108
(dp109
S'hardware'
p110
S'Itanium'
p111
ss(S'image'
g82
NS'5kc-malta'
tp112
(dp113
S'configs'
p114
(lp115
S'mips/config.5kc-malta'
p116
ass(S'build'
g29
NS'kirkwood'
tp117
(dp118
S'image-file'
p119
S'arch/arm/boot/zImage'
p120
ss(S'description'
S'm68k'
p121
NS'mvme147'
tp122
(dp123
S'hardware'
p124
S'Motorola MVME147'
p125
ss(S'description'
S'armhf'
p126
NS'vexpress'
tp127
(dp128
S'hardware'
p129
S'ARM Ltd. Versatile Express'
p130
sS'hardware-long'
p131
S'ARM Ltd. Versatile Express family of processors'
p132
ss(S'base'
S'alpha'
p133
tp134
(dp135
S'kernel-arch'
p136
S'alpha'
p137
sS'featuresets'
p138
(lp139
g90
ass(S'description'
g16
NS'686-pae'
tp140
(dp141
S'hardware'
p142
S'modern PCs'
p143
sS'parts'
p144
(lp145
S'pae'
p146
asS'hardware-long'
p147
S'PCs with one or more processors supporting PAE'
p148
ss(S'description'
g29
NS'ixp4xx'
tp149
(dp150
S'hardware'
p151
S'IXP4xx'
p152
sS'hardware-long'
p153
S'IXP4xx based systems (Linksys NSLU2, etc)'
p154
ss(g88
g126
g90
tp155
(dp156
g93
I01
sg94
(lp157
S'mx5'
p158
aS'omap'
p159
aS'vexpress'
p160
ass(S'image'
g16
NS'amd64'
tp161
(dp162
S'configs'
p163
(lp164
S'kernelarch-x86/config-arch-64'
p165
asS'recommends'
p166
S'libc6-i686'
p167
ss(S'description'
g59
NS'r5k-ip32'
tp168
(dp169
S'hardware'
p170
S'SGI IP32'
p171
sS'hardware-long'
p172
S'SGI IP32 systems (O2)'
p173
ss(S'relations'
g16
tp174
(dp175
S'linux-kbuild'
p176
S'linux-kbuild-3.2 (>= 3.2.101-1)'
p177
ss(S'image'
S'powerpc'
p178
tp179
(dp180
S'suggests'
p181
S'mkvmlinuz'
p182
ss(S'description'
g29
NS'orion5x'
tp183
(dp184
S'hardware'
p185
S'Marvell Orion'
p186
sS'hardware-long'
p187
S'Marvell Orion 5181, 5182 and 5281 based systems (QNAP TS-109/TS-209, etc)'
p188
ss(S'description'
g82
NS'sb1-bcm91250a'
tp189
(dp190
S'hardware'
p191
S'BCM91250A'
p192
sS'hardware-long'
p193
S'Broadcom BCM91250A systems (aka SWARM)'
p194
ss(S'base'
g5
S'rt'
tp195
(dp196
S'flavours'
p197
(lp198
S'amd64'
p199
ass(S'description'
g48
NS'parisc'
tp200
(dp201
S'hardware'
p202
S'32-bit PA-RISC'
p203
ss(S'description'
g16
S'none'
p204
S'amd64'
tp205
(dp206
S'parts'
p207
(lp208
S'xen'
p209
ass(S'description'
g178
NS'powerpc'
tp210
(dp211
S'hardware'
p212
S'uniprocessor 32-bit PowerPC'
p213
ss(S'base'
g16
tp214
(dp215
S'kernel-arch'
p216
S'x86'
p217
sS'featuresets'
p218
(lp219
S'none'
p220
aS'rt'
p221
asS'compiler-filename'
p222
S'/usr/lib/gcc-4.9-backport/bin/gcc'
p223
sS'compiler'
p224
S'gcc-4.9-backport'
p225
ss(S'image'
g16
NS'486'
tp226
(dp227
S'configs'
p228
(lp229
S'kernelarch-x86/config-arch-32'
p230
ass(S'relations'
g5
tp231
(dp232
S'linux-kbuild'
p233
S'linux-kbuild-3.2 (>= 3.2.101-1)'
p234
ss(S'description'
g48
NS'parisc64'
tp235
(dp236
S'hardware'
p237
S'64-bit PA-RISC'
p238
ss(S'base'
g48
tp239
(dp240
S'kernel-arch'
p241
S'parisc'
p242
sg138
(lp243
g90
asS'compiler'
p244
S'gcc-4.4'
p245
ss(S'image'
g89
NS'powerpc64'
tp246
(dp247
S'configs'
p248
(lp249
S'powerpc/config.powerpc64'
p250
ass(S'build'
g29
NS'mv78xx0'
tp251
(dp252
S'image-file'
p253
S'arch/arm/boot/zImage'
p254
ss(S'description'
g121
NS'atari'
tp255
(dp256
S'hardware'
p257
S'Atari'
p258
ss(g88
g82
g90
tp259
(dp260
g93
I01
sg94
(lp261
S'r5k-cobalt'
p262
aS'sb1-bcm91250a'
p263
aS'sb1a-bcm91480b'
p264
aS'4kc-malta'
p265
aS'5kc-malta'
p266
aS'loongson-2f'
p267
ass(S'base'
NS'rt'
tp268
(dp269
S'enabled'
p270
I01
ss(S'relations'
tp271
(dp272
S'initramfs-fallback'
p273
S'linux-initramfs-tool'
p274
sS'gcc-4.6'
p275
S'gcc-4.6'
p276
sS'gcc-4.5'
p277
S'gcc-4.5'
p278
sS'gcc-4.4'
p279
S'gcc-4.4'
p280
sS'gcc-4.9-backport'
p281
S'gcc-4.9-backport (>= 4.9.2-10+deb7u1)'
p282
sS'initramfs-tools'
p283
S'initramfs-tools (>= 0.99~)'
p284
ss(S'image'
g82
NS'sb1-bcm91250a'
tp285
(dp286
S'configs'
p287
(lp288
S'mips/config.sb1-bcm91250a'
p289
ass(S'build'
g126
NS'omap'
tp290
(dp291
S'image-file'
p292
S'arch/arm/boot/zImage'
p293
ss(S'description'
g178
NS'powerpc64'
tp294
(dp295
S'hardware'
p296
S'64-bit PowerPC'
p297
ss(g88
S'sh4'
p298
g90
tp299
(dp300
g93
I01
sg94
(lp301
S'sh7751r'
p302
aS'sh7785lcr'
p303
ass(S'build'
g29
NS'iop32x'
tp304
(dp305
S'image-file'
p306
S'arch/arm/boot/zImage'
p307
ss(S'description'
g126
NS'mx5'
tp308
(dp309
S'hardware'
p310
S'Freescale i.MX51/53'
p311
sS'hardware-long'
p312
S'Freescale i.MX51 or i.MX53 based systems'
p313
ss(S'xen'
g16
g204
S'amd64'
tp314
(dp315
S'flavours'
p316
(lp317
S'amd64'
p318
asS'dom0-support'
p319
I01
ss(S'build'
S's390x'
p320
NS's390x-tape'
tp321
(dp322
S'modules'
p323
I00
ss(S'description'
g121
NS'mac'
tp324
(dp325
S'hardware'
p326
S'Macintosh'
p327
ss(S'abi'
NS'rt'
p328
tp329
(dp330
S'ignore-changes'
p331
(lp332
S'*'
ass(S'image'
g298
NS'sh7785lcr'
tp333
(dp334
S'check-size'
p335
S'4194304'
p336
sS'recommends'
p337
S'uboot-mkimage'
p338
ss(S'base'
g29
tp339
(dp340
S'kernel-arch'
p341
S'arm'
p342
sg138
(lp343
g90
ass(S'description'
g59
NS'r4k-ip22'
tp344
(dp345
S'hardware'
p346
S'SGI IP22'
p347
sS'hardware-long'
p348
S'SGI IP22 systems (Indy, Indigo2)'
p349
ss(S'image'
g29
NS'iop32x'
tp350
(dp351
S'check-size'
p352
S'1441784'
p353
ss(S'base'
g103
tp354
(dp355
S'kernel-arch'
p356
S'sparc'
p357
sg138
(lp358
g90
ass(S'image'
g29
NS'ixp4xx'
tp359
(dp360
S'check-size'
p361
S'1441760'
p362
ss(g88
g36
g90
tp363
(dp364
g93
I01
sg94
(lp365
S's390x'
p366
aS's390x-tape'
p367
ass(S'description'
g82
NS'r5k-cobalt'
tp368
(dp369
S'hardware'
p370
S'Cobalt'
p371
sS'hardware-long'
p372
S'Cobalt systems (Qube, RaQ, Qube2, RaQ2)'
p373
ss(g88
g320
g90
tp374
(dp375
g93
I01
sg94
(lp376
S's390x'
p377
aS's390x-tape'
p378
ass(S'base'
g59
tp379
(dp380
S'kernel-arch'
p381
S'mips'
p382
sg138
(lp383
g90
ass(S'build'
g5
tp384
(dp385
S'debug-info'
p386
I01
ss(S'image'
g82
tp387
(dp388
S'configs'
p389
(lp390
S'kernelarch-mips/config'
p391
aS'mipsel/config'
p392
asS'initramfs'
p393
I00
ss(S'build'
g126
NS'vexpress'
tp394
(dp395
S'image-file'
p396
S'arch/arm/boot/zImage'
p397
ss(S'xen'
g16
g204
S'686-pae'
tp398
(dp399
S'flavours'
p400
(lp401
S'i386'
p402
aS'amd64'
p403
asS'dom0-support'
p404
I01
ss(S'description'
Ng328
tp405
(dp406
S'part-long-rt'
p407
S'This kernel includes the PREEMPT_RT realtime patch set.'
p408
sS'parts'
p409
(lp410
S'rt'
p411
asS'part-short-rt'
p412
S'PREEMPT_RT'
p413
ss(S'description'
g103
NS'sparc64'
tp414
(dp415
S'hardware'
p416
S'uniprocessor 64-bit UltraSPARC'
p417
ss(S'description'
g320
NS's390x'
tp418
(dp419
S'hardware'
p420
S'IBM zSeries'
p421
sS'parts'
p422
(lp423
S'reader'
p424
ass(S'base'
g5
tp425
(dp426
S'kernel-arch'
p427
S'x86'
p428
sS'featuresets'
p429
(lp430
S'none'
p431
aS'rt'
p432
asS'compiler-filename'
p433
S'/usr/lib/gcc-4.9-backport/bin/gcc'
p434
sS'compiler'
p435
S'gcc-4.9-backport'
p436
ss(S'base'
g40
tp437
(dp438
S'kernel-arch'
p439
S'ia64'
p440
sg138
(lp441
g90
ass(S'abi'
g103
tp442
(dp443
S'ignore-changes'
p444
(lp445
S'__down_read'
p446
aS'__down_read_trylock'
p447
aS'__down_write'
p448
aS'__down_write_trylock'
p449
aS'__downgrade_write'
p450
aS'__up_read'
p451
aS'__up_write'
p452
ass(S'build'
g320
NS's390x'
tp453
(dp454
S'debug-info'
p455
I01
ss(S'description'
g36
NS's390-tape'
tp456
(dp457
S'hardware'
p458
S'IBM S/390'
p459
sS'parts'
p460
(lp461
S'tape'
p462
ass(S'description'
g178
NS'powerpc-smp'
tp463
(dp464
S'hardware'
p465
S'multiprocessor 32-bit PowerPC'
p466
ss(S'description'
g121
NS'amiga'
tp467
(dp468
S'hardware'
p469
S'Amiga'
p470
ss(S'base'
g36
tp471
(dp472
S'kernel-arch'
p473
S's390'
p474
sg138
(lp475
g90
ass(g88
g29
g90
tp476
(dp477
g93
I01
sg94
(lp478
S'iop32x'
p479
aS'ixp4xx'
p480
aS'kirkwood'
p481
aS'mv78xx0'
p482
aS'orion5x'
p483
aS'versatile'
p484
ass(S'description'
S'sparc64'
p485
NS'sparc64-smp'
tp486
(dp487
S'hardware'
p488
S'multiprocessor 64-bit UltraSPARC'
p489
ss(S'base'
g82
tp490
(dp491
S'kernel-arch'
p492
S'mips'
p493
sg138
(lp494
g90
ass(S'description'
g320
NS's390x-tape'
tp495
(dp496
S'hardware'
p497
S'IBM zSeries'
p498
sS'parts'
p499
(lp500
S'tape'
p501
ass(S'image'
g320
NS's390x'
tp502
(dp503
S'configs'
p504
(lp505
S's390/config.s390x'
p506
ass(S'image'
g126
NS'omap'
tp507
(dp508
S'recommends'
p509
S'uboot-mkimage'
p510
ss(S'build'
g29
NS'ixp4xx'
tp511
(dp512
S'image-file'
p513
S'arch/arm/boot/zImage'
p514
ss(S'description'
g16
tp515
(dp516
S'part-long-pae'
p517
S'This kernel requires PAE (Physical Address Extension).\nThis feature is supported by the Intel Pentium Pro/II/III/4/4M/D, Xeon,\nCore and Atom; AMD Geode NX, Athlon (K7), Duron, Opteron, Sempron,\nTurion or Phenom; Transmeta Efficeon; VIA C7; and some other processors.'
p518
ss(S'description'
g82
NS'sb1a-bcm91480b'
tp519
(dp520
S'hardware'
p521
S'BCM91480B'
p522
sS'hardware-long'
p523
S'Broadcom BCM91480B systems (aka BigSur)'
p524
ss(S'image'
g126
tp525
(dp526
S'suggests'
p527
S'fdutils'
p528
sS'configs'
p529
(lp530
S'armel/config'
p531
aS'armhf/config'
p532
ass(S'xen'
g5
g23
S'amd64'
tp533
(dp534
S'flavours'
p535
(lp536
S'amd64'
p537
asS'dom0-support'
p538
I01
ss(S'image'
g29
tp539
(dp540
S'suggests'
p541
S'fdutils'
p542
ss(S'description'
g36
NS's390'
tp543
(dp544
S'hardware'
p545
S'IBM S/390'
p546
sS'parts'
p547
(lp548
S'reader'
p549
ass(S'abi'
g320
tp550
(dp551
S'ignore-changes'
p552
(lp553
S'arch_pick_mmap_layout'
p554
aS'lowcore_ptr'
p555
ass(S'abi'
g5
tp556
(dp557
S'ignore-changes'
p558
(lp559
S'module:arch/x86/kvm/kvm'
p560
ass(S'image'
g48
tp561
(dp562
S'suggests'
p563
S'palo'
p564
ss(S'abi'
g59
tp565
(dp566
S'ignore-changes'
p567
(lp568
S'vgacon_*'
p569
ass(S'relations'
g48
tp570
(dp571
S'gcc-4.4'
p572
S'gcc-4.4, binutils-hppa64, gcc-4.4-hppa64'
p573
ss(S'base'
g48
NS'parisc64'
tp574
(dp575
S'override-host-type'
p576
S'hppa64-linux-gnu'
p577
sS'cflags'
p578
S'-fno-cse-follow-jumps'
p579
ss(S'image'
g29
NS'kirkwood'
tp580
(dp581
S'check-size'
p582
S'2097080'
p583
sS'recommends'
p584
S'uboot-mkimage'
p585
ss(S'description'
g82
NS'5kc-malta'
tp586
(dp587
S'hardware'
p588
S'MIPS Malta (64-bit)'
p589
sS'hardware-long'
p590
S'MIPS Malta boards (64-bit)'
p591
ss(S'abi'
g36
tp592
(dp593
S'ignore-changes'
p594
(lp595
S'arch_pick_mmap_layout'
p596
aS'lowcore_ptr'
p597
ass(S'description'
g298
NS'sh7785lcr'
tp598
(dp599
S'hardware'
p600
S'sh7785lcr'
p601
sS'hardware-long'
p602
S'Renesas SH7785 reference board'
p603
ss(S'description'
g59
NS'4kc-malta'
tp604
(dp605
S'hardware'
p606
S'MIPS Malta'
p607
sS'hardware-long'
p608
S'MIPS Malta boards'
p609
ss(g88
g48
g90
tp610
(dp611
g93
I01
sg94
(lp612
S'parisc'
p613
aS'parisc-smp'
p614
aS'parisc64'
p615
aS'parisc64-smp'
p616
ass(S'description'
g126
NS'omap'
tp617
(dp618
S'hardware'
p619
S'TI OMAP3+'
p620
sS'hardware-long'
p621
S'Texas Instruments OMAP3 or OMAP4 based systems'
p622
ss(S'image'
g133
tp623
(dp624
S'suggests'
p625
S'aboot, fdutils'
p626
ss(S'base'
g485
tp627
(dp628
S'kernel-arch'
p629
S'sparc'
p630
sg138
(lp631
g90
ass(S'description'
g485
NS'sparc64'
tp632
(dp633
S'hardware'
p634
S'uniprocessor 64-bit UltraSPARC'
p635
ss(S'build'
g126
NS'mx5'
tp636
(dp637
S'image-file'
p638
S'arch/arm/boot/zImage'
p639
ss(S'description'
g89
NS'powerpc64'
tp640
(dp641
S'hardware'
p642
S'64-bit PowerPC'
p643
ss(S'base'
g320
tp644
(dp645
S'kernel-arch'
p646
S's390'
p647
sg138
(lp648
g90
ass(S'build'
g36
NS's390-tape'
tp649
(dp650
S'modules'
p651
I00
ss(S'image'
g320
NS's390x-tape'
tp652
(dp653
S'configs'
p654
(lp655
S's390/config.s390x-tape'
p656
asS'override-localversion'
p657
S's390x'
p658
sS'type'
p659
S'plain-s390-tape'
p660
sS'initramfs'
p661
I00
ss(S'image'
g89
tp662
(dp663
S'suggests'
p664
S'mkvmlinuz'
p665
sS'configs'
p666
(lp667
S'powerpc/config'
p668
ass(S'image'
g59
tp669
(dp670
S'configs'
p671
(lp672
S'kernelarch-mips/config'
p673
aS'mips/config'
p674
asS'initramfs'
p675
I00
ss(S'image'
g16
tp676
(dp677
S'configs'
p678
(lp679
S'kernelarch-x86/config'
p680
asS'bootloaders'
p681
(lp682
S'grub-pc'
p683
aS'extlinux'
p684
aS'lilo'
p685
ass(S'image'
g36
tp686
(dp687
S'bootloaders'
p688
(lp689
S's390-tools'
p690
ass(g88
g103
g90
tp691
(dp692
g93
I01
sg94
(lp693
S'sparc64'
p694
aS'sparc64-smp'
p695
ass(S'base'
g89
tp696
(dp697
S'kernel-arch'
p698
S'powerpc'
p699
sg138
(lp700
g90
ass(g88
g133
g90
tp701
(dp702
g93
I01
sg94
(lp703
S'alpha-generic'
p704
aS'alpha-smp'
p705
aS'alpha-legacy'
p706
ass(S'description'
g16
g204
S'686-pae'
tp707
(dp708
S'parts'
p709
(lp710
S'xen'
p711
ass(g88
g40
g90
tp712
(dp713
g93
I01
sg94
(lp714
S'itanium'
p715
aS'mckinley'
p716
ass(S'description'
g36
tp717
(dp718
S'part-short-tape'
p719
S'IPL from tape'
p720
sS'part-long-tape'
p721
S'This kernel has support to IPL (boot) from a tape.'
p722
sS'part-long-reader'
p723
S'This kernel has support to IPL (boot) from a VM reader or DASD device.'
p724
ss(S'description'
g29
NS'kirkwood'
tp725
(dp726
S'hardware'
p727
S'Marvell Kirkwood'
p728
sS'hardware-long'
p729
S'Marvell Kirkwood based systems (SheevaPlug, QNAP TS-119/TS-219, etc)'
p730
ss(g88
g59
g90
tp731
(dp732
g93
I01
sg94
(lp733
S'r4k-ip22'
p734
aS'r5k-ip32'
p735
aS'sb1-bcm91250a'
p736
aS'sb1a-bcm91480b'
p737
aS'4kc-malta'
p738
aS'5kc-malta'
p739
aS'octeon'
p740
ass(S'description'
g121
NS'mvme16x'
tp741
(dp742
S'hardware'
p743
S'Motorola MVME162/6/7, MVME172/7'
p744
ss(S'image'
g103
NS'sparc32'
tp745
(dp746
S'image-postproc'
p747
S'sparc32-image-postproc'
p748
ss(S'build'
g16
NS'686-pae'
tp749
(dp750
S'debug-info'
p751
I01
ss(S'image'
g36
NS's390x-tape'
tp752
(dp753
S'override-localversion'
p754
S's390x'
p755
sS'type'
p756
S'plain-s390-tape'
p757
sS'initramfs'
p758
I00
ss(S'image'
g121
tp759
(dp760
S'suggests'
p761
S'vmelilo, fdutils'
p762
sS'initramfs'
p763
I00
ss(S'base'
g126
tp764
(dp765
S'kernel-arch'
p766
S'arm'
p767
sg138
(lp768
g90
ass(S'image'
g82
NS'4kc-malta'
tp769
(dp770
S'configs'
p771
(lp772
S'mips/config.4kc-malta'
p773
ass(S'build'
g29
NS'orion5x'
tp774
(dp775
S'image-file'
p776
S'arch/arm/boot/zImage'
p777
ss(S'image'
g298
tp778
(dp779
S'suggests'
p780
S'fdutils'
p781
ss(S'description'
g59
NS'octeon'
tp782
(dp783
S'hardware'
p784
S'Octeon'
p785
sS'hardware-long'
p786
S'Cavium Networks Octeon'
p787
ss(S'base'
g48
NS'parisc64-smp'
tp788
(dp789
S'override-host-type'
p790
S'hppa64-linux-gnu'
p791
sS'cflags'
p792
S'-fno-cse-follow-jumps'
p793
ss(S'image'
g16
NS'686-pae'
tp794
(dp795
S'configs'
p796
(lp797
S'kernelarch-x86/config-arch-32'
p798
asS'recommends'
p799
S'libc6-i686'
p800
ss(S'base'
g298
tp801
(dp802
S'kernel-arch'
p803
S'sh'
p804
sg138
(lp805
g90
ass(S'abi'
g82
tp806
(dp807
S'ignore-changes'
p808
(lp809
S'vgacon_*'
p810
ass(S'image'
g103
tp811
(dp812
S'suggests'
p813
S'silo, fdutils'
p814
ss(S'description'
tp815
(dp816
S'part-long-up'
p817
S'This kernel is not suitable for SMP (multi-processor,\nmulti-core or hyper-threaded) systems.'
p818
sS'part-long-xen'
p819
S'This kernel also runs on a Xen hypervisor.\nIt supports both privileged (dom0) and unprivileged (domU) operation.'
p820
ss(S'description'
g121
NS'bvme6000'
tp821
(dp822
S'hardware'
p823
S'BVM BVME4000 and BVME6000'
p824
ss(S'build'
g298
NS'sh7785lcr'
tp825
(dp826
S'image-file'
p827
S'arch/sh/boot/zImage'
p828
ss(S'image'
g485
NS'sparc64'
tp829
(dp830
S'configs'
p831
(lp832
S'sparc/config.sparc64'
p833
ass(S'image'
g5
NS'amd64'
tp834
(dp835
S'configs'
p836
(lp837
S'kernelarch-x86/config-arch-64'
p838
ass(S'description'
g298
NS'sh7751r'
tp839
(dp840
S'hardware'
p841
S'sh7751r'
p842
sS'hardware-long'
p843
S'Renesas SH7751R R2D plus board'
p844
ss(S'description'
g36
NS's390x-tape'
tp845
(dp846
S'hardware'
p847
S'IBM zSeries'
p848
sS'parts'
p849
(lp850
S'tape'
p851
ass(S'description'
g133
NS'alpha-legacy'
tp852
(dp853
S'hardware'
p854
S'Alpha Legacy'
p855
sS'hardware-long'
p856
S'DEC Alpha systems with legacy kernel start address'
p857
ss(S'base'
g16
S'rt'
tp858
(dp859
S'flavours'
p860
(lp861
S'686-pae'
p862
ass(S'image'
g485
tp863
(dp864
S'suggests'
p865
S'silo, fdutils'
p866
sS'configs'
p867
(lp868
S'sparc/config'
p869
ass(S'image'
g178
NS'powerpc-smp'
tp870
(dp871
S'configs'
p872
(lp873
S'powerpc/config.powerpc'
p874
aS'powerpc/config.powerpc-smp'
p875
ass(S'description'
g82
NS'4kc-malta'
tp876
(dp877
S'hardware'
p878
S'MIPS Malta'
p879
sS'hardware-long'
p880
S'MIPS Malta boards'
p881
ss(S'base'
g178
tp882
(dp883
S'kernel-arch'
p884
S'powerpc'
p885
sg138
(lp886
g90
ass(S'description'
g48
NS'parisc-smp'
tp887
(dp888
S'hardware'
p889
S'multiprocessor 32-bit PA-RISC'
p890
ss(S'abi'
g485
tp891
(dp892
S'ignore-changes'
p893
(lp894
S'__down_read'
p895
aS'__down_read_trylock'
p896
aS'__down_write'
p897
aS'__down_write_trylock'
p898
aS'__downgrade_write'
p899
aS'__up_read'
p900
aS'__up_write'
p901
ass(S'description'
g29
NS'iop32x'
tp902
(dp903
S'hardware'
p904
S'IOP32x'
p905
sS'hardware-long'
p906
S'IOP32x based systems (Thecus N2100, etc)'
p907
ss(S'description'
g320
tp908
(dp909
S'part-short-tape'
p910
S'IPL from tape'
p911
sS'part-long-tape'
p912
S'This kernel has support to IPL (boot) from a tape.'
p913
sS'part-long-reader'
p914
S'This kernel has support to IPL (boot) from a VM reader or DASD device.'
p915
ss(S'description'
g29
NS'mv78xx0'
tp916
(dp917
S'hardware'
p918
S'Marvell 78xx0'
p919
sS'hardware-long'
p920
S'Marvell DB-78xx0-BP Development Board'
p921
ss(S'abi'
tp922
(dp923
S'abiname'
p924
S'6'
sS'ignore-changes'
p925
(lp926
S'module:net/l2tp/*'
p927
aS'__rpc_wait_for_completion_task'
p928
aS'bc_svc_process'
p929
aS'nfs4*'
p930
aS'nfs_*'
p931
aS'nlmclnt_*'
p932
aS'nlmsvc_*'
p933
aS'pnfs_*'
p934
aS'put_lseg'
p935
aS'put_rpccred'
p936
aS'rpc_*'
p937
aS'rpcauth_*'
p938
aS'rpcb_getport_async'
p939
aS'svc_*'
p940
aS'svcauth_unix_set_client'
p941
aS'unix_domain_find'
p942
aS'xprt_*'
p943
aS'get_write_access'
p944
aS'module:drivers/gpu/drm/*'
p945
aS'drm_sman_*'
p946
aS'intel_agp_enabled'
p947
aS'intel_gmch_*'
p948
aS'intel_gtt_*'
p949
aS'module:drivers/net/wan/cycx_drv'
p950
aS'module:net/wanrouter/wanrouter'
p951
aS'register_virtio_*'
p952
aS'unregister_virtio_*'
p953
aS'virtio_*'
p954
aS'virtqueue_*'
p955
aS'vring_*'
p956
aS'module:drivers/staging/*'
p957
aS'module:drivers/net/ethernet/*'
p958
aS'module:drivers/net/wireless/*'
p959
aS'kmsg_dump_register'
p960
aS'kmsg_dump_unregister'
p961
aS'register_efivars'
p962
aS'unregister_efivars'
p963
aS'module:drivers/usb/serial/*'
p964
aS'module:arch/s390/kvm/kvm'
p965
aS'module:drivers/scsi/esp_scsi'
p966
aS'module:drivers/char/tpm/tpm'
p967
aS'omap_dsp_get_mempool_base'
p968
aS'sysctl_tcp_dma_copybreak'
p969
aS'module:fs/exofs/libore'
p970
aS'DAC1064_global_*'
p971
aS'g450_mnp2f'
p972
aS'matrox_*'
p973
aS'matroxfb_*'
p974
aS'injectm'
p975
aS'tcp_alloc_md5sig_pool'
p976
aS'tcp_free_md5sig_pool'
p977
aS'tcp_get_md5sig_pool'
p978
aS'tcp_put_md5sig_pool'
p979
aS'module:sound/i2c/other/snd-ak4113'
p980
aS'module:sound/i2c/other/snd-ak4114'
p981
aS'module:net/ipv4/netfilter/nf_conntrac*'
p982
aS'module:net/ipv4/netfilter/nf_nat'
p983
aS'module:net/netfilter/ipvs/*'
p984
aS'module:net/netfilter/nf_conntrac*'
p985
aS'module:net/rds/rds'
p986
aS'module:sound/pci/emu10k1/*'
p987
aS'module:drivers/md/dm-snapshot'
p988
aS'module:sound/core/snd-rawmidi'
p989
aS'module:drivers/net/ethernet/mellanox/mlx4/*'
p990
aS'module:drivers/edac/edac_mce_amd'
p991
aS'skb_copy_and_csum_datagram_iovec'
p992
aS'module:net/dccp/dccp'
p993
aS'fl6_*'
p994
aS'inet_sk_diag_fill'
p995
aS'ip6_append_data'
p996
aS'ip6_datagram_send_ctl'
p997
aS'ip6_xmit'
p998
aS'ipv6_dup_options'
p999
aS'ipv6_fixup_options'
p1000
aS'ipv6_push_nfrag_opts'
p1001
aS'tcp_cong_avoid_ai'
p1002
aS'tcp_slow_start'
p1003
aS'__scm_destroy'
p1004
aS'__scm_send'
p1005
aS'scm_detach_fds'
p1006
aS'scm_fp_dup'
p1007
aS'af_alg_*'
p1008
aS'module:drivers/net/can/can-dev'
p1009
aS'can_rx_register'
p1010
aS'kvm_async_pf_task_wait'
p1011
aS'module:drivers/infiniband/**'
p1012
ass(S'description'
g59
NS'sb1-bcm91250a'
tp1013
(dp1014
S'hardware'
p1015
S'BCM91250A'
p1016
sS'hardware-long'
p1017
S'Broadcom BCM91250A systems (aka SWARM)'
p1018
ss(g88
g121
g90
tp1019
(dp1020
g93
I01
sg94
(lp1021
S'amiga'
p1022
aS'atari'
p1023
aS'bvme6000'
p1024
aS'mac'
p1025
aS'mvme147'
p1026
aS'mvme16x'
p1027
ass(S'abi'
g16
tp1028
(dp1029
S'ignore-changes'
p1030
(lp1031
S'disable_hlt'
p1032
aS'enable_hlt'
p1033
aS'module:arch/x86/kvm/kvm'
p1034
ass(S'description'
g133
NS'alpha-smp'
tp1035
(dp1036
S'hardware'
p1037
S'Alpha SMP'
p1038
sS'hardware-long'
p1039
S'DEC Alpha SMP systems with extended kernel start address (Wildfire, Titan, Marvel)'
p1040
ss(S'base'
g16
g204
tp1041
(dp1042
S'flavours'
p1043
(lp1044
S'486'
p1045
aS'686-pae'
p1046
aS'amd64'
p1047
ass(S'base'
tp1048
(dp1049
S'arches'
p1050
(lp1051
S'alpha'
p1052
aS'amd64'
p1053
aS'armel'
p1054
aS'armhf'
p1055
aS'hppa'
p1056
aS'i386'
p1057
aS'ia64'
p1058
aS'm68k'
p1059
aS'mips'
p1060
aS'mipsel'
p1061
aS'powerpc'
p1062
aS'ppc64'
p1063
aS's390'
p1064
aS's390x'
p1065
aS'sh4'
p1066
aS'sparc'
p1067
aS'sparc64'
p1068
asS'featuresets'
p1069
(lp1070
S'none'
p1071
aS'rt'
p1072
asS'compiler'
p1073
S'gcc-4.6'
p1074
ss(S'description'
g36
NS's390x'
tp1075
(dp1076
S'hardware'
p1077
S'IBM zSeries'
p1078
sS'parts'
p1079
(lp1080
S'reader'
p1081
ass(S'description'
g59
NS'5kc-malta'
tp1082
(dp1083
S'hardware'
p1084
S'MIPS Malta (64-bit)'
p1085
sS'hardware-long'
p1086
S'MIPS Malta boards (64-bit)'
p1087
ss(g88
g178
g90
tp1088
(dp1089
g93
I01
sg94
(lp1090
S'powerpc'
p1091
aS'powerpc-smp'
p1092
aS'powerpc64'
p1093
ass(S'description'
g103
NS'sparc64-smp'
tp1094
(dp1095
S'hardware'
p1096
S'multiprocessor 64-bit UltraSPARC'
p1097
ss(S'build'
g36
NS's390x-tape'
tp1098
(dp1099
S'modules'
p1100
I00
ss(S'base'
g121
tp1101
(dp1102
S'kernel-arch'
p1103
S'm68k'
p1104
sg138
(lp1105
g90
asS'cflags'
p1106
S'-ffreestanding'
p1107
sS'compiler'
p1108
S'gcc-4.6'
p1109
ss(S'image'
tp1110
(dp1111
S'initramfs-generators'
p1112
(lp1113
S'initramfs-tools'
p1114
aS'initramfs-fallback'
p1115
asS'type'
p1116
S'plain'
p1117
ss(S'image'
g82
NS'loongson-2f'
tp1118
(dp1119
S'recommends'
p1120
S'libc6-loongson2f'
p1121
ss(S'image'
g485
NS'sparc64-smp'
tp1122
(dp1123
S'configs'
p1124
(lp1125
S'sparc/config.sparc64-smp'
p1126
ass(g88
g485
g90
tp1127
(dp1128
g93
I01
sg94
(lp1129
S'sparc64'
p1130
aS'sparc64-smp'
p1131
ass(S'image'
g36
NS's390-tape'
tp1132
(dp1133
S'override-localversion'
p1134
S's390'
p1135
sS'type'
p1136
S'plain-s390-tape'
p1137
sS'initramfs'
p1138
I00
ss(S'build'
g298
NS'sh7751r'
tp1139
(dp1140
S'image-file'
p1141
S'arch/sh/boot/zImage'
p1142
ss(S'image'
g320
tp1143
(dp1144
S'configs'
p1145
(lp1146
S's390/config'
p1147
asS'bootloaders'
p1148
(lp1149
S's390-tools'
p1150
ass(S'description'
g16
NS'486'
tp1151
(dp1152
S'hardware'
p1153
S'older PCs'
p1154
sS'parts'
p1155
(lp1156
S'up'
p1157
asS'hardware-long'
p1158
S'PCs with a single processor not supporting PAE'
p1159
ss(S'description'
g133
NS'alpha-generic'
tp1160
(dp1161
S'hardware'
p1162
S'Alpha'
p1163
sS'hardware-long'
p1164
S'DEC Alpha systems with extended kernel start address (Wildfire, Titan, Marvel)'
p1165
ss(S'description'
g82
NS'loongson-2f'
tp1166
(dp1167
S'hardware'
p1168
S'Loongson 2F'
p1169
sS'hardware-long'
p1170
S'Lemote Loongson 2F systems'
p1171
sstRp1172
.