ccopy_reg
_reconstructor
p1
(cdebian_linux.config
ConfigCore
p2
c__builtin__
dict
p3
(dp4
(S'image'
S'amd64'
p5
tp6
(dp7
S'configs'
p8
(lp9
S'kernelarch-x86/config'
p10
asS'bootloaders'
p11
(lp12
S'grub-pc'
p13
aS'extlinux'
p14
aS'lilo'
p15
ass(S'description'
S'i386'
p16
NS'amd64'
tp17
(dp18
S'hardware'
p19
S'64-bit PCs'
p20
sS'hardware-long'
p21
S'PCs with AMD64, Intel 64 or VIA Nano processors'
p22
ss(S'base'
g5
S'none'
p23
tp24
(dp25
S'flavours'
p26
(lp27
S'amd64'
p28
ass(S'image'
S'armel'
p29
NS'orion5x'
tp30
(dp31
S'check-size'
p32
S'1572792'
p33
sS'recommends'
p34
S'uboot-mkimage'
p35
ss(S'build'
S's390'
p36
NS's390x'
tp37
(dp38
S'debug-info'
p39
I01
ss(S'image'
S'ia64'
p40
tp41
(dp42
S'suggests'
p43
S'fdutils'
p44
sS'bootloaders'
p45
(lp46
S'elilo'
p47
ass(S'description'
S'hppa'
p48
NS'parisc64-smp'
tp49
(dp50
S'hardware'
p51
S'multiprocessor 64-bit PA-RISC'
p52
ss(S'description'
g29
NS'versatile'
tp53
(dp54
S'hardware'
p55
S'Versatile'
p56
sS'hardware-long'
p57
S'Versatile systems (PB, AB, Qemu)'
p58
ss(S'description'
S'mips'
p59
NS'sb1a-bcm91480b'
tp60
(dp61
S'hardware'
p62
S'BCM91480B'
p63
sS'hardware-long'
p64
S'Broadcom BCM91480B systems (aka BigSur)'
p65
ss(S'description'
g40
NS'mckinley'
tp66
(dp67
S'hardware'
p68
S'Itanium II'
p69
ss(S'version'
p70
tp71
(dp72
S'abiname'
p73
S'3.2.0-4'
p74
sS'source'
p75
V3.2.96-2
p76
ss(S'description'
g5
g23
S'amd64'
tp77
(dp78
S'parts'
p79
(lp80
S'xen'
p81
ass(S'image'
S'mipsel'
p82
NS'sb1a-bcm91480b'
tp83
(dp84
S'configs'
p85
(lp86
S'mips/config.sb1a-bcm91480b'
p87
ass(S'base'
p88
S'ppc64'
p89
S'none'
p90
tp91
(dp92
S'implicit-flavour'
p93
I01
sS'flavours'
p94
(lp95
S'powerpc64'
p96
ass(S'description'
g5
NS'amd64'
tp97
(dp98
S'hardware'
p99
S'64-bit PCs'
p100
sS'hardware-long'
p101
S'PCs with AMD64, Intel 64 or VIA Nano processors'
p102
ss(S'description'
S'sparc'
p103
NS'sparc32'
tp104
(dp105
S'hardware'
p106
S'uniprocessor sparc32 (sun4m)'
p107
ss(S'description'
g40
NS'itanium'
tp108
(dp109
S'hardware'
p110
S'Itanium'
p111
ss(S'image'
g82
NS'5kc-malta'
tp112
(dp113
S'configs'
p114
(lp115
S'mips/config.5kc-malta'
p116
ass(S'build'
g29
NS'kirkwood'
tp117
(dp118
S'image-file'
p119
S'arch/arm/boot/zImage'
p120
ss(S'description'
S'm68k'
p121
NS'mvme147'
tp122
(dp123
S'hardware'
p124
S'Motorola MVME147'
p125
ss(S'description'
S'armhf'
p126
NS'vexpress'
tp127
(dp128
S'hardware'
p129
S'ARM Ltd. Versatile Express'
p130
sS'hardware-long'
p131
S'ARM Ltd. Versatile Express family of processors'
p132
ss(S'base'
S'alpha'
p133
tp134
(dp135
S'kernel-arch'
p136
S'alpha'
p137
sS'featuresets'
p138
(lp139
g90
ass(S'description'
g16
NS'686-pae'
tp140
(dp141
S'hardware'
p142
S'modern PCs'
p143
sS'parts'
p144
(lp145
S'pae'
p146
asS'hardware-long'
p147
S'PCs with one or more processors supporting PAE'
p148
ss(S'description'
g29
NS'ixp4xx'
tp149
(dp150
S'hardware'
p151
S'IXP4xx'
p152
sS'hardware-long'
p153
S'IXP4xx based systems (Linksys NSLU2, etc)'
p154
ss(g88
g126
g90
tp155
(dp156
g93
I01
sg94
(lp157
S'mx5'
p158
aS'omap'
p159
aS'vexpress'
p160
ass(S'image'
g16
NS'amd64'
tp161
(dp162
S'configs'
p163
(lp164
S'kernelarch-x86/config-arch-64'
p165
asS'recommends'
p166
S'libc6-i686'
p167
ss(S'description'
g59
NS'r5k-ip32'
tp168
(dp169
S'hardware'
p170
S'SGI IP32'
p171
sS'hardware-long'
p172
S'SGI IP32 systems (O2)'
p173
ss(g88
S'powerpc'
p174
g90
tp175
(dp176
g93
I01
sg94
(lp177
S'powerpc'
p178
aS'powerpc-smp'
p179
aS'powerpc64'
p180
ass(S'image'
g174
tp181
(dp182
S'suggests'
p183
S'mkvmlinuz'
p184
ss(S'description'
g29
NS'orion5x'
tp185
(dp186
S'hardware'
p187
S'Marvell Orion'
p188
sS'hardware-long'
p189
S'Marvell Orion 5181, 5182 and 5281 based systems (QNAP TS-109/TS-209, etc)'
p190
ss(S'description'
g82
NS'sb1-bcm91250a'
tp191
(dp192
S'hardware'
p193
S'BCM91250A'
p194
sS'hardware-long'
p195
S'Broadcom BCM91250A systems (aka SWARM)'
p196
ss(S'base'
g5
S'rt'
tp197
(dp198
S'flavours'
p199
(lp200
S'amd64'
p201
ass(S'description'
g48
NS'parisc'
tp202
(dp203
S'hardware'
p204
S'32-bit PA-RISC'
p205
ss(S'description'
g16
S'none'
p206
S'amd64'
tp207
(dp208
S'parts'
p209
(lp210
S'xen'
p211
ass(S'description'
g174
NS'powerpc'
tp212
(dp213
S'hardware'
p214
S'uniprocessor 32-bit PowerPC'
p215
ss(S'base'
g16
tp216
(dp217
S'kernel-arch'
p218
S'x86'
p219
sS'featuresets'
p220
(lp221
S'none'
p222
aS'rt'
p223
ass(S'image'
g16
NS'486'
tp224
(dp225
S'configs'
p226
(lp227
S'kernelarch-x86/config-arch-32'
p228
ass(S'description'
g48
NS'parisc64'
tp229
(dp230
S'hardware'
p231
S'64-bit PA-RISC'
p232
ss(S'base'
g48
tp233
(dp234
S'kernel-arch'
p235
S'parisc'
p236
sg138
(lp237
g90
asS'compiler'
p238
S'gcc-4.4'
p239
ss(S'image'
g89
NS'powerpc64'
tp240
(dp241
S'configs'
p242
(lp243
S'powerpc/config.powerpc64'
p244
ass(S'build'
g29
NS'mv78xx0'
tp245
(dp246
S'image-file'
p247
S'arch/arm/boot/zImage'
p248
ss(S'description'
g121
NS'atari'
tp249
(dp250
S'hardware'
p251
S'Atari'
p252
ss(g88
g82
g90
tp253
(dp254
g93
I01
sg94
(lp255
S'r5k-cobalt'
p256
aS'sb1-bcm91250a'
p257
aS'sb1a-bcm91480b'
p258
aS'4kc-malta'
p259
aS'5kc-malta'
p260
aS'loongson-2f'
p261
ass(S'base'
NS'rt'
tp262
(dp263
S'enabled'
p264
I01
ss(S'relations'
tp265
(dp266
S'initramfs-fallback'
p267
S'linux-initramfs-tool'
p268
sS'gcc-4.5'
p269
S'gcc-4.5'
p270
sS'gcc-4.6'
p271
S'gcc-4.6'
p272
sS'initramfs-tools'
p273
S'initramfs-tools (>= 0.99~)'
p274
sS'gcc-4.4'
p275
S'gcc-4.4'
p276
ss(S'image'
g82
NS'sb1-bcm91250a'
tp277
(dp278
S'configs'
p279
(lp280
S'mips/config.sb1-bcm91250a'
p281
ass(S'build'
g126
NS'omap'
tp282
(dp283
S'image-file'
p284
S'arch/arm/boot/zImage'
p285
ss(S'description'
g174
NS'powerpc64'
tp286
(dp287
S'hardware'
p288
S'64-bit PowerPC'
p289
ss(g88
S'sh4'
p290
g90
tp291
(dp292
g93
I01
sg94
(lp293
S'sh7751r'
p294
aS'sh7785lcr'
p295
ass(S'build'
g29
NS'iop32x'
tp296
(dp297
S'image-file'
p298
S'arch/arm/boot/zImage'
p299
ss(S'description'
g126
NS'mx5'
tp300
(dp301
S'hardware'
p302
S'Freescale i.MX51/53'
p303
sS'hardware-long'
p304
S'Freescale i.MX51 or i.MX53 based systems'
p305
ss(S'xen'
g16
g206
S'amd64'
tp306
(dp307
S'flavours'
p308
(lp309
S'amd64'
p310
asS'dom0-support'
p311
I01
ss(S'build'
S's390x'
p312
NS's390x-tape'
tp313
(dp314
S'modules'
p315
I00
ss(S'description'
g121
NS'mac'
tp316
(dp317
S'hardware'
p318
S'Macintosh'
p319
ss(S'abi'
NS'rt'
p320
tp321
(dp322
S'ignore-changes'
p323
(lp324
S'*'
ass(S'image'
g290
NS'sh7785lcr'
tp325
(dp326
S'check-size'
p327
S'4194304'
p328
sS'recommends'
p329
S'uboot-mkimage'
p330
ss(S'base'
g29
tp331
(dp332
S'kernel-arch'
p333
S'arm'
p334
sg138
(lp335
g90
ass(S'description'
g59
NS'r4k-ip22'
tp336
(dp337
S'hardware'
p338
S'SGI IP22'
p339
sS'hardware-long'
p340
S'SGI IP22 systems (Indy, Indigo2)'
p341
ss(S'image'
g29
NS'iop32x'
tp342
(dp343
S'check-size'
p344
S'1441784'
p345
ss(S'base'
g103
tp346
(dp347
S'kernel-arch'
p348
S'sparc'
p349
sg138
(lp350
g90
ass(S'image'
g29
NS'ixp4xx'
tp351
(dp352
S'check-size'
p353
S'1441760'
p354
ss(g88
g36
g90
tp355
(dp356
g93
I01
sg94
(lp357
S's390x'
p358
aS's390x-tape'
p359
ass(S'description'
g82
NS'r5k-cobalt'
tp360
(dp361
S'hardware'
p362
S'Cobalt'
p363
sS'hardware-long'
p364
S'Cobalt systems (Qube, RaQ, Qube2, RaQ2)'
p365
ss(g88
g312
g90
tp366
(dp367
g93
I01
sg94
(lp368
S's390x'
p369
aS's390x-tape'
p370
ass(S'base'
g59
tp371
(dp372
S'kernel-arch'
p373
S'mips'
p374
sg138
(lp375
g90
ass(S'build'
g5
tp376
(dp377
S'debug-info'
p378
I01
ss(S'image'
g82
tp379
(dp380
S'configs'
p381
(lp382
S'kernelarch-mips/config'
p383
aS'mipsel/config'
p384
asS'initramfs'
p385
I00
ss(S'build'
g126
NS'vexpress'
tp386
(dp387
S'image-file'
p388
S'arch/arm/boot/zImage'
p389
ss(S'xen'
g16
g206
S'686-pae'
tp390
(dp391
S'flavours'
p392
(lp393
S'i386'
p394
aS'amd64'
p395
asS'dom0-support'
p396
I01
ss(S'description'
Ng320
tp397
(dp398
S'part-long-rt'
p399
S'This kernel includes the PREEMPT_RT realtime patch set.'
p400
sS'parts'
p401
(lp402
S'rt'
p403
asS'part-short-rt'
p404
S'PREEMPT_RT'
p405
ss(S'description'
g103
NS'sparc64'
tp406
(dp407
S'hardware'
p408
S'uniprocessor 64-bit UltraSPARC'
p409
ss(S'description'
g312
NS's390x'
tp410
(dp411
S'hardware'
p412
S'IBM zSeries'
p413
sS'parts'
p414
(lp415
S'reader'
p416
ass(S'base'
g5
tp417
(dp418
S'kernel-arch'
p419
S'x86'
p420
sS'featuresets'
p421
(lp422
S'none'
p423
aS'rt'
p424
ass(S'base'
g40
tp425
(dp426
S'kernel-arch'
p427
S'ia64'
p428
sg138
(lp429
g90
ass(S'abi'
g103
tp430
(dp431
S'ignore-changes'
p432
(lp433
S'__down_read'
p434
aS'__down_read_trylock'
p435
aS'__down_write'
p436
aS'__down_write_trylock'
p437
aS'__downgrade_write'
p438
aS'__up_read'
p439
aS'__up_write'
p440
ass(S'build'
g312
NS's390x'
tp441
(dp442
S'debug-info'
p443
I01
ss(S'description'
g36
NS's390-tape'
tp444
(dp445
S'hardware'
p446
S'IBM S/390'
p447
sS'parts'
p448
(lp449
S'tape'
p450
ass(S'description'
g174
NS'powerpc-smp'
tp451
(dp452
S'hardware'
p453
S'multiprocessor 32-bit PowerPC'
p454
ss(S'description'
g121
NS'amiga'
tp455
(dp456
S'hardware'
p457
S'Amiga'
p458
ss(S'base'
g36
tp459
(dp460
S'kernel-arch'
p461
S's390'
p462
sg138
(lp463
g90
ass(g88
g29
g90
tp464
(dp465
g93
I01
sg94
(lp466
S'iop32x'
p467
aS'ixp4xx'
p468
aS'kirkwood'
p469
aS'mv78xx0'
p470
aS'orion5x'
p471
aS'versatile'
p472
ass(S'description'
S'sparc64'
p473
NS'sparc64-smp'
tp474
(dp475
S'hardware'
p476
S'multiprocessor 64-bit UltraSPARC'
p477
ss(S'base'
g82
tp478
(dp479
S'kernel-arch'
p480
S'mips'
p481
sg138
(lp482
g90
ass(S'description'
g312
NS's390x-tape'
tp483
(dp484
S'hardware'
p485
S'IBM zSeries'
p486
sS'parts'
p487
(lp488
S'tape'
p489
ass(S'image'
g312
NS's390x'
tp490
(dp491
S'configs'
p492
(lp493
S's390/config.s390x'
p494
ass(S'image'
g126
NS'omap'
tp495
(dp496
S'recommends'
p497
S'uboot-mkimage'
p498
ss(S'build'
g29
NS'ixp4xx'
tp499
(dp500
S'image-file'
p501
S'arch/arm/boot/zImage'
p502
ss(S'description'
g16
tp503
(dp504
S'part-long-pae'
p505
S'This kernel requires PAE (Physical Address Extension).\nThis feature is supported by the Intel Pentium Pro/II/III/4/4M/D, Xeon,\nCore and Atom; AMD Geode NX, Athlon (K7), Duron, Opteron, Sempron,\nTurion or Phenom; Transmeta Efficeon; VIA C7; and some other processors.'
p506
ss(S'description'
g82
NS'sb1a-bcm91480b'
tp507
(dp508
S'hardware'
p509
S'BCM91480B'
p510
sS'hardware-long'
p511
S'Broadcom BCM91480B systems (aka BigSur)'
p512
ss(S'image'
g126
tp513
(dp514
S'suggests'
p515
S'fdutils'
p516
sS'configs'
p517
(lp518
S'armel/config'
p519
aS'armhf/config'
p520
ass(S'xen'
g5
g23
S'amd64'
tp521
(dp522
S'flavours'
p523
(lp524
S'amd64'
p525
asS'dom0-support'
p526
I01
ss(S'image'
g29
tp527
(dp528
S'suggests'
p529
S'fdutils'
p530
ss(S'description'
g36
NS's390'
tp531
(dp532
S'hardware'
p533
S'IBM S/390'
p534
sS'parts'
p535
(lp536
S'reader'
p537
ass(S'abi'
g312
tp538
(dp539
S'ignore-changes'
p540
(lp541
S'arch_pick_mmap_layout'
p542
aS'lowcore_ptr'
p543
ass(S'abi'
g5
tp544
(dp545
S'ignore-changes'
p546
(lp547
S'module:arch/x86/kvm/kvm'
p548
ass(S'image'
g48
tp549
(dp550
S'suggests'
p551
S'palo'
p552
ss(S'abi'
g59
tp553
(dp554
S'ignore-changes'
p555
(lp556
S'vgacon_*'
p557
ass(S'relations'
g48
tp558
(dp559
S'gcc-4.4'
p560
S'gcc-4.4, binutils-hppa64, gcc-4.4-hppa64'
p561
ss(S'base'
g48
NS'parisc64'
tp562
(dp563
S'override-host-type'
p564
S'hppa64-linux-gnu'
p565
sS'cflags'
p566
S'-fno-cse-follow-jumps'
p567
ss(S'image'
g29
NS'kirkwood'
tp568
(dp569
S'check-size'
p570
S'2097080'
p571
sS'recommends'
p572
S'uboot-mkimage'
p573
ss(S'description'
g82
NS'5kc-malta'
tp574
(dp575
S'hardware'
p576
S'MIPS Malta (64-bit)'
p577
sS'hardware-long'
p578
S'MIPS Malta boards (64-bit)'
p579
ss(S'abi'
g36
tp580
(dp581
S'ignore-changes'
p582
(lp583
S'arch_pick_mmap_layout'
p584
aS'lowcore_ptr'
p585
ass(S'description'
g290
NS'sh7785lcr'
tp586
(dp587
S'hardware'
p588
S'sh7785lcr'
p589
sS'hardware-long'
p590
S'Renesas SH7785 reference board'
p591
ss(S'description'
g59
NS'4kc-malta'
tp592
(dp593
S'hardware'
p594
S'MIPS Malta'
p595
sS'hardware-long'
p596
S'MIPS Malta boards'
p597
ss(g88
g48
g90
tp598
(dp599
g93
I01
sg94
(lp600
S'parisc'
p601
aS'parisc-smp'
p602
aS'parisc64'
p603
aS'parisc64-smp'
p604
ass(S'description'
g126
NS'omap'
tp605
(dp606
S'hardware'
p607
S'TI OMAP3+'
p608
sS'hardware-long'
p609
S'Texas Instruments OMAP3 or OMAP4 based systems'
p610
ss(S'image'
g133
tp611
(dp612
S'suggests'
p613
S'aboot, fdutils'
p614
ss(S'base'
g473
tp615
(dp616
S'kernel-arch'
p617
S'sparc'
p618
sg138
(lp619
g90
ass(S'description'
g473
NS'sparc64'
tp620
(dp621
S'hardware'
p622
S'uniprocessor 64-bit UltraSPARC'
p623
ss(S'build'
g126
NS'mx5'
tp624
(dp625
S'image-file'
p626
S'arch/arm/boot/zImage'
p627
ss(S'description'
g89
NS'powerpc64'
tp628
(dp629
S'hardware'
p630
S'64-bit PowerPC'
p631
ss(S'base'
g312
tp632
(dp633
S'kernel-arch'
p634
S's390'
p635
sg138
(lp636
g90
ass(S'build'
g36
NS's390-tape'
tp637
(dp638
S'modules'
p639
I00
ss(S'image'
g312
NS's390x-tape'
tp640
(dp641
S'configs'
p642
(lp643
S's390/config.s390x-tape'
p644
asS'override-localversion'
p645
S's390x'
p646
sS'type'
p647
S'plain-s390-tape'
p648
sS'initramfs'
p649
I00
ss(S'image'
g89
tp650
(dp651
S'suggests'
p652
S'mkvmlinuz'
p653
sS'configs'
p654
(lp655
S'powerpc/config'
p656
ass(S'image'
g59
tp657
(dp658
S'configs'
p659
(lp660
S'kernelarch-mips/config'
p661
aS'mips/config'
p662
asS'initramfs'
p663
I00
ss(S'image'
g16
tp664
(dp665
S'configs'
p666
(lp667
S'kernelarch-x86/config'
p668
asS'bootloaders'
p669
(lp670
S'grub-pc'
p671
aS'extlinux'
p672
aS'lilo'
p673
ass(S'image'
g36
tp674
(dp675
S'bootloaders'
p676
(lp677
S's390-tools'
p678
ass(g88
g103
g90
tp679
(dp680
g93
I01
sg94
(lp681
S'sparc64'
p682
aS'sparc64-smp'
p683
ass(S'base'
g89
tp684
(dp685
S'kernel-arch'
p686
S'powerpc'
p687
sg138
(lp688
g90
ass(g88
g133
g90
tp689
(dp690
g93
I01
sg94
(lp691
S'alpha-generic'
p692
aS'alpha-smp'
p693
aS'alpha-legacy'
p694
ass(S'description'
g16
g206
S'686-pae'
tp695
(dp696
S'parts'
p697
(lp698
S'xen'
p699
ass(g88
g40
g90
tp700
(dp701
g93
I01
sg94
(lp702
S'itanium'
p703
aS'mckinley'
p704
ass(S'description'
g36
tp705
(dp706
S'part-short-tape'
p707
S'IPL from tape'
p708
sS'part-long-tape'
p709
S'This kernel has support to IPL (boot) from a tape.'
p710
sS'part-long-reader'
p711
S'This kernel has support to IPL (boot) from a VM reader or DASD device.'
p712
ss(S'description'
g29
NS'kirkwood'
tp713
(dp714
S'hardware'
p715
S'Marvell Kirkwood'
p716
sS'hardware-long'
p717
S'Marvell Kirkwood based systems (SheevaPlug, QNAP TS-119/TS-219, etc)'
p718
ss(g88
g59
g90
tp719
(dp720
g93
I01
sg94
(lp721
S'r4k-ip22'
p722
aS'r5k-ip32'
p723
aS'sb1-bcm91250a'
p724
aS'sb1a-bcm91480b'
p725
aS'4kc-malta'
p726
aS'5kc-malta'
p727
aS'octeon'
p728
ass(S'description'
g121
NS'mvme16x'
tp729
(dp730
S'hardware'
p731
S'Motorola MVME162/6/7, MVME172/7'
p732
ss(S'image'
g103
NS'sparc32'
tp733
(dp734
S'image-postproc'
p735
S'sparc32-image-postproc'
p736
ss(S'build'
g16
NS'686-pae'
tp737
(dp738
S'debug-info'
p739
I01
ss(S'image'
g36
NS's390x-tape'
tp740
(dp741
S'override-localversion'
p742
S's390x'
p743
sS'type'
p744
S'plain-s390-tape'
p745
sS'initramfs'
p746
I00
ss(S'image'
g121
tp747
(dp748
S'suggests'
p749
S'vmelilo, fdutils'
p750
sS'initramfs'
p751
I00
ss(S'base'
g126
tp752
(dp753
S'kernel-arch'
p754
S'arm'
p755
sg138
(lp756
g90
ass(S'image'
g82
NS'4kc-malta'
tp757
(dp758
S'configs'
p759
(lp760
S'mips/config.4kc-malta'
p761
ass(S'build'
g29
NS'orion5x'
tp762
(dp763
S'image-file'
p764
S'arch/arm/boot/zImage'
p765
ss(S'image'
g290
tp766
(dp767
S'suggests'
p768
S'fdutils'
p769
ss(S'description'
g59
NS'octeon'
tp770
(dp771
S'hardware'
p772
S'Octeon'
p773
sS'hardware-long'
p774
S'Cavium Networks Octeon'
p775
ss(S'base'
g48
NS'parisc64-smp'
tp776
(dp777
S'override-host-type'
p778
S'hppa64-linux-gnu'
p779
sS'cflags'
p780
S'-fno-cse-follow-jumps'
p781
ss(S'image'
g16
NS'686-pae'
tp782
(dp783
S'configs'
p784
(lp785
S'kernelarch-x86/config-arch-32'
p786
asS'recommends'
p787
S'libc6-i686'
p788
ss(S'base'
g290
tp789
(dp790
S'kernel-arch'
p791
S'sh'
p792
sg138
(lp793
g90
ass(S'abi'
g82
tp794
(dp795
S'ignore-changes'
p796
(lp797
S'vgacon_*'
p798
ass(S'image'
g103
tp799
(dp800
S'suggests'
p801
S'silo, fdutils'
p802
ss(S'description'
tp803
(dp804
S'part-long-up'
p805
S'This kernel is not suitable for SMP (multi-processor,\nmulti-core or hyper-threaded) systems.'
p806
sS'part-long-xen'
p807
S'This kernel also runs on a Xen hypervisor.\nIt supports both privileged (dom0) and unprivileged (domU) operation.'
p808
ss(S'description'
g121
NS'bvme6000'
tp809
(dp810
S'hardware'
p811
S'BVM BVME4000 and BVME6000'
p812
ss(S'build'
g290
NS'sh7785lcr'
tp813
(dp814
S'image-file'
p815
S'arch/sh/boot/zImage'
p816
ss(S'image'
g473
NS'sparc64'
tp817
(dp818
S'configs'
p819
(lp820
S'sparc/config.sparc64'
p821
ass(S'image'
g5
NS'amd64'
tp822
(dp823
S'configs'
p824
(lp825
S'kernelarch-x86/config-arch-64'
p826
ass(S'description'
g290
NS'sh7751r'
tp827
(dp828
S'hardware'
p829
S'sh7751r'
p830
sS'hardware-long'
p831
S'Renesas SH7751R R2D plus board'
p832
ss(S'description'
g36
NS's390x-tape'
tp833
(dp834
S'hardware'
p835
S'IBM zSeries'
p836
sS'parts'
p837
(lp838
S'tape'
p839
ass(S'description'
g133
NS'alpha-legacy'
tp840
(dp841
S'hardware'
p842
S'Alpha Legacy'
p843
sS'hardware-long'
p844
S'DEC Alpha systems with legacy kernel start address'
p845
ss(S'base'
g16
S'rt'
tp846
(dp847
S'flavours'
p848
(lp849
S'686-pae'
p850
ass(S'image'
g473
tp851
(dp852
S'suggests'
p853
S'silo, fdutils'
p854
sS'configs'
p855
(lp856
S'sparc/config'
p857
ass(S'image'
g174
NS'powerpc-smp'
tp858
(dp859
S'configs'
p860
(lp861
S'powerpc/config.powerpc'
p862
aS'powerpc/config.powerpc-smp'
p863
ass(S'description'
g82
NS'4kc-malta'
tp864
(dp865
S'hardware'
p866
S'MIPS Malta'
p867
sS'hardware-long'
p868
S'MIPS Malta boards'
p869
ss(S'base'
g174
tp870
(dp871
S'kernel-arch'
p872
S'powerpc'
p873
sg138
(lp874
g90
ass(S'description'
g48
NS'parisc-smp'
tp875
(dp876
S'hardware'
p877
S'multiprocessor 32-bit PA-RISC'
p878
ss(S'abi'
g473
tp879
(dp880
S'ignore-changes'
p881
(lp882
S'__down_read'
p883
aS'__down_read_trylock'
p884
aS'__down_write'
p885
aS'__down_write_trylock'
p886
aS'__downgrade_write'
p887
aS'__up_read'
p888
aS'__up_write'
p889
ass(S'description'
g29
NS'iop32x'
tp890
(dp891
S'hardware'
p892
S'IOP32x'
p893
sS'hardware-long'
p894
S'IOP32x based systems (Thecus N2100, etc)'
p895
ss(S'description'
g312
tp896
(dp897
S'part-short-tape'
p898
S'IPL from tape'
p899
sS'part-long-tape'
p900
S'This kernel has support to IPL (boot) from a tape.'
p901
sS'part-long-reader'
p902
S'This kernel has support to IPL (boot) from a VM reader or DASD device.'
p903
ss(S'description'
g29
NS'mv78xx0'
tp904
(dp905
S'hardware'
p906
S'Marvell 78xx0'
p907
sS'hardware-long'
p908
S'Marvell DB-78xx0-BP Development Board'
p909
ss(S'abi'
tp910
(dp911
S'abiname'
p912
S'4'
sS'ignore-changes'
p913
(lp914
S'module:net/l2tp/*'
p915
aS'__rpc_wait_for_completion_task'
p916
aS'bc_svc_process'
p917
aS'nfs4*'
p918
aS'nfs_*'
p919
aS'nlmclnt_*'
p920
aS'nlmsvc_*'
p921
aS'pnfs_*'
p922
aS'put_lseg'
p923
aS'put_rpccred'
p924
aS'rpc_*'
p925
aS'rpcauth_*'
p926
aS'rpcb_getport_async'
p927
aS'svc_*'
p928
aS'svcauth_unix_set_client'
p929
aS'unix_domain_find'
p930
aS'xprt_*'
p931
aS'get_write_access'
p932
aS'module:drivers/gpu/drm/*'
p933
aS'drm_sman_*'
p934
aS'intel_agp_enabled'
p935
aS'intel_gmch_*'
p936
aS'intel_gtt_*'
p937
aS'module:drivers/net/wan/cycx_drv'
p938
aS'module:net/wanrouter/wanrouter'
p939
aS'register_virtio_*'
p940
aS'unregister_virtio_*'
p941
aS'virtio_*'
p942
aS'virtqueue_*'
p943
aS'vring_*'
p944
aS'module:drivers/staging/*'
p945
aS'module:drivers/net/ethernet/*'
p946
aS'module:drivers/net/wireless/*'
p947
aS'kmsg_dump_register'
p948
aS'kmsg_dump_unregister'
p949
aS'register_efivars'
p950
aS'unregister_efivars'
p951
aS'module:drivers/usb/serial/*'
p952
aS'module:arch/s390/kvm/kvm'
p953
aS'module:drivers/scsi/esp_scsi'
p954
aS'module:drivers/char/tpm/tpm'
p955
aS'omap_dsp_get_mempool_base'
p956
aS'sysctl_tcp_dma_copybreak'
p957
aS'module:fs/exofs/libore'
p958
aS'DAC1064_global_*'
p959
aS'g450_mnp2f'
p960
aS'matrox_*'
p961
aS'matroxfb_*'
p962
aS'tcp_alloc_md5sig_pool'
p963
aS'tcp_free_md5sig_pool'
p964
aS'tcp_get_md5sig_pool'
p965
aS'tcp_put_md5sig_pool'
p966
aS'module:sound/i2c/other/snd-ak4113'
p967
aS'module:sound/i2c/other/snd-ak4114'
p968
aS'module:net/ipv4/netfilter/nf_conntrac*'
p969
aS'module:net/ipv4/netfilter/nf_nat'
p970
aS'module:net/netfilter/ipvs/*'
p971
aS'module:net/netfilter/nf_conntrac*'
p972
aS'module:net/rds/rds'
p973
aS'module:sound/pci/emu10k1/*'
p974
aS'module:drivers/md/dm-snapshot'
p975
aS'module:sound/core/snd-rawmidi'
p976
aS'module:drivers/net/ethernet/mellanox/mlx4/*'
p977
aS'skb_copy_and_csum_datagram_iovec'
p978
aS'module:net/dccp/dccp'
p979
aS'fl6_*'
p980
aS'inet_sk_diag_fill'
p981
aS'ip6_append_data'
p982
aS'ip6_datagram_send_ctl'
p983
aS'ip6_xmit'
p984
aS'ipv6_dup_options'
p985
aS'ipv6_fixup_options'
p986
aS'ipv6_push_nfrag_opts'
p987
aS'tcp_cong_avoid_ai'
p988
aS'tcp_slow_start'
p989
aS'__scm_destroy'
p990
aS'__scm_send'
p991
aS'scm_detach_fds'
p992
aS'scm_fp_dup'
p993
aS'af_alg_*'
p994
aS'module:drivers/net/can/can-dev'
p995
aS'can_rx_register'
p996
aS'module:drivers/infiniband/**'
p997
ass(S'description'
g59
NS'sb1-bcm91250a'
tp998
(dp999
S'hardware'
p1000
S'BCM91250A'
p1001
sS'hardware-long'
p1002
S'Broadcom BCM91250A systems (aka SWARM)'
p1003
ss(g88
g121
g90
tp1004
(dp1005
g93
I01
sg94
(lp1006
S'amiga'
p1007
aS'atari'
p1008
aS'bvme6000'
p1009
aS'mac'
p1010
aS'mvme147'
p1011
aS'mvme16x'
p1012
ass(S'abi'
g16
tp1013
(dp1014
S'ignore-changes'
p1015
(lp1016
S'disable_hlt'
p1017
aS'enable_hlt'
p1018
aS'module:arch/x86/kvm/kvm'
p1019
ass(S'description'
g133
NS'alpha-smp'
tp1020
(dp1021
S'hardware'
p1022
S'Alpha SMP'
p1023
sS'hardware-long'
p1024
S'DEC Alpha SMP systems with extended kernel start address (Wildfire, Titan, Marvel)'
p1025
ss(S'base'
g16
g206
tp1026
(dp1027
S'flavours'
p1028
(lp1029
S'486'
p1030
aS'686-pae'
p1031
aS'amd64'
p1032
ass(S'base'
tp1033
(dp1034
S'arches'
p1035
(lp1036
S'alpha'
p1037
aS'amd64'
p1038
aS'armel'
p1039
aS'armhf'
p1040
aS'hppa'
p1041
aS'i386'
p1042
aS'ia64'
p1043
aS'm68k'
p1044
aS'mips'
p1045
aS'mipsel'
p1046
aS'powerpc'
p1047
aS'ppc64'
p1048
aS's390'
p1049
aS's390x'
p1050
aS'sh4'
p1051
aS'sparc'
p1052
aS'sparc64'
p1053
asS'featuresets'
p1054
(lp1055
S'none'
p1056
aS'rt'
p1057
asS'compiler'
p1058
S'gcc-4.6'
p1059
ss(S'description'
g36
NS's390x'
tp1060
(dp1061
S'hardware'
p1062
S'IBM zSeries'
p1063
sS'parts'
p1064
(lp1065
S'reader'
p1066
ass(S'description'
g59
NS'5kc-malta'
tp1067
(dp1068
S'hardware'
p1069
S'MIPS Malta (64-bit)'
p1070
sS'hardware-long'
p1071
S'MIPS Malta boards (64-bit)'
p1072
ss(S'description'
g103
NS'sparc64-smp'
tp1073
(dp1074
S'hardware'
p1075
S'multiprocessor 64-bit UltraSPARC'
p1076
ss(S'build'
g36
NS's390x-tape'
tp1077
(dp1078
S'modules'
p1079
I00
ss(S'base'
g121
tp1080
(dp1081
S'kernel-arch'
p1082
S'm68k'
p1083
sg138
(lp1084
g90
asS'cflags'
p1085
S'-ffreestanding'
p1086
sS'compiler'
p1087
S'gcc-4.6'
p1088
ss(S'image'
tp1089
(dp1090
S'initramfs-generators'
p1091
(lp1092
S'initramfs-tools'
p1093
aS'initramfs-fallback'
p1094
asS'type'
p1095
S'plain'
p1096
ss(S'image'
g82
NS'loongson-2f'
tp1097
(dp1098
S'recommends'
p1099
S'libc6-loongson2f'
p1100
ss(S'image'
g473
NS'sparc64-smp'
tp1101
(dp1102
S'configs'
p1103
(lp1104
S'sparc/config.sparc64-smp'
p1105
ass(g88
g473
g90
tp1106
(dp1107
g93
I01
sg94
(lp1108
S'sparc64'
p1109
aS'sparc64-smp'
p1110
ass(S'image'
g36
NS's390-tape'
tp1111
(dp1112
S'override-localversion'
p1113
S's390'
p1114
sS'type'
p1115
S'plain-s390-tape'
p1116
sS'initramfs'
p1117
I00
ss(S'build'
g290
NS'sh7751r'
tp1118
(dp1119
S'image-file'
p1120
S'arch/sh/boot/zImage'
p1121
ss(S'image'
g312
tp1122
(dp1123
S'configs'
p1124
(lp1125
S's390/config'
p1126
asS'bootloaders'
p1127
(lp1128
S's390-tools'
p1129
ass(S'description'
g16
NS'486'
tp1130
(dp1131
S'hardware'
p1132
S'older PCs'
p1133
sS'parts'
p1134
(lp1135
S'up'
p1136
asS'hardware-long'
p1137
S'PCs with a single processor not supporting PAE'
p1138
ss(S'description'
g133
NS'alpha-generic'
tp1139
(dp1140
S'hardware'
p1141
S'Alpha'
p1142
sS'hardware-long'
p1143
S'DEC Alpha systems with extended kernel start address (Wildfire, Titan, Marvel)'
p1144
ss(S'description'
g82
NS'loongson-2f'
tp1145
(dp1146
S'hardware'
p1147
S'Loongson 2F'
p1148
sS'hardware-long'
p1149
S'Lemote Loongson 2F systems'
p1150
sstRp1151
.