ccopy_reg
_reconstructor
p0
(cdebian_linux.config
ConfigCore
p1
c__builtin__
dict
p2
(dp3
(S'image'
p4
S'amd64'
p5
tp6
(dp7
S'install-stem'
p8
S'vmlinuz'
p9
sS'configs'
p10
(lp11
sS'bootloaders'
p12
(lp13
S'grub-pc'
p14
aS'grub-efi'
p15
aS'extlinux'
p16
ass(S'description'
p17
S'mips64'
p18
NS'sb1-bcm91250a'
p19
tp20
(dp21
S'hardware'
p22
S'BCM91250A'
p23
sS'hardware-long'
p24
S'Broadcom BCM91250A systems (aka SWARM)'
p25
ss(S'description'
p26
S'sh4'
p27
NS'sh7751r'
p28
tp29
(dp30
S'hardware'
p31
S'sh7751r'
p32
sS'hardware-long'
p33
S'Renesas SH7751R R2D plus board'
p34
ss(S'base'
p35
g5
S'none'
p36
tp37
(dp38
S'flavours'
p39
(lp40
S'amd64'
p41
ass(S'description'
p42
S'alpha'
p43
NS'alpha-smp'
p44
tp45
(dp46
S'hardware'
p47
S'Alpha SMP'
p48
sS'hardware-long'
p49
S'DEC Alpha SMP systems with extended kernel start address (Wildfire, Titan, Marvel)'
p50
ss(S'image'
p51
S'mips'
p52
NS'4kc-malta'
p53
tp54
(dp55
S'configs'
p56
(lp57
S'kernelarch-mips/config.4kc-malta'
p58
ass(S'image'
p59
g52
NS'octeon'
p60
tp61
(dp62
S'configs'
p63
(lp64
S'kernelarch-mips/config.octeon'
p65
ass(S'image'
p66
S'ia64'
p67
tp68
(dp69
S'suggests'
p70
S'fdutils'
p71
sS'bootloaders'
p72
(lp73
S'elilo'
p74
asS'install-stem'
p75
S'vmlinuz'
p76
ss(S'abi'
p77
NS'rt'
p78
tp79
(dp80
S'ignore-changes'
p81
(lp82
S'*'
p83
ass(S'image'
p84
S'i386'
p85
NS'586'
p86
tp87
(dp88
S'configs'
p89
(lp90
S'kernelarch-x86/config-arch-32'
p91
aS'i386/config.586'
p92
ass(S'description'
p93
S'arm64'
p94
NS'arm64'
p95
tp96
(dp97
S'hardware'
p98
S'64-bit ARMv8 machines'
p99
ss(S'version'
p100
tp101
(dp102
S'abiname'
p103
S'3.16.0-11'
p104
sS'source'
p105
V3.16.84-1
p106
sS'abiname_base'
p107
S'3.16.0'
p108
sS'upstream'
p109
S'3.16'
p110
ss(S'description'
p111
S'powerpc'
p112
NS'powerpc-smp'
p113
tp114
(dp115
S'hardware'
p116
S'multiprocessor 32-bit PowerPC'
p117
ss(S'description'
p118
g5
g36
S'amd64'
p119
tp120
(dp121
S'parts'
p122
(lp123
S'xen'
p124
ass(S'description'
p125
g18
NS'5kc-malta'
p126
tp127
(dp128
S'hardware'
p129
S'MIPS Malta'
p130
sS'hardware-long'
p131
S'MIPS Malta boards'
p132
ss(S'base'
p133
S'ppc64'
p134
S'none'
p135
tp136
(dp137
S'implicit-flavour'
p138
I01
sS'flavours'
p139
(lp140
S'powerpc64'
p141
ass(S'description'
p142
S'hppa'
p143
NS'parisc'
p144
tp145
(dp146
S'hardware'
p147
S'32-bit PA-RISC'
p148
sS'hardware-long'
p149
S'HP PA-RISC 32-bit systems with max 4 GB RAM'
p150
ss(S'description'
p151
g52
NS'r4k-ip22'
p152
tp153
(dp154
S'hardware'
p155
S'SGI IP22'
p156
sS'hardware-long'
p157
S'SGI IP22 systems (Indy, Indigo2)'
p158
ss(S'image'
p159
g27
NS'sh7785lcr'
p160
tp161
(dp162
S'check-size'
p163
S'4194304'
p164
sS'recommends'
p165
S'u-boot-tools'
p166
ss(S'description'
p167
g85
S'none'
p168
S'amd64'
p169
tp170
(dp171
S'parts'
p172
(lp173
S'xen'
p174
ass(S'description'
p175
g85
NS'686-pae'
p176
tp177
(dp178
S'hardware'
p179
S'modern PCs'
p180
sS'parts'
p181
(lp182
S'pae'
p183
asS'hardware-long'
p184
S'PCs with one or more processors supporting PAE'
p185
ss(S'description'
p186
g112
NS'powerpc'
p187
tp188
(dp189
S'hardware'
p190
S'uniprocessor 32-bit PowerPC'
p191
ss(S'base'
p192
g43
tp193
(dp194
S'kernel-arch'
p195
S'alpha'
p196
sS'featuresets'
p197
(lp198
g135
ass(S'description'
p199
g52
NS'5kc-malta'
p200
tp201
(dp202
S'hardware'
p203
S'MIPS Malta (64-bit)'
p204
sS'hardware-long'
p205
S'MIPS Malta boards (64-bit)'
p206
ss(S'image'
p207
g18
NS'octeon'
p208
tp209
(dp210
S'configs'
p211
(lp212
S'kernelarch-mips/config.octeon'
p213
ass(g133
S'armhf'
p214
g135
tp215
(dp216
g138
I01
sg139
(lp217
S'armmp'
p218
aS'armmp-lpae'
p219
ass(S'image'
p220
g94
NS'arm64'
p221
tp222
(dp223
s(S'base'
p224
g85
S'rt'
p225
tp226
(dp227
S'flavours'
p228
(lp229
S'686-pae'
p230
ass(S'description'
p231
S'mipsel'
p232
NS'sb1-bcm91250a'
p233
tp234
(dp235
S'hardware'
p236
S'BCM91250A'
p237
sS'hardware-long'
p238
S'Broadcom BCM91250A systems (aka SWARM)'
p239
ss(S'image'
p240
g232
NS'loongson-3'
p241
tp242
(dp243
S'configs'
p244
(lp245
S'kernelarch-mips/config.loongson-3'
p246
ass(S'relations'
p247
g85
tp248
(dp249
S'headers%gcc-4.9'
p250
S'linux-compiler-gcc-4.9-x86 (>= 3.16.51-3+deb8u2~), linux-kbuild-3.16 (>= 3.16.56-1)'
p251
ss(S'image'
p252
g232
NS'4kc-malta'
p253
tp254
(dp255
S'configs'
p256
(lp257
S'kernelarch-mips/config.4kc-malta'
p258
ass(S'description'
p259
g232
NS'loongson-3'
p260
tp261
(dp262
S'hardware'
p263
S'Loongson 3A/3B'
p264
sS'hardware-long'
p265
S'Loongson 3A or 3B based systems (e.g. from Loongson or Lemote)'
p266
ss(S'image'
p267
g112
tp268
(dp269
S'suggests'
p270
S'mkvmlinuz'
p271
sS'configs'
p272
(lp273
sS'install-stem'
p274
S'vmlinux'
p275
ss(S'description'
p276
g43
NS'alpha-generic'
p277
tp278
(dp279
S'hardware'
p280
S'Alpha'
p281
sS'hardware-long'
p282
S'DEC Alpha systems with extended kernel start address (Wildfire, Titan, Marvel)'
p283
ss(S'description'
p284
S'sparc64'
p285
NS'sparc64'
p286
tp287
(dp288
S'hardware'
p289
S'uniprocessor 64-bit UltraSPARC'
p290
ss(S'base'
p291
g5
S'rt'
p292
tp293
(dp294
S'flavours'
p295
(lp296
S'amd64'
p297
ass(S'build'
p298
S'ppc64el'
p299
tp300
(dp301
S'image-file'
p302
S'vmlinux'
p303
ss(S'build'
p304
g134
tp305
(dp306
S'image-file'
p307
S'vmlinux'
p308
ss(S'description'
p309
g52
NS'octeon'
p310
tp311
(dp312
S'hardware'
p313
S'Octeon'
p314
sS'hardware-long'
p315
S'Cavium Networks Octeon'
p316
ss(S'base'
p317
g94
tp318
(dp319
S'kernel-arch'
p320
S'arm64'
p321
sS'featuresets'
p322
(lp323
S'none'
p324
ass(S'image'
p325
S'armel'
p326
NS'orion5x'
p327
tp328
(dp329
S'check-size'
p330
S'1572792'
p331
sS'configs'
p332
(lp333
S'armel/config-reduced'
p334
aS'armel/config.orion5x'
p335
asS'recommends'
p336
S'u-boot-tools'
p337
ss(S'base'
p338
g85
tp339
(dp340
S'kernel-arch'
p341
S'x86'
p342
sS'featuresets'
p343
(lp344
S'none'
p345
aS'rt'
p346
asS'compiler'
p347
S'gcc-4.9'
p348
ss(S'description'
p349
g326
NS'ixp4xx'
p350
tp351
(dp352
S'hardware'
p353
S'IXP4xx'
p354
sS'hardware-long'
p355
S'IXP4xx based systems (Linksys NSLU2, etc)'
p356
ss(S'base'
p357
g232
tp358
(dp359
S'kernel-arch'
p360
S'mips'
p361
sg197
(lp362
g135
ass(S'relations'
p363
g5
tp364
(dp365
S'headers%gcc-4.9'
p366
S'linux-compiler-gcc-4.9-x86 (>= 3.16.51-3+deb8u2~), linux-kbuild-3.16 (>= 3.16.56-1)'
p367
ss(S'description'
p368
S's390'
p369
NS's390x'
p370
tp371
(dp372
S'hardware'
p373
S'IBM zSeries'
p374
ss(S'image'
p375
g52
NS'sb1-bcm91250a'
p376
tp377
(dp378
S'configs'
p379
(lp380
S'kernelarch-mips/config.sb1-bcm91250a'
p381
ass(S'image'
p382
g214
NS'armmp-lpae'
p383
tp384
(dp385
S'configs'
p386
(lp387
S'armhf/config.armmp'
p388
aS'armhf/config.lpae'
p389
ass(S'relations'
p390
g369
tp391
(dp392
S'headers%gcc-4.8'
p393
S'linux-compiler-gcc-4.8-s390'
p394
ss(g133
g232
g135
tp395
(dp396
g138
I01
sg139
(lp397
S'sb1-bcm91250a'
p398
aS'4kc-malta'
p399
aS'5kc-malta'
p400
aS'loongson-2e'
p401
aS'loongson-2f'
p402
aS'loongson-3'
p403
ass(S'image'
p404
g85
NS'686-pae'
p405
tp406
(dp407
S'configs'
p408
(lp409
S'kernelarch-x86/config-arch-32'
p410
aS'i386/config.686-pae'
p411
asS'recommends'
p412
S'libc6-i686'
p413
ss(S'description'
p414
S'powerpcspe'
p415
tp416
(dp417
S'hardware'
p418
S'32-bit PowerPC with SPE (instead of AltiVec) with SMP support'
p419
ss(S'relations'
p420
tp421
(dp422
S'gcc-4.9'
p423
S'gcc-4.9 (>= 4.9.2-10+deb7u1), gcc-4.9 (<< 4.9.2-11)'
p424
sS'gcc-4.8'
p425
S'gcc-4.8'
p426
sS'initramfs-fallback'
p427
S'linux-initramfs-tool'
p428
sS'gcc-4.7'
p429
S'gcc-4.7'
p430
sS'gcc-4.6'
p431
S'gcc-4.6'
p432
sS'gcc-4.4'
p433
S'gcc-4.4'
p434
sS'initramfs-tools'
p435
S'initramfs-tools (>= 0.110~)'
p436
ss(S'image'
p437
g232
NS'loongson-2f'
p438
tp439
(dp440
S'configs'
p441
(lp442
S'kernelarch-mips/config.loongson-2f'
p443
asS'recommends'
p444
S'libc6-loongson2f'
p445
ss(S'description'
p446
g214
NS'armmp'
p447
tp448
(dp449
S'hardware'
p450
S'ARMv7 multiplatform compatible SoCs'
p451
sS'hardware-long'
p452
S'ARMv7 multiplatform kernel. See\nhttps://wiki.debian.org/DebianKernel/ARMMP for details of supported\nplatforms'
p453
ss(S'description'
p454
g18
NS'octeon'
p455
tp456
(dp457
S'hardware'
p458
S'Octeon'
p459
sS'hardware-long'
p460
S'Cavium Networks Octeon'
p461
ss(S'base'
p462
g27
tp463
(dp464
S'kernel-arch'
p465
S'sh'
p466
sg197
(lp467
g135
ass(S'build'
p468
g415
tp469
(dp470
S'image-file'
p471
S'vmlinux'
p472
ss(S'description'
p473
g326
NS'versatile'
p474
tp475
(dp476
S'hardware'
p477
S'Versatile'
p478
sS'hardware-long'
p479
S'Versatile systems (PB, AB, Qemu)'
p480
ss(S'build'
p481
g143
tp482
(dp483
S'image-file'
p484
S'vmlinux'
p485
ss(S'relations'
p486
g112
tp487
(dp488
S'gcc-4.8'
p489
S'gcc-4.8 (>= 4.8.2-21)'
p490
ss(S'image'
p491
g43
tp492
(dp493
S'suggests'
p494
S'aboot, fdutils'
p495
sS'install-stem'
p496
S'vmlinuz'
p497
ss(S'description'
p498
g85
NS'586'
p499
tp500
(dp501
S'hardware'
p502
S'older PCs'
p503
sS'parts'
p504
(lp505
S'up'
p506
asS'hardware-long'
p507
S'PCs with a single processor not supporting PAE'
p508
ss(S'description'
p509
g285
NS'sparc64-smp'
p510
tp511
(dp512
S'hardware'
p513
S'multiprocessor 64-bit UltraSPARC'
p514
ss(S'description'
p515
S'mips64el'
p516
NS'octeon'
p517
tp518
(dp519
S'hardware'
p520
S'Octeon'
p521
sS'hardware-long'
p522
S'Cavium Networks Octeon'
p523
ss(S'description'
p524
g516
NS'sb1-bcm91250a'
p525
tp526
(dp527
S'hardware'
p528
S'BCM91250A'
p529
sS'hardware-long'
p530
S'Broadcom BCM91250A systems (aka SWARM)'
p531
ss(S'description'
p532
g516
NS'loongson-3'
p533
tp534
(dp535
S'hardware'
p536
S'Loongson 3A/3B'
p537
sS'hardware-long'
p538
S'Loongson 3A or 3B based systems (e.g. from Loongson or Lemote)'
p539
ss(S'image'
p540
g134
NS'powerpc64'
p541
tp542
(dp543
S'configs'
p544
(lp545
S'kernelarch-powerpc/config-arch-64'
p546
aS'kernelarch-powerpc/config-arch-64-be'
p547
ass(S'build'
p548
g369
NS's390x'
p549
tp550
(dp551
S'debug-info'
p552
I01
ss(S'description'
p553
g143
NS'parisc64-smp'
p554
tp555
(dp556
S'hardware'
p557
S'multiprocessor 64-bit PA-RISC'
p558
sS'hardware-long'
p559
S'HP PA-RISC 64-bit SMP systems with support for more than 4 GB RAM'
p560
ss(S'base'
p561
g415
tp562
(dp563
S'kernel-arch'
p564
S'powerpc'
p565
sg197
(lp566
g135
ass(g133
g112
g135
tp567
(dp568
g138
I01
sg139
(lp569
S'powerpc'
p570
aS'powerpc-smp'
p571
aS'powerpc64'
p572
ass(S'description'
p573
g67
NS'itanium'
p574
tp575
(dp576
S'hardware'
p577
S'Itanium'
p578
ss(g133
g369
g135
tp579
(dp580
g138
I01
sg139
(lp581
S's390x'
p582
ass(g133
S's390x'
p583
g135
tp584
(dp585
g138
I01
sg139
(lp586
S's390x'
p587
ass(S'base'
p588
g52
tp589
(dp590
S'kernel-arch'
p591
S'mips'
p592
sg197
(lp593
g135
ass(S'build'
p594
g5
tp595
(dp596
S'debug-info'
p597
I01
sS'image-file'
p598
S'arch/x86/boot/bzImage'
p599
ss(S'description'
p600
g516
NS'5kc-malta'
p601
tp602
(dp603
S'hardware'
p604
S'MIPS Malta'
p605
sS'hardware-long'
p606
S'MIPS Malta boards'
p607
ss(S'base'
p608
g143
NS'parisc64-smp'
p609
tp610
(dp611
S'override-host-type'
p612
S'hppa64-linux-gnu'
p613
sS'cflags'
p614
S'-fno-cse-follow-jumps'
p615
ss(S'image'
p616
g299
NS'powerpc64le'
p617
tp618
(dp619
S'configs'
p620
(lp621
S'kernelarch-powerpc/config-arch-64'
p622
aS'kernelarch-powerpc/config-arch-64-le'
p623
ass(S'build'
p624
S'sparc'
p625
tp626
(dp627
S'image-file'
p628
S'arch/sparc/boot/zImage'
p629
ss(S'image'
p630
g232
tp631
(dp632
S'install-stem'
p633
S'vmlinux'
p634
ss(S'description'
p635
g625
NS'sparc64-smp'
p636
tp637
(dp638
S'hardware'
p639
S'multiprocessor 64-bit UltraSPARC'
p640
ss(S'build'
p641
g112
tp642
(dp643
S'image-file'
p644
S'vmlinux'
p645
ss(S'build'
p646
g94
tp647
(dp648
S'debug-info'
p649
I01
sS'image-file'
p650
S'arch/arm64/boot/Image'
p651
ss(S'build'
p652
g232
tp653
(dp654
S'image-file'
p655
S'vmlinux'
p656
ss(S'base'
p657
g18
tp658
(dp659
S'kernel-arch'
p660
S'mips'
p661
sg197
(lp662
g135
ass(S'base'
p663
g583
tp664
(dp665
S'kernel-arch'
p666
S's390'
p667
sg197
(lp668
g135
ass(S'base'
p669
g5
tp670
(dp671
S'kernel-arch'
p672
S'x86'
p673
sS'featuresets'
p674
(lp675
S'none'
p676
aS'rt'
p677
asS'compiler'
p678
S'gcc-4.9'
p679
ss(S'base'
p680
g67
tp681
(dp682
S'kernel-arch'
p683
S'ia64'
p684
sg197
(lp685
g135
asS'compiler'
p686
S'gcc-4.6'
p687
ss(S'image'
p688
g232
NS'5kc-malta'
p689
tp690
(dp691
S'configs'
p692
(lp693
S'kernelarch-mips/config.5kc-malta'
p694
ass(S'image'
p695
g326
NS'ixp4xx'
p696
tp697
(dp698
S'check-size'
p699
S'1441760'
p700
sS'configs'
p701
(lp702
S'armel/config-reduced'
p703
aS'armel/config.ixp4xx'
p704
ass(S'base'
p705
g369
tp706
(dp707
S'kernel-arch'
p708
S's390'
p709
sg197
(lp710
g135
ass(g133
g326
g135
tp711
(dp712
g138
I01
sg139
(lp713
S'ixp4xx'
p714
aS'kirkwood'
p715
aS'orion5x'
p716
aS'versatile'
p717
ass(S'description'
p718
g67
NS'mckinley'
p719
tp720
(dp721
S'hardware'
p722
S'Itanium II'
p723
ss(S'description'
p724
g232
NS'5kc-malta'
p725
tp726
(dp727
S'hardware'
p728
S'MIPS Malta (64-bit)'
p729
sS'hardware-long'
p730
S'MIPS Malta boards (64-bit)'
p731
ss(S'description'
p732
g85
tp733
(dp734
S'part-long-pae'
p735
S'This kernel requires PAE (Physical Address Extension).\nThis feature is supported by the Intel Pentium Pro/II/III/4/4M/D, Xeon,\nCore and Atom; AMD Geode NX, Athlon (K7), Duron, Opteron, Sempron,\nTurion or Phenom; Transmeta Efficeon; VIA C7; and some other processors.'
p736
ss(S'build'
p737
g516
tp738
(dp739
S'image-file'
p740
S'vmlinux'
p741
ss(S'xen'
p742
g5
g36
S'amd64'
p743
tp744
(dp745
S'flavours'
p746
(lp747
S'amd64'
p748
ass(S'image'
p749
g326
tp750
(dp751
S'suggests'
p752
S'fdutils'
p753
sS'configs'
p754
(lp755
S'kernelarch-arm/config'
p756
aS'armel/config'
p757
asS'install-stem'
p758
S'vmlinuz'
p759
ss(S'image'
p760
g369
tp761
(dp762
S'install-stem'
p763
S'vmlinuz'
p764
sS'configs'
p765
(lp766
sS'bootloaders'
p767
(lp768
S's390-tools'
p769
ass(S'build'
p770
g85
NS'686-pae'
p771
tp772
(dp773
S'debug-info'
p774
I01
ss(S'relations'
p775
g326
tp776
(dp777
S'headers%gcc-4.8'
p778
S'linux-compiler-gcc-4.8-arm'
p779
ss(S'image'
p780
g143
tp781
(dp782
S'suggests'
p783
S'palo'
p784
sS'install-stem'
p785
S'vmlinux'
p786
ss(S'image'
p787
g112
NS'powerpc64'
p788
tp789
(dp790
S'configs'
p791
(lp792
S'kernelarch-powerpc/config-arch-64'
p793
aS'kernelarch-powerpc/config-arch-64-be'
p794
ass(g133
g18
g135
tp795
(dp796
g138
I01
sg139
(lp797
S'sb1-bcm91250a'
p798
aS'5kc-malta'
p799
aS'octeon'
p800
ass(S'relations'
p801
g143
tp802
(dp803
S'gcc-4.8'
p804
S'gcc-4.8, binutils-hppa64, gcc-4.8-hppa64'
p805
ss(S'description'
p806
g85
NS'amd64'
p807
tp808
(dp809
S'hardware'
p810
S'64-bit PCs'
p811
sS'parts'
p812
(lp813
S'xen'
p814
asS'hardware-long'
p815
S'PCs with AMD64, Intel 64 or VIA Nano processors'
p816
ss(S'image'
p817
g52
NS'r4k-ip22'
p818
tp819
(dp820
S'configs'
p821
(lp822
S'kernelarch-mips/config.r4k-ip22'
p823
ass(S'image'
p824
g285
NS'sparc64-smp'
p825
tp826
(dp827
S'configs'
p828
(lp829
S'kernelarch-sparc/config-smp'
p830
ass(S'description'
p831
g299
NS'powerpc64le'
p832
tp833
(dp834
S'hardware'
p835
S'Little-endian 64-bit PowerPC'
p836
ss(S'description'
p837
g625
NS'sparc64'
p838
tp839
(dp840
S'hardware'
p841
S'uniprocessor 64-bit UltraSPARC'
p842
ss(S'image'
p843
g326
NS'kirkwood'
p844
tp845
(dp846
S'check-size'
p847
S'2097080'
p848
sS'breaks'
p849
S'flash-kernel (<< 3.14~)'
p850
sS'recommends'
p851
S'u-boot-tools'
p852
ss(g133
g143
g135
tp853
(dp854
g138
I01
sg139
(lp855
S'parisc'
p856
aS'parisc64-smp'
p857
ass(S'image'
p858
g52
NS'r5k-ip32'
p859
tp860
(dp861
S'configs'
p862
(lp863
S'kernelarch-mips/config.r5k-ip32'
p864
ass(S'image'
p865
g112
NS'powerpc-smp'
p866
tp867
(dp868
S'configs'
p869
(lp870
S'powerpc/config.powerpc'
p871
aS'powerpc/config.powerpc-smp'
p872
ass(S'base'
p873
g285
tp874
(dp875
S'kernel-arch'
p876
S'sparc'
p877
sg197
(lp878
g135
ass(S'image'
p879
g18
NS'5kc-malta'
p880
tp881
(dp882
S'configs'
p883
(lp884
S'kernelarch-mips/config.5kc-malta'
p885
ass(S'base'
p886
S'or1k'
p887
tp888
(dp889
S'kernel-arch'
p890
S'openrisc'
p891
sS'featuresets'
p892
(lp893
ss(S'description'
p894
g27
NS'sh7785lcr'
p895
tp896
(dp897
S'hardware'
p898
S'sh7785lcr'
p899
sS'hardware-long'
p900
S'Renesas SH7785 reference board'
p901
ss(S'image'
p902
g52
tp903
(dp904
S'install-stem'
p905
S'vmlinux'
p906
ss(g133
g516
g135
tp907
(dp908
g138
I01
sg139
(lp909
S'sb1-bcm91250a'
p910
aS'5kc-malta'
p911
aS'loongson-3'
p912
aS'octeon'
p913
ass(S'image'
p914
g516
NS'sb1-bcm91250a'
p915
tp916
(dp917
S'configs'
p918
(lp919
S'kernelarch-mips/config.sb1-bcm91250a'
p920
ass(S'image'
p921
g134
tp922
(dp923
S'suggests'
p924
S'mkvmlinuz'
p925
sS'configs'
p926
(lp927
sS'install-stem'
p928
S'vmlinux'
p929
ss(S'description'
p930
S'm68k'
p931
NS'm68k'
p932
tp933
(dp934
S'hardware'
p935
S'Motorola MC68020+ family'
p936
ss(S'image'
p937
g85
tp938
(dp939
S'install-stem'
p940
S'vmlinuz'
p941
sS'configs'
p942
(lp943
sS'bootloaders'
p944
(lp945
S'grub-pc'
p946
aS'extlinux'
p947
ass(S'build'
p948
g369
tp949
(dp950
S'image-file'
p951
S'arch/s390/boot/image'
p952
ss(g133
g625
g135
tp953
(dp954
g138
I01
sg139
(lp955
S'sparc64'
p956
aS'sparc64-smp'
p957
ass(S'base'
p958
NS'rt'
p959
tp960
(dp961
S'enabled'
p962
I00
ss(g133
g43
g135
tp963
(dp964
g138
I01
sg139
(lp965
S'alpha-generic'
p966
aS'alpha-smp'
p967
ass(S'description'
p968
g85
g168
S'686-pae'
p969
tp970
(dp971
S'parts'
p972
(lp973
S'xen'
p974
ass(g133
g67
g135
tp975
(dp976
g138
I01
sg139
(lp977
S'itanium'
p978
aS'mckinley'
p979
ass(S'base'
p980
g134
tp981
(dp982
S'kernel-arch'
p983
S'powerpc'
p984
sg197
(lp985
g135
ass(S'description'
p986
g5
NS'amd64'
p987
tp988
(dp989
S'hardware'
p990
S'64-bit PCs'
p991
sS'hardware-long'
p992
S'PCs with AMD64, Intel 64 or VIA Nano processors'
p993
ss(S'build'
p994
g583
tp995
(dp996
S'image-file'
p997
S'arch/s390/boot/image'
p998
ss(g133
g52
g135
tp999
(dp1000
g138
I01
sg139
(lp1001
S'r4k-ip22'
p1002
aS'r5k-ip32'
p1003
aS'sb1-bcm91250a'
p1004
aS'4kc-malta'
p1005
aS'5kc-malta'
p1006
aS'octeon'
p1007
ass(S'build'
p1008
g52
tp1009
(dp1010
S'image-file'
p1011
S'vmlinux'
p1012
ss(S'image'
p1013
g18
tp1014
(dp1015
S'install-stem'
p1016
S'vmlinux'
p1017
ss(g133
g27
g135
tp1018
(dp1019
g138
I01
sg139
(lp1020
S'sh7751r'
p1021
aS'sh7785lcr'
p1022
ass(S'base'
p1023
S'x32'
p1024
tp1025
(dp1026
S'kernel-arch'
p1027
S'x86'
p1028
sS'featuresets'
p1029
(lp1030
ss(S'build'
p1031
g27
tp1032
(dp1033
S'image-file'
p1034
S'arch/sh/boot/zImage'
p1035
ss(S'image'
p1036
g931
tp1037
(dp1038
S'suggests'
p1039
S'vmelilo, fdutils'
p1040
sS'install-stem'
p1041
S'vmlinuz'
p1042
ss(S'base'
p1043
g94
S'none'
p1044
tp1045
(dp1046
S'flavours'
p1047
(lp1048
S'arm64'
p1049
ass(S'description'
p1050
g52
NS'r5k-ip32'
p1051
tp1052
(dp1053
S'hardware'
p1054
S'SGI IP32'
p1055
sS'hardware-long'
p1056
S'SGI IP32 systems (O2)'
p1057
ss(S'build'
p1058
g18
tp1059
(dp1060
S'image-file'
p1061
S'vmlinux'
p1062
ss(S'description'
p1063
g52
NS'sb1-bcm91250a'
p1064
tp1065
(dp1066
S'hardware'
p1067
S'BCM91250A'
p1068
sS'hardware-long'
p1069
S'Broadcom BCM91250A systems (aka SWARM)'
p1070
ss(S'build'
p1071
g67
tp1072
(dp1073
S'image-file'
p1074
S'vmlinux.gz'
p1075
ss(S'base'
p1076
g214
tp1077
(dp1078
S'kernel-arch'
p1079
S'arm'
p1080
sg197
(lp1081
g135
ass(S'description'
p1082
g52
NS'4kc-malta'
p1083
tp1084
(dp1085
S'hardware'
p1086
S'MIPS Malta'
p1087
sS'hardware-long'
p1088
S'MIPS Malta boards'
p1089
ss(S'image'
p1090
g27
tp1091
(dp1092
S'suggests'
p1093
S'fdutils'
p1094
sS'install-stem'
p1095
S'vmlinuz'
p1096
ss(S'image'
p1097
g625
NS'sparc32'
p1098
tp1099
(dp1100
S'image-postproc'
p1101
S'sparc32-image-postproc'
p1102
ss(S'base'
p1103
g143
tp1104
(dp1105
S'kernel-arch'
p1106
S'parisc'
p1107
sg197
(lp1108
g135
ass(S'description'
p1109
g326
NS'kirkwood'
p1110
tp1111
(dp1112
S'hardware'
p1113
S'Marvell Kirkwood'
p1114
sS'hardware-long'
p1115
S'Marvell Kirkwood based systems (SheevaPlug, QNAP TS-119/TS-219, etc)'
p1116
ss(S'image'
p1117
g625
NS'sparc64-smp'
p1118
tp1119
(dp1120
S'configs'
p1121
(lp1122
S'kernelarch-sparc/config-smp'
p1123
ass(S'image'
p1124
g625
tp1125
(dp1126
S'suggests'
p1127
S'silo, fdutils'
p1128
sS'configs'
p1129
(lp1130
sS'install-stem'
p1131
S'vmlinuz'
p1132
ss(S'description'
p1133
tp1134
(dp1135
S'part-long-up'
p1136
S'This kernel is not suitable for SMP (multi-processor,\nmulti-core or hyper-threaded) systems.'
p1137
sS'part-long-xen'
p1138
S'This kernel also runs on a Xen hypervisor.\nIt supports both privileged (dom0) and unprivileged (domU) operation.'
p1139
ss(S'build'
p1140
g285
tp1141
(dp1142
S'image-file'
p1143
S'arch/sparc/boot/zImage'
p1144
ss(S'relations'
p1145
g214
tp1146
(dp1147
S'headers%gcc-4.8'
p1148
S'linux-compiler-gcc-4.8-arm'
p1149
ss(S'description'
p1150
g112
NS'powerpc64'
p1151
tp1152
(dp1153
S'hardware'
p1154
S'64-bit PowerPC'
p1155
ss(S'image'
p1156
g583
NS's390x'
p1157
tp1158
(dp1159
S'configs'
p1160
(lp1161
S'kernelarch-s390/config-arch-64'
p1162
ass(S'image'
p1163
g516
NS'loongson-3'
p1164
tp1165
(dp1166
S'configs'
p1167
(lp1168
S'kernelarch-mips/config.loongson-3'
p1169
ass(S'build'
p1170
g43
tp1171
(dp1172
S'image-file'
p1173
S'arch/alpha/boot/vmlinux.gz'
p1174
ss(S'relations'
p1175
g583
tp1176
(dp1177
S'headers%gcc-4.8'
p1178
S'linux-compiler-gcc-4.8-s390'
p1179
ss(S'description'
p1180
g232
NS'loongson-2f'
p1181
tp1182
(dp1183
S'hardware'
p1184
S'Loongson 2F'
p1185
sS'hardware-long'
p1186
S'Lemote Loongson 2F systems'
p1187
ss(S'base'
p1188
g112
tp1189
(dp1190
S'kernel-arch'
p1191
S'powerpc'
p1192
sg197
(lp1193
g135
ass(S'image'
p1194
g232
NS'sb1-bcm91250a'
p1195
tp1196
(dp1197
S'configs'
p1198
(lp1199
S'kernelarch-mips/config.sb1-bcm91250a'
p1200
ass(S'description'
p1201
g583
NS's390x'
p1202
tp1203
(dp1204
S'hardware'
p1205
S'IBM zSeries'
p1206
ss(S'description'
p1207
g232
NS'4kc-malta'
p1208
tp1209
(dp1210
S'hardware'
p1211
S'MIPS Malta'
p1212
sS'hardware-long'
p1213
S'MIPS Malta boards'
p1214
ss(S'image'
p1215
g299
tp1216
(dp1217
S'suggests'
p1218
S'mkvmlinuz'
p1219
sS'configs'
p1220
(lp1221
sS'install-stem'
p1222
S'vmlinux'
p1223
ss(S'base'
p1224
g326
tp1225
(dp1226
S'kernel-arch'
p1227
S'arm'
p1228
sg197
(lp1229
g135
ass(S'image'
p1230
g415
tp1231
(dp1232
S'suggests'
p1233
S'mkvmlinuz'
p1234
sS'install-stem'
p1235
S'vmlinux'
p1236
ss(S'image'
p1237
g85
NS'amd64'
p1238
tp1239
(dp1240
S'configs'
p1241
(lp1242
S'kernelarch-x86/config-arch-64'
p1243
asS'recommends'
p1244
S'libc6-i686'
p1245
ss(S'image'
p1246
g214
tp1247
(dp1248
S'suggests'
p1249
S'fdutils'
p1250
sS'configs'
p1251
(lp1252
S'kernelarch-arm/config'
p1253
aS'armhf/config'
p1254
asS'install-stem'
p1255
S'vmlinuz'
p1256
ss(S'abi'
p1257
tp1258
(dp1259
S'abiname'
p1260
S'11'
p1261
sS'ignore-changes'
p1262
(lp1263
S'module:arch/x86/kvm/kvm'
p1264
aS'module:arch/powerpc/kvm/kvm'
p1265
aS'module:drivers/edac/edac_mce_amd'
p1266
aS'module:drivers/hid/hid-sensor-hub'
p1267
aS'module:drivers/iio/**'
p1268
aS'module:drivers/md/dm-snapshot'
p1269
aS'module:drivers/mmc/host/*'
p1270
aS'module:drivers/misc/mei/*'
p1271
aS'module:drivers/mtd/spi-nor/spi-nor'
p1272
aS'module:drivers/net/can/can-dev'
p1273
aS'module:drivers/net/ethernet/**'
p1274
aS'module:drivers/net/wireless/**'
p1275
aS'module:drivers/s390/net/qeth'
p1276
aS'module:drivers/s390/net/qeth*'
p1277
aS'module:drivers/scsi/cxgbi/*'
p1278
aS'module:drivers/scsi/libiscs*'
p1279
aS'module:drivers/scsi/qla2xxx/qla2xxx'
p1280
aS'module:drivers/staging/usbip/*'
p1281
aS'module:drivers/target/iscsi/iscsi_target_mod'
p1282
aS'module:drivers/target/target_core_mod'
p1283
aS'module:drivers/usb/musb/*'
p1284
aS'module:drivers/vhost/vhost'
p1285
aS'module:fs/nfs/nfs'
p1286
aS'module:fs/ocfs2/**'
p1287
aS'module:net/ceph/libceph'
p1288
aS'module:net/l2tp/*'
p1289
aS'module:net/rds/rds'
p1290
aS'module:net/vmw_vsock/*'
p1291
aS'module:sound/firewire/snd-firewire-lib'
p1292
aS'module:sound/i2c/other/snd-ak4113'
p1293
aS'module:sound/i2c/other/snd-ak4114'
p1294
aS'module:sound/pci/emu10k1/*'
p1295
aS'module:sound/pci/hda/*'
p1296
aS'azx_alloc_cmd_io'
p1297
aS'azx_free_cmd_io'
p1298
aS'azx_get_response'
p1299
aS'azx_init_cmd_io'
p1300
aS'azx_send_cmd'
p1301
aS'can_rx_register'
p1302
aS'cfi_*'
p1303
aS'cpuidle_*'
p1304
aS'fuse_*'
p1305
aS'inet_add_protocol'
p1306
aS'inet_del_protocol'
p1307
aS'inet_frag_*'
p1308
aS'inet_frags_*'
p1309
aS'injectm'
p1310
aS'kvm_async_pf_task_wait'
p1311
aS'kvmppc_*'
p1312
aS'mtd_do_chip_probe'
p1313
aS'musb_*'
p1314
aS'nft_register_set'
p1315
aS'nft_unregister_set'
p1316
aS'perf_trace_*'
p1317
aS'sdhci_*'
p1318
aS'tcp_make_synack'
p1319
aS'tcp_parse_options'
p1320
aS'tcp_try_fastopen'
p1321
aS'__add_pages'
p1322
aS'__fib_lookup'
p1323
aS'__remove_pages'
p1324
aS'fib_table_lookup'
p1325
aS'nf_register_queue_handler'
p1326
aS'of_device_is_stdout_path'
p1327
aS'module:sound/soc/*'
p1328
aS'blk_rq_check_limits'
p1329
aS'clk_divider_ro_ops'
p1330
aS'tick_nohz_idle_enter'
p1331
aS'tick_nohz_idle_exit'
p1332
aS'skb_copy_and_csum_datagram_iovec'
p1333
aS'module:net/dccp/dccp'
p1334
aS'fl6_*'
p1335
aS'inet_sk_diag_fill'
p1336
aS'ip6_append_data'
p1337
aS'ip6_datagram_send_ctl'
p1338
aS'ip6_xmit'
p1339
aS'ipv6_dup_options'
p1340
aS'ipv6_fixup_options'
p1341
aS'ipv6_push_nfrag_opts'
p1342
aS'tcp_cong_avoid_ai'
p1343
aS'tcp_slow_start'
p1344
aS'__scm_destroy'
p1345
aS'__scm_send'
p1346
aS'scm_detach_fds'
p1347
aS'scm_fp_dup'
p1348
aS'af_alg_*'
p1349
aS'xt_compat_match_from_user'
p1350
aS'efivar_validate'
p1351
aS'zpci_disable_device'
p1352
aS'zpci_enable_device'
p1353
aS'zpci_stop_device'
p1354
aS'nft_meta_*'
p1355
aS'nft_reject_*'
p1356
aS'nft_register_expr'
p1357
aS'nft_unregister_expr'
p1358
aS'fsnotify_*_group'
p1359
aS'fsnotify_*_mark'
p1360
aS'module:drivers/infiniband/**'
p1361
aS'register_kretprobe'
p1362
aS'register_kretprobes'
p1363
aS'unregister_kretprobe'
p1364
aS'unregister_kretprobes'
p1365
ass(S'relations'
p1366
g134
tp1367
(dp1368
S'gcc-4.8'
p1369
S'gcc-4.8 (>= 4.8.2-21)'
p1370
ss(S'image'
p1371
g516
NS'5kc-malta'
p1372
tp1373
(dp1374
S'configs'
p1375
(lp1376
S'kernelarch-mips/config.5kc-malta'
p1377
ass(g133
g415
g135
tp1378
(dp1379
g138
I01
sg139
(lp1380
S'powerpcspe'
p1381
ass(g133
g931
g135
tp1382
(dp1383
g138
I01
sg139
(lp1384
S'm68k'
p1385
ass(S'image'
p1386
g18
NS'sb1-bcm91250a'
p1387
tp1388
(dp1389
S'configs'
p1390
(lp1391
S'kernelarch-mips/config.sb1-bcm91250a'
p1392
ass(S'base'
p1393
g85
g168
tp1394
(dp1395
S'flavours'
p1396
(lp1397
S'586'
p1398
aS'686-pae'
p1399
aS'amd64'
p1400
ass(S'base'
p1401
tp1402
(dp1403
S'arches'
p1404
(lp1405
S'alpha'
p1406
aS'amd64'
p1407
aS'arm64'
p1408
aS'armel'
p1409
aS'armhf'
p1410
aS'hppa'
p1411
aS'i386'
p1412
aS'ia64'
p1413
aS'm68k'
p1414
aS'mips'
p1415
aS'mipsel'
p1416
aS'mips64'
p1417
aS'mips64el'
p1418
aS'or1k'
p1419
aS'powerpc'
p1420
aS'powerpcspe'
p1421
aS'ppc64'
p1422
aS'ppc64el'
p1423
aS's390'
p1424
aS's390x'
p1425
aS'sh4'
p1426
aS'sparc'
p1427
aS'sparc64'
p1428
aS'x32'
p1429
asS'featuresets'
p1430
(lp1431
S'none'
p1432
aS'rt'
p1433
asS'compiler'
p1434
S'gcc-4.8'
p1435
ss(S'description'
p1436
Ng78
tp1437
(dp1438
S'part-long-rt'
p1439
S'This kernel includes the PREEMPT_RT realtime patch set.'
p1440
sS'parts'
p1441
(lp1442
S'rt'
p1443
asS'part-short-rt'
p1444
S'PREEMPT_RT'
p1445
ss(S'build'
p1446
g931
tp1447
(dp1448
S'image-file'
p1449
S'vmlinux.gz'
p1450
ss(S'build'
p1451
g326
tp1452
(dp1453
S'image-file'
p1454
S'arch/arm/boot/zImage'
p1455
ss(S'image'
p1456
g625
NS'sparc64'
p1457
tp1458
(dp1459
S'configs'
p1460
(lp1461
S'kernelarch-sparc/config-up'
p1462
ass(S'image'
p1463
g285
tp1464
(dp1465
S'suggests'
p1466
S'silo, fdutils'
p1467
sS'configs'
p1468
(lp1469
sS'install-stem'
p1470
S'vmlinuz'
p1471
ss(S'build'
p1472
g214
tp1473
(dp1474
S'image-file'
p1475
S'arch/arm/boot/zImage'
p1476
ss(S'build'
p1477
g583
NS's390x'
p1478
tp1479
(dp1480
S'debug-info'
p1481
I01
ss(S'image'
p1482
g369
NS's390x'
p1483
tp1484
(dp1485
S'configs'
p1486
(lp1487
S'kernelarch-s390/config-arch-64'
p1488
ass(S'base'
p1489
g299
tp1490
(dp1491
S'kernel-arch'
p1492
S'powerpc'
p1493
sg197
(lp1494
g135
ass(S'base'
p1495
g516
tp1496
(dp1497
S'kernel-arch'
p1498
S'mips'
p1499
sg197
(lp1500
g135
ass(S'base'
p1501
g625
tp1502
(dp1503
S'kernel-arch'
p1504
S'sparc'
p1505
sg197
(lp1506
g135
ass(S'base'
p1507
g931
tp1508
(dp1509
S'kernel-arch'
p1510
S'm68k'
p1511
sg197
(lp1512
g135
asS'cflags'
p1513
S'-ffreestanding'
p1514
sS'compiler'
p1515
S'gcc-4.8'
p1516
ss(S'description'
p1517
g232
NS'loongson-2e'
p1518
tp1519
(dp1520
S'hardware'
p1521
S'Loongson 2E'
p1522
sS'hardware-long'
p1523
S'Lemote Loongson 2E systems'
p1524
ss(S'image'
p1525
tp1526
(dp1527
S'initramfs-generators'
p1528
(lp1529
S'initramfs-tools'
p1530
aS'initramfs-fallback'
p1531
asS'type'
p1532
S'plain'
p1533
ss(S'image'
p1534
g232
NS'loongson-2e'
p1535
tp1536
(dp1537
S'configs'
p1538
(lp1539
S'kernelarch-mips/config.loongson-2e'
p1540
ass(g133
g285
g135
tp1541
(dp1542
g138
I01
sg139
(lp1543
S'sparc64'
p1544
aS'sparc64-smp'
p1545
ass(S'image'
p1546
g516
tp1547
(dp1548
S'install-stem'
p1549
S'vmlinux'
p1550
ss(S'description'
p1551
g326
NS'orion5x'
p1552
tp1553
(dp1554
S'hardware'
p1555
S'Marvell Orion'
p1556
sS'hardware-long'
p1557
S'Marvell Orion 5181, 5182 and 5281 based systems (QNAP TS-109/TS-209, etc)'
p1558
ss(S'description'
p1559
g625
NS'sparc32'
p1560
tp1561
(dp1562
S'hardware'
p1563
S'uniprocessor sparc32 (sun4m)'
p1564
ss(S'image'
p1565
g52
NS'5kc-malta'
p1566
tp1567
(dp1568
S'configs'
p1569
(lp1570
S'kernelarch-mips/config.5kc-malta'
p1571
ass(S'description'
p1572
g134
NS'powerpc64'
p1573
tp1574
(dp1575
S'hardware'
p1576
S'64-bit PowerPC'
p1577
ss(S'image'
p1578
g285
NS'sparc64'
p1579
tp1580
(dp1581
S'configs'
p1582
(lp1583
S'kernelarch-sparc/config-up'
p1584
ass(S'image'
p1585
g583
tp1586
(dp1587
S'install-stem'
p1588
S'vmlinuz'
p1589
sS'configs'
p1590
(lp1591
sS'bootloaders'
p1592
(lp1593
S's390-tools'
p1594
ass(S'image'
p1595
g94
tp1596
(dp1597
S'install-stem'
p1598
S'vmlinuz'
p1599
ss(S'image'
p1600
g516
NS'octeon'
p1601
tp1602
(dp1603
S'configs'
p1604
(lp1605
S'kernelarch-mips/config.octeon'
p1606
ass(S'description'
p1607
g214
NS'armmp-lpae'
p1608
tp1609
(dp1610
S'hardware'
p1611
S'ARMv7 multiplatform compatible SoCs supporting LPAE'
p1612
sS'hardware-long'
p1613
S'ARMv7 multiplatform kernel supporting LPAE. See\nhttps://wiki.debian.org/DebianKernel/ARMMP for details of supported\nplatforms.'
p1614
ss(S'build'
p1615
g85
tp1616
(dp1617
S'image-file'
p1618
S'arch/x86/boot/bzImage'
p1619
ss(g133
g299
g135
tp1620
(dp1621
g138
I01
sg139
(lp1622
S'powerpc64le'
p1623
ass(S'image'
p1624
g5
NS'amd64'
p1625
tp1626
(dp1627
S'configs'
p1628
(lp1629
S'kernelarch-x86/config-arch-64'
p1630
asstp1631
Rp1632
.