cdebian_linux.config
ConfigCore
p0
(tRp1
(Vbase
p2
tp3
(dp4
Varches
p5
(lp6
Valpha
p7
aVamd64
p8
aVarm64
p9
aVarmel
p10
aVarmhf
p11
aVhppa
p12
aVi386
p13
aVm68k
p14
aVmips
p15
aVmipsel
p16
aVmipsn32
p17
aVmipsn32el
p18
aVmips64
p19
aVmips64el
p20
aVpowerpc
p21
aVpowerpcspe
p22
aVppc64
p23
aVppc64el
p24
aVs390
p25
aVs390x
p26
aVsh3
p27
aVsh4
p28
aVsparc
p29
aVsparc64
p30
aVtilegx
p31
aVx32
p32
asVfeaturesets
p33
(lp34
Vnone
p35
aVrt
p36
asVcompiler
p37
Vgcc-6
p38
ss(Vbuild
p39
tp40
(dp41
Vsigned-modules
p42
I00
sVdebug-info
p43
I01
ss(Vbase
p44
NVrt
p45
tp46
(dp47
Venabled
p48
I00
ss(Vdescription
p49
tp50
(dp51
Vpart-long-up
p52
VThis kernel is not suitable for SMP (multi-processor,\u000amulti-core or hyper-threaded) systems.
p53
sVpart-long-xen
p54
VThis kernel also runs on a Xen hypervisor.\u000aIt supports both privileged (dom0) and unprivileged (domU) operation.
p55
ss(Vrelations
p56
tp57
(dp58
Vinitramfs-tools
p59
Vinitramfs-tools (>= 0.120+deb8u2)
p60
sVgcc-6
p61
Vgcc-6 <!stage1 !cross>, gcc-6-@gnu-type-package@ <!stage1 cross>
p62
sVinitramfs-fallback
p63
Vlinux-initramfs-tool
p64
ss(Vimage
p65
tp66
(dp67
Vinitramfs-generators
p68
(lp69
Vinitramfs-tools
p70
aVinitramfs-fallback
p71
ass(Vabi
p72
tp73
(dp74
Vabiname
p75
V2
p76
sVignore-changes
p77
(lp78
V__cpuhp_*
p79
aVbpf_analyzer
p80
aVcxl_*
p81
aViommu_device_*
p82
aVmm_iommu_*
p83
aVperf_*
p84
aVregister_cxl_calls
p85
aVunregister_cxl_calls
p86
aV*_hw_breakpoint
p87
aVmodule:arch/x86/kvm/*
p88
aVmodule:drivers/crypto/ccp/*
p89
aVmodule:drivers/hv/*
p90
aVmodule:drivers/iio/common/hid-sensors/*
p91
aVmodule:drivers/iio/common/st_sensors/**
p92
aVmodule:drivers/mtd/nand/*
p93
aVmodule:drivers/net/wireless/**
p94
aVmodule:drivers/nvdimm/*
p95
aVmodule:drivers/power/supply/bq27xxx_battery
p96
aVmodule:drivers/scsi/cxgbi/*
p97
aVmodule:drivers/scsi/libiscs*
p98
aVmodule:drivers/scsi/qla2xxx/qla2xxx
p99
aVmodule:drivers/scsi/ufs/*
p100
aVmodule:drivers/target/**
p101
aVmodule:drivers/usb/chipidea/**
p102
aVmodule:drivers/usb/host/**
p103
aVmodule:drivers/usb/musb/**
p104
aVmodule:fs/nfs/**
p105
aVmodule:net/ceph/libceph
p106
aVmodule:net/l2tp/l2tp_core
p107
aVmodule:sound/firewire/snd-firewire-lib
p108
aVbtree_*
p109
aVvisitor*
p110
aVcan_rx_register
p111
aVip6_xmit
p112
aVmodule:net/dccp/dccp
p113
aVmodule:net/rds/rds
p114
aVdevfreq_*
p115
aVdevm_devfreq_*
p116
aVupdate_devfreq
p117
aVmodule:drivers/infiniband/**
p118
aVacpi_ec_add_query_handler
p119
aVacpi_ec_remove_query_handler
p120
aVfirst_ec
p121
aVdebugfs_create_automount
p122
aVmodule:drivers/iio/imu/inv_mpu6050/*
p123
ass(Vbase
p124
Valpha
p125
tp126
(dp127
Vfeaturesets
p128
(lp129
Vnone
p130
asVkernel-arch
p131
Valpha
p132
ss(Vdescription
p133
g125
NValpha-smp
p134
tp135
(dp136
Vhardware
p137
VAlpha SMP
p138
sVhardware-long
p139
VDEC Alpha SMP systems with extended kernel start address (Wildfire, Titan, Marvel)
p140
ss(Vbuild
p141
g125
tp142
(dp143
Vsigned-modules
p144
I00
sVimage-file
p145
Varch/alpha/boot/vmlinux.gz
p146
ss(Vdescription
p147
g125
NValpha-generic
p148
tp149
(dp150
Vhardware
p151
VAlpha
p152
sVhardware-long
p153
VDEC Alpha systems with extended kernel start address (Wildfire, Titan, Marvel)
p154
ss(Vimage
p155
g125
tp156
(dp157
Vsuggests
p158
Vaboot, fdutils
p159
sVinstall-stem
p160
Vvmlinuz
p161
ss(Vbase
p162
g125
g130
tp163
(dp164
Vflavours
p165
(lp166
Valpha-generic
p167
aValpha-smp
p168
asVimplicit-flavour
p169
I01
ss(Vbase
p170
Vamd64
p171
tp172
(dp173
Vfeaturesets
p174
(lp175
Vnone
p176
aVrt
p177
asVkernel-arch
p178
Vx86
p179
ss(Vdescription
p180
g171
NVamd64
p181
tp182
(dp183
Vhardware
p184
V64-bit PCs
p185
sVhardware-long
p186
VPCs with AMD64, Intel 64 or VIA Nano processors
p187
ss(Vbuild
p188
g171
tp189
(dp190
Vvdso
p191
I01
sVimage-file
p192
Varch/x86/boot/bzImage
p193
sVdebug-info
p194
I01
ss(Vrelations
p195
g171
tp196
(dp197
Vheaders%gcc-6
p198
Vlinux-compiler-gcc-6-x86
p199
ss(Vimage
p200
g171
tp201
(dp202
Vbreaks
p203
Vxserver-xorg-input-vmmouse (<< 1:13.0.99)
p204
sVinstall-stem
p205
Vvmlinuz
p206
sVbootloaders
p207
(lp208
Vgrub-pc
p209
aVgrub-efi-amd64
p210
aVextlinux
p211
ass(Vbase
p212
g171
Vnone
p213
tp214
(dp215
Vflavours
p216
(lp217
Vamd64
p218
ass(Vdescription
p219
g171
g213
Vamd64
p220
tp221
(dp222
Vparts
p223
(lp224
Vxen
p225
ass(Vbase
p226
g171
Vrt
p227
tp228
(dp229
Vflavours
p230
(lp231
Vamd64
p232
ass(Vbase
p233
Varm64
p234
tp235
(dp236
Vfeaturesets
p237
(lp238
Vnone
p239
asVkernel-arch
p240
Varm64
p241
ss(Vdescription
p242
g234
NVarm64
p243
tp244
(dp245
Vhardware
p246
V64-bit ARMv8 machines
p247
ss(Vbuild
p248
g234
tp249
(dp250
Vvdso
p251
I01
sVimage-file
p252
Varch/arm64/boot/Image
p253
sVdebug-info
p254
I01
ss(Vimage
p255
g234
NVarm64
p256
tp257
(dp258
s(Vimage
p259
g234
tp260
(dp261
Vbreaks
p262
Vlibmozjs185-1.0, libmozjs-24-0 (<< 24.2.0-5.1~)
p263
sVinstall-stem
p264
Vvmlinuz
p265
ss(Vbase
p266
g234
Vnone
p267
tp268
(dp269
Vflavours
p270
(lp271
Varm64
p272
ass(Vbase
p273
Varmel
p274
tp275
(dp276
g128
(lp277
g130
asVkernel-arch
p278
Varm
p279
ss(Vbuild
p280
g274
tp281
(dp282
Vsigned-modules
p283
I00
sVimage-file
p284
Varch/arm/boot/zImage
p285
ss(Vimage
p286
g274
NVmarvell
p287
tp288
(dp289
Vrecommends
p290
Vu-boot-tools
p291
sVbreaks
p292
Vflash-kernel (<< 3.57~)
p293
sVcheck-size-with-dtb
p294
I01
sVcheck-size
p295
L2097080L
ss(Vdescription
p296
g274
NVmarvell
p297
tp298
(dp299
Vhardware
p300
VMarvell Kirkwood/Orion
p301
sVhardware-long
p302
VMarvell Kirkwood based systems (SheevaPlug, QNAP TS-119/TS-219, etc)\u000aand Orion 5181, 5182 and 5281 based systems (QNAP TS-109/TS-209, etc)
p303
ss(Vrelations
p304
g274
tp305
(dp306
Vheaders%gcc-6
p307
Vlinux-compiler-gcc-6-arm
p308
ss(Vimage
p309
g274
tp310
(dp311
Vinstall-stem
p312
Vvmlinuz
p313
ss(g162
g274
g130
tp314
(dp315
g165
(lp316
Vmarvell
p317
asg169
I01
ss(Vbase
p318
Varmhf
p319
tp320
(dp321
g128
(lp322
g130
asVkernel-arch
p323
Varm
p324
ss(Vdescription
p325
g319
NVarmmp
p326
tp327
(dp328
Vhardware
p329
VARMv7 multiplatform compatible SoCs
p330
sVhardware-long
p331
VARMv7 multiplatform kernel. See\u000ahttps://wiki.debian.org/DebianKernel/ARMMP for details of supported\u000aplatforms
p332
ss(Vbuild
p333
g319
tp334
(dp335
Vvdso
p336
I01
sVimage-file
p337
Varch/arm/boot/zImage
p338
ss(Vdescription
p339
g319
NVarmmp-lpae
p340
tp341
(dp342
Vhardware
p343
VARMv7 multiplatform compatible SoCs supporting LPAE
p344
sVhardware-long
p345
VARMv7 multiplatform kernel supporting LPAE. See\u000ahttps://wiki.debian.org/DebianKernel/ARMMP for details of supported\u000aplatforms.
p346
ss(Vrelations
p347
g319
tp348
(dp349
Vheaders%gcc-6
p350
Vlinux-compiler-gcc-6-arm
p351
ss(Vimage
p352
g319
tp353
(dp354
Vinstall-stem
p355
Vvmlinuz
p356
ss(g162
g319
g130
tp357
(dp358
g165
(lp359
Varmmp
p360
aVarmmp-lpae
p361
asg169
I01
ss(Vbase
p362
Vhppa
p363
tp364
(dp365
g128
(lp366
g130
asVkernel-arch
p367
Vparisc
p368
ss(Vbuild
p369
g363
tp370
(dp371
Vsigned-modules
p372
I00
sVimage-file
p373
Vvmlinux
p374
ss(Vdescription
p375
g363
NVparisc64-smp
p376
tp377
(dp378
Vhardware
p379
Vmultiprocessor 64-bit PA-RISC
p380
sVhardware-long
p381
VHP PA-RISC 64-bit SMP systems with support for more than 4 GB RAM
p382
ss(Vbase
p383
g363
NVparisc64-smp
p384
tp385
(dp386
Vcflags
p387
V-fno-cse-follow-jumps
p388
sVoverride-host-type
p389
Vhppa64-linux-gnu
p390
ss(Vrelations
p391
g363
tp392
(dp393
Vgcc-6
p394
Vgcc-6 <!stage1 !cross>, binutils-hppa64-linux-gnu <!stage1 !cross>, gcc-6-hppa64-linux-gnu <!stage1 !cross>, gcc-6-hppa-linux-gnu <!stage1 cross>, binutils-hppa64-linux-gnu <!stage1 cross>, gcc-6-hppa64-linux-gnu <!stage1 cross>
p395
ss(Vdescription
p396
g363
NVparisc
p397
tp398
(dp399
Vhardware
p400
V32-bit PA-RISC
p401
sVhardware-long
p402
VHP PA-RISC 32-bit systems with max 4 GB RAM
p403
ss(Vimage
p404
g363
tp405
(dp406
Vsuggests
p407
Vpalo
p408
sVinstall-stem
p409
Vvmlinux
p410
ss(g162
g363
g130
tp411
(dp412
g165
(lp413
Vparisc
p414
aVparisc64-smp
p415
asg169
I01
ss(Vbase
p416
Vi386
p417
tp418
(dp419
Vfeaturesets
p420
(lp421
Vnone
p422
aVrt
p423
asVkernel-arch
p424
Vx86
p425
ss(Vbuild
p426
g417
tp427
(dp428
Vvdso
p429
I01
sVimage-file
p430
Varch/x86/boot/bzImage
p431
ss(Vdescription
p432
g417
NV686-pae
p433
tp434
(dp435
Vhardware
p436
Vmodern PCs
p437
sVhardware-long
p438
VPCs with one or more processors supporting PAE
p439
sVparts
p440
(lp441
Vpae
p442
ass(Vdescription
p443
g417
tp444
(dp445
Vpart-long-pae
p446
VThis kernel requires PAE (Physical Address Extension).\u000aThis feature is supported by the Intel Pentium Pro/II/III/4/4M/D, Xeon,\u000aCore and Atom; AMD Geode NX, Athlon (K7), Duron, Opteron, Sempron,\u000aTurion or Phenom; Transmeta Efficeon; VIA C7; and some other processors.
p447
ss(Vbuild
p448
g417
NV686-pae
p449
tp450
(dp451
Vdebug-info
p452
I01
ss(Vdescription
p453
g417
NV686
p454
tp455
(dp456
Vhardware
p457
Volder PCs
p458
sVhardware-long
p459
VPCs with one or more processors not supporting PAE
p460
ss(Vrelations
p461
g417
tp462
(dp463
Vheaders%gcc-6
p464
Vlinux-compiler-gcc-6-x86
p465
ss(Vimage
p466
g417
tp467
(dp468
Vbreaks
p469
Vxserver-xorg-input-vmmouse (<< 1:13.0.99)
p470
sVinstall-stem
p471
Vvmlinuz
p472
sVbootloaders
p473
(lp474
Vgrub-pc
p475
aVextlinux
p476
ass(Vbase
p477
g417
Vnone
p478
tp479
(dp480
Vflavours
p481
(lp482
V686
p483
aV686-pae
p484
ass(Vdescription
p485
g417
g478
V686-pae
p486
tp487
(dp488
Vparts
p489
(lp490
Vxen
p491
ass(Vbase
p492
g417
Vrt
p493
tp494
(dp495
Vflavours
p496
(lp497
V686-pae
p498
ass(Vbase
p499
Vm68k
p500
tp501
(dp502
Vcflags
p503
V-ffreestanding
p504
sg128
(lp505
g130
asVkernel-arch
p506
Vm68k
p507
ss(Vbuild
p508
g500
tp509
(dp510
Vsigned-modules
p511
I00
sVimage-file
p512
Vvmlinux.gz
p513
ss(Vdescription
p514
g500
NVm68k
p515
tp516
(dp517
Vhardware
p518
VMotorola MC68020+ family
p519
ss(Vimage
p520
g500
tp521
(dp522
Vsuggests
p523
Vvmelilo, fdutils
p524
sVinstall-stem
p525
Vvmlinuz
p526
ss(g162
g500
g130
tp527
(dp528
g165
(lp529
Vm68k
p530
asg169
I01
ss(Vbase
p531
Vmips
p532
tp533
(dp534
g128
(lp535
g130
asVkernel-arch
p536
Vmips
p537
ss(Vbuild
p538
g532
tp539
(dp540
Vsigned-modules
p541
I00
sVimage-file
p542
Vvmlinux
p543
ss(Vimage
p544
g532
NV4kc-malta
p545
tp546
(dp547
Vconfigs
p548
(lp549
Vkernelarch-mips/config.malta
p550
aVkernelarch-mips/config.mips32r2
p551
ass(Vimage
p552
g532
NV5kc-malta
p553
tp554
(dp555
Vconfigs
p556
(lp557
Vkernelarch-mips/config.malta
p558
aVkernelarch-mips/config.mips64r2
p559
ass(Vdescription
p560
g532
NVocteon
p561
tp562
(dp563
Vhardware
p564
VOcteon
p565
sVhardware-long
p566
VCavium Networks Octeon
p567
ss(Vimage
p568
g532
NVocteon
p569
tp570
(dp571
Vconfigs
p572
(lp573
Vkernelarch-mips/config.octeon
p574
ass(Vimage
p575
g532
tp576
(dp577
Vinstall-stem
p578
Vvmlinux
p579
ss(Vdescription
p580
g532
NV5kc-malta
p581
tp582
(dp583
Vhardware
p584
VMIPS Malta (64-bit)
p585
sVhardware-long
p586
VMIPS Malta boards (64-bit)
p587
ss(Vdescription
p588
g532
NV4kc-malta
p589
tp590
(dp591
Vhardware
p592
VMIPS Malta
p593
sVhardware-long
p594
VMIPS Malta boards
p595
ss(g162
g532
g130
tp596
(dp597
g165
(lp598
V4kc-malta
p599
aV5kc-malta
p600
aVocteon
p601
asg169
I01
ss(Vbase
p602
Vmipsel
p603
tp604
(dp605
g128
(lp606
g130
asVkernel-arch
p607
Vmips
p608
ss(Vimage
p609
g603
NVloongson-3
p610
tp611
(dp612
Vconfigs
p613
(lp614
Vkernelarch-mips/config.loongson-3
p615
ass(Vbuild
p616
g603
tp617
(dp618
Vsigned-modules
p619
I00
sVimage-file
p620
Vvmlinux
p621
ss(Vimage
p622
g603
NV4kc-malta
p623
tp624
(dp625
Vconfigs
p626
(lp627
Vkernelarch-mips/config.malta
p628
aVkernelarch-mips/config.mips32r2
p629
ass(Vimage
p630
g603
NV5kc-malta
p631
tp632
(dp633
Vconfigs
p634
(lp635
Vkernelarch-mips/config.malta
p636
aVkernelarch-mips/config.mips64r2
p637
ass(Vdescription
p638
g603
NVocteon
p639
tp640
(dp641
Vhardware
p642
VOcteon
p643
sVhardware-long
p644
VCavium Networks Octeon
p645
ss(Vdescription
p646
g603
NVloongson-3
p647
tp648
(dp649
Vhardware
p650
VLoongson 3A/3B
p651
sVhardware-long
p652
VLoongson 3A or 3B based systems (e.g. from Loongson or Lemote)
p653
ss(Vimage
p654
g603
NVocteon
p655
tp656
(dp657
Vconfigs
p658
(lp659
Vkernelarch-mips/config.octeon
p660
ass(Vimage
p661
g603
tp662
(dp663
Vinstall-stem
p664
Vvmlinux
p665
ss(Vdescription
p666
g603
NV5kc-malta
p667
tp668
(dp669
Vhardware
p670
VMIPS Malta (64-bit)
p671
sVhardware-long
p672
VMIPS Malta boards (64-bit)
p673
ss(Vdescription
p674
g603
NV4kc-malta
p675
tp676
(dp677
Vhardware
p678
VMIPS Malta
p679
sVhardware-long
p680
VMIPS Malta boards
p681
ss(g162
g603
g130
tp682
(dp683
g165
(lp684
V4kc-malta
p685
aV5kc-malta
p686
aVloongson-3
p687
aVocteon
p688
asg169
I01
ss(Vbase
p689
Vmipsn32
p690
tp691
(dp692
Vfeaturesets
p693
(lp694
sVkernel-arch
p695
Vmips
p696
ss(Vbase
p697
Vmipsn32el
p698
tp699
(dp700
Vfeaturesets
p701
(lp702
sVkernel-arch
p703
Vmips
p704
ss(Vbase
p705
Vmips64
p706
tp707
(dp708
g128
(lp709
g130
asVkernel-arch
p710
Vmips
p711
ss(Vbuild
p712
g706
tp713
(dp714
Vsigned-modules
p715
I00
sVimage-file
p716
Vvmlinux
p717
ss(Vimage
p718
g706
NV5kc-malta
p719
tp720
(dp721
Vconfigs
p722
(lp723
Vkernelarch-mips/config.malta
p724
aVkernelarch-mips/config.mips64r2
p725
ass(Vdescription
p726
g706
NVocteon
p727
tp728
(dp729
Vhardware
p730
VOcteon
p731
sVhardware-long
p732
VCavium Networks Octeon
p733
ss(Vimage
p734
g706
tp735
(dp736
Vinstall-stem
p737
Vvmlinux
p738
ss(Vdescription
p739
g706
NV5kc-malta
p740
tp741
(dp742
Vhardware
p743
VMIPS Malta
p744
sVhardware-long
p745
VMIPS Malta boards
p746
ss(Vimage
p747
g706
NVocteon
p748
tp749
(dp750
Vconfigs
p751
(lp752
Vkernelarch-mips/config.octeon
p753
ass(g162
g706
g130
tp754
(dp755
g165
(lp756
V5kc-malta
p757
aVocteon
p758
asg169
I01
ss(Vbase
p759
Vmips64el
p760
tp761
(dp762
g128
(lp763
g130
asVkernel-arch
p764
Vmips
p765
ss(Vimage
p766
g760
NVloongson-3
p767
tp768
(dp769
Vconfigs
p770
(lp771
Vkernelarch-mips/config.loongson-3
p772
ass(Vbuild
p773
g760
tp774
(dp775
Vsigned-modules
p776
I00
sVimage-file
p777
Vvmlinux
p778
ss(Vimage
p779
g760
NV5kc-malta
p780
tp781
(dp782
Vconfigs
p783
(lp784
Vkernelarch-mips/config.malta
p785
aVkernelarch-mips/config.mips64r2
p786
ass(Vdescription
p787
g760
NVocteon
p788
tp789
(dp790
Vhardware
p791
VOcteon
p792
sVhardware-long
p793
VCavium Networks Octeon
p794
ss(Vdescription
p795
g760
NVloongson-3
p796
tp797
(dp798
Vhardware
p799
VLoongson 3A/3B
p800
sVhardware-long
p801
VLoongson 3A or 3B based systems (e.g. from Loongson or Lemote)
p802
ss(Vimage
p803
g760
tp804
(dp805
Vinstall-stem
p806
Vvmlinux
p807
ss(Vdescription
p808
g760
NV5kc-malta
p809
tp810
(dp811
Vhardware
p812
VMIPS Malta
p813
sVhardware-long
p814
VMIPS Malta boards
p815
ss(Vimage
p816
g760
NVocteon
p817
tp818
(dp819
Vconfigs
p820
(lp821
Vkernelarch-mips/config.octeon
p822
ass(g162
g760
g130
tp823
(dp824
g165
(lp825
V5kc-malta
p826
aVloongson-3
p827
aVocteon
p828
asg169
I01
ss(Vbase
p829
Vpowerpc
p830
tp831
(dp832
g128
(lp833
g130
asVkernel-arch
p834
Vpowerpc
p835
ss(Vdescription
p836
g830
NVpowerpc64
p837
tp838
(dp839
Vhardware
p840
V64-bit PowerPC
p841
ss(Vbuild
p842
g830
tp843
(dp844
Vvdso
p845
I01
sVimage-file
p846
Vvmlinux
p847
ss(Vimage
p848
g830
NVpowerpc-smp
p849
tp850
(dp851
Vconfigs
p852
(lp853
Vpowerpc/config.powerpc
p854
aVpowerpc/config.powerpc-smp
p855
ass(Vdescription
p856
g830
NVpowerpc
p857
tp858
(dp859
Vhardware
p860
Vuniprocessor 32-bit PowerPC
p861
ss(Vimage
p862
g830
NVpowerpc64
p863
tp864
(dp865
Vconfigs
p866
(lp867
Vkernelarch-powerpc/config-arch-64
p868
aVkernelarch-powerpc/config-arch-64-be
p869
ass(Vdescription
p870
g830
NVpowerpc-smp
p871
tp872
(dp873
Vhardware
p874
Vmultiprocessor 32-bit PowerPC
p875
ss(Vimage
p876
g830
tp877
(dp878
Vsuggests
p879
Vmkvmlinuz
p880
sVinstall-stem
p881
Vvmlinux
p882
sVconfigs
p883
(lp884
ss(g162
g830
g130
tp885
(dp886
g165
(lp887
Vpowerpc
p888
aVpowerpc-smp
p889
aVpowerpc64
p890
asg169
I01
ss(Vbase
p891
Vpowerpcspe
p892
tp893
(dp894
g128
(lp895
g130
asVkernel-arch
p896
Vpowerpc
p897
ss(Vbuild
p898
g892
tp899
(dp900
Vsigned-modules
p901
I00
sVimage-file
p902
Vvmlinux
p903
sVvdso
p904
I01
ss(Vimage
p905
g892
tp906
(dp907
Vsuggests
p908
Vmkvmlinuz
p909
sVinstall-stem
p910
Vvmlinux
p911
ss(Vdescription
p912
g892
tp913
(dp914
Vhardware
p915
V32-bit PowerPC with SPE (instead of AltiVec) with SMP support
p916
ss(g162
g892
g130
tp917
(dp918
g165
(lp919
Vpowerpcspe
p920
asg169
I01
ss(Vbase
p921
Vppc64
p922
tp923
(dp924
g128
(lp925
g130
asVkernel-arch
p926
Vpowerpc
p927
ss(Vdescription
p928
g922
NVpowerpc64
p929
tp930
(dp931
Vhardware
p932
V64-bit PowerPC
p933
ss(Vbuild
p934
g922
tp935
(dp936
Vsigned-modules
p937
I00
sVimage-file
p938
Vvmlinux
p939
sVvdso
p940
I01
ss(Vimage
p941
g922
NVpowerpc64
p942
tp943
(dp944
Vconfigs
p945
(lp946
Vkernelarch-powerpc/config-arch-64
p947
aVkernelarch-powerpc/config-arch-64-be
p948
ass(Vimage
p949
g922
tp950
(dp951
Vsuggests
p952
Vmkvmlinuz
p953
sVinstall-stem
p954
Vvmlinux
p955
sVconfigs
p956
(lp957
ss(g162
g922
g130
tp958
(dp959
g165
(lp960
Vpowerpc64
p961
asg169
I01
ss(Vbase
p962
Vppc64el
p963
tp964
(dp965
g128
(lp966
g130
asVkernel-arch
p967
Vpowerpc
p968
ss(Vdescription
p969
g963
NVpowerpc64le
p970
tp971
(dp972
Vhardware
p973
VLittle-endian 64-bit PowerPC
p974
ss(Vbuild
p975
g963
tp976
(dp977
Vvdso
p978
I01
sVimage-file
p979
Vvmlinux
p980
ss(Vimage
p981
g963
tp982
(dp983
Vsuggests
p984
Vmkvmlinuz
p985
sVinstall-stem
p986
Vvmlinux
p987
sVconfigs
p988
(lp989
ss(Vimage
p990
g963
NVpowerpc64le
p991
tp992
(dp993
Vconfigs
p994
(lp995
Vkernelarch-powerpc/config-arch-64
p996
aVkernelarch-powerpc/config-arch-64-le
p997
ass(g162
g963
g130
tp998
(dp999
g165
(lp1000
Vpowerpc64le
p1001
asg169
I01
ss(Vbase
p1002
Vs390
p1003
tp1004
(dp1005
Vfeaturesets
p1006
(lp1007
sVkernel-arch
p1008
Vs390
p1009
ss(Vbase
p1010
Vs390x
p1011
tp1012
(dp1013
g128
(lp1014
g130
asVkernel-arch
p1015
Vs390
p1016
ss(Vdescription
p1017
g1011
NVs390x
p1018
tp1019
(dp1020
Vhardware
p1021
VIBM zSeries
p1022
ss(Vbuild
p1023
g1011
tp1024
(dp1025
Vvdso
p1026
I01
sVimage-file
p1027
Varch/s390/boot/image
p1028
ss(Vbuild
p1029
g1011
NVs390x
p1030
tp1031
(dp1032
Vdebug-info
p1033
I01
ss(Vrelations
p1034
g1011
tp1035
(dp1036
Vheaders%gcc-6
p1037
Vlinux-compiler-gcc-6-s390
p1038
ss(Vimage
p1039
g1011
tp1040
(dp1041
Vinstall-stem
p1042
Vvmlinuz
p1043
sVbootloaders
p1044
(lp1045
Vs390-tools
p1046
ass(g162
g1011
g130
tp1047
(dp1048
g165
(lp1049
Vs390x
p1050
asg169
I01
ss(Vbase
p1051
Vsh3
p1052
tp1053
(dp1054
Vfeaturesets
p1055
(lp1056
sVkernel-arch
p1057
Vsh
p1058
ss(Vbase
p1059
Vsh4
p1060
tp1061
(dp1062
g128
(lp1063
g130
asVkernel-arch
p1064
Vsh
p1065
ss(Vbuild
p1066
g1060
tp1067
(dp1068
Vsigned-modules
p1069
I00
sVimage-file
p1070
Varch/sh/boot/zImage
p1071
ss(Vdescription
p1072
g1060
NVsh7751r
p1073
tp1074
(dp1075
Vhardware
p1076
Vsh7751r
p1077
sVhardware-long
p1078
VRenesas SH7751R R2D plus board
p1079
ss(Vdescription
p1080
g1060
NVsh7785lcr
p1081
tp1082
(dp1083
Vhardware
p1084
Vsh7785lcr
p1085
sVhardware-long
p1086
VRenesas SH7785 reference board
p1087
ss(Vimage
p1088
g1060
tp1089
(dp1090
Vinstall-stem
p1091
Vvmlinuz
p1092
ss(Vimage
p1093
g1060
NVsh7785lcr
p1094
tp1095
(dp1096
Vrecommends
p1097
Vu-boot-tools
p1098
sVcheck-size
p1099
L4194304L
ss(g162
g1060
g130
tp1100
(dp1101
g165
(lp1102
Vsh7751r
p1103
aVsh7785lcr
p1104
asg169
I01
ss(Vbase
p1105
Vsparc
p1106
tp1107
(dp1108
Vfeaturesets
p1109
(lp1110
sVkernel-arch
p1111
Vsparc
p1112
ss(Vbase
p1113
Vsparc64
p1114
tp1115
(dp1116
g128
(lp1117
g130
asVkernel-arch
p1118
Vsparc
p1119
ss(Vbuild
p1120
g1114
tp1121
(dp1122
Vsigned-modules
p1123
I00
sVimage-file
p1124
Varch/sparc/boot/zImage
p1125
ss(Vimage
p1126
g1114
NVsparc64
p1127
tp1128
(dp1129
Vconfigs
p1130
(lp1131
Vkernelarch-sparc/config-up
p1132
ass(Vimage
p1133
g1114
NVsparc64-smp
p1134
tp1135
(dp1136
Vconfigs
p1137
(lp1138
Vkernelarch-sparc/config-smp
p1139
ass(Vimage
p1140
g1114
tp1141
(dp1142
Vsuggests
p1143
Vsilo, fdutils
p1144
sVinstall-stem
p1145
Vvmlinuz
p1146
sVconfigs
p1147
(lp1148
ss(Vdescription
p1149
g1114
NVsparc64-smp
p1150
tp1151
(dp1152
Vhardware
p1153
Vmultiprocessor 64-bit UltraSPARC
p1154
ss(Vdescription
p1155
g1114
NVsparc64
p1156
tp1157
(dp1158
Vhardware
p1159
Vuniprocessor 64-bit UltraSPARC
p1160
ss(g162
g1114
g130
tp1161
(dp1162
g165
(lp1163
Vsparc64
p1164
aVsparc64-smp
p1165
asg169
I01
ss(Vbase
p1166
Vtilegx
p1167
tp1168
(dp1169
Vfeaturesets
p1170
(lp1171
sVkernel-arch
p1172
Vtile
p1173
ss(Vbase
p1174
Vx32
p1175
tp1176
(dp1177
Vfeaturesets
p1178
(lp1179
sVkernel-arch
p1180
Vx86
p1181
ss(Vdescription
p1182
NVrt
p1183
tp1184
(dp1185
Vparts
p1186
(lp1187
Vrt
p1188
asVpart-long-rt
p1189
VThis kernel includes the PREEMPT_RT realtime patch set.
p1190
sVpart-short-rt
p1191
VPREEMPT_RT
p1192
ss(Vabi
p1193
Ng1183
tp1194
(dp1195
Vignore-changes
p1196
(lp1197
V*
p1198
ass(Vversion
p1199
tp1200
(dp1201
Vupstream
p1202
V4.12
p1203
sVsource
p1204
V4.12.13-1
p1205
sVabiname
p1206
V4.12.0-2
p1207
sVabiname_base
p1208
V4.12.0
p1209
ss.