cdebian_linux.config
ConfigCore
p0
(tRp1
(Vabi
p2
tp3
(dp4
Vabiname
p5
V28
p6
sVignore-changes
p7
(lp8
V__cpuhp_*
p9
aV__udp_gso_segment
p10
aVbpf_analyzer
p11
aVbpf_offload_dev_create
p12
aVbpf_verifier_log_write
p13
aVcxl_*
p14
aVdax_flush
p15
aVieee80211_nullfunc_get
p16
aVinet_add_protocol
p17
aVinet_del_protocol
p18
aViommu_device_*
p19
aVmm_iommu_*
p20
aVmv_mbus_*
p21
aVperf_*
p22
aVregister_cxl_calls
p23
aVregister_key_type
p24
aVunregister_cxl_calls
p25
aV*_hw_breakpoint
p26
aVmodule:drivers/crypto/ccp/*
p27
aVmodule:drivers/hv/*
p28
aVmodule:drivers/gpu/drm/sun4i/*
p29
aVmodule:drivers/iio/**
p30
aVmodule:drivers/misc/cxl/*
p31
aVmodule:drivers/misc/lis3lv02d/*
p32
aVmodule:drivers/mtd/nand/*
p33
aVmodule:drivers/net/ethernet/**
p34
aVmodule:drivers/net/wireless/**
p35
aVmodule:drivers/nvdimm/*
p36
aVmodule:drivers/nvme/**
p37
aVmodule:drivers/power/supply/bq27xxx_battery
p38
aVmodule:drivers/scsi/cxgbi/*
p39
aVmodule:drivers/scsi/libiscs*
p40
aVmodule:drivers/scsi/qla2xxx/qla2xxx
p41
aVmodule:drivers/scsi/ufs/*
p42
aVmodule:drivers/target/**
p43
aVmodule:drivers/usb/chipidea/**
p44
aVmodule:drivers/usb/gadget/**
p45
aVmodule:drivers/usb/host/**
p46
aVmodule:drivers/usb/musb/**
p47
aVmodule:fs/nfs/**
p48
aVmodule:net/ceph/libceph
p49
aVmodule:net/l2tp/**
p50
aVmodule:net/openvswitch/**
p51
aVmodule:net/rxrpc/rxrpc
p52
aVmodule:net/sctp/**
p53
aVmodule:sound/core/seq/**
p54
aVmodule:sound/firewire/snd-firewire-lib
p55
aVmodule:sound/pci/hda/*
p56
aVbtree_*
p57
aVvisitor*
p58
aVcan_rx_register
p59
aVip6_xmit
p60
aVmodule:net/dccp/dccp
p61
aVmodule:net/rds/rds
p62
aVdevfreq_*
p63
aVdevm_devfreq_*
p64
aVupdate_devfreq
p65
aVmodule:drivers/infiniband/**
p66
aVacpi_ec_add_query_handler
p67
aVacpi_ec_remove_query_handler
p68
aVfirst_ec
p69
aVdebugfs_create_automount
p70
aVmodule:drivers/iio/imu/inv_mpu6050/*
p71
aVdrm_crtc_accurate_vblank_count
p72
aVacpi_nfit_desc_init
p73
aVacpi_nfit_init
p74
aVloop_register_transfer
p75
aVxen_xlate_*
p76
aVnf_nat_masquerade_ipv4_register_notifier
p77
aVnf_nat_masquerade_ipv6_register_notifier
p78
aVdfltcc_*
p79
aVmodule:drivers/scsi/hisi_sas/*
p80
aV__gfn_*
p81
aV__kvmhv_*
p82
aV__kvm_*
p83
aV__xive_vm_h_*
p84
aVgfn_*
p85
aVh_ipi_redirect
p86
aVhalt_poll_ns*
p87
aVkvm_*
p88
aVkvmhv_*
p89
aVkvmppc_*
p90
aVmark_page_dirty
p91
aVvcpu_*
p92
aVmodule:arch/powerpc/kvm/*
p93
aVmodule:arch/s390/kvm/*
p94
aVmodule:arch/x86/kvm/*
p95
aVuv_info
p96
aVxhci_init_driver
p97
aVnft_parse_register
p98
ass(Vbase
p99
tp100
(dp101
Varches
p102
(lp103
Valpha
p104
aVamd64
p105
aVarm64
p106
aVarm64ilp32
p107
aVarmel
p108
aVarmhf
p109
aVhppa
p110
aVi386
p111
aVia64
p112
aVm68k
p113
aVmips
p114
aVmips64
p115
aVmips64el
p116
aVmips64r6
p117
aVmips64r6el
p118
aVmipsel
p119
aVmipsn32
p120
aVmipsn32el
p121
aVmipsn32r6
p122
aVmipsn32r6el
p123
aVmipsr6
p124
aVmipsr6el
p125
aVpowerpc
p126
aVppc64
p127
aVppc64el
p128
aVriscv64
p129
aVs390
p130
aVs390x
p131
aVsh3
p132
aVsh4
p133
aVsparc
p134
aVsparc64
p135
aVx32
p136
asVcompiler
p137
Vgcc-10
p138
sVfeaturesets
p139
(lp140
Vnone
p141
aVrt
p142
ass(Vbuild
p143
tp144
(dp145
Vdebug-info
p146
I01
sVsigned-code
p147
I00
ss(Vbase
p148
NVrt
p149
tp150
(dp151
Venabled
p152
I01
ss(Vdescription
p153
tp154
(dp155
Vpart-long-up
p156
VThis kernel is not suitable for SMP (multi-processor,\u000amulti-core or hyper-threaded) systems.
p157
ss(Vimage
p158
tp159
(dp160
Vinitramfs-generators
p161
(lp162
Vinitramfs-tools
p163
aVinitramfs-fallback
p164
asVbreaks
p165
(lp166
Vfwupdate (<< 12-7)
p167
aVwireless-regdb (<< 2019.06.03-1~)
p168
asVrecommends
p169
(lp170
Vapparmor
p171
ass(Vrelations
p172
tp173
(dp174
Vgcc-10
p175
Vgcc-10 <!stage1 !cross !pkg.linux.nokernel>, gcc-10-@gnu-type-package@ <!stage1 cross !pkg.linux.nokernel>
p176
sVinitramfs-fallback
p177
Vlinux-initramfs-tool
p178
sVinitramfs-tools
p179
Vinitramfs-tools (>= 0.120+deb8u2)
p180
ss(Vbase
p181
Valpha
p182
tp183
(dp184
Vdefault-flavour
p185
Valpha-smp
p186
sVkernel-arch
p187
Valpha
p188
sVfeaturesets
p189
(lp190
Vnone
p191
ass(Vbuild
p192
g182
tp193
(dp194
Vimage-file
p195
Varch/alpha/boot/vmlinux.gz
p196
ss(Vimage
p197
g182
tp198
(dp199
Vsuggests
p200
(lp201
Vaboot
p202
aVfdutils
p203
asVinstall-stem
p204
Vvmlinuz
p205
ss(Vdescription
p206
g182
NValpha-generic
p207
tp208
(dp209
Vhardware
p210
VAlpha
p211
sVhardware-long
p212
VDEC Alpha systems with extended kernel start address (Wildfire, Titan, Marvel)
p213
ss(Vdescription
p214
g182
NValpha-smp
p215
tp216
(dp217
Vhardware
p218
VAlpha SMP
p219
sVhardware-long
p220
VDEC Alpha SMP systems with extended kernel start address (Wildfire, Titan, Marvel)
p221
ss(Vbase
p222
g182
g191
tp223
(dp224
Vflavours
p225
(lp226
Valpha-generic
p227
aValpha-smp
p228
asVimplicit-flavour
p229
I01
ss(Vbase
p230
Vamd64
p231
tp232
(dp233
Vfeaturesets
p234
(lp235
Vnone
p236
aVrt
p237
asVkernel-arch
p238
Vx86
p239
ss(Vbuild
p240
g231
tp241
(dp242
Vimage-file
p243
Varch/x86/boot/bzImage
p244
sVsigned-code
p245
I01
sVvdso
p246
I01
ss(Vimage
p247
g231
tp248
(dp249
Vbootloaders
p250
(lp251
Vgrub-pc
p252
aVgrub-efi-amd64
p253
aVextlinux
p254
asVinstall-stem
p255
Vvmlinuz
p256
sVbreaks
p257
(lp258
Vxserver-xorg-input-vmmouse (<< 1:13.0.99)
p259
ass(Vrelations
p260
g231
tp261
(dp262
Vheaders%gcc-10
p263
Vlinux-compiler-gcc-10-x86
p264
ss(Vdescription
p265
g231
NVamd64
p266
tp267
(dp268
Vhardware
p269
V64-bit PCs
p270
sVhardware-long
p271
VPCs with AMD64, Intel 64 or VIA Nano processors
p272
ss(Vdescription
p273
g231
NVcloud-amd64
p274
tp275
(dp276
Vhardware
p277
Vx86-64 cloud
p278
sVhardware-long
p279
Vcloud platforms including Amazon EC2, Microsoft Azure, and Google Compute Engine
p280
ss(Vbase
p281
g231
Vnone
p282
tp283
(dp284
Vflavours
p285
(lp286
Vamd64
p287
aVcloud-amd64
p288
asVdefault-flavour
p289
Vamd64
p290
ss(Vimage
p291
g231
g282
Vcloud-amd64
p292
tp293
(dp294
Vconfigs
p295
(lp296
Vconfig.cloud
p297
aVamd64/config.cloud-amd64
p298
ass(Vbase
p299
g231
Vrt
p300
tp301
(dp302
Vflavours
p303
(lp304
Vamd64
p305
ass(Vbase
p306
Varm64
p307
tp308
(dp309
Vcross-compile-compat
p310
Varm-linux-gnueabihf-
p311
sVkernel-arch
p312
Varm64
p313
sVfeaturesets
p314
(lp315
Vnone
p316
aVrt
p317
ass(Vbuild
p318
g307
tp319
(dp320
Vimage-file
p321
Varch/arm64/boot/Image
p322
sVsigned-code
p323
I01
sVvdso
p324
I01
ss(Vimage
p325
g307
tp326
(dp327
Vinstall-stem
p328
Vvmlinuz
p329
sVbreaks
p330
(lp331
Vlibmozjs185-1.0
p332
aVlibmozjs-24-0 (<< 24.2.0-5.1~)
p333
ass(Vdescription
p334
g307
NVarm64
p335
tp336
(dp337
Vhardware
p338
V64-bit ARMv8 machines
p339
ss(Vdescription
p340
g307
NVcloud-arm64
p341
tp342
(dp343
Vhardware
p344
Varm64 cloud
p345
sVhardware-long
p346
Vcloud platforms supporting arm64 virtual machines
p347
ss(Vimage
p348
g307
NVarm64
p349
tp350
(dp351
s(Vrelations
p352
g307
tp353
(dp354
Vgcc-10
p355
Vgcc-10 <!stage1 !cross !pkg.linux.nokernel>, gcc-10-aarch64-linux-gnu <!stage1 cross !pkg.linux.nokernel>, gcc-arm-linux-gnueabihf <!stage1 !pkg.linux.nokernel>
p356
sVheaders%gcc-10
p357
Vgcc-10
p358
ss(Vbase
p359
g307
Vnone
p360
tp361
(dp362
Vflavours
p363
(lp364
Varm64
p365
aVcloud-arm64
p366
asVdefault-flavour
p367
Varm64
p368
ss(Vimage
p369
g307
g360
Vcloud-arm64
p370
tp371
(dp372
Vconfigs
p373
(lp374
Vconfig.cloud
p375
aVarm64/config.cloud-arm64
p376
ass(Vbase
p377
g307
Vrt
p378
tp379
(dp380
Vflavours
p381
(lp382
Varm64
p383
ass(Vbase
p384
Varm64ilp32
p385
tp386
(dp387
Vkernel-arch
p388
Varm64
p389
sVfeaturesets
p390
(lp391
ss(Vbase
p392
Varmel
p393
tp394
(dp395
Vkernel-arch
p396
Varm
p397
sg189
(lp398
g191
ass(Vbuild
p399
g393
tp400
(dp401
Vimage-file
p402
Varch/arm/boot/zImage
p403
sVuncompressed-image-file
p404
Varch/arm/boot/Image
p405
ss(Vimage
p406
g393
tp407
(dp408
Vinstall-stem
p409
Vvmlinuz
p410
ss(Vrelations
p411
g393
tp412
(dp413
Vheaders%gcc-10
p414
Vlinux-compiler-gcc-10-arm
p415
ss(Vdescription
p416
g393
NVmarvell
p417
tp418
(dp419
Vhardware
p420
VMarvell Kirkwood/Orion
p421
sVhardware-long
p422
VMarvell Kirkwood and Orion based systems (https://wiki.debian.org/ArmEabiPort#Supported_hardware)
p423
ss(Vdescription
p424
g393
NVrpi
p425
tp426
(dp427
Vhardware
p428
VRaspberry Pi and Pi Zero
p429
sVhardware-long
p430
VRaspberry Pi, Raspberry Pi Zero based systems
p431
ss(Vimage
p432
g393
NVmarvell
p433
tp434
(dp435
Vrecommends
p436
(lp437
Vu-boot-tools
p438
asVcheck-size
p439
I2729712
sVcheck-size-with-dtb
p440
I01
sVbreaks
p441
(lp442
Vflash-kernel (<< 3.57~)
p443
ass(g222
g393
g191
tp444
(dp445
g225
(lp446
Vmarvell
p447
aVrpi
p448
asg229
I01
ss(Vbase
p449
Varmhf
p450
tp451
(dp452
Vfeaturesets
p453
(lp454
Vnone
p455
aVrt
p456
asVkernel-arch
p457
Varm
p458
ss(Vbuild
p459
g450
tp460
(dp461
Vimage-file
p462
Varch/arm/boot/zImage
p463
sVvdso
p464
I01
ss(Vimage
p465
g450
tp466
(dp467
Vinstall-stem
p468
Vvmlinuz
p469
ss(Vrelations
p470
g450
tp471
(dp472
Vheaders%gcc-10
p473
Vlinux-compiler-gcc-10-arm
p474
ss(Vdescription
p475
g450
NVarmmp
p476
tp477
(dp478
Vhardware
p479
VARMv7 multiplatform compatible SoCs
p480
sVhardware-long
p481
VARMv7 multiplatform kernel. See\u000ahttps://wiki.debian.org/DebianKernel/ARMMP for details of supported\u000aplatforms
p482
ss(Vdescription
p483
g450
NVarmmp-lpae
p484
tp485
(dp486
Vhardware
p487
VARMv7 multiplatform compatible SoCs supporting LPAE
p488
sVhardware-long
p489
VARMv7 multiplatform kernel supporting LPAE. See\u000ahttps://wiki.debian.org/DebianKernel/ARMMP for details of supported\u000aplatforms.
p490
ss(Vbase
p491
g450
Vnone
p492
tp493
(dp494
Vflavours
p495
(lp496
Varmmp
p497
aVarmmp-lpae
p498
asVdefault-flavour
p499
Varmmp
p500
ss(Vbase
p501
g450
Vrt
p502
tp503
(dp504
Vflavours
p505
(lp506
Varmmp
p507
ass(Vbase
p508
Vhppa
p509
tp510
(dp511
Vdefault-flavour
p512
Vparisc
p513
sVkernel-arch
p514
Vparisc
p515
sg189
(lp516
g191
ass(Vbuild
p517
g509
tp518
(dp519
Vimage-file
p520
Varch/parisc/boot/bzImage
p521
sVdebug-info
p522
I00
ss(Vimage
p523
g509
tp524
(dp525
Vsuggests
p526
(lp527
Vpalo
p528
asVinstall-stem
p529
Vvmlinuz
p530
ss(Vdescription
p531
g509
NVparisc
p532
tp533
(dp534
Vhardware
p535
V32-bit PA-RISC
p536
sVhardware-long
p537
VHP PA-RISC 32-bit systems with max 4 GB RAM
p538
ss(Vbase
p539
g509
NVparisc64
p540
tp541
(dp542
Vcflags
p543
V-fno-cse-follow-jumps
p544
sVoverride-host-type
p545
Vhppa64-linux-gnu
p546
ss(Vdescription
p547
g509
NVparisc64
p548
tp549
(dp550
Vhardware
p551
V64-bit PA-RISC
p552
sVhardware-long
p553
VHP PA-RISC 64-bit systems with support for more than 4 GB RAM
p554
ss(Vrelations
p555
g509
tp556
(dp557
Vgcc-10
p558
Vgcc-10 <!stage1 !cross !pkg.linux.nokernel>, gcc-10-hppa-linux-gnu <!stage1 cross !pkg.linux.nokernel>, binutils-hppa64-linux-gnu <!stage1 !pkg.linux.nokernel>, gcc-10-hppa64-linux-gnu <!stage1 !pkg.linux.nokernel>
p559
ss(g222
g509
g191
tp560
(dp561
g225
(lp562
Vparisc
p563
aVparisc64
p564
asg229
I01
ss(Vbase
p565
Vi386
p566
tp567
(dp568
Vfeaturesets
p569
(lp570
Vnone
p571
aVrt
p572
asVkernel-arch
p573
Vx86
p574
ss(Vbuild
p575
g566
tp576
(dp577
Vimage-file
p578
Varch/x86/boot/bzImage
p579
sVsigned-code
p580
I01
sVvdso
p581
I01
ss(Vdescription
p582
g566
tp583
(dp584
Vpart-long-pae
p585
VThis kernel requires PAE (Physical Address Extension).\u000aThis feature is supported by the Intel Pentium Pro/II/III/4/4M/D, Xeon,\u000aCore and Atom; AMD Geode NX, Athlon (K7), Duron, Opteron, Sempron,\u000aTurion or Phenom; Transmeta Efficeon; VIA C7; and some other processors.
p586
ss(Vimage
p587
g566
tp588
(dp589
Vbootloaders
p590
(lp591
Vgrub-pc
p592
aVgrub-efi-ia32
p593
aVextlinux
p594
asVinstall-stem
p595
Vvmlinuz
p596
sVbreaks
p597
(lp598
Vxserver-xorg-input-vmmouse (<< 1:13.0.99)
p599
ass(Vrelations
p600
g566
tp601
(dp602
Vheaders%gcc-10
p603
Vlinux-compiler-gcc-10-x86
p604
ss(Vdescription
p605
g566
NV686
p606
tp607
(dp608
Vhardware
p609
Volder PCs
p610
sVhardware-long
p611
VPCs with one or more processors not supporting PAE
p612
ss(Vdescription
p613
g566
NV686-pae
p614
tp615
(dp616
Vhardware
p617
Vmodern PCs
p618
sVhardware-long
p619
VPCs with one or more processors supporting PAE
p620
sVparts
p621
(lp622
Vpae
p623
ass(Vbase
p624
g566
Vnone
p625
tp626
(dp627
Vflavours
p628
(lp629
V686
p630
aV686-pae
p631
asVdefault-flavour
p632
V686-pae
p633
ss(Vbase
p634
g566
Vrt
p635
tp636
(dp637
Vflavours
p638
(lp639
V686-pae
p640
ass(Vbase
p641
Via64
p642
tp643
(dp644
Vdefault-flavour
p645
Vitanium
p646
sVkernel-arch
p647
Via64
p648
sg189
(lp649
g191
ass(Vbuild
p650
g642
tp651
(dp652
Vimage-file
p653
Vvmlinux.gz
p654
ss(Vimage
p655
g642
tp656
(dp657
Vbootloaders
p658
(lp659
Vgrub-efi-ia64
p660
asVinstall-stem
p661
Vvmlinuz
p662
ss(Vdescription
p663
g642
NVitanium
p664
tp665
(dp666
Vhardware
p667
VItanium (Merced)
p668
sVhardware-long
p669
Vsystems with original Itanium (Merced) processors
p670
ss(Vdescription
p671
g642
NVmckinley
p672
tp673
(dp674
Vhardware
p675
VItanium 2+
p676
sVhardware-long
p677
Vsystems with Itanium 2 or 9300/9500/9700-series processors
p678
ss(g222
g642
g191
tp679
(dp680
g225
(lp681
Vitanium
p682
aVmckinley
p683
asg229
I01
ss(Vbase
p684
Vm68k
p685
tp686
(dp687
Vcflags
p688
V-ffreestanding
p689
sVdefault-flavour
p690
Vm68k
p691
sVkernel-arch
p692
Vm68k
p693
sg189
(lp694
g191
ass(Vbuild
p695
g685
tp696
(dp697
Vimage-file
p698
Vvmlinux
p699
ss(Vimage
p700
g685
tp701
(dp702
Vsuggests
p703
(lp704
Vvmelilo
p705
aVfdutils
p706
asVinstall-stem
p707
Vvmlinux
p708
ss(Vdescription
p709
g685
NVm68k
p710
tp711
(dp712
Vhardware
p713
VMotorola MC68020+ family
p714
ss(g222
g685
g191
tp715
(dp716
g225
(lp717
Vm68k
p718
asg229
I01
ss(Vbase
p719
Vmips
p720
tp721
(dp722
Vkernel-arch
p723
Vmips
p724
sg189
(lp725
g191
ass(Vbuild
p726
g720
tp727
(dp728
Vimage-file
p729
Vvmlinuz
p730
ss(Vimage
p731
g720
tp732
(dp733
Vinstall-stem
p734
Vvmlinuz
p735
ss(Vdescription
p736
g720
NV4kc-malta
p737
tp738
(dp739
Vhardware
p740
VMIPS Malta
p741
sVhardware-long
p742
VMIPS Malta boards
p743
ss(Vimage
p744
g720
NV4kc-malta
p745
tp746
(dp747
Vconfigs
p748
(lp749
Vkernelarch-mips/config.malta
p750
aVkernelarch-mips/config.mips32r2
p751
ass(Vdescription
p752
g720
NV5kc-malta
p753
tp754
(dp755
Vhardware
p756
VMIPS Malta (64-bit)
p757
sVhardware-long
p758
VMIPS Malta boards (64-bit)
p759
ss(Vimage
p760
g720
NV5kc-malta
p761
tp762
(dp763
Vconfigs
p764
(lp765
Vkernelarch-mips/config.malta
p766
aVkernelarch-mips/config.mips64r2
p767
ass(Vdescription
p768
g720
NVocteon
p769
tp770
(dp771
Vhardware
p772
VOcteon
p773
sVhardware-long
p774
VCavium Networks Octeon
p775
ss(Vbuild
p776
g720
NVocteon
p777
tp778
(dp779
Vimage-file
p780
Vvmlinux
p781
ss(Vimage
p782
g720
NVocteon
p783
tp784
(dp785
Vinstall-stem
p786
Vvmlinux
p787
sVconfigs
p788
(lp789
Vkernelarch-mips/config.octeon
p790
ass(g222
g720
g191
tp791
(dp792
g225
(lp793
V4kc-malta
p794
aV5kc-malta
p795
aVocteon
p796
asg229
I01
ss(Vbase
p797
Vmips64
p798
tp799
(dp800
Vkernel-arch
p801
Vmips
p802
sg189
(lp803
g191
ass(Vbuild
p804
g798
tp805
(dp806
Vimage-file
p807
Vvmlinuz
p808
ss(Vimage
p809
g798
tp810
(dp811
Vinstall-stem
p812
Vvmlinuz
p813
ss(Vdescription
p814
g798
NV5kc-malta
p815
tp816
(dp817
Vhardware
p818
VMIPS Malta
p819
sVhardware-long
p820
VMIPS Malta boards
p821
ss(Vimage
p822
g798
NV5kc-malta
p823
tp824
(dp825
Vconfigs
p826
(lp827
Vkernelarch-mips/config.malta
p828
aVkernelarch-mips/config.mips64r2
p829
ass(Vdescription
p830
g798
NVocteon
p831
tp832
(dp833
Vhardware
p834
VOcteon
p835
sVhardware-long
p836
VCavium Networks Octeon
p837
ss(Vbuild
p838
g798
NVocteon
p839
tp840
(dp841
Vimage-file
p842
Vvmlinux
p843
ss(Vimage
p844
g798
NVocteon
p845
tp846
(dp847
Vinstall-stem
p848
Vvmlinux
p849
sVconfigs
p850
(lp851
Vkernelarch-mips/config.octeon
p852
ass(g222
g798
g191
tp853
(dp854
g225
(lp855
V5kc-malta
p856
aVocteon
p857
asg229
I01
ss(Vbase
p858
Vmips64el
p859
tp860
(dp861
Vkernel-arch
p862
Vmips
p863
sg189
(lp864
g191
ass(Vbuild
p865
g859
tp866
(dp867
Vimage-file
p868
Vvmlinuz
p869
ss(Vimage
p870
g859
tp871
(dp872
Vinstall-stem
p873
Vvmlinuz
p874
ss(Vdescription
p875
g859
NV5kc-malta
p876
tp877
(dp878
Vhardware
p879
VMIPS Malta
p880
sVhardware-long
p881
VMIPS Malta boards
p882
ss(Vimage
p883
g859
NV5kc-malta
p884
tp885
(dp886
Vconfigs
p887
(lp888
Vkernelarch-mips/config.malta
p889
aVkernelarch-mips/config.mips64r2
p890
ass(Vdescription
p891
g859
NVloongson-3
p892
tp893
(dp894
Vhardware
p895
VLoongson 3A/3B
p896
sVhardware-long
p897
VLoongson 3A or 3B based systems (e.g. from Loongson or Lemote)
p898
ss(Vimage
p899
g859
NVloongson-3
p900
tp901
(dp902
Vconfigs
p903
(lp904
Vkernelarch-mips/config.loongson-3
p905
ass(Vdescription
p906
g859
NVocteon
p907
tp908
(dp909
Vhardware
p910
VOcteon
p911
sVhardware-long
p912
VCavium Networks Octeon
p913
ss(Vbuild
p914
g859
NVocteon
p915
tp916
(dp917
Vimage-file
p918
Vvmlinux
p919
ss(Vimage
p920
g859
NVocteon
p921
tp922
(dp923
Vinstall-stem
p924
Vvmlinux
p925
sVconfigs
p926
(lp927
Vkernelarch-mips/config.octeon
p928
ass(g222
g859
g191
tp929
(dp930
g225
(lp931
V5kc-malta
p932
aVloongson-3
p933
aVocteon
p934
asg229
I01
ss(Vbase
p935
Vmips64r6
p936
tp937
(dp938
Vdefault-flavour
p939
Vmips64r6
p940
sVkernel-arch
p941
Vmips
p942
sg189
(lp943
g191
ass(Vbuild
p944
g936
tp945
(dp946
Vimage-file
p947
Vvmlinux
p948
ss(Vimage
p949
g936
tp950
(dp951
Vinstall-stem
p952
Vvmlinux
p953
ss(Vdescription
p954
g936
NVmips64r6
p955
tp956
(dp957
Vhardware
p958
VMIPS R6 (64 bit, big endian)
p959
sVhardware-long
p960
VMIPS R6 (64 bit, big endian)
p961
ss(Vimage
p962
g936
NVmips64r6
p963
tp964
(dp965
Vconfigs
p966
(lp967
Vkernelarch-mips/config.boston
p968
aVkernelarch-mips/config.mips64r6
p969
ass(g222
g936
g191
tp970
(dp971
g225
(lp972
Vmips64r6
p973
asg229
I01
ss(Vbase
p974
Vmips64r6el
p975
tp976
(dp977
Vdefault-flavour
p978
Vmips64r6el
p979
sVkernel-arch
p980
Vmips
p981
sg189
(lp982
g191
ass(Vbuild
p983
g975
tp984
(dp985
Vimage-file
p986
Vvmlinux
p987
ss(Vimage
p988
g975
tp989
(dp990
Vinstall-stem
p991
Vvmlinux
p992
ss(Vdescription
p993
g975
NVmips64r6el
p994
tp995
(dp996
Vhardware
p997
VMIPS R6 (64 bit, little endian)
p998
sVhardware-long
p999
VMIPS R6 (64 bit, little endian)
p1000
ss(Vimage
p1001
g975
NVmips64r6el
p1002
tp1003
(dp1004
Vconfigs
p1005
(lp1006
Vkernelarch-mips/config.boston
p1007
aVkernelarch-mips/config.mips64r6
p1008
ass(g222
g975
g191
tp1009
(dp1010
g225
(lp1011
Vmips64r6el
p1012
asg229
I01
ss(Vbase
p1013
Vmipsel
p1014
tp1015
(dp1016
Vkernel-arch
p1017
Vmips
p1018
sg189
(lp1019
g191
ass(Vbuild
p1020
g1014
tp1021
(dp1022
Vimage-file
p1023
Vvmlinuz
p1024
ss(Vimage
p1025
g1014
tp1026
(dp1027
Vinstall-stem
p1028
Vvmlinuz
p1029
ss(Vdescription
p1030
g1014
NV4kc-malta
p1031
tp1032
(dp1033
Vhardware
p1034
VMIPS Malta
p1035
sVhardware-long
p1036
VMIPS Malta boards
p1037
ss(Vimage
p1038
g1014
NV4kc-malta
p1039
tp1040
(dp1041
Vconfigs
p1042
(lp1043
Vkernelarch-mips/config.malta
p1044
aVkernelarch-mips/config.mips32r2
p1045
ass(Vdescription
p1046
g1014
NV5kc-malta
p1047
tp1048
(dp1049
Vhardware
p1050
VMIPS Malta (64-bit)
p1051
sVhardware-long
p1052
VMIPS Malta boards (64-bit)
p1053
ss(Vimage
p1054
g1014
NV5kc-malta
p1055
tp1056
(dp1057
Vconfigs
p1058
(lp1059
Vkernelarch-mips/config.malta
p1060
aVkernelarch-mips/config.mips64r2
p1061
ass(Vdescription
p1062
g1014
NVloongson-3
p1063
tp1064
(dp1065
Vhardware
p1066
VLoongson 3A/3B
p1067
sVhardware-long
p1068
VLoongson 3A or 3B based systems (e.g. from Loongson or Lemote)
p1069
ss(Vimage
p1070
g1014
NVloongson-3
p1071
tp1072
(dp1073
Vconfigs
p1074
(lp1075
Vkernelarch-mips/config.loongson-3
p1076
ass(Vdescription
p1077
g1014
NVocteon
p1078
tp1079
(dp1080
Vhardware
p1081
VOcteon
p1082
sVhardware-long
p1083
VCavium Networks Octeon
p1084
ss(Vbuild
p1085
g1014
NVocteon
p1086
tp1087
(dp1088
Vimage-file
p1089
Vvmlinux
p1090
ss(Vimage
p1091
g1014
NVocteon
p1092
tp1093
(dp1094
Vinstall-stem
p1095
Vvmlinux
p1096
sVconfigs
p1097
(lp1098
Vkernelarch-mips/config.octeon
p1099
ass(g222
g1014
g191
tp1100
(dp1101
g225
(lp1102
V4kc-malta
p1103
aV5kc-malta
p1104
aVloongson-3
p1105
aVocteon
p1106
asg229
I01
ss(Vbase
p1107
Vmipsn32
p1108
tp1109
(dp1110
Vkernel-arch
p1111
Vmips
p1112
sVfeaturesets
p1113
(lp1114
ss(Vbase
p1115
Vmipsn32el
p1116
tp1117
(dp1118
Vkernel-arch
p1119
Vmips
p1120
sVfeaturesets
p1121
(lp1122
ss(Vbase
p1123
Vmipsn32r6
p1124
tp1125
(dp1126
Vkernel-arch
p1127
Vmips
p1128
sVfeaturesets
p1129
(lp1130
ss(Vbase
p1131
Vmipsn32r6el
p1132
tp1133
(dp1134
Vkernel-arch
p1135
Vmips
p1136
sVfeaturesets
p1137
(lp1138
ss(Vbase
p1139
Vmipsr6
p1140
tp1141
(dp1142
Vdefault-flavour
p1143
Vmips32r6
p1144
sVkernel-arch
p1145
Vmips
p1146
sg189
(lp1147
g191
ass(Vbuild
p1148
g1140
tp1149
(dp1150
Vimage-file
p1151
Vvmlinux
p1152
ss(Vimage
p1153
g1140
tp1154
(dp1155
Vinstall-stem
p1156
Vvmlinux
p1157
ss(Vdescription
p1158
g1140
NVmips32r6
p1159
tp1160
(dp1161
Vhardware
p1162
VMIPS R6 (32 bit, big endian)
p1163
sVhardware-long
p1164
VMIPS R6 (32 bit, big endian)
p1165
ss(Vimage
p1166
g1140
NVmips32r6
p1167
tp1168
(dp1169
Vconfigs
p1170
(lp1171
Vkernelarch-mips/config.boston
p1172
aVkernelarch-mips/config.mips32r6
p1173
ass(Vdescription
p1174
g1140
NVmips64r6
p1175
tp1176
(dp1177
Vhardware
p1178
VMIPS R6 (64 bit, big endian)
p1179
sVhardware-long
p1180
VMIPS R6 (64 bit, big endian)
p1181
ss(Vimage
p1182
g1140
NVmips64r6
p1183
tp1184
(dp1185
Vconfigs
p1186
(lp1187
Vkernelarch-mips/config.boston
p1188
aVkernelarch-mips/config.mips64r6
p1189
ass(g222
g1140
g191
tp1190
(dp1191
g225
(lp1192
Vmips32r6
p1193
aVmips64r6
p1194
asg229
I01
ss(Vbase
p1195
Vmipsr6el
p1196
tp1197
(dp1198
Vdefault-flavour
p1199
Vmips32r6el
p1200
sVkernel-arch
p1201
Vmips
p1202
sg189
(lp1203
g191
ass(Vbuild
p1204
g1196
tp1205
(dp1206
Vimage-file
p1207
Vvmlinux
p1208
ss(Vimage
p1209
g1196
tp1210
(dp1211
Vinstall-stem
p1212
Vvmlinux
p1213
ss(Vdescription
p1214
g1196
NVmips32r6el
p1215
tp1216
(dp1217
Vhardware
p1218
VMIPS R6 (32 bit, little endian)
p1219
sVhardware-long
p1220
VMIPS R6 (32 bit, little endian)
p1221
ss(Vimage
p1222
g1196
NVmips32r6el
p1223
tp1224
(dp1225
Vconfigs
p1226
(lp1227
Vkernelarch-mips/config.boston
p1228
aVkernelarch-mips/config.mips32r6
p1229
ass(Vdescription
p1230
g1196
NVmips64r6el
p1231
tp1232
(dp1233
Vhardware
p1234
VMIPS R6 (64 bit, little endian)
p1235
sVhardware-long
p1236
VMIPS R6 (64 bit, little endian)
p1237
ss(Vimage
p1238
g1196
NVmips64r6el
p1239
tp1240
(dp1241
Vconfigs
p1242
(lp1243
Vkernelarch-mips/config.boston
p1244
aVkernelarch-mips/config.mips64r6
p1245
ass(g222
g1196
g191
tp1246
(dp1247
g225
(lp1248
Vmips32r6el
p1249
aVmips64r6el
p1250
asg229
I01
ss(Vbase
p1251
Vpowerpc
p1252
tp1253
(dp1254
Vkernel-arch
p1255
Vpowerpc
p1256
sg189
(lp1257
g191
ass(Vbuild
p1258
g1252
tp1259
(dp1260
Vimage-file
p1261
Vvmlinux
p1262
sVvdso
p1263
I01
ss(Vimage
p1264
g1252
tp1265
(dp1266
Vconfigs
p1267
(lp1268
sVbootloaders
p1269
(lp1270
Vgrub-ieee1275
p1271
asVsuggests
p1272
(lp1273
Vmkvmlinuz
p1274
asVinstall-stem
p1275
Vvmlinux
p1276
ss(Vdescription
p1277
g1252
NVpowerpc
p1278
tp1279
(dp1280
Vhardware
p1281
Vuniprocessor 32-bit PowerPC
p1282
ss(Vdescription
p1283
g1252
NVpowerpc-smp
p1284
tp1285
(dp1286
Vhardware
p1287
Vmultiprocessor 32-bit PowerPC
p1288
ss(Vimage
p1289
g1252
NVpowerpc-smp
p1290
tp1291
(dp1292
Vconfigs
p1293
(lp1294
Vpowerpc/config.powerpc
p1295
aVpowerpc/config.powerpc-smp
p1296
ass(Vdescription
p1297
g1252
NVpowerpc64
p1298
tp1299
(dp1300
Vhardware
p1301
V64-bit PowerPC
p1302
ss(Vimage
p1303
g1252
NVpowerpc64
p1304
tp1305
(dp1306
Vconfigs
p1307
(lp1308
Vkernelarch-powerpc/config-arch-64
p1309
aVkernelarch-powerpc/config-arch-64-be
p1310
ass(g222
g1252
g191
tp1311
(dp1312
g225
(lp1313
Vpowerpc
p1314
aVpowerpc-smp
p1315
aVpowerpc64
p1316
asg229
I01
ss(Vbase
p1317
Vppc64
p1318
tp1319
(dp1320
Vdefault-flavour
p1321
Vpowerpc64
p1322
sVkernel-arch
p1323
Vpowerpc
p1324
sg189
(lp1325
g191
ass(Vbuild
p1326
g1318
tp1327
(dp1328
Vimage-file
p1329
Vvmlinux
p1330
sVvdso
p1331
I01
ss(Vimage
p1332
g1318
tp1333
(dp1334
Vconfigs
p1335
(lp1336
sVbootloaders
p1337
(lp1338
Vgrub-ieee1275
p1339
asVsuggests
p1340
(lp1341
Vmkvmlinuz
p1342
asVinstall-stem
p1343
Vvmlinux
p1344
ss(Vdescription
p1345
g1318
NVpowerpc64
p1346
tp1347
(dp1348
Vhardware
p1349
V64-bit PowerPC
p1350
ss(Vimage
p1351
g1318
NVpowerpc64
p1352
tp1353
(dp1354
Vconfigs
p1355
(lp1356
Vkernelarch-powerpc/config-arch-64
p1357
aVkernelarch-powerpc/config-arch-64-be
p1358
ass(g222
g1318
g191
tp1359
(dp1360
g225
(lp1361
Vpowerpc64
p1362
asg229
I01
ss(Vbase
p1363
Vppc64el
p1364
tp1365
(dp1366
Vdefault-flavour
p1367
Vpowerpc64le
p1368
sVkernel-arch
p1369
Vpowerpc
p1370
sg189
(lp1371
g191
ass(Vbuild
p1372
g1364
tp1373
(dp1374
Vimage-file
p1375
Vvmlinux
p1376
sVvdso
p1377
I01
ss(Vimage
p1378
g1364
tp1379
(dp1380
Vconfigs
p1381
(lp1382
sVbootloaders
p1383
(lp1384
Vgrub-ieee1275
p1385
asVsuggests
p1386
(lp1387
Vmkvmlinuz
p1388
asVinstall-stem
p1389
Vvmlinux
p1390
ss(Vdescription
p1391
g1364
NVpowerpc64le
p1392
tp1393
(dp1394
Vhardware
p1395
VLittle-endian 64-bit PowerPC
p1396
ss(Vimage
p1397
g1364
NVpowerpc64le
p1398
tp1399
(dp1400
Vconfigs
p1401
(lp1402
Vkernelarch-powerpc/config-arch-64
p1403
aVkernelarch-powerpc/config-arch-64-le
p1404
ass(g222
g1364
g191
tp1405
(dp1406
g225
(lp1407
Vpowerpc64le
p1408
asg229
I01
ss(Vbase
p1409
Vriscv64
p1410
tp1411
(dp1412
Vkernel-arch
p1413
Vriscv
p1414
sVfeaturesets
p1415
(lp1416
Vnone
p1417
ass(Vbuild
p1418
g1410
tp1419
(dp1420
Vimage-file
p1421
Varch/riscv/boot/Image
p1422
sVvdso
p1423
I01
ss(Vimage
p1424
g1410
tp1425
(dp1426
Vinstall-stem
p1427
Vvmlinux
p1428
ss(Vdescription
p1429
g1410
NVriscv64
p1430
tp1431
(dp1432
Vhardware
p1433
V64-bit RISC-V platforms
p1434
sVhardware-long
p1435
V64-bit RISC-V platforms
p1436
ss(Vbase
p1437
g1410
Vnone
p1438
tp1439
(dp1440
Vflavours
p1441
(lp1442
Vriscv64
p1443
asVdefault-flavour
p1444
Vriscv64
p1445
ss(Vbase
p1446
Vs390
p1447
tp1448
(dp1449
Vkernel-arch
p1450
Vs390
p1451
sVfeaturesets
p1452
(lp1453
ss(Vbase
p1454
Vs390x
p1455
tp1456
(dp1457
Vdefault-flavour
p1458
Vs390x
p1459
sVkernel-arch
p1460
Vs390
p1461
sg189
(lp1462
g191
ass(Vbuild
p1463
g1455
tp1464
(dp1465
Vimage-file
p1466
Varch/s390/boot/bzImage
p1467
sVvdso
p1468
I01
ss(Vimage
p1469
g1455
tp1470
(dp1471
Vbootloaders
p1472
(lp1473
Vs390-tools
p1474
asVinstall-stem
p1475
Vvmlinuz
p1476
ss(Vrelations
p1477
g1455
tp1478
(dp1479
Vheaders%gcc-10
p1480
Vlinux-compiler-gcc-10-s390
p1481
ss(Vdescription
p1482
g1455
NVs390x
p1483
tp1484
(dp1485
Vhardware
p1486
VIBM zSeries
p1487
ss(g222
g1455
g191
tp1488
(dp1489
g225
(lp1490
Vs390x
p1491
asg229
I01
ss(Vbase
p1492
Vsh3
p1493
tp1494
(dp1495
Vkernel-arch
p1496
Vsh
p1497
sVfeaturesets
p1498
(lp1499
ss(Vbase
p1500
Vsh4
p1501
tp1502
(dp1503
Vkernel-arch
p1504
Vsh
p1505
sg189
(lp1506
g191
ass(Vbuild
p1507
g1501
tp1508
(dp1509
Vimage-file
p1510
Varch/sh/boot/zImage
p1511
ss(Vimage
p1512
g1501
tp1513
(dp1514
Vinstall-stem
p1515
Vvmlinuz
p1516
ss(Vdescription
p1517
g1501
NVsh7751r
p1518
tp1519
(dp1520
Vhardware
p1521
Vsh7751r
p1522
sVhardware-long
p1523
VRenesas SH7751R R2D plus board
p1524
ss(Vdescription
p1525
g1501
NVsh7785lcr
p1526
tp1527
(dp1528
Vhardware
p1529
Vsh7785lcr
p1530
sVhardware-long
p1531
VRenesas SH7785 reference board
p1532
ss(Vimage
p1533
g1501
NVsh7785lcr
p1534
tp1535
(dp1536
Vrecommends
p1537
(lp1538
Vu-boot-tools
p1539
asVcheck-size
p1540
I4194304
ss(g222
g1501
g191
tp1541
(dp1542
g225
(lp1543
Vsh7751r
p1544
aVsh7785lcr
p1545
asg229
I01
ss(Vbase
p1546
Vsparc
p1547
tp1548
(dp1549
Vkernel-arch
p1550
Vsparc
p1551
sVfeaturesets
p1552
(lp1553
ss(Vbase
p1554
Vsparc64
p1555
tp1556
(dp1557
Vdefault-flavour
p1558
Vsparc64-smp
p1559
sVkernel-arch
p1560
Vsparc
p1561
sg189
(lp1562
g191
ass(Vbuild
p1563
g1555
tp1564
(dp1565
Vimage-file
p1566
Vvmlinux
p1567
ss(Vimage
p1568
g1555
tp1569
(dp1570
Vconfigs
p1571
(lp1572
sVbootloaders
p1573
(lp1574
Vgrub-ieee1275
p1575
asVsuggests
p1576
(lp1577
Vfdutils
p1578
asVinstall-stem
p1579
Vvmlinux
p1580
ss(Vdescription
p1581
g1555
NVsparc64
p1582
tp1583
(dp1584
Vhardware
p1585
Vuniprocessor 64-bit UltraSPARC
p1586
ss(Vimage
p1587
g1555
NVsparc64
p1588
tp1589
(dp1590
Vconfigs
p1591
(lp1592
Vkernelarch-sparc/config-up
p1593
ass(Vdescription
p1594
g1555
NVsparc64-smp
p1595
tp1596
(dp1597
Vhardware
p1598
Vmultiprocessor 64-bit UltraSPARC
p1599
ss(Vimage
p1600
g1555
NVsparc64-smp
p1601
tp1602
(dp1603
Vconfigs
p1604
(lp1605
Vkernelarch-sparc/config-smp
p1606
ass(g222
g1555
g191
tp1607
(dp1608
g225
(lp1609
Vsparc64
p1610
aVsparc64-smp
p1611
asg229
I01
ss(Vbase
p1612
Vx32
p1613
tp1614
(dp1615
Vkernel-arch
p1616
Vx86
p1617
sVfeaturesets
p1618
(lp1619
ss(Vabi
p1620
NVrt
p1621
tp1622
(dp1623
Vignore-changes
p1624
(lp1625
V*
p1626
ass(Vdescription
p1627
Ng1621
tp1628
(dp1629
Vpart-long-rt
p1630
VThis kernel includes the PREEMPT_RT realtime patch set.
p1631
sVpart-short-rt
p1632
VPREEMPT_RT
p1633
sVparts
p1634
(lp1635
Vrt
p1636
ass(Vversion
p1637
tp1638
(dp1639
Vsource
p1640
V5.10.209-2
p1641
sVupstream
p1642
V5.10
p1643
sVabiname_base
p1644
V5.10.0
p1645
sVabiname
p1646
V5.10.0-28
p1647
ss.