ccopy_reg
_reconstructor
p0
(cdebian_linux.config
ConfigCore
p1
c__builtin__
dict
p2
(dp3
(S'image'
p4
S'amd64'
p5
tp6
(dp7
S'install-stem'
p8
S'vmlinuz'
p9
sS'configs'
p10
(lp11
sS'bootloaders'
p12
(lp13
S'grub-pc'
p14
aS'grub-efi'
p15
aS'extlinux'
p16
ass(S'image'
p17
S'mips64el'
p18
NS'5kc-malta'
p19
tp20
(dp21
S'configs'
p22
(lp23
S'kernelarch-mips/config.5kc-malta'
p24
ass(S'description'
p25
S'mips64'
p26
NS'sb1-bcm91250a'
p27
tp28
(dp29
S'hardware'
p30
S'BCM91250A'
p31
sS'hardware-long'
p32
S'Broadcom BCM91250A systems (aka SWARM)'
p33
ss(S'description'
p34
S'sh4'
p35
NS'sh7751r'
p36
tp37
(dp38
S'hardware'
p39
S'sh7751r'
p40
sS'hardware-long'
p41
S'Renesas SH7751R R2D plus board'
p42
ss(S'base'
p43
g5
S'none'
p44
tp45
(dp46
S'flavours'
p47
(lp48
S'amd64'
p49
ass(S'abi'
p50
S'armel'
p51
NS'ixp4xx'
p52
tp53
(dp54
S'ignore-changes'
p55
(lp56
S'__ring_buffer_alloc'
p57
aS'dcookie_register'
p58
aS'dcookie_unregister'
p59
aS'get_dcookie'
p60
aS'prof_on'
p61
aS'profile_event_register'
p62
aS'profile_event_unregister'
p63
aS'profile_hits'
p64
aS'ring_buffer_alloc_read_page'
p65
aS'ring_buffer_bytes_cpu'
p66
aS'ring_buffer_change_overwrite'
p67
aS'ring_buffer_commit_overrun_cpu'
p68
aS'ring_buffer_consume'
p69
aS'ring_buffer_discard_commit'
p70
aS'ring_buffer_dropped_events_cpu'
p71
aS'ring_buffer_empty'
p72
aS'ring_buffer_empty_cpu'
p73
aS'ring_buffer_entries'
p74
aS'ring_buffer_entries_cpu'
p75
aS'ring_buffer_event_data'
p76
aS'ring_buffer_event_length'
p77
aS'ring_buffer_free'
p78
aS'ring_buffer_free_read_page'
p79
aS'ring_buffer_iter_empty'
p80
aS'ring_buffer_iter_peek'
p81
aS'ring_buffer_iter_reset'
p82
aS'ring_buffer_lock_reserve'
p83
aS'ring_buffer_normalize_time_stamp'
p84
aS'ring_buffer_oldest_event_ts'
p85
aS'ring_buffer_overrun_cpu'
p86
aS'ring_buffer_overruns'
p87
aS'ring_buffer_peek'
p88
aS'ring_buffer_read'
p89
aS'ring_buffer_read_events_cpu'
p90
aS'ring_buffer_read_finish'
p91
aS'ring_buffer_read_page'
p92
aS'ring_buffer_read_prepare'
p93
aS'ring_buffer_read_prepare_sync'
p94
aS'ring_buffer_read_start'
p95
aS'ring_buffer_record_disable'
p96
aS'ring_buffer_record_disable_cpu'
p97
aS'ring_buffer_record_enable'
p98
aS'ring_buffer_record_enable_cpu'
p99
aS'ring_buffer_record_off'
p100
aS'ring_buffer_record_on'
p101
aS'ring_buffer_reset'
p102
aS'ring_buffer_reset_cpu'
p103
aS'ring_buffer_resize'
p104
aS'ring_buffer_size'
p105
aS'ring_buffer_swap_cpu'
p106
aS'ring_buffer_time_stamp'
p107
aS'ring_buffer_unlock_commit'
p108
aS'ring_buffer_write'
p109
aS'task_handoff_register'
p110
aS'task_handoff_unregister'
p111
aS'trace_clock_local'
p112
ass(S'image'
p113
S'mips'
p114
NS'4kc-malta'
p115
tp116
(dp117
S'configs'
p118
(lp119
S'kernelarch-mips/config.4kc-malta'
p120
ass(S'image'
p121
g114
NS'octeon'
p122
tp123
(dp124
S'configs'
p125
(lp126
S'kernelarch-mips/config.octeon'
p127
ass(S'image'
p128
S'ia64'
p129
tp130
(dp131
S'suggests'
p132
S'fdutils'
p133
sS'bootloaders'
p134
(lp135
S'elilo'
p136
asS'install-stem'
p137
S'vmlinuz'
p138
ss(S'abi'
p139
NS'rt'
p140
tp141
(dp142
S'ignore-changes'
p143
(lp144
S'*'
p145
ass(S'image'
p146
S'i386'
p147
NS'586'
p148
tp149
(dp150
S'configs'
p151
(lp152
S'kernelarch-x86/config-arch-32'
p153
aS'i386/config.586'
p154
ass(S'description'
p155
S'arm64'
p156
NS'arm64'
p157
tp158
(dp159
S'hardware'
p160
S'64-bit ARMv8 machines'
p161
ss(S'version'
p162
tp163
(dp164
S'abiname'
p165
S'3.16.0-8'
p166
sS'source'
p167
V3.16.64-2
p168
sS'abiname_base'
p169
S'3.16.0'
p170
sS'upstream'
p171
S'3.16'
p172
ss(S'description'
p173
S'powerpc'
p174
NS'powerpc-smp'
p175
tp176
(dp177
S'hardware'
p178
S'multiprocessor 32-bit PowerPC'
p179
ss(S'description'
p180
g5
g44
S'amd64'
p181
tp182
(dp183
S'parts'
p184
(lp185
S'xen'
p186
ass(S'description'
p187
g26
NS'5kc-malta'
p188
tp189
(dp190
S'hardware'
p191
S'MIPS Malta'
p192
sS'hardware-long'
p193
S'MIPS Malta boards'
p194
ss(S'base'
p195
S'ppc64'
p196
S'none'
p197
tp198
(dp199
S'implicit-flavour'
p200
I01
sS'flavours'
p201
(lp202
S'powerpc64'
p203
ass(S'description'
p204
S'hppa'
p205
NS'parisc'
p206
tp207
(dp208
S'hardware'
p209
S'32-bit PA-RISC'
p210
sS'hardware-long'
p211
S'HP PA-RISC 32-bit systems with max 4 GB RAM'
p212
ss(S'description'
p213
g114
NS'r4k-ip22'
p214
tp215
(dp216
S'hardware'
p217
S'SGI IP22'
p218
sS'hardware-long'
p219
S'SGI IP22 systems (Indy, Indigo2)'
p220
ss(S'image'
p221
g35
NS'sh7785lcr'
p222
tp223
(dp224
S'check-size'
p225
S'4194304'
p226
sS'recommends'
p227
S'u-boot-tools'
p228
ss(S'description'
p229
g147
S'none'
p230
S'amd64'
p231
tp232
(dp233
S'parts'
p234
(lp235
S'xen'
p236
ass(S'description'
p237
g174
NS'powerpc'
p238
tp239
(dp240
S'hardware'
p241
S'uniprocessor 32-bit PowerPC'
p242
ss(S'base'
p243
S'alpha'
p244
tp245
(dp246
S'kernel-arch'
p247
S'alpha'
p248
sS'featuresets'
p249
(lp250
g197
ass(S'description'
p251
g114
NS'5kc-malta'
p252
tp253
(dp254
S'hardware'
p255
S'MIPS Malta (64-bit)'
p256
sS'hardware-long'
p257
S'MIPS Malta boards (64-bit)'
p258
ss(S'image'
p259
g26
NS'octeon'
p260
tp261
(dp262
S'configs'
p263
(lp264
S'kernelarch-mips/config.octeon'
p265
ass(g195
S'armhf'
p266
g197
tp267
(dp268
g200
I01
sg201
(lp269
S'armmp'
p270
aS'armmp-lpae'
p271
ass(S'image'
p272
g156
NS'arm64'
p273
tp274
(dp275
s(S'base'
p276
g147
S'rt'
p277
tp278
(dp279
S'flavours'
p280
(lp281
S'686-pae'
p282
ass(S'description'
p283
S'mipsel'
p284
NS'sb1-bcm91250a'
p285
tp286
(dp287
S'hardware'
p288
S'BCM91250A'
p289
sS'hardware-long'
p290
S'Broadcom BCM91250A systems (aka SWARM)'
p291
ss(S'image'
p292
g284
NS'loongson-3'
p293
tp294
(dp295
S'configs'
p296
(lp297
S'kernelarch-mips/config.loongson-3'
p298
ass(S'relations'
p299
g147
tp300
(dp301
S'headers%gcc-4.9'
p302
S'linux-compiler-gcc-4.9-x86 (>= 3.16.51-3+deb8u2~), linux-kbuild-3.16 (>= 3.16.56-1)'
p303
ss(S'image'
p304
g284
NS'4kc-malta'
p305
tp306
(dp307
S'configs'
p308
(lp309
S'kernelarch-mips/config.4kc-malta'
p310
ass(S'description'
p311
g284
NS'loongson-3'
p312
tp313
(dp314
S'hardware'
p315
S'Loongson 3A/3B'
p316
sS'hardware-long'
p317
S'Loongson 3A or 3B based systems (e.g. from Loongson or Lemote)'
p318
ss(S'image'
p319
g174
tp320
(dp321
S'suggests'
p322
S'mkvmlinuz'
p323
sS'configs'
p324
(lp325
sS'install-stem'
p326
S'vmlinux'
p327
ss(S'description'
p328
g244
NS'alpha-generic'
p329
tp330
(dp331
S'hardware'
p332
S'Alpha'
p333
sS'hardware-long'
p334
S'DEC Alpha systems with extended kernel start address (Wildfire, Titan, Marvel)'
p335
ss(S'description'
p336
S'sparc64'
p337
NS'sparc64'
p338
tp339
(dp340
S'hardware'
p341
S'uniprocessor 64-bit UltraSPARC'
p342
ss(S'base'
p343
g5
S'rt'
p344
tp345
(dp346
S'flavours'
p347
(lp348
S'amd64'
p349
ass(S'build'
p350
S'ppc64el'
p351
tp352
(dp353
S'image-file'
p354
S'vmlinux'
p355
ss(S'build'
p356
g196
tp357
(dp358
S'image-file'
p359
S'vmlinux'
p360
ss(S'abi'
p361
g51
NS'kirkwood'
p362
tp363
(dp364
S'ignore-changes'
p365
(lp366
S'zs_create_pool'
p367
aS'zs_destroy_pool'
p368
aS'zs_free'
p369
aS'zs_get_total_size_bytes'
p370
aS'zs_malloc'
p371
aS'zs_map_object'
p372
aS'zs_unmap_object'
p373
aS'fips_enabled'
p374
aS'dcookie_register'
p375
aS'dcookie_unregister'
p376
aS'get_dcookie'
p377
aS'prof_on'
p378
aS'profile_event_register'
p379
aS'profile_event_unregister'
p380
aS'profile_hits'
p381
aS'ring_buffer_swap_cpu'
p382
aS'task_handoff_register'
p383
aS'task_handoff_unregister'
p384
aS'disable_kprobe'
p385
aS'enable_kprobe'
p386
aS'jprobe_return'
p387
aS'profile_hits'
p388
aS'register_jprobe'
p389
aS'register_jprobes'
p390
aS'register_kprobe'
p391
aS'register_kprobes'
p392
aS'register_kretprobe'
p393
aS'register_kretprobes'
p394
aS'unregister_jprobe'
p395
aS'unregister_jprobes'
p396
aS'unregister_kprobe'
p397
aS'unregister_kprobes'
p398
aS'unregister_kretprobe'
p399
aS'unregister_kretprobes'
p400
ass(S'description'
p401
g114
NS'octeon'
p402
tp403
(dp404
S'hardware'
p405
S'Octeon'
p406
sS'hardware-long'
p407
S'Cavium Networks Octeon'
p408
ss(S'base'
p409
g156
tp410
(dp411
S'kernel-arch'
p412
S'arm64'
p413
sS'featuresets'
p414
(lp415
S'none'
p416
ass(S'image'
p417
g51
NS'orion5x'
p418
tp419
(dp420
S'check-size'
p421
S'1572792'
p422
sS'configs'
p423
(lp424
S'armel/config-reduced'
p425
aS'armel/config.orion5x'
p426
asS'recommends'
p427
S'u-boot-tools'
p428
ss(S'base'
p429
g147
tp430
(dp431
S'kernel-arch'
p432
S'x86'
p433
sS'featuresets'
p434
(lp435
S'none'
p436
aS'rt'
p437
asS'compiler'
p438
S'gcc-4.9'
p439
ss(S'description'
p440
g51
NS'ixp4xx'
p441
tp442
(dp443
S'hardware'
p444
S'IXP4xx'
p445
sS'hardware-long'
p446
S'IXP4xx based systems (Linksys NSLU2, etc)'
p447
ss(S'base'
p448
g284
tp449
(dp450
S'kernel-arch'
p451
S'mips'
p452
sg249
(lp453
g197
ass(S'relations'
p454
g5
tp455
(dp456
S'headers%gcc-4.9'
p457
S'linux-compiler-gcc-4.9-x86 (>= 3.16.51-3+deb8u2~), linux-kbuild-3.16 (>= 3.16.56-1)'
p458
ss(S'description'
p459
S's390'
p460
NS's390x'
p461
tp462
(dp463
S'hardware'
p464
S'IBM zSeries'
p465
ss(S'image'
p466
g266
NS'armmp-lpae'
p467
tp468
(dp469
S'configs'
p470
(lp471
S'armhf/config.armmp'
p472
aS'armhf/config.lpae'
p473
ass(S'relations'
p474
g460
tp475
(dp476
S'headers%gcc-4.8'
p477
S'linux-compiler-gcc-4.8-s390'
p478
ss(g195
g284
g197
tp479
(dp480
g200
I01
sg201
(lp481
S'sb1-bcm91250a'
p482
aS'4kc-malta'
p483
aS'5kc-malta'
p484
aS'loongson-2e'
p485
aS'loongson-2f'
p486
aS'loongson-3'
p487
ass(S'image'
p488
g147
NS'686-pae'
p489
tp490
(dp491
S'configs'
p492
(lp493
S'kernelarch-x86/config-arch-32'
p494
aS'i386/config.686-pae'
p495
asS'recommends'
p496
S'libc6-i686'
p497
ss(S'description'
p498
S'powerpcspe'
p499
tp500
(dp501
S'hardware'
p502
S'32-bit PowerPC with SPE (instead of AltiVec) with SMP support'
p503
ss(S'relations'
p504
tp505
(dp506
S'gcc-4.9'
p507
S'gcc-4.9 (>= 4.9.2-10+deb7u1), gcc-4.9 (<< 4.9.2-11)'
p508
sS'gcc-4.8'
p509
S'gcc-4.8'
p510
sS'initramfs-fallback'
p511
S'linux-initramfs-tool'
p512
sS'gcc-4.7'
p513
S'gcc-4.7'
p514
sS'gcc-4.6'
p515
S'gcc-4.6'
p516
sS'gcc-4.4'
p517
S'gcc-4.4'
p518
sS'initramfs-tools'
p519
S'initramfs-tools (>= 0.110~)'
p520
ss(S'image'
p521
g284
NS'loongson-2f'
p522
tp523
(dp524
S'configs'
p525
(lp526
S'kernelarch-mips/config.loongson-2f'
p527
asS'recommends'
p528
S'libc6-loongson2f'
p529
ss(S'description'
p530
g266
NS'armmp'
p531
tp532
(dp533
S'hardware'
p534
S'ARMv7 multiplatform compatible SoCs'
p535
sS'hardware-long'
p536
S'ARMv7 multiplatform kernel. See\nhttps://wiki.debian.org/DebianKernel/ARMMP for details of supported\nplatforms'
p537
ss(S'build'
p538
g460
tp539
(dp540
S'image-file'
p541
S'arch/s390/boot/image'
p542
ss(S'description'
p543
g26
NS'octeon'
p544
tp545
(dp546
S'hardware'
p547
S'Octeon'
p548
sS'hardware-long'
p549
S'Cavium Networks Octeon'
p550
ss(S'image'
p551
S'sparc'
p552
NS'sparc64-smp'
p553
tp554
(dp555
S'configs'
p556
(lp557
S'kernelarch-sparc/config-smp'
p558
ass(S'build'
p559
g499
tp560
(dp561
S'image-file'
p562
S'vmlinux'
p563
ss(S'description'
p564
g51
NS'versatile'
p565
tp566
(dp567
S'hardware'
p568
S'Versatile'
p569
sS'hardware-long'
p570
S'Versatile systems (PB, AB, Qemu)'
p571
ss(S'build'
p572
g205
tp573
(dp574
S'image-file'
p575
S'vmlinux'
p576
ss(S'image'
p577
g244
tp578
(dp579
S'suggests'
p580
S'aboot, fdutils'
p581
sS'install-stem'
p582
S'vmlinuz'
p583
ss(S'description'
p584
g147
NS'586'
p585
tp586
(dp587
S'hardware'
p588
S'older PCs'
p589
sS'parts'
p590
(lp591
S'up'
p592
asS'hardware-long'
p593
S'PCs with a single processor not supporting PAE'
p594
ss(S'description'
p595
g337
NS'sparc64-smp'
p596
tp597
(dp598
S'hardware'
p599
S'multiprocessor 64-bit UltraSPARC'
p600
ss(S'description'
p601
g244
NS'alpha-smp'
p602
tp603
(dp604
S'hardware'
p605
S'Alpha SMP'
p606
sS'hardware-long'
p607
S'DEC Alpha SMP systems with extended kernel start address (Wildfire, Titan, Marvel)'
p608
ss(S'base'
p609
g51
tp610
(dp611
S'kernel-arch'
p612
S'arm'
p613
sg249
(lp614
g197
ass(S'description'
p615
g18
NS'sb1-bcm91250a'
p616
tp617
(dp618
S'hardware'
p619
S'BCM91250A'
p620
sS'hardware-long'
p621
S'Broadcom BCM91250A systems (aka SWARM)'
p622
ss(S'build'
p623
g156
tp624
(dp625
S'debug-info'
p626
I01
sS'image-file'
p627
S'arch/arm64/boot/Image'
p628
ss(S'image'
p629
g196
NS'powerpc64'
p630
tp631
(dp632
S'configs'
p633
(lp634
S'kernelarch-powerpc/config-arch-64'
p635
aS'kernelarch-powerpc/config-arch-64-be'
p636
ass(S'build'
p637
g460
NS's390x'
p638
tp639
(dp640
S'debug-info'
p641
I01
ss(S'description'
p642
g205
NS'parisc64-smp'
p643
tp644
(dp645
S'hardware'
p646
S'multiprocessor 64-bit PA-RISC'
p647
sS'hardware-long'
p648
S'HP PA-RISC 64-bit SMP systems with support for more than 4 GB RAM'
p649
ss(S'base'
p650
g499
tp651
(dp652
S'kernel-arch'
p653
S'powerpc'
p654
sg249
(lp655
g197
ass(S'build'
p656
g147
NS'686-pae'
p657
tp658
(dp659
S'debug-info'
p660
I01
ss(g195
g174
g197
tp661
(dp662
g200
I01
sg201
(lp663
S'powerpc'
p664
aS'powerpc-smp'
p665
aS'powerpc64'
p666
ass(S'description'
p667
g129
NS'itanium'
p668
tp669
(dp670
S'hardware'
p671
S'Itanium'
p672
ss(g195
g460
g197
tp673
(dp674
g200
I01
sg201
(lp675
S's390x'
p676
ass(g195
S's390x'
p677
g197
tp678
(dp679
g200
I01
sg201
(lp680
S's390x'
p681
ass(S'base'
p682
g114
tp683
(dp684
S'kernel-arch'
p685
S'mips'
p686
sg249
(lp687
g197
ass(S'build'
p688
g5
tp689
(dp690
S'debug-info'
p691
I01
sS'image-file'
p692
S'arch/x86/boot/bzImage'
p693
ss(S'description'
p694
g18
NS'5kc-malta'
p695
tp696
(dp697
S'hardware'
p698
S'MIPS Malta'
p699
sS'hardware-long'
p700
S'MIPS Malta boards'
p701
ss(S'base'
p702
g205
NS'parisc64-smp'
p703
tp704
(dp705
S'override-host-type'
p706
S'hppa64-linux-gnu'
p707
sS'cflags'
p708
S'-fno-cse-follow-jumps'
p709
ss(S'image'
p710
g351
NS'powerpc64le'
p711
tp712
(dp713
S'configs'
p714
(lp715
S'kernelarch-powerpc/config-arch-64'
p716
aS'kernelarch-powerpc/config-arch-64-le'
p717
ass(S'build'
p718
g552
tp719
(dp720
S'image-file'
p721
S'arch/sparc/boot/zImage'
p722
ss(S'image'
p723
g284
tp724
(dp725
S'install-stem'
p726
S'vmlinux'
p727
ss(S'description'
p728
g552
NS'sparc64-smp'
p729
tp730
(dp731
S'hardware'
p732
S'multiprocessor 64-bit UltraSPARC'
p733
ss(S'build'
p734
g174
tp735
(dp736
S'image-file'
p737
S'vmlinux'
p738
ss(S'description'
p739
g18
NS'loongson-3'
p740
tp741
(dp742
S'hardware'
p743
S'Loongson 3A/3B'
p744
sS'hardware-long'
p745
S'Loongson 3A or 3B based systems (e.g. from Loongson or Lemote)'
p746
ss(S'build'
p747
g284
tp748
(dp749
S'image-file'
p750
S'vmlinux'
p751
ss(S'base'
p752
g26
tp753
(dp754
S'kernel-arch'
p755
S'mips'
p756
sg249
(lp757
g197
ass(S'base'
p758
g677
tp759
(dp760
S'kernel-arch'
p761
S's390'
p762
sg249
(lp763
g197
ass(S'base'
p764
g5
tp765
(dp766
S'kernel-arch'
p767
S'x86'
p768
sS'featuresets'
p769
(lp770
S'none'
p771
aS'rt'
p772
asS'compiler'
p773
S'gcc-4.9'
p774
ss(S'base'
p775
g129
tp776
(dp777
S'kernel-arch'
p778
S'ia64'
p779
sg249
(lp780
g197
asS'compiler'
p781
S'gcc-4.6'
p782
ss(S'image'
p783
g284
NS'5kc-malta'
p784
tp785
(dp786
S'configs'
p787
(lp788
S'kernelarch-mips/config.5kc-malta'
p789
ass(S'image'
p790
g51
NS'ixp4xx'
p791
tp792
(dp793
S'check-size'
p794
S'1441760'
p795
sS'configs'
p796
(lp797
S'armel/config-reduced'
p798
aS'armel/config.ixp4xx'
p799
ass(S'base'
p800
g460
tp801
(dp802
S'kernel-arch'
p803
S's390'
p804
sg249
(lp805
g197
ass(g195
g51
g197
tp806
(dp807
g200
I01
sg201
(lp808
S'ixp4xx'
p809
aS'kirkwood'
p810
aS'orion5x'
p811
aS'versatile'
p812
ass(S'description'
p813
g129
NS'mckinley'
p814
tp815
(dp816
S'hardware'
p817
S'Itanium II'
p818
ss(S'description'
p819
g284
NS'5kc-malta'
p820
tp821
(dp822
S'hardware'
p823
S'MIPS Malta (64-bit)'
p824
sS'hardware-long'
p825
S'MIPS Malta boards (64-bit)'
p826
ss(S'description'
p827
g147
tp828
(dp829
S'part-long-pae'
p830
S'This kernel requires PAE (Physical Address Extension).\nThis feature is supported by the Intel Pentium Pro/II/III/4/4M/D, Xeon,\nCore and Atom; AMD Geode NX, Athlon (K7), Duron, Opteron, Sempron,\nTurion or Phenom; Transmeta Efficeon; VIA C7; and some other processors.'
p831
ss(S'build'
p832
g18
tp833
(dp834
S'image-file'
p835
S'vmlinux'
p836
ss(S'xen'
p837
g5
g44
S'amd64'
p838
tp839
(dp840
S'flavours'
p841
(lp842
S'amd64'
p843
ass(S'image'
p844
g51
tp845
(dp846
S'suggests'
p847
S'fdutils'
p848
sS'configs'
p849
(lp850
S'kernelarch-arm/config'
p851
aS'armel/config'
p852
asS'install-stem'
p853
S'vmlinuz'
p854
ss(S'image'
p855
g460
tp856
(dp857
S'install-stem'
p858
S'vmlinuz'
p859
sS'configs'
p860
(lp861
sS'bootloaders'
p862
(lp863
S's390-tools'
p864
ass(S'relations'
p865
g51
tp866
(dp867
S'headers%gcc-4.8'
p868
S'linux-compiler-gcc-4.8-arm'
p869
ss(S'image'
p870
g205
tp871
(dp872
S'suggests'
p873
S'palo'
p874
sS'install-stem'
p875
S'vmlinux'
p876
ss(S'image'
p877
g174
NS'powerpc64'
p878
tp879
(dp880
S'configs'
p881
(lp882
S'kernelarch-powerpc/config-arch-64'
p883
aS'kernelarch-powerpc/config-arch-64-be'
p884
ass(g195
g26
g197
tp885
(dp886
g200
I01
sg201
(lp887
S'sb1-bcm91250a'
p888
aS'5kc-malta'
p889
aS'octeon'
p890
ass(S'relations'
p891
g205
tp892
(dp893
S'gcc-4.8'
p894
S'gcc-4.8, binutils-hppa64, gcc-4.8-hppa64'
p895
ss(S'description'
p896
g147
NS'amd64'
p897
tp898
(dp899
S'hardware'
p900
S'64-bit PCs'
p901
sS'parts'
p902
(lp903
S'xen'
p904
asS'hardware-long'
p905
S'PCs with AMD64, Intel 64 or VIA Nano processors'
p906
ss(S'image'
p907
g114
NS'r4k-ip22'
p908
tp909
(dp910
S'configs'
p911
(lp912
S'kernelarch-mips/config.r4k-ip22'
p913
ass(S'image'
p914
g337
NS'sparc64-smp'
p915
tp916
(dp917
S'configs'
p918
(lp919
S'kernelarch-sparc/config-smp'
p920
ass(S'description'
p921
g351
NS'powerpc64le'
p922
tp923
(dp924
S'hardware'
p925
S'Little-endian 64-bit PowerPC'
p926
ss(S'description'
p927
g114
NS'sb1-bcm91250a'
p928
tp929
(dp930
S'hardware'
p931
S'BCM91250A'
p932
sS'hardware-long'
p933
S'Broadcom BCM91250A systems (aka SWARM)'
p934
ss(S'description'
p935
g552
NS'sparc64'
p936
tp937
(dp938
S'hardware'
p939
S'uniprocessor 64-bit UltraSPARC'
p940
ss(S'image'
p941
g51
NS'kirkwood'
p942
tp943
(dp944
S'check-size'
p945
S'2097080'
p946
sS'breaks'
p947
S'flash-kernel (<< 3.14~)'
p948
sS'recommends'
p949
S'u-boot-tools'
p950
ss(g195
g205
g197
tp951
(dp952
g200
I01
sg201
(lp953
S'parisc'
p954
aS'parisc64-smp'
p955
ass(S'description'
p956
S'm68k'
p957
NS'm68k'
p958
tp959
(dp960
S'hardware'
p961
S'Motorola MC68020+ family'
p962
ss(S'image'
p963
g174
NS'powerpc-smp'
p964
tp965
(dp966
S'configs'
p967
(lp968
S'powerpc/config.powerpc'
p969
aS'powerpc/config.powerpc-smp'
p970
ass(S'base'
p971
g337
tp972
(dp973
S'kernel-arch'
p974
S'sparc'
p975
sg249
(lp976
g197
ass(S'image'
p977
g26
NS'5kc-malta'
p978
tp979
(dp980
S'configs'
p981
(lp982
S'kernelarch-mips/config.5kc-malta'
p983
ass(S'base'
p984
S'or1k'
p985
tp986
(dp987
S'kernel-arch'
p988
S'openrisc'
p989
sS'featuresets'
p990
(lp991
ss(S'description'
p992
g35
NS'sh7785lcr'
p993
tp994
(dp995
S'hardware'
p996
S'sh7785lcr'
p997
sS'hardware-long'
p998
S'Renesas SH7785 reference board'
p999
ss(S'image'
p1000
g114
tp1001
(dp1002
S'install-stem'
p1003
S'vmlinux'
p1004
ss(g195
g18
g197
tp1005
(dp1006
g200
I01
sg201
(lp1007
S'sb1-bcm91250a'
p1008
aS'5kc-malta'
p1009
aS'loongson-3'
p1010
aS'octeon'
p1011
ass(S'image'
p1012
g18
NS'sb1-bcm91250a'
p1013
tp1014
(dp1015
S'configs'
p1016
(lp1017
S'kernelarch-mips/config.sb1-bcm91250a'
p1018
ass(S'image'
p1019
g196
tp1020
(dp1021
S'suggests'
p1022
S'mkvmlinuz'
p1023
sS'configs'
p1024
(lp1025
sS'install-stem'
p1026
S'vmlinux'
p1027
ss(S'image'
p1028
g552
NS'sparc32'
p1029
tp1030
(dp1031
S'image-postproc'
p1032
S'sparc32-image-postproc'
p1033
ss(S'image'
p1034
g147
tp1035
(dp1036
S'install-stem'
p1037
S'vmlinuz'
p1038
sS'configs'
p1039
(lp1040
sS'bootloaders'
p1041
(lp1042
S'grub-pc'
p1043
aS'extlinux'
p1044
ass(S'abi'
p1045
g51
NS'orion5x'
p1046
tp1047
(dp1048
S'ignore-changes'
p1049
(lp1050
S'__ring_buffer_alloc'
p1051
aS'dcookie_register'
p1052
aS'dcookie_unregister'
p1053
aS'get_dcookie'
p1054
aS'prof_on'
p1055
aS'profile_event_register'
p1056
aS'profile_event_unregister'
p1057
aS'profile_hits'
p1058
aS'ring_buffer_alloc_read_page'
p1059
aS'ring_buffer_bytes_cpu'
p1060
aS'ring_buffer_change_overwrite'
p1061
aS'ring_buffer_commit_overrun_cpu'
p1062
aS'ring_buffer_consume'
p1063
aS'ring_buffer_discard_commit'
p1064
aS'ring_buffer_dropped_events_cpu'
p1065
aS'ring_buffer_empty'
p1066
aS'ring_buffer_empty_cpu'
p1067
aS'ring_buffer_entries'
p1068
aS'ring_buffer_entries_cpu'
p1069
aS'ring_buffer_event_data'
p1070
aS'ring_buffer_event_length'
p1071
aS'ring_buffer_free'
p1072
aS'ring_buffer_free_read_page'
p1073
aS'ring_buffer_iter_empty'
p1074
aS'ring_buffer_iter_peek'
p1075
aS'ring_buffer_iter_reset'
p1076
aS'ring_buffer_lock_reserve'
p1077
aS'ring_buffer_normalize_time_stamp'
p1078
aS'ring_buffer_oldest_event_ts'
p1079
aS'ring_buffer_overrun_cpu'
p1080
aS'ring_buffer_overruns'
p1081
aS'ring_buffer_peek'
p1082
aS'ring_buffer_read'
p1083
aS'ring_buffer_read_events_cpu'
p1084
aS'ring_buffer_read_finish'
p1085
aS'ring_buffer_read_page'
p1086
aS'ring_buffer_read_prepare'
p1087
aS'ring_buffer_read_prepare_sync'
p1088
aS'ring_buffer_read_start'
p1089
aS'ring_buffer_record_disable'
p1090
aS'ring_buffer_record_disable_cpu'
p1091
aS'ring_buffer_record_enable'
p1092
aS'ring_buffer_record_enable_cpu'
p1093
aS'ring_buffer_record_off'
p1094
aS'ring_buffer_record_on'
p1095
aS'ring_buffer_reset'
p1096
aS'ring_buffer_reset_cpu'
p1097
aS'ring_buffer_resize'
p1098
aS'ring_buffer_size'
p1099
aS'ring_buffer_swap_cpu'
p1100
aS'ring_buffer_time_stamp'
p1101
aS'ring_buffer_unlock_commit'
p1102
aS'ring_buffer_write'
p1103
aS'task_handoff_register'
p1104
aS'task_handoff_unregister'
p1105
aS'trace_clock_local'
p1106
ass(g195
g552
g197
tp1107
(dp1108
g200
I01
sg201
(lp1109
S'sparc64'
p1110
aS'sparc64-smp'
p1111
ass(S'relations'
p1112
g174
tp1113
(dp1114
S'gcc-4.8'
p1115
S'gcc-4.8 (>= 4.8.2-21)'
p1116
ss(g195
g244
g197
tp1117
(dp1118
g200
I01
sg201
(lp1119
S'alpha-generic'
p1120
aS'alpha-smp'
p1121
ass(S'description'
p1122
g147
g230
S'686-pae'
p1123
tp1124
(dp1125
S'parts'
p1126
(lp1127
S'xen'
p1128
ass(S'base'
p1129
g196
tp1130
(dp1131
S'kernel-arch'
p1132
S'powerpc'
p1133
sg249
(lp1134
g197
ass(g195
g129
g197
tp1135
(dp1136
g200
I01
sg201
(lp1137
S'itanium'
p1138
aS'mckinley'
p1139
ass(S'base'
p1140
NS'rt'
p1141
tp1142
(dp1143
S'enabled'
p1144
I00
ss(S'description'
p1145
g5
NS'amd64'
p1146
tp1147
(dp1148
S'hardware'
p1149
S'64-bit PCs'
p1150
sS'hardware-long'
p1151
S'PCs with AMD64, Intel 64 or VIA Nano processors'
p1152
ss(S'build'
p1153
g677
tp1154
(dp1155
S'image-file'
p1156
S'arch/s390/boot/image'
p1157
ss(S'description'
p1158
g284
NS'loongson-2f'
p1159
tp1160
(dp1161
S'hardware'
p1162
S'Loongson 2F'
p1163
sS'hardware-long'
p1164
S'Lemote Loongson 2F systems'
p1165
ss(g195
g114
g197
tp1166
(dp1167
g200
I01
sg201
(lp1168
S'r4k-ip22'
p1169
aS'r5k-ip32'
p1170
aS'sb1-bcm91250a'
p1171
aS'4kc-malta'
p1172
aS'5kc-malta'
p1173
aS'octeon'
p1174
ass(S'build'
p1175
g244
tp1176
(dp1177
S'image-file'
p1178
S'arch/alpha/boot/vmlinux.gz'
p1179
ss(S'image'
p1180
g26
tp1181
(dp1182
S'install-stem'
p1183
S'vmlinux'
p1184
ss(g195
g35
g197
tp1185
(dp1186
g200
I01
sg201
(lp1187
S'sh7751r'
p1188
aS'sh7785lcr'
p1189
ass(S'base'
p1190
S'x32'
p1191
tp1192
(dp1193
S'kernel-arch'
p1194
S'x86'
p1195
sS'featuresets'
p1196
(lp1197
ss(S'build'
p1198
g35
tp1199
(dp1200
S'image-file'
p1201
S'arch/sh/boot/zImage'
p1202
ss(S'image'
p1203
g957
tp1204
(dp1205
S'suggests'
p1206
S'vmelilo, fdutils'
p1207
sS'install-stem'
p1208
S'vmlinuz'
p1209
ss(S'base'
p1210
g156
S'none'
p1211
tp1212
(dp1213
S'flavours'
p1214
(lp1215
S'arm64'
p1216
ass(S'description'
p1217
g114
NS'r5k-ip32'
p1218
tp1219
(dp1220
S'hardware'
p1221
S'SGI IP32'
p1222
sS'hardware-long'
p1223
S'SGI IP32 systems (O2)'
p1224
ss(S'build'
p1225
g26
tp1226
(dp1227
S'image-file'
p1228
S'vmlinux'
p1229
ss(S'build'
p1230
g129
tp1231
(dp1232
S'image-file'
p1233
S'vmlinux.gz'
p1234
ss(S'base'
p1235
g266
tp1236
(dp1237
S'kernel-arch'
p1238
S'arm'
p1239
sg249
(lp1240
g197
ass(S'description'
p1241
g147
NS'686-pae'
p1242
tp1243
(dp1244
S'hardware'
p1245
S'modern PCs'
p1246
sS'parts'
p1247
(lp1248
S'pae'
p1249
asS'hardware-long'
p1250
S'PCs with one or more processors supporting PAE'
p1251
ss(S'image'
p1252
g114
NS'r5k-ip32'
p1253
tp1254
(dp1255
S'configs'
p1256
(lp1257
S'kernelarch-mips/config.r5k-ip32'
p1258
ass(S'image'
p1259
g35
tp1260
(dp1261
S'suggests'
p1262
S'fdutils'
p1263
sS'install-stem'
p1264
S'vmlinuz'
p1265
ss(S'base'
p1266
g205
tp1267
(dp1268
S'kernel-arch'
p1269
S'parisc'
p1270
sg249
(lp1271
g197
ass(S'description'
p1272
g51
NS'kirkwood'
p1273
tp1274
(dp1275
S'hardware'
p1276
S'Marvell Kirkwood'
p1277
sS'hardware-long'
p1278
S'Marvell Kirkwood based systems (SheevaPlug, QNAP TS-119/TS-219, etc)'
p1279
ss(S'base'
p1280
g35
tp1281
(dp1282
S'kernel-arch'
p1283
S'sh'
p1284
sg249
(lp1285
g197
ass(S'image'
p1286
g552
tp1287
(dp1288
S'suggests'
p1289
S'silo, fdutils'
p1290
sS'configs'
p1291
(lp1292
sS'install-stem'
p1293
S'vmlinuz'
p1294
ss(S'description'
p1295
tp1296
(dp1297
S'part-long-up'
p1298
S'This kernel is not suitable for SMP (multi-processor,\nmulti-core or hyper-threaded) systems.'
p1299
sS'part-long-xen'
p1300
S'This kernel also runs on a Xen hypervisor.\nIt supports both privileged (dom0) and unprivileged (domU) operation.'
p1301
ss(S'build'
p1302
g337
tp1303
(dp1304
S'image-file'
p1305
S'arch/sparc/boot/zImage'
p1306
ss(S'relations'
p1307
g266
tp1308
(dp1309
S'headers%gcc-4.8'
p1310
S'linux-compiler-gcc-4.8-arm'
p1311
ss(S'description'
p1312
g174
NS'powerpc64'
p1313
tp1314
(dp1315
S'hardware'
p1316
S'64-bit PowerPC'
p1317
ss(S'image'
p1318
g677
NS's390x'
p1319
tp1320
(dp1321
S'configs'
p1322
(lp1323
S'kernelarch-s390/config-arch-64'
p1324
ass(S'image'
p1325
g18
NS'loongson-3'
p1326
tp1327
(dp1328
S'configs'
p1329
(lp1330
S'kernelarch-mips/config.loongson-3'
p1331
ass(S'build'
p1332
g114
tp1333
(dp1334
S'image-file'
p1335
S'vmlinux'
p1336
ss(S'relations'
p1337
g677
tp1338
(dp1339
S'headers%gcc-4.8'
p1340
S'linux-compiler-gcc-4.8-s390'
p1341
ss(S'base'
p1342
g174
tp1343
(dp1344
S'kernel-arch'
p1345
S'powerpc'
p1346
sg249
(lp1347
g197
ass(S'image'
p1348
g284
NS'sb1-bcm91250a'
p1349
tp1350
(dp1351
S'configs'
p1352
(lp1353
S'kernelarch-mips/config.sb1-bcm91250a'
p1354
ass(S'description'
p1355
g677
NS's390x'
p1356
tp1357
(dp1358
S'hardware'
p1359
S'IBM zSeries'
p1360
ss(S'description'
p1361
g284
NS'4kc-malta'
p1362
tp1363
(dp1364
S'hardware'
p1365
S'MIPS Malta'
p1366
sS'hardware-long'
p1367
S'MIPS Malta boards'
p1368
ss(S'image'
p1369
g114
NS'sb1-bcm91250a'
p1370
tp1371
(dp1372
S'configs'
p1373
(lp1374
S'kernelarch-mips/config.sb1-bcm91250a'
p1375
ass(S'image'
p1376
g351
tp1377
(dp1378
S'suggests'
p1379
S'mkvmlinuz'
p1380
sS'configs'
p1381
(lp1382
sS'install-stem'
p1383
S'vmlinux'
p1384
ss(S'description'
p1385
g18
NS'octeon'
p1386
tp1387
(dp1388
S'hardware'
p1389
S'Octeon'
p1390
sS'hardware-long'
p1391
S'Cavium Networks Octeon'
p1392
ss(S'image'
p1393
g499
tp1394
(dp1395
S'suggests'
p1396
S'mkvmlinuz'
p1397
sS'install-stem'
p1398
S'vmlinux'
p1399
ss(S'image'
p1400
g147
NS'amd64'
p1401
tp1402
(dp1403
S'configs'
p1404
(lp1405
S'kernelarch-x86/config-arch-64'
p1406
asS'recommends'
p1407
S'libc6-i686'
p1408
ss(S'image'
p1409
g266
tp1410
(dp1411
S'suggests'
p1412
S'fdutils'
p1413
sS'configs'
p1414
(lp1415
S'kernelarch-arm/config'
p1416
aS'armhf/config'
p1417
asS'install-stem'
p1418
S'vmlinuz'
p1419
ss(S'abi'
p1420
tp1421
(dp1422
S'abiname'
p1423
S'8'
p1424
sS'ignore-changes'
p1425
(lp1426
S'module:arch/x86/kvm/kvm'
p1427
aS'module:arch/powerpc/kvm/kvm'
p1428
aS'module:drivers/edac/edac_mce_amd'
p1429
aS'module:drivers/hid/hid-sensor-hub'
p1430
aS'module:drivers/iio/**'
p1431
aS'module:drivers/md/dm-snapshot'
p1432
aS'module:drivers/mmc/host/*'
p1433
aS'module:drivers/misc/mei/*'
p1434
aS'module:drivers/mtd/spi-nor/spi-nor'
p1435
aS'module:drivers/net/can/can-dev'
p1436
aS'module:drivers/net/ethernet/**'
p1437
aS'module:drivers/net/wireless/**'
p1438
aS'module:drivers/s390/net/qeth'
p1439
aS'module:drivers/s390/net/qeth*'
p1440
aS'module:drivers/scsi/cxgbi/*'
p1441
aS'module:drivers/scsi/libiscs*'
p1442
aS'module:drivers/scsi/qla2xxx/qla2xxx'
p1443
aS'module:drivers/staging/usbip/*'
p1444
aS'module:drivers/target/iscsi/iscsi_target_mod'
p1445
aS'module:drivers/target/target_core_mod'
p1446
aS'module:drivers/usb/musb/*'
p1447
aS'module:fs/nfs/nfs'
p1448
aS'module:fs/ocfs2/**'
p1449
aS'module:net/ceph/libceph'
p1450
aS'module:net/l2tp/*'
p1451
aS'module:net/rds/rds'
p1452
aS'module:net/vmw_vsock/*'
p1453
aS'module:sound/firewire/snd-firewire-lib'
p1454
aS'module:sound/i2c/other/snd-ak4113'
p1455
aS'module:sound/i2c/other/snd-ak4114'
p1456
aS'module:sound/pci/emu10k1/*'
p1457
aS'azx_alloc_cmd_io'
p1458
aS'azx_free_cmd_io'
p1459
aS'azx_get_response'
p1460
aS'azx_init_cmd_io'
p1461
aS'azx_send_cmd'
p1462
aS'can_rx_register'
p1463
aS'cfi_*'
p1464
aS'cpuidle_*'
p1465
aS'fuse_*'
p1466
aS'inet_add_protocol'
p1467
aS'inet_del_protocol'
p1468
aS'inet_frag_*'
p1469
aS'inet_frags_*'
p1470
aS'injectm'
p1471
aS'kvm_async_pf_task_wait'
p1472
aS'kvmppc_*'
p1473
aS'mtd_do_chip_probe'
p1474
aS'musb_*'
p1475
aS'nft_register_set'
p1476
aS'nft_unregister_set'
p1477
aS'perf_trace_*'
p1478
aS'sdhci_*'
p1479
aS'tcp_make_synack'
p1480
aS'tcp_parse_options'
p1481
aS'tcp_try_fastopen'
p1482
aS'__add_pages'
p1483
aS'__fib_lookup'
p1484
aS'__remove_pages'
p1485
aS'fib_table_lookup'
p1486
aS'nf_register_queue_handler'
p1487
aS'of_device_is_stdout_path'
p1488
aS'module:sound/soc/*'
p1489
aS'blk_rq_check_limits'
p1490
aS'clk_divider_ro_ops'
p1491
aS'tick_nohz_idle_enter'
p1492
aS'tick_nohz_idle_exit'
p1493
aS'skb_copy_and_csum_datagram_iovec'
p1494
aS'module:net/dccp/dccp'
p1495
aS'fl6_*'
p1496
aS'inet_sk_diag_fill'
p1497
aS'ip6_append_data'
p1498
aS'ip6_datagram_send_ctl'
p1499
aS'ip6_xmit'
p1500
aS'ipv6_dup_options'
p1501
aS'ipv6_fixup_options'
p1502
aS'ipv6_push_nfrag_opts'
p1503
aS'tcp_cong_avoid_ai'
p1504
aS'tcp_slow_start'
p1505
aS'__scm_destroy'
p1506
aS'__scm_send'
p1507
aS'scm_detach_fds'
p1508
aS'scm_fp_dup'
p1509
aS'af_alg_*'
p1510
aS'xt_compat_match_from_user'
p1511
aS'efivar_validate'
p1512
aS'zpci_disable_device'
p1513
aS'zpci_enable_device'
p1514
aS'zpci_stop_device'
p1515
aS'fsnotify_*_group'
p1516
aS'fsnotify_*_mark'
p1517
aS'module:drivers/infiniband/**'
p1518
ass(S'relations'
p1519
g196
tp1520
(dp1521
S'gcc-4.8'
p1522
S'gcc-4.8 (>= 4.8.2-21)'
p1523
ss(S'description'
p1524
g114
NS'4kc-malta'
p1525
tp1526
(dp1527
S'hardware'
p1528
S'MIPS Malta'
p1529
sS'hardware-long'
p1530
S'MIPS Malta boards'
p1531
ss(g195
g499
g197
tp1532
(dp1533
g200
I01
sg201
(lp1534
S'powerpcspe'
p1535
ass(g195
g957
g197
tp1536
(dp1537
g200
I01
sg201
(lp1538
S'm68k'
p1539
ass(S'image'
p1540
g26
NS'sb1-bcm91250a'
p1541
tp1542
(dp1543
S'configs'
p1544
(lp1545
S'kernelarch-mips/config.sb1-bcm91250a'
p1546
ass(S'base'
p1547
g147
g230
tp1548
(dp1549
S'flavours'
p1550
(lp1551
S'586'
p1552
aS'686-pae'
p1553
aS'amd64'
p1554
ass(S'base'
p1555
tp1556
(dp1557
S'arches'
p1558
(lp1559
S'alpha'
p1560
aS'amd64'
p1561
aS'arm64'
p1562
aS'armel'
p1563
aS'armhf'
p1564
aS'hppa'
p1565
aS'i386'
p1566
aS'ia64'
p1567
aS'm68k'
p1568
aS'mips'
p1569
aS'mipsel'
p1570
aS'mips64'
p1571
aS'mips64el'
p1572
aS'or1k'
p1573
aS'powerpc'
p1574
aS'powerpcspe'
p1575
aS'ppc64'
p1576
aS'ppc64el'
p1577
aS's390'
p1578
aS's390x'
p1579
aS'sh4'
p1580
aS'sparc'
p1581
aS'sparc64'
p1582
aS'x32'
p1583
asS'featuresets'
p1584
(lp1585
S'none'
p1586
aS'rt'
p1587
asS'compiler'
p1588
S'gcc-4.8'
p1589
ss(S'build'
p1590
g957
tp1591
(dp1592
S'image-file'
p1593
S'vmlinux.gz'
p1594
ss(S'build'
p1595
g51
tp1596
(dp1597
S'image-file'
p1598
S'arch/arm/boot/zImage'
p1599
ss(S'image'
p1600
g552
NS'sparc64'
p1601
tp1602
(dp1603
S'configs'
p1604
(lp1605
S'kernelarch-sparc/config-up'
p1606
ass(S'image'
p1607
g337
tp1608
(dp1609
S'suggests'
p1610
S'silo, fdutils'
p1611
sS'configs'
p1612
(lp1613
sS'install-stem'
p1614
S'vmlinuz'
p1615
ss(S'build'
p1616
g266
tp1617
(dp1618
S'image-file'
p1619
S'arch/arm/boot/zImage'
p1620
ss(S'build'
p1621
g677
NS's390x'
p1622
tp1623
(dp1624
S'debug-info'
p1625
I01
ss(S'image'
p1626
g460
NS's390x'
p1627
tp1628
(dp1629
S'configs'
p1630
(lp1631
S'kernelarch-s390/config-arch-64'
p1632
ass(S'base'
p1633
g351
tp1634
(dp1635
S'kernel-arch'
p1636
S'powerpc'
p1637
sg249
(lp1638
g197
ass(S'base'
p1639
g18
tp1640
(dp1641
S'kernel-arch'
p1642
S'mips'
p1643
sg249
(lp1644
g197
ass(S'base'
p1645
g552
tp1646
(dp1647
S'kernel-arch'
p1648
S'sparc'
p1649
sg249
(lp1650
g197
ass(S'base'
p1651
g957
tp1652
(dp1653
S'kernel-arch'
p1654
S'm68k'
p1655
sg249
(lp1656
g197
asS'cflags'
p1657
S'-ffreestanding'
p1658
sS'compiler'
p1659
S'gcc-4.8'
p1660
ss(S'description'
p1661
g284
NS'loongson-2e'
p1662
tp1663
(dp1664
S'hardware'
p1665
S'Loongson 2E'
p1666
sS'hardware-long'
p1667
S'Lemote Loongson 2E systems'
p1668
ss(S'image'
p1669
tp1670
(dp1671
S'initramfs-generators'
p1672
(lp1673
S'initramfs-tools'
p1674
aS'initramfs-fallback'
p1675
asS'type'
p1676
S'plain'
p1677
ss(S'image'
p1678
g284
NS'loongson-2e'
p1679
tp1680
(dp1681
S'configs'
p1682
(lp1683
S'kernelarch-mips/config.loongson-2e'
p1684
ass(g195
g337
g197
tp1685
(dp1686
g200
I01
sg201
(lp1687
S'sparc64'
p1688
aS'sparc64-smp'
p1689
ass(S'image'
p1690
g18
tp1691
(dp1692
S'install-stem'
p1693
S'vmlinux'
p1694
ss(S'description'
p1695
g51
NS'orion5x'
p1696
tp1697
(dp1698
S'hardware'
p1699
S'Marvell Orion'
p1700
sS'hardware-long'
p1701
S'Marvell Orion 5181, 5182 and 5281 based systems (QNAP TS-109/TS-209, etc)'
p1702
ss(S'description'
p1703
g552
NS'sparc32'
p1704
tp1705
(dp1706
S'hardware'
p1707
S'uniprocessor sparc32 (sun4m)'
p1708
ss(S'image'
p1709
g114
NS'5kc-malta'
p1710
tp1711
(dp1712
S'configs'
p1713
(lp1714
S'kernelarch-mips/config.5kc-malta'
p1715
ass(S'description'
p1716
g196
NS'powerpc64'
p1717
tp1718
(dp1719
S'hardware'
p1720
S'64-bit PowerPC'
p1721
ss(S'image'
p1722
g337
NS'sparc64'
p1723
tp1724
(dp1725
S'configs'
p1726
(lp1727
S'kernelarch-sparc/config-up'
p1728
ass(S'description'
p1729
Ng140
tp1730
(dp1731
S'part-long-rt'
p1732
S'This kernel includes the PREEMPT_RT realtime patch set.'
p1733
sS'parts'
p1734
(lp1735
S'rt'
p1736
asS'part-short-rt'
p1737
S'PREEMPT_RT'
p1738
ss(S'image'
p1739
g677
tp1740
(dp1741
S'install-stem'
p1742
S'vmlinuz'
p1743
sS'configs'
p1744
(lp1745
sS'bootloaders'
p1746
(lp1747
S's390-tools'
p1748
ass(S'image'
p1749
g156
tp1750
(dp1751
S'install-stem'
p1752
S'vmlinuz'
p1753
ss(S'image'
p1754
g18
NS'octeon'
p1755
tp1756
(dp1757
S'configs'
p1758
(lp1759
S'kernelarch-mips/config.octeon'
p1760
ass(S'description'
p1761
g266
NS'armmp-lpae'
p1762
tp1763
(dp1764
S'hardware'
p1765
S'ARMv7 multiplatform compatible SoCs supporting LPAE'
p1766
sS'hardware-long'
p1767
S'ARMv7 multiplatform kernel supporting LPAE. See\nhttps://wiki.debian.org/DebianKernel/ARMMP for details of supported\nplatforms.'
p1768
ss(S'build'
p1769
g147
tp1770
(dp1771
S'image-file'
p1772
S'arch/x86/boot/bzImage'
p1773
ss(g195
g351
g197
tp1774
(dp1775
g200
I01
sg201
(lp1776
S'powerpc64le'
p1777
ass(S'image'
p1778
g5
NS'amd64'
p1779
tp1780
(dp1781
S'configs'
p1782
(lp1783
S'kernelarch-x86/config-arch-64'
p1784
asstp1785
Rp1786
.