cdebian_linux.config
ConfigCore
p0
(tRp1
(Vabi
p2
tp3
(dp4
Vabiname
p5
V1
p6
sVignore-changes
p7
(lp8
V__cpuhp_*
p9
aV__xive_vm_h_*
p10
aVbpf_analyzer
p11
aVcxl_*
p12
aVdax_flush
p13
aVieee80211_nullfunc_get
p14
aVinet_add_protocol
p15
aVinet_del_protocol
p16
aViommu_device_*
p17
aVkvm_async_pf_task_wait
p18
aVkvmppc_*
p19
aVmm_iommu_*
p20
aVmv_mbus_*
p21
aVperf_*
p22
aVregister_cxl_calls
p23
aVregister_key_type
p24
aVunregister_cxl_calls
p25
aV*_hw_breakpoint
p26
aVmodule:arch/x86/kvm/*
p27
aVmodule:drivers/crypto/ccp/*
p28
aVmodule:drivers/hv/*
p29
aVmodule:drivers/gpu/drm/sun4i/*
p30
aVmodule:drivers/iio/**
p31
aVmodule:drivers/misc/cxl/*
p32
aVmodule:drivers/mtd/nand/*
p33
aVmodule:drivers/net/ethernet/**
p34
aVmodule:drivers/net/wireless/**
p35
aVmodule:drivers/nvdimm/*
p36
aVmodule:drivers/power/supply/bq27xxx_battery
p37
aVmodule:drivers/scsi/cxgbi/*
p38
aVmodule:drivers/scsi/libiscs*
p39
aVmodule:drivers/scsi/qla2xxx/qla2xxx
p40
aVmodule:drivers/scsi/ufs/*
p41
aVmodule:drivers/target/**
p42
aVmodule:drivers/usb/chipidea/**
p43
aVmodule:drivers/usb/gadget/**
p44
aVmodule:drivers/usb/host/**
p45
aVmodule:drivers/usb/musb/**
p46
aVmodule:fs/nfs/**
p47
aVmodule:net/ceph/libceph
p48
aVmodule:net/l2tp/**
p49
aVmodule:net/rxrpc/rxrpc
p50
aVmodule:sound/core/seq/**
p51
aVmodule:sound/firewire/snd-firewire-lib
p52
aVmodule:sound/pci/hda/*
p53
aVbtree_*
p54
aVvisitor*
p55
aVcan_rx_register
p56
aVip6_xmit
p57
aVmodule:net/dccp/dccp
p58
aVmodule:net/rds/rds
p59
aVdevfreq_*
p60
aVdevm_devfreq_*
p61
aVupdate_devfreq
p62
aVmodule:drivers/infiniband/**
p63
aVacpi_ec_add_query_handler
p64
aVacpi_ec_remove_query_handler
p65
aVfirst_ec
p66
aVdebugfs_create_automount
p67
aVmodule:drivers/iio/imu/inv_mpu6050/*
p68
aVdrm_crtc_accurate_vblank_count
p69
aVacpi_nfit_desc_init
p70
aVacpi_nfit_init
p71
aVloop_register_transfer
p72
ass(Vbase
p73
tp74
(dp75
Varches
p76
(lp77
Valpha
p78
aVamd64
p79
aVarm64
p80
aVarm64ilp32
p81
aVarmel
p82
aVarmhf
p83
aVhppa
p84
aVi386
p85
aVia64
p86
aVm68k
p87
aVmips
p88
aVmips64
p89
aVmips64el
p90
aVmips64r6
p91
aVmips64r6el
p92
aVmipsel
p93
aVmipsn32
p94
aVmipsn32el
p95
aVmipsn32r6
p96
aVmipsn32r6el
p97
aVmipsr6
p98
aVmipsr6el
p99
aVpowerpc
p100
aVpowerpcspe
p101
aVppc64
p102
aVppc64el
p103
aVriscv64
p104
aVs390
p105
aVs390x
p106
aVsh3
p107
aVsh4
p108
aVsparc
p109
aVsparc64
p110
aVx32
p111
asVcompiler
p112
Vgcc-8
p113
sVfeaturesets
p114
(lp115
Vnone
p116
aVrt
p117
ass(Vbuild
p118
tp119
(dp120
Vdebug-info
p121
I01
sVsigned-code
p122
I00
ss(Vbase
p123
NVrt
p124
tp125
(dp126
Venabled
p127
I01
ss(Vdescription
p128
tp129
(dp130
Vpart-long-up
p131
VThis kernel is not suitable for SMP (multi-processor,\u000amulti-core or hyper-threaded) systems.
p132
ss(Vimage
p133
tp134
(dp135
Vinitramfs-generators
p136
(lp137
Vinitramfs-tools
p138
aVinitramfs-fallback
p139
asVrecommends
p140
Vapparmor
p141
ss(Vrelations
p142
tp143
(dp144
Vgcc-8
p145
Vgcc-8 <!stage1 !cross>, gcc-8-@gnu-type-package@ <!stage1 cross>
p146
sVinitramfs-fallback
p147
Vlinux-initramfs-tool
p148
sVinitramfs-tools
p149
Vinitramfs-tools (>= 0.120+deb8u2)
p150
ss(Vbase
p151
Valpha
p152
tp153
(dp154
Vkernel-arch
p155
Valpha
p156
sVfeaturesets
p157
(lp158
Vnone
p159
ass(Vbuild
p160
g152
tp161
(dp162
Vimage-file
p163
Varch/alpha/boot/vmlinux.gz
p164
ss(Vimage
p165
g152
tp166
(dp167
Vsuggests
p168
Vaboot, fdutils
p169
sVinstall-stem
p170
Vvmlinuz
p171
ss(Vdescription
p172
g152
NValpha-generic
p173
tp174
(dp175
Vhardware
p176
VAlpha
p177
sVhardware-long
p178
VDEC Alpha systems with extended kernel start address (Wildfire, Titan, Marvel)
p179
ss(Vdescription
p180
g152
NValpha-smp
p181
tp182
(dp183
Vhardware
p184
VAlpha SMP
p185
sVhardware-long
p186
VDEC Alpha SMP systems with extended kernel start address (Wildfire, Titan, Marvel)
p187
ss(Vbase
p188
g152
g159
tp189
(dp190
Vflavours
p191
(lp192
Valpha-generic
p193
aValpha-smp
p194
asVimplicit-flavour
p195
I01
ss(Vbase
p196
Vamd64
p197
tp198
(dp199
Vfeaturesets
p200
(lp201
Vnone
p202
aVrt
p203
asVkernel-arch
p204
Vx86
p205
ss(Vbuild
p206
g197
tp207
(dp208
Vdebug-info
p209
I01
sVimage-file
p210
Varch/x86/boot/bzImage
p211
sVsigned-code
p212
I01
sVvdso
p213
I01
ss(Vimage
p214
g197
tp215
(dp216
Vbootloaders
p217
(lp218
Vgrub-pc
p219
aVgrub-efi-amd64
p220
aVextlinux
p221
asVinstall-stem
p222
Vvmlinuz
p223
sVbreaks
p224
Vxserver-xorg-input-vmmouse (<< 1:13.0.99)
p225
ss(Vrelations
p226
g197
tp227
(dp228
Vgcc-8
p229
Vgcc-8 (>= 8-20180123-1~) <!stage1 !cross>, gcc-8-x86-64-linux-gnu (>= 8-20180123-1~) <!stage1 cross>
p230
sVheaders%gcc-8
p231
Vlinux-compiler-gcc-8-x86
p232
ss(Vdescription
p233
g197
NVamd64
p234
tp235
(dp236
Vhardware
p237
V64-bit PCs
p238
sVhardware-long
p239
VPCs with AMD64, Intel 64 or VIA Nano processors
p240
ss(Vdescription
p241
g197
NVcloud-amd64
p242
tp243
(dp244
Vhardware
p245
Vx86-64 cloud
p246
sVhardware-long
p247
VAmazon EC2, Google Compute Engine and Microsoft Azure cloud platforms
p248
ss(Vbase
p249
g197
Vnone
p250
tp251
(dp252
Vflavours
p253
(lp254
Vamd64
p255
aVcloud-amd64
p256
ass(Vbase
p257
g197
Vrt
p258
tp259
(dp260
Vflavours
p261
(lp262
Vamd64
p263
ass(Vbase
p264
Varm64
p265
tp266
(dp267
Vkernel-arch
p268
Varm64
p269
sVfeaturesets
p270
(lp271
Vnone
p272
aVrt
p273
ass(Vbuild
p274
g265
tp275
(dp276
Vdebug-info
p277
I01
sVimage-file
p278
Varch/arm64/boot/Image
p279
sVsigned-code
p280
I01
sVvdso
p281
I01
ss(Vimage
p282
g265
tp283
(dp284
Vinstall-stem
p285
Vvmlinuz
p286
sVbreaks
p287
Vlibmozjs185-1.0, libmozjs-24-0 (<< 24.2.0-5.1~)
p288
ss(Vdescription
p289
g265
NVarm64
p290
tp291
(dp292
Vhardware
p293
V64-bit ARMv8 machines
p294
ss(Vimage
p295
g265
NVarm64
p296
tp297
(dp298
s(Vbase
p299
g265
Vnone
p300
tp301
(dp302
Vflavours
p303
(lp304
Varm64
p305
ass(Vbase
p306
g265
Vrt
p307
tp308
(dp309
Vflavours
p310
(lp311
Varm64
p312
ass(Vbase
p313
Varm64ilp32
p314
tp315
(dp316
Vkernel-arch
p317
Varm64
p318
sVfeaturesets
p319
(lp320
ss(Vbase
p321
Varmel
p322
tp323
(dp324
Vkernel-arch
p325
Varm
p326
sg157
(lp327
g159
ass(Vbuild
p328
g322
tp329
(dp330
Vimage-file
p331
Varch/arm/boot/zImage
p332
sVuncompressed-image-file
p333
Varch/arm/boot/Image
p334
ss(Vimage
p335
g322
tp336
(dp337
Vinstall-stem
p338
Vvmlinuz
p339
ss(Vrelations
p340
g322
tp341
(dp342
Vheaders%gcc-8
p343
Vlinux-compiler-gcc-8-arm
p344
ss(Vdescription
p345
g322
NVmarvell
p346
tp347
(dp348
Vhardware
p349
VMarvell Kirkwood/Orion
p350
sVhardware-long
p351
VMarvell Kirkwood and Orion based systems (https://wiki.debian.org/ArmEabiPort#Supported_hardware)
p352
ss(Vimage
p353
g322
NVmarvell
p354
tp355
(dp356
Vrecommends
p357
Vu-boot-tools
p358
sVcheck-size
p359
I2097080
sVcheck-size-with-dtb
p360
I01
sVcheck-uncompressed-size
p361
I7340032
sVbreaks
p362
Vflash-kernel (<< 3.57~)
p363
ss(g188
g322
g159
tp364
(dp365
g191
(lp366
Vmarvell
p367
asg195
I01
ss(Vbase
p368
Varmhf
p369
tp370
(dp371
Vfeaturesets
p372
(lp373
Vnone
p374
aVrt
p375
asVkernel-arch
p376
Varm
p377
ss(Vbuild
p378
g369
tp379
(dp380
Vimage-file
p381
Varch/arm/boot/zImage
p382
sVvdso
p383
I01
ss(Vimage
p384
g369
tp385
(dp386
Vinstall-stem
p387
Vvmlinuz
p388
ss(Vrelations
p389
g369
tp390
(dp391
Vheaders%gcc-8
p392
Vlinux-compiler-gcc-8-arm
p393
ss(Vdescription
p394
g369
NVarmmp
p395
tp396
(dp397
Vhardware
p398
VARMv7 multiplatform compatible SoCs
p399
sVhardware-long
p400
VARMv7 multiplatform kernel. See\u000ahttps://wiki.debian.org/DebianKernel/ARMMP for details of supported\u000aplatforms
p401
ss(Vdescription
p402
g369
NVarmmp-lpae
p403
tp404
(dp405
Vhardware
p406
VARMv7 multiplatform compatible SoCs supporting LPAE
p407
sVhardware-long
p408
VARMv7 multiplatform kernel supporting LPAE. See\u000ahttps://wiki.debian.org/DebianKernel/ARMMP for details of supported\u000aplatforms.
p409
ss(Vbase
p410
g369
Vnone
p411
tp412
(dp413
Vflavours
p414
(lp415
Varmmp
p416
aVarmmp-lpae
p417
ass(Vbase
p418
g369
Vrt
p419
tp420
(dp421
Vflavours
p422
(lp423
Varmmp
p424
ass(Vbase
p425
Vhppa
p426
tp427
(dp428
Vkernel-arch
p429
Vparisc
p430
sg157
(lp431
g159
ass(Vbuild
p432
g426
tp433
(dp434
Vimage-file
p435
Varch/parisc/boot/bzImage
p436
sVdebug-info
p437
I00
ss(Vimage
p438
g426
tp439
(dp440
Vsuggests
p441
Vpalo
p442
sVinstall-stem
p443
Vvmlinuz
p444
ss(Vdescription
p445
g426
NVparisc
p446
tp447
(dp448
Vhardware
p449
V32-bit PA-RISC
p450
sVhardware-long
p451
VHP PA-RISC 32-bit systems with max 4 GB RAM
p452
ss(Vdescription
p453
g426
NVparisc-smp
p454
tp455
(dp456
Vhardware
p457
Vmultiprocessor 32-bit PA-RISC
p458
sVhardware-long
p459
VHP PA-RISC 32-bit SMP systems with max 4 GB RAM
p460
ss(Vbase
p461
g426
NVparisc64-smp
p462
tp463
(dp464
Vcflags
p465
V-fno-cse-follow-jumps
p466
sVoverride-host-type
p467
Vhppa64-linux-gnu
p468
ss(Vdescription
p469
g426
NVparisc64-smp
p470
tp471
(dp472
Vhardware
p473
Vmultiprocessor 64-bit PA-RISC
p474
sVhardware-long
p475
VHP PA-RISC 64-bit SMP systems with support for more than 4 GB RAM
p476
ss(Vrelations
p477
g426
tp478
(dp479
Vgcc-8
p480
Vgcc-8 <!stage1 !cross>, gcc-8-hppa-linux-gnu <!stage1 cross>, binutils-hppa64-linux-gnu <!stage1>, gcc-8-hppa64-linux-gnu <!stage1>
p481
ss(g188
g426
g159
tp482
(dp483
g191
(lp484
Vparisc
p485
aVparisc-smp
p486
aVparisc64-smp
p487
asg195
I01
ss(Vbase
p488
Vi386
p489
tp490
(dp491
Vfeaturesets
p492
(lp493
Vnone
p494
aVrt
p495
asVkernel-arch
p496
Vx86
p497
ss(Vbuild
p498
g489
tp499
(dp500
Vimage-file
p501
Varch/x86/boot/bzImage
p502
sVsigned-code
p503
I01
sVvdso
p504
I01
ss(Vdescription
p505
g489
tp506
(dp507
Vpart-long-pae
p508
VThis kernel requires PAE (Physical Address Extension).\u000aThis feature is supported by the Intel Pentium Pro/II/III/4/4M/D, Xeon,\u000aCore and Atom; AMD Geode NX, Athlon (K7), Duron, Opteron, Sempron,\u000aTurion or Phenom; Transmeta Efficeon; VIA C7; and some other processors.
p509
ss(Vimage
p510
g489
tp511
(dp512
Vbootloaders
p513
(lp514
Vgrub-pc
p515
aVextlinux
p516
asVinstall-stem
p517
Vvmlinuz
p518
sVbreaks
p519
Vxserver-xorg-input-vmmouse (<< 1:13.0.99)
p520
ss(Vrelations
p521
g489
tp522
(dp523
Vgcc-8
p524
Vgcc-8 (>= 8-20180123-1~) <!stage1 !cross>, gcc-8-x86-64-linux-gnu (>= 8-20180123-1~) <!stage1 cross>
p525
sVheaders%gcc-8
p526
Vlinux-compiler-gcc-8-x86
p527
ss(Vdescription
p528
g489
NV686
p529
tp530
(dp531
Vhardware
p532
Volder PCs
p533
sVhardware-long
p534
VPCs with one or more processors not supporting PAE
p535
ss(Vbuild
p536
g489
NV686-pae
p537
tp538
(dp539
Vdebug-info
p540
I01
ss(Vdescription
p541
g489
NV686-pae
p542
tp543
(dp544
Vhardware
p545
Vmodern PCs
p546
sVhardware-long
p547
VPCs with one or more processors supporting PAE
p548
sVparts
p549
(lp550
Vpae
p551
ass(Vbase
p552
g489
Vnone
p553
tp554
(dp555
Vflavours
p556
(lp557
V686
p558
aV686-pae
p559
ass(Vbase
p560
g489
Vrt
p561
tp562
(dp563
Vflavours
p564
(lp565
V686-pae
p566
ass(Vbase
p567
Via64
p568
tp569
(dp570
Vkernel-arch
p571
Via64
p572
sg157
(lp573
g159
ass(Vbuild
p574
g568
tp575
(dp576
Vimage-file
p577
Vvmlinux.gz
p578
ss(Vimage
p579
g568
tp580
(dp581
Vbootloaders
p582
(lp583
Velilo
p584
asVinstall-stem
p585
Vvmlinuz
p586
ss(Vdescription
p587
g568
NVitanium
p588
tp589
(dp590
Vhardware
p591
VItanium (Merced)
p592
sVhardware-long
p593
Vsystems with original Itanium (Merced) processors
p594
ss(Vdescription
p595
g568
NVmckinley
p596
tp597
(dp598
Vhardware
p599
VItanium 2+
p600
sVhardware-long
p601
Vsystems with Itanium 2 or 9300/9500/9700-series processors
p602
ss(g188
g568
g159
tp603
(dp604
g191
(lp605
Vitanium
p606
aVmckinley
p607
asg195
I01
ss(Vbase
p608
Vm68k
p609
tp610
(dp611
Vcflags
p612
V-ffreestanding
p613
sVkernel-arch
p614
Vm68k
p615
sg157
(lp616
g159
ass(Vbuild
p617
g609
tp618
(dp619
Vimage-file
p620
Vvmlinux
p621
ss(Vimage
p622
g609
tp623
(dp624
Vsuggests
p625
Vvmelilo, fdutils
p626
sVinstall-stem
p627
Vvmlinux
p628
ss(Vdescription
p629
g609
NVm68k
p630
tp631
(dp632
Vhardware
p633
VMotorola MC68020+ family
p634
ss(g188
g609
g159
tp635
(dp636
g191
(lp637
Vm68k
p638
asg195
I01
ss(Vbase
p639
Vmips
p640
tp641
(dp642
Vkernel-arch
p643
Vmips
p644
sg157
(lp645
g159
ass(Vbuild
p646
g640
tp647
(dp648
Vimage-file
p649
Vvmlinux
p650
ss(Vimage
p651
g640
tp652
(dp653
Vinstall-stem
p654
Vvmlinux
p655
ss(Vdescription
p656
g640
NV4kc-malta
p657
tp658
(dp659
Vhardware
p660
VMIPS Malta
p661
sVhardware-long
p662
VMIPS Malta boards
p663
ss(Vimage
p664
g640
NV4kc-malta
p665
tp666
(dp667
Vconfigs
p668
(lp669
Vkernelarch-mips/config.malta
p670
aVkernelarch-mips/config.mips32r2
p671
ass(Vdescription
p672
g640
NV5kc-malta
p673
tp674
(dp675
Vhardware
p676
VMIPS Malta (64-bit)
p677
sVhardware-long
p678
VMIPS Malta boards (64-bit)
p679
ss(Vimage
p680
g640
NV5kc-malta
p681
tp682
(dp683
Vconfigs
p684
(lp685
Vkernelarch-mips/config.malta
p686
aVkernelarch-mips/config.mips64r2
p687
ass(Vdescription
p688
g640
NVocteon
p689
tp690
(dp691
Vhardware
p692
VOcteon
p693
sVhardware-long
p694
VCavium Networks Octeon
p695
ss(Vimage
p696
g640
NVocteon
p697
tp698
(dp699
Vconfigs
p700
(lp701
Vkernelarch-mips/config.octeon
p702
ass(g188
g640
g159
tp703
(dp704
g191
(lp705
V4kc-malta
p706
aV5kc-malta
p707
aVocteon
p708
asg195
I01
ss(Vbase
p709
Vmips64
p710
tp711
(dp712
Vkernel-arch
p713
Vmips
p714
sg157
(lp715
g159
ass(Vbuild
p716
g710
tp717
(dp718
Vimage-file
p719
Vvmlinux
p720
ss(Vimage
p721
g710
tp722
(dp723
Vinstall-stem
p724
Vvmlinux
p725
ss(Vdescription
p726
g710
NV5kc-malta
p727
tp728
(dp729
Vhardware
p730
VMIPS Malta
p731
sVhardware-long
p732
VMIPS Malta boards
p733
ss(Vimage
p734
g710
NV5kc-malta
p735
tp736
(dp737
Vconfigs
p738
(lp739
Vkernelarch-mips/config.malta
p740
aVkernelarch-mips/config.mips64r2
p741
ass(Vdescription
p742
g710
NVocteon
p743
tp744
(dp745
Vhardware
p746
VOcteon
p747
sVhardware-long
p748
VCavium Networks Octeon
p749
ss(Vimage
p750
g710
NVocteon
p751
tp752
(dp753
Vconfigs
p754
(lp755
Vkernelarch-mips/config.octeon
p756
ass(g188
g710
g159
tp757
(dp758
g191
(lp759
V5kc-malta
p760
aVocteon
p761
asg195
I01
ss(Vbase
p762
Vmips64el
p763
tp764
(dp765
Vkernel-arch
p766
Vmips
p767
sg157
(lp768
g159
ass(Vbuild
p769
g763
tp770
(dp771
Vimage-file
p772
Vvmlinux
p773
ss(Vimage
p774
g763
tp775
(dp776
Vinstall-stem
p777
Vvmlinux
p778
ss(Vdescription
p779
g763
NV5kc-malta
p780
tp781
(dp782
Vhardware
p783
VMIPS Malta
p784
sVhardware-long
p785
VMIPS Malta boards
p786
ss(Vimage
p787
g763
NV5kc-malta
p788
tp789
(dp790
Vconfigs
p791
(lp792
Vkernelarch-mips/config.malta
p793
aVkernelarch-mips/config.mips64r2
p794
ass(Vdescription
p795
g763
NVloongson-3
p796
tp797
(dp798
Vhardware
p799
VLoongson 3A/3B
p800
sVhardware-long
p801
VLoongson 3A or 3B based systems (e.g. from Loongson or Lemote)
p802
ss(Vimage
p803
g763
NVloongson-3
p804
tp805
(dp806
Vconfigs
p807
(lp808
Vkernelarch-mips/config.loongson-3
p809
ass(Vdescription
p810
g763
NVocteon
p811
tp812
(dp813
Vhardware
p814
VOcteon
p815
sVhardware-long
p816
VCavium Networks Octeon
p817
ss(Vimage
p818
g763
NVocteon
p819
tp820
(dp821
Vconfigs
p822
(lp823
Vkernelarch-mips/config.octeon
p824
ass(g188
g763
g159
tp825
(dp826
g191
(lp827
V5kc-malta
p828
aVloongson-3
p829
aVocteon
p830
asg195
I01
ss(Vbase
p831
Vmips64r6
p832
tp833
(dp834
Vkernel-arch
p835
Vmips
p836
sg157
(lp837
g159
ass(Vbuild
p838
g832
tp839
(dp840
Vimage-file
p841
Vvmlinux
p842
ss(Vimage
p843
g832
tp844
(dp845
Vinstall-stem
p846
Vvmlinux
p847
ss(Vdescription
p848
g832
NVmips64r6
p849
tp850
(dp851
Vhardware
p852
VMIPS R6 (64 bit, big endian)
p853
sVhardware-long
p854
VMIPS R6 (64 bit, big endian)
p855
ss(Vimage
p856
g832
NVmips64r6
p857
tp858
(dp859
Vconfigs
p860
(lp861
Vkernelarch-mips/config.boston
p862
aVkernelarch-mips/config.mips64r6
p863
ass(g188
g832
g159
tp864
(dp865
g191
(lp866
Vmips64r6
p867
asg195
I01
ss(Vbase
p868
Vmips64r6el
p869
tp870
(dp871
Vkernel-arch
p872
Vmips
p873
sg157
(lp874
g159
ass(Vbuild
p875
g869
tp876
(dp877
Vimage-file
p878
Vvmlinux
p879
ss(Vimage
p880
g869
tp881
(dp882
Vinstall-stem
p883
Vvmlinux
p884
ss(Vdescription
p885
g869
NVmips64r6el
p886
tp887
(dp888
Vhardware
p889
VMIPS R6 (64 bit, little endian)
p890
sVhardware-long
p891
VMIPS R6 (64 bit, little endian)
p892
ss(Vimage
p893
g869
NVmips64r6el
p894
tp895
(dp896
Vconfigs
p897
(lp898
Vkernelarch-mips/config.boston
p899
aVkernelarch-mips/config.mips64r6
p900
ass(g188
g869
g159
tp901
(dp902
g191
(lp903
Vmips64r6el
p904
asg195
I01
ss(Vbase
p905
Vmipsel
p906
tp907
(dp908
Vkernel-arch
p909
Vmips
p910
sg157
(lp911
g159
ass(Vbuild
p912
g906
tp913
(dp914
Vimage-file
p915
Vvmlinux
p916
ss(Vimage
p917
g906
tp918
(dp919
Vinstall-stem
p920
Vvmlinux
p921
ss(Vdescription
p922
g906
NV4kc-malta
p923
tp924
(dp925
Vhardware
p926
VMIPS Malta
p927
sVhardware-long
p928
VMIPS Malta boards
p929
ss(Vimage
p930
g906
NV4kc-malta
p931
tp932
(dp933
Vconfigs
p934
(lp935
Vkernelarch-mips/config.malta
p936
aVkernelarch-mips/config.mips32r2
p937
ass(Vdescription
p938
g906
NV5kc-malta
p939
tp940
(dp941
Vhardware
p942
VMIPS Malta (64-bit)
p943
sVhardware-long
p944
VMIPS Malta boards (64-bit)
p945
ss(Vimage
p946
g906
NV5kc-malta
p947
tp948
(dp949
Vconfigs
p950
(lp951
Vkernelarch-mips/config.malta
p952
aVkernelarch-mips/config.mips64r2
p953
ass(Vdescription
p954
g906
NVloongson-3
p955
tp956
(dp957
Vhardware
p958
VLoongson 3A/3B
p959
sVhardware-long
p960
VLoongson 3A or 3B based systems (e.g. from Loongson or Lemote)
p961
ss(Vimage
p962
g906
NVloongson-3
p963
tp964
(dp965
Vconfigs
p966
(lp967
Vkernelarch-mips/config.loongson-3
p968
ass(Vdescription
p969
g906
NVocteon
p970
tp971
(dp972
Vhardware
p973
VOcteon
p974
sVhardware-long
p975
VCavium Networks Octeon
p976
ss(Vimage
p977
g906
NVocteon
p978
tp979
(dp980
Vconfigs
p981
(lp982
Vkernelarch-mips/config.octeon
p983
ass(g188
g906
g159
tp984
(dp985
g191
(lp986
V4kc-malta
p987
aV5kc-malta
p988
aVloongson-3
p989
aVocteon
p990
asg195
I01
ss(Vbase
p991
Vmipsn32
p992
tp993
(dp994
Vkernel-arch
p995
Vmips
p996
sVfeaturesets
p997
(lp998
ss(Vbase
p999
Vmipsn32el
p1000
tp1001
(dp1002
Vkernel-arch
p1003
Vmips
p1004
sVfeaturesets
p1005
(lp1006
ss(Vbase
p1007
Vmipsn32r6
p1008
tp1009
(dp1010
Vkernel-arch
p1011
Vmips
p1012
sVfeaturesets
p1013
(lp1014
ss(Vbase
p1015
Vmipsn32r6el
p1016
tp1017
(dp1018
Vkernel-arch
p1019
Vmips
p1020
sVfeaturesets
p1021
(lp1022
ss(Vbase
p1023
Vmipsr6
p1024
tp1025
(dp1026
Vkernel-arch
p1027
Vmips
p1028
sg157
(lp1029
g159
ass(Vbuild
p1030
g1024
tp1031
(dp1032
Vimage-file
p1033
Vvmlinux
p1034
ss(Vimage
p1035
g1024
tp1036
(dp1037
Vinstall-stem
p1038
Vvmlinux
p1039
ss(Vdescription
p1040
g1024
NVmips32r6
p1041
tp1042
(dp1043
Vhardware
p1044
VMIPS R6 (32 bit, big endian)
p1045
sVhardware-long
p1046
VMIPS R6 (32 bit, big endian)
p1047
ss(Vimage
p1048
g1024
NVmips32r6
p1049
tp1050
(dp1051
Vconfigs
p1052
(lp1053
Vkernelarch-mips/config.boston
p1054
aVkernelarch-mips/config.mips32r6
p1055
ass(Vdescription
p1056
g1024
NVmips64r6
p1057
tp1058
(dp1059
Vhardware
p1060
VMIPS R6 (64 bit, big endian)
p1061
sVhardware-long
p1062
VMIPS R6 (64 bit, big endian)
p1063
ss(Vimage
p1064
g1024
NVmips64r6
p1065
tp1066
(dp1067
Vconfigs
p1068
(lp1069
Vkernelarch-mips/config.boston
p1070
aVkernelarch-mips/config.mips64r6
p1071
ass(g188
g1024
g159
tp1072
(dp1073
g191
(lp1074
Vmips32r6
p1075
aVmips64r6
p1076
asg195
I01
ss(Vbase
p1077
Vmipsr6el
p1078
tp1079
(dp1080
Vkernel-arch
p1081
Vmips
p1082
sg157
(lp1083
g159
ass(Vbuild
p1084
g1078
tp1085
(dp1086
Vimage-file
p1087
Vvmlinux
p1088
ss(Vimage
p1089
g1078
tp1090
(dp1091
Vinstall-stem
p1092
Vvmlinux
p1093
ss(Vdescription
p1094
g1078
NVmips32r6el
p1095
tp1096
(dp1097
Vhardware
p1098
VMIPS R6 (32 bit, little endian)
p1099
sVhardware-long
p1100
VMIPS R6 (32 bit, little endian)
p1101
ss(Vimage
p1102
g1078
NVmips32r6el
p1103
tp1104
(dp1105
Vconfigs
p1106
(lp1107
Vkernelarch-mips/config.boston
p1108
aVkernelarch-mips/config.mips32r6
p1109
ass(Vdescription
p1110
g1078
NVmips64r6el
p1111
tp1112
(dp1113
Vhardware
p1114
VMIPS R6 (64 bit, little endian)
p1115
sVhardware-long
p1116
VMIPS R6 (64 bit, little endian)
p1117
ss(Vimage
p1118
g1078
NVmips64r6el
p1119
tp1120
(dp1121
Vconfigs
p1122
(lp1123
Vkernelarch-mips/config.boston
p1124
aVkernelarch-mips/config.mips64r6
p1125
ass(g188
g1078
g159
tp1126
(dp1127
g191
(lp1128
Vmips32r6el
p1129
aVmips64r6el
p1130
asg195
I01
ss(Vbase
p1131
Vpowerpc
p1132
tp1133
(dp1134
Vkernel-arch
p1135
Vpowerpc
p1136
sg157
(lp1137
g159
ass(Vbuild
p1138
g1132
tp1139
(dp1140
Vimage-file
p1141
Vvmlinux
p1142
sVvdso
p1143
I01
ss(Vimage
p1144
g1132
tp1145
(dp1146
Vconfigs
p1147
(lp1148
sVsuggests
p1149
Vmkvmlinuz
p1150
sVinstall-stem
p1151
Vvmlinux
p1152
ss(Vdescription
p1153
g1132
NVpowerpc
p1154
tp1155
(dp1156
Vhardware
p1157
Vuniprocessor 32-bit PowerPC
p1158
ss(Vdescription
p1159
g1132
NVpowerpc-smp
p1160
tp1161
(dp1162
Vhardware
p1163
Vmultiprocessor 32-bit PowerPC
p1164
ss(Vimage
p1165
g1132
NVpowerpc-smp
p1166
tp1167
(dp1168
Vconfigs
p1169
(lp1170
Vpowerpc/config.powerpc
p1171
aVpowerpc/config.powerpc-smp
p1172
ass(Vdescription
p1173
g1132
NVpowerpc64
p1174
tp1175
(dp1176
Vhardware
p1177
V64-bit PowerPC
p1178
ss(Vimage
p1179
g1132
NVpowerpc64
p1180
tp1181
(dp1182
Vconfigs
p1183
(lp1184
Vkernelarch-powerpc/config-arch-64
p1185
aVkernelarch-powerpc/config-arch-64-be
p1186
ass(g188
g1132
g159
tp1187
(dp1188
g191
(lp1189
Vpowerpc
p1190
aVpowerpc-smp
p1191
aVpowerpc64
p1192
asg195
I01
ss(Vbase
p1193
Vpowerpcspe
p1194
tp1195
(dp1196
Vkernel-arch
p1197
Vpowerpc
p1198
sg157
(lp1199
g159
ass(Vbuild
p1200
g1194
tp1201
(dp1202
Vimage-file
p1203
Vvmlinux
p1204
sVvdso
p1205
I01
ss(Vimage
p1206
g1194
tp1207
(dp1208
Vsuggests
p1209
Vmkvmlinuz
p1210
sVinstall-stem
p1211
Vvmlinux
p1212
ss(Vdescription
p1213
g1194
tp1214
(dp1215
Vhardware
p1216
V32-bit PowerPC with SPE (instead of AltiVec) with SMP support
p1217
ss(g188
g1194
g159
tp1218
(dp1219
g191
(lp1220
Vpowerpcspe
p1221
asg195
I01
ss(Vbase
p1222
Vppc64
p1223
tp1224
(dp1225
Vkernel-arch
p1226
Vpowerpc
p1227
sg157
(lp1228
g159
ass(Vbuild
p1229
g1223
tp1230
(dp1231
Vimage-file
p1232
Vvmlinux
p1233
sVvdso
p1234
I01
ss(Vimage
p1235
g1223
tp1236
(dp1237
Vconfigs
p1238
(lp1239
sVsuggests
p1240
Vmkvmlinuz
p1241
sVinstall-stem
p1242
Vvmlinux
p1243
ss(Vdescription
p1244
g1223
NVpowerpc64
p1245
tp1246
(dp1247
Vhardware
p1248
V64-bit PowerPC
p1249
ss(Vimage
p1250
g1223
NVpowerpc64
p1251
tp1252
(dp1253
Vconfigs
p1254
(lp1255
Vkernelarch-powerpc/config-arch-64
p1256
aVkernelarch-powerpc/config-arch-64-be
p1257
ass(g188
g1223
g159
tp1258
(dp1259
g191
(lp1260
Vpowerpc64
p1261
asg195
I01
ss(Vbase
p1262
Vppc64el
p1263
tp1264
(dp1265
Vkernel-arch
p1266
Vpowerpc
p1267
sg157
(lp1268
g159
ass(Vbuild
p1269
g1263
tp1270
(dp1271
Vimage-file
p1272
Vvmlinux
p1273
sVvdso
p1274
I01
ss(Vimage
p1275
g1263
tp1276
(dp1277
Vconfigs
p1278
(lp1279
sVsuggests
p1280
Vmkvmlinuz
p1281
sVinstall-stem
p1282
Vvmlinux
p1283
ss(Vdescription
p1284
g1263
NVpowerpc64le
p1285
tp1286
(dp1287
Vhardware
p1288
VLittle-endian 64-bit PowerPC
p1289
ss(Vimage
p1290
g1263
NVpowerpc64le
p1291
tp1292
(dp1293
Vconfigs
p1294
(lp1295
Vkernelarch-powerpc/config-arch-64
p1296
aVkernelarch-powerpc/config-arch-64-le
p1297
ass(g188
g1263
g159
tp1298
(dp1299
g191
(lp1300
Vpowerpc64le
p1301
asg195
I01
ss(Vbase
p1302
Vriscv64
p1303
tp1304
(dp1305
Vkernel-arch
p1306
Vriscv
p1307
sVfeaturesets
p1308
(lp1309
Vnone
p1310
ass(Vbuild
p1311
g1303
tp1312
(dp1313
Vimage-file
p1314
Vvmlinux
p1315
ss(Vimage
p1316
g1303
tp1317
(dp1318
Vinstall-stem
p1319
Vvmlinux
p1320
ss(Vdescription
p1321
g1303
NVriscv64
p1322
tp1323
(dp1324
Vhardware
p1325
V64-bit RISC-V platforms
p1326
sVhardware-long
p1327
V64-bit RISC-V platforms
p1328
ss(Vbase
p1329
g1303
Vnone
p1330
tp1331
(dp1332
Vflavours
p1333
(lp1334
Vriscv64
p1335
ass(Vbase
p1336
Vs390
p1337
tp1338
(dp1339
Vkernel-arch
p1340
Vs390
p1341
sVfeaturesets
p1342
(lp1343
ss(Vbase
p1344
Vs390x
p1345
tp1346
(dp1347
Vkernel-arch
p1348
Vs390
p1349
sg157
(lp1350
g159
ass(Vbuild
p1351
g1345
tp1352
(dp1353
Vimage-file
p1354
Varch/s390/boot/bzImage
p1355
sVvdso
p1356
I01
ss(Vimage
p1357
g1345
tp1358
(dp1359
Vbootloaders
p1360
(lp1361
Vs390-tools
p1362
asVinstall-stem
p1363
Vvmlinuz
p1364
ss(Vrelations
p1365
g1345
tp1366
(dp1367
Vheaders%gcc-8
p1368
Vlinux-compiler-gcc-8-s390
p1369
ss(Vbuild
p1370
g1345
NVs390x
p1371
tp1372
(dp1373
Vdebug-info
p1374
I01
ss(Vdescription
p1375
g1345
NVs390x
p1376
tp1377
(dp1378
Vhardware
p1379
VIBM zSeries
p1380
ss(g188
g1345
g159
tp1381
(dp1382
g191
(lp1383
Vs390x
p1384
asg195
I01
ss(Vbase
p1385
Vsh3
p1386
tp1387
(dp1388
Vkernel-arch
p1389
Vsh
p1390
sVfeaturesets
p1391
(lp1392
ss(Vbase
p1393
Vsh4
p1394
tp1395
(dp1396
Vkernel-arch
p1397
Vsh
p1398
sg157
(lp1399
g159
ass(Vbuild
p1400
g1394
tp1401
(dp1402
Vimage-file
p1403
Varch/sh/boot/zImage
p1404
ss(Vimage
p1405
g1394
tp1406
(dp1407
Vinstall-stem
p1408
Vvmlinuz
p1409
ss(Vdescription
p1410
g1394
NVsh7751r
p1411
tp1412
(dp1413
Vhardware
p1414
Vsh7751r
p1415
sVhardware-long
p1416
VRenesas SH7751R R2D plus board
p1417
ss(Vdescription
p1418
g1394
NVsh7785lcr
p1419
tp1420
(dp1421
Vhardware
p1422
Vsh7785lcr
p1423
sVhardware-long
p1424
VRenesas SH7785 reference board
p1425
ss(Vimage
p1426
g1394
NVsh7785lcr
p1427
tp1428
(dp1429
Vrecommends
p1430
Vu-boot-tools
p1431
sVcheck-size
p1432
I4194304
ss(g188
g1394
g159
tp1433
(dp1434
g191
(lp1435
Vsh7751r
p1436
aVsh7785lcr
p1437
asg195
I01
ss(Vbase
p1438
Vsparc
p1439
tp1440
(dp1441
Vkernel-arch
p1442
Vsparc
p1443
sVfeaturesets
p1444
(lp1445
ss(Vbase
p1446
Vsparc64
p1447
tp1448
(dp1449
Vkernel-arch
p1450
Vsparc
p1451
sg157
(lp1452
g159
ass(Vbuild
p1453
g1447
tp1454
(dp1455
Vimage-file
p1456
Varch/sparc/boot/zImage
p1457
ss(Vimage
p1458
g1447
tp1459
(dp1460
Vconfigs
p1461
(lp1462
sVsuggests
p1463
Vsilo, fdutils
p1464
sVinstall-stem
p1465
Vvmlinuz
p1466
ss(Vdescription
p1467
g1447
NVsparc64
p1468
tp1469
(dp1470
Vhardware
p1471
Vuniprocessor 64-bit UltraSPARC
p1472
ss(Vimage
p1473
g1447
NVsparc64
p1474
tp1475
(dp1476
Vconfigs
p1477
(lp1478
Vkernelarch-sparc/config-up
p1479
ass(Vdescription
p1480
g1447
NVsparc64-smp
p1481
tp1482
(dp1483
Vhardware
p1484
Vmultiprocessor 64-bit UltraSPARC
p1485
ss(Vimage
p1486
g1447
NVsparc64-smp
p1487
tp1488
(dp1489
Vconfigs
p1490
(lp1491
Vkernelarch-sparc/config-smp
p1492
ass(g188
g1447
g159
tp1493
(dp1494
g191
(lp1495
Vsparc64
p1496
aVsparc64-smp
p1497
asg195
I01
ss(Vbase
p1498
Vx32
p1499
tp1500
(dp1501
Vkernel-arch
p1502
Vx86
p1503
sVfeaturesets
p1504
(lp1505
ss(Vabi
p1506
NVrt
p1507
tp1508
(dp1509
Vignore-changes
p1510
(lp1511
V*
p1512
ass(Vdescription
p1513
Ng1507
tp1514
(dp1515
Vpart-long-rt
p1516
VThis kernel includes the PREEMPT_RT realtime patch set.
p1517
sVpart-short-rt
p1518
VPREEMPT_RT
p1519
sVparts
p1520
(lp1521
Vrt
p1522
ass(Vversion
p1523
tp1524
(dp1525
Vsource
p1526
V4.19.9-1
p1527
sVupstream
p1528
V4.19
p1529
sVabiname_base
p1530
V4.19.0
p1531
sVabiname
p1532
V4.19.0-1
p1533
ss.