cdebian_linux.config
ConfigCore
p0
(tRp1
(Vbase
p2
tp3
(dp4
Varches
p5
(lp6
Valpha
p7
aVamd64
p8
aVarm64
p9
aVarm64ilp32
p10
aVarmel
p11
aVarmhf
p12
aVhppa
p13
aVi386
p14
aVia64
p15
aVm68k
p16
aVmips
p17
aVmips64
p18
aVmips64el
p19
aVmips64r6
p20
aVmips64r6el
p21
aVmipsel
p22
aVmipsn32
p23
aVmipsn32el
p24
aVmipsn32r6
p25
aVmipsn32r6el
p26
aVmipsr6
p27
aVmipsr6el
p28
aVpowerpc
p29
aVpowerpcspe
p30
aVppc64
p31
aVppc64el
p32
aVs390
p33
aVs390x
p34
aVsh3
p35
aVsh4
p36
aVsparc
p37
aVsparc64
p38
aVtilegx
p39
aVx32
p40
asVfeaturesets
p41
(lp42
Vnone
p43
aVrt
p44
asVcompiler
p45
Vgcc-7
p46
ss(Vbuild
p47
tp48
(dp49
Vsigned-code
p50
I00
sVdebug-info
p51
I01
ss(Vbase
p52
NVrt
p53
tp54
(dp55
Venabled
p56
I00
ss(Vdescription
p57
tp58
(dp59
Vpart-long-up
p60
VThis kernel is not suitable for SMP (multi-processor,\u000amulti-core or hyper-threaded) systems.
p61
ss(Vrelations
p62
tp63
(dp64
Vinitramfs-tools
p65
Vinitramfs-tools (>= 0.120+deb8u2)
p66
sVgcc-7
p67
Vgcc-7 <!stage1 !cross>, gcc-7-@gnu-type-package@ <!stage1 cross>
p68
sVinitramfs-fallback
p69
Vlinux-initramfs-tool
p70
ss(Vimage
p71
tp72
(dp73
Vinitramfs-generators
p74
(lp75
Vinitramfs-tools
p76
aVinitramfs-fallback
p77
asVrecommends
p78
Vapparmor
p79
ss(Vabi
p80
tp81
(dp82
Vabiname
p83
V1
p84
sVignore-changes
p85
(lp86
V__cpuhp_*
p87
aV__xive_vm_h_*
p88
aVbpf_analyzer
p89
aVcxl_*
p90
aVdax_flush
p91
aVieee80211_nullfunc_get
p92
aVinet_add_protocol
p93
aVinet_del_protocol
p94
aViommu_device_*
p95
aVkvm_async_pf_task_wait
p96
aVkvmppc_*
p97
aVmm_iommu_*
p98
aVmv_mbus_*
p99
aVperf_*
p100
aVregister_cxl_calls
p101
aVregister_key_type
p102
aVunregister_cxl_calls
p103
aV*_hw_breakpoint
p104
aVmodule:arch/x86/kvm/*
p105
aVmodule:drivers/crypto/ccp/*
p106
aVmodule:drivers/hv/*
p107
aVmodule:drivers/iio/common/hid-sensors/*
p108
aVmodule:drivers/iio/common/st_sensors/**
p109
aVmodule:drivers/mtd/nand/*
p110
aVmodule:drivers/net/wireless/**
p111
aVmodule:drivers/nvdimm/*
p112
aVmodule:drivers/power/supply/bq27xxx_battery
p113
aVmodule:drivers/scsi/cxgbi/*
p114
aVmodule:drivers/scsi/libiscs*
p115
aVmodule:drivers/scsi/qla2xxx/qla2xxx
p116
aVmodule:drivers/scsi/ufs/*
p117
aVmodule:drivers/target/**
p118
aVmodule:drivers/usb/chipidea/**
p119
aVmodule:drivers/usb/gadget/**
p120
aVmodule:drivers/usb/host/**
p121
aVmodule:drivers/usb/musb/**
p122
aVmodule:fs/nfs/**
p123
aVmodule:net/ceph/libceph
p124
aVmodule:net/l2tp/**
p125
aVmodule:net/rxrpc/rxrpc
p126
aVmodule:sound/core/seq/**
p127
aVmodule:sound/firewire/snd-firewire-lib
p128
aVbtree_*
p129
aVvisitor*
p130
aVcan_rx_register
p131
aVip6_xmit
p132
aVmodule:net/dccp/dccp
p133
aVmodule:net/rds/rds
p134
aVdevfreq_*
p135
aVdevm_devfreq_*
p136
aVupdate_devfreq
p137
aVmodule:drivers/infiniband/**
p138
aVacpi_ec_add_query_handler
p139
aVacpi_ec_remove_query_handler
p140
aVfirst_ec
p141
aVdebugfs_create_automount
p142
aVmodule:drivers/iio/imu/inv_mpu6050/*
p143
ass(Vbase
p144
Valpha
p145
tp146
(dp147
Vfeaturesets
p148
(lp149
Vnone
p150
asVkernel-arch
p151
Valpha
p152
ss(Vdescription
p153
g145
NValpha-smp
p154
tp155
(dp156
Vhardware
p157
VAlpha SMP
p158
sVhardware-long
p159
VDEC Alpha SMP systems with extended kernel start address (Wildfire, Titan, Marvel)
p160
ss(Vbuild
p161
g145
tp162
(dp163
Vimage-file
p164
Varch/alpha/boot/vmlinux.gz
p165
ss(Vdescription
p166
g145
NValpha-generic
p167
tp168
(dp169
Vhardware
p170
VAlpha
p171
sVhardware-long
p172
VDEC Alpha systems with extended kernel start address (Wildfire, Titan, Marvel)
p173
ss(Vimage
p174
g145
tp175
(dp176
Vsuggests
p177
Vaboot, fdutils
p178
sVinstall-stem
p179
Vvmlinuz
p180
ss(Vbase
p181
g145
g150
tp182
(dp183
Vflavours
p184
(lp185
Valpha-generic
p186
aValpha-smp
p187
asVimplicit-flavour
p188
I01
ss(Vbase
p189
Vamd64
p190
tp191
(dp192
Vfeaturesets
p193
(lp194
Vnone
p195
aVrt
p196
asVkernel-arch
p197
Vx86
p198
ss(Vbuild
p199
g190
tp200
(dp201
Vvdso
p202
I01
sVimage-file
p203
Varch/x86/boot/bzImage
p204
sVdebug-info
p205
I01
ss(Vdescription
p206
g190
NVamd64
p207
tp208
(dp209
Vhardware
p210
V64-bit PCs
p211
sVhardware-long
p212
VPCs with AMD64, Intel 64 or VIA Nano processors
p213
ss(Vrelations
p214
g190
tp215
(dp216
Vgcc-7
p217
Vgcc-7 (>= 7.2.0-20~) <!stage1 !cross>, gcc-7-x86-64-linux-gnu (>= 7.2.0-20~) <!stage1 cross>
p218
sVheaders%gcc-7
p219
Vlinux-compiler-gcc-7-x86 (>= 4.14.17-1~)
p220
ss(Vdescription
p221
g190
NVcloud-amd64
p222
tp223
(dp224
Vhardware
p225
Vx86-64 cloud
p226
sVhardware-long
p227
VAmazon EC2, Google Compute Engine and Microsoft Azure cloud platforms
p228
ss(Vimage
p229
g190
tp230
(dp231
Vbreaks
p232
Vxserver-xorg-input-vmmouse (<< 1:13.0.99)
p233
sVinstall-stem
p234
Vvmlinuz
p235
sVbootloaders
p236
(lp237
Vgrub-pc
p238
aVgrub-efi-amd64
p239
aVextlinux
p240
ass(Vbase
p241
g190
Vnone
p242
tp243
(dp244
Vflavours
p245
(lp246
Vamd64
p247
aVcloud-amd64
p248
ass(Vbase
p249
g190
Vrt
p250
tp251
(dp252
Vflavours
p253
(lp254
Vamd64
p255
ass(Vbase
p256
Varm64
p257
tp258
(dp259
Vfeaturesets
p260
(lp261
Vnone
p262
asVkernel-arch
p263
Varm64
p264
ss(Vdescription
p265
g257
NVarm64
p266
tp267
(dp268
Vhardware
p269
V64-bit ARMv8 machines
p270
ss(Vbuild
p271
g257
tp272
(dp273
Vvdso
p274
I01
sVimage-file
p275
Varch/arm64/boot/Image
p276
sVdebug-info
p277
I01
ss(Vimage
p278
g257
NVarm64
p279
tp280
(dp281
s(Vimage
p282
g257
tp283
(dp284
Vbreaks
p285
Vlibmozjs185-1.0, libmozjs-24-0 (<< 24.2.0-5.1~)
p286
sVinstall-stem
p287
Vvmlinuz
p288
ss(Vbase
p289
g257
Vnone
p290
tp291
(dp292
Vflavours
p293
(lp294
Varm64
p295
ass(Vbase
p296
Varm64ilp32
p297
tp298
(dp299
Vfeaturesets
p300
(lp301
sVkernel-arch
p302
Varm64
p303
ss(Vbase
p304
Varmel
p305
tp306
(dp307
g148
(lp308
g150
asVkernel-arch
p309
Varm
p310
ss(Vbuild
p311
g305
tp312
(dp313
Vimage-file
p314
Varch/arm/boot/zImage
p315
sVuncompressed-image-file
p316
Varch/arm/boot/Image
p317
ss(Vimage
p318
g305
NVmarvell
p319
tp320
(dp321
Vrecommends
p322
Vu-boot-tools
p323
sVbreaks
p324
Vflash-kernel (<< 3.57~)
p325
sVcheck-size-with-dtb
p326
I01
sVcheck-size
p327
L2097080L
sVcheck-uncompressed-size
p328
L7340032L
ss(Vdescription
p329
g305
NVmarvell
p330
tp331
(dp332
Vhardware
p333
VMarvell Kirkwood/Orion
p334
sVhardware-long
p335
VMarvell Kirkwood and Orion based systems (https://wiki.debian.org/ArmEabiPort#Supported_hardware)
p336
ss(Vrelations
p337
g305
tp338
(dp339
Vheaders%gcc-7
p340
Vlinux-compiler-gcc-7-arm
p341
ss(Vimage
p342
g305
tp343
(dp344
Vinstall-stem
p345
Vvmlinuz
p346
ss(g181
g305
g150
tp347
(dp348
g184
(lp349
Vmarvell
p350
asg188
I01
ss(Vbase
p351
Varmhf
p352
tp353
(dp354
Vfeaturesets
p355
(lp356
sVkernel-arch
p357
Varm
p358
ss(Vbase
p359
Vhppa
p360
tp361
(dp362
g148
(lp363
g150
asVkernel-arch
p364
Vparisc
p365
ss(Vbuild
p366
g360
tp367
(dp368
Vdebug-info
p369
I01
sVimage-file
p370
Varch/parisc/boot/bzImage
p371
ss(Vdescription
p372
g360
NVparisc64-smp
p373
tp374
(dp375
Vhardware
p376
Vmultiprocessor 64-bit PA-RISC
p377
sVhardware-long
p378
VHP PA-RISC 64-bit SMP systems with support for more than 4 GB RAM
p379
ss(Vrelations
p380
g360
tp381
(dp382
Vgcc-7
p383
Vgcc-7 <!stage1 !cross>, binutils-hppa64-linux-gnu <!stage1 !cross>, gcc-7-hppa64-linux-gnu <!stage1 !cross>, gcc-7-hppa-linux-gnu <!stage1 cross>, binutils-hppa64-linux-gnu <!stage1 cross>, gcc-7-hppa64-linux-gnu <!stage1 cross>
p384
ss(Vbase
p385
g360
NVparisc64-smp
p386
tp387
(dp388
Vcflags
p389
V-fno-cse-follow-jumps
p390
sVoverride-host-type
p391
Vhppa64-linux-gnu
p392
ss(Vdescription
p393
g360
NVparisc-smp
p394
tp395
(dp396
Vhardware
p397
Vmultiprocessor 32-bit PA-RISC
p398
sVhardware-long
p399
VHP PA-RISC 32-bit SMP systems with max 4 GB RAM
p400
ss(Vdescription
p401
g360
NVparisc
p402
tp403
(dp404
Vhardware
p405
V32-bit PA-RISC
p406
sVhardware-long
p407
VHP PA-RISC 32-bit systems with max 4 GB RAM
p408
ss(Vimage
p409
g360
tp410
(dp411
Vsuggests
p412
Vpalo
p413
sVinstall-stem
p414
Vvmlinuz
p415
ss(g181
g360
g150
tp416
(dp417
g184
(lp418
Vparisc
p419
aVparisc-smp
p420
aVparisc64-smp
p421
asg188
I01
ss(Vbase
p422
Vi386
p423
tp424
(dp425
Vfeaturesets
p426
(lp427
Vnone
p428
aVrt
p429
asVkernel-arch
p430
Vx86
p431
ss(Vbuild
p432
g423
tp433
(dp434
Vvdso
p435
I01
sVimage-file
p436
Varch/x86/boot/bzImage
p437
ss(Vdescription
p438
g423
NV686-pae
p439
tp440
(dp441
Vhardware
p442
Vmodern PCs
p443
sVhardware-long
p444
VPCs with one or more processors supporting PAE
p445
sVparts
p446
(lp447
Vpae
p448
ass(Vdescription
p449
g423
tp450
(dp451
Vpart-long-pae
p452
VThis kernel requires PAE (Physical Address Extension).\u000aThis feature is supported by the Intel Pentium Pro/II/III/4/4M/D, Xeon,\u000aCore and Atom; AMD Geode NX, Athlon (K7), Duron, Opteron, Sempron,\u000aTurion or Phenom; Transmeta Efficeon; VIA C7; and some other processors.
p453
ss(Vbuild
p454
g423
NV686-pae
p455
tp456
(dp457
Vdebug-info
p458
I01
ss(Vdescription
p459
g423
NV686
p460
tp461
(dp462
Vhardware
p463
Volder PCs
p464
sVhardware-long
p465
VPCs with one or more processors not supporting PAE
p466
ss(Vrelations
p467
g423
tp468
(dp469
Vgcc-7
p470
Vgcc-7 (>= 7.2.0-20~) <!stage1 !cross>, gcc-7-i686-linux-gnu (>= 7.2.0-20~) <!stage1 cross>
p471
sVheaders%gcc-7
p472
Vlinux-compiler-gcc-7-x86 (>= 4.14.17-1~)
p473
ss(Vimage
p474
g423
tp475
(dp476
Vbreaks
p477
Vxserver-xorg-input-vmmouse (<< 1:13.0.99)
p478
sVinstall-stem
p479
Vvmlinuz
p480
sVbootloaders
p481
(lp482
Vgrub-pc
p483
aVextlinux
p484
ass(Vbase
p485
g423
Vnone
p486
tp487
(dp488
Vflavours
p489
(lp490
V686
p491
aV686-pae
p492
ass(Vbase
p493
g423
Vrt
p494
tp495
(dp496
Vflavours
p497
(lp498
V686-pae
p499
ass(Vbase
p500
Via64
p501
tp502
(dp503
g148
(lp504
g150
asVkernel-arch
p505
Via64
p506
ss(Vdescription
p507
g501
NVitanium
p508
tp509
(dp510
Vhardware
p511
VItanium (Merced)
p512
sVhardware-long
p513
Vsystems with original Itanium (Merced) processors
p514
ss(Vbuild
p515
g501
tp516
(dp517
Vimage-file
p518
Vvmlinux.gz
p519
ss(Vimage
p520
g501
tp521
(dp522
Vinstall-stem
p523
Vvmlinuz
p524
sVbootloaders
p525
(lp526
Velilo
p527
ass(Vdescription
p528
g501
NVmckinley
p529
tp530
(dp531
Vhardware
p532
VItanium 2+
p533
sVhardware-long
p534
Vsystems with Itanium 2 or 9300/9500/9700-series processors
p535
ss(g181
g501
g150
tp536
(dp537
g184
(lp538
Vitanium
p539
aVmckinley
p540
asg188
I01
ss(Vbase
p541
Vm68k
p542
tp543
(dp544
Vcflags
p545
V-ffreestanding
p546
sg148
(lp547
g150
asVkernel-arch
p548
Vm68k
p549
ss(Vbuild
p550
g542
tp551
(dp552
Vimage-file
p553
Vvmlinux
p554
ss(Vdescription
p555
g542
NVm68k
p556
tp557
(dp558
Vhardware
p559
VMotorola MC68020+ family
p560
ss(Vimage
p561
g542
tp562
(dp563
Vsuggests
p564
Vvmelilo, fdutils
p565
sVinstall-stem
p566
Vvmlinux
p567
ss(g181
g542
g150
tp568
(dp569
g184
(lp570
Vm68k
p571
asg188
I01
ss(Vbase
p572
Vmips
p573
tp574
(dp575
g148
(lp576
g150
asVkernel-arch
p577
Vmips
p578
ss(Vbuild
p579
g573
tp580
(dp581
Vimage-file
p582
Vvmlinux
p583
ss(Vimage
p584
g573
NV4kc-malta
p585
tp586
(dp587
Vconfigs
p588
(lp589
Vkernelarch-mips/config.malta
p590
aVkernelarch-mips/config.mips32r2
p591
ass(Vimage
p592
g573
NV5kc-malta
p593
tp594
(dp595
Vconfigs
p596
(lp597
Vkernelarch-mips/config.malta
p598
aVkernelarch-mips/config.mips64r2
p599
ass(Vdescription
p600
g573
NVocteon
p601
tp602
(dp603
Vhardware
p604
VOcteon
p605
sVhardware-long
p606
VCavium Networks Octeon
p607
ss(Vimage
p608
g573
NVocteon
p609
tp610
(dp611
Vconfigs
p612
(lp613
Vkernelarch-mips/config.octeon
p614
ass(Vimage
p615
g573
tp616
(dp617
Vinstall-stem
p618
Vvmlinux
p619
ss(Vdescription
p620
g573
NV5kc-malta
p621
tp622
(dp623
Vhardware
p624
VMIPS Malta (64-bit)
p625
sVhardware-long
p626
VMIPS Malta boards (64-bit)
p627
ss(Vdescription
p628
g573
NV4kc-malta
p629
tp630
(dp631
Vhardware
p632
VMIPS Malta
p633
sVhardware-long
p634
VMIPS Malta boards
p635
ss(g181
g573
g150
tp636
(dp637
g184
(lp638
V4kc-malta
p639
aV5kc-malta
p640
aVocteon
p641
asg188
I01
ss(Vbase
p642
Vmips64
p643
tp644
(dp645
g148
(lp646
g150
asVkernel-arch
p647
Vmips
p648
ss(Vbuild
p649
g643
tp650
(dp651
Vimage-file
p652
Vvmlinux
p653
ss(Vimage
p654
g643
NV5kc-malta
p655
tp656
(dp657
Vconfigs
p658
(lp659
Vkernelarch-mips/config.malta
p660
aVkernelarch-mips/config.mips64r2
p661
ass(Vdescription
p662
g643
NVocteon
p663
tp664
(dp665
Vhardware
p666
VOcteon
p667
sVhardware-long
p668
VCavium Networks Octeon
p669
ss(Vimage
p670
g643
tp671
(dp672
Vinstall-stem
p673
Vvmlinux
p674
ss(Vdescription
p675
g643
NV5kc-malta
p676
tp677
(dp678
Vhardware
p679
VMIPS Malta
p680
sVhardware-long
p681
VMIPS Malta boards
p682
ss(Vimage
p683
g643
NVocteon
p684
tp685
(dp686
Vconfigs
p687
(lp688
Vkernelarch-mips/config.octeon
p689
ass(g181
g643
g150
tp690
(dp691
g184
(lp692
V5kc-malta
p693
aVocteon
p694
asg188
I01
ss(Vbase
p695
Vmips64el
p696
tp697
(dp698
g148
(lp699
g150
asVkernel-arch
p700
Vmips
p701
ss(Vimage
p702
g696
NVloongson-3
p703
tp704
(dp705
Vconfigs
p706
(lp707
Vkernelarch-mips/config.loongson-3
p708
ass(Vbuild
p709
g696
tp710
(dp711
Vimage-file
p712
Vvmlinux
p713
ss(Vimage
p714
g696
NV5kc-malta
p715
tp716
(dp717
Vconfigs
p718
(lp719
Vkernelarch-mips/config.malta
p720
aVkernelarch-mips/config.mips64r2
p721
ass(Vdescription
p722
g696
NVocteon
p723
tp724
(dp725
Vhardware
p726
VOcteon
p727
sVhardware-long
p728
VCavium Networks Octeon
p729
ss(Vdescription
p730
g696
NVloongson-3
p731
tp732
(dp733
Vhardware
p734
VLoongson 3A/3B
p735
sVhardware-long
p736
VLoongson 3A or 3B based systems (e.g. from Loongson or Lemote)
p737
ss(Vimage
p738
g696
tp739
(dp740
Vinstall-stem
p741
Vvmlinux
p742
ss(Vdescription
p743
g696
NV5kc-malta
p744
tp745
(dp746
Vhardware
p747
VMIPS Malta
p748
sVhardware-long
p749
VMIPS Malta boards
p750
ss(Vimage
p751
g696
NVocteon
p752
tp753
(dp754
Vconfigs
p755
(lp756
Vkernelarch-mips/config.octeon
p757
ass(g181
g696
g150
tp758
(dp759
g184
(lp760
V5kc-malta
p761
aVloongson-3
p762
aVocteon
p763
asg188
I01
ss(Vbase
p764
Vmips64r6
p765
tp766
(dp767
g148
(lp768
g150
asVkernel-arch
p769
Vmips
p770
ss(Vbuild
p771
g765
tp772
(dp773
Vimage-file
p774
Vvmlinux
p775
ss(Vimage
p776
g765
tp777
(dp778
Vinstall-stem
p779
Vvmlinux
p780
ss(Vimage
p781
g765
NVmips64r6
p782
tp783
(dp784
Vconfigs
p785
(lp786
Vkernelarch-mips/config.malta
p787
aVkernelarch-mips/config.mips64r6
p788
ass(Vdescription
p789
g765
NVmips64r6
p790
tp791
(dp792
Vhardware
p793
VMIPS R6 (64 bit, big endian)
p794
sVhardware-long
p795
VMIPS R6 (64 bit, big endian)
p796
ss(g181
g765
g150
tp797
(dp798
g184
(lp799
Vmips64r6
p800
asg188
I01
ss(Vbase
p801
Vmips64r6el
p802
tp803
(dp804
g148
(lp805
g150
asVkernel-arch
p806
Vmips
p807
ss(Vimage
p808
g802
NVmips64r6el
p809
tp810
(dp811
Vconfigs
p812
(lp813
Vkernelarch-mips/config.malta
p814
aVkernelarch-mips/config.mips64r6
p815
ass(Vbuild
p816
g802
tp817
(dp818
Vimage-file
p819
Vvmlinux
p820
ss(Vdescription
p821
g802
NVmips64r6el
p822
tp823
(dp824
Vhardware
p825
VMIPS R6 (64 bit, little endian)
p826
sVhardware-long
p827
VMIPS R6 (64 bit, little endian)
p828
ss(Vimage
p829
g802
tp830
(dp831
Vinstall-stem
p832
Vvmlinux
p833
ss(g181
g802
g150
tp834
(dp835
g184
(lp836
Vmips64r6el
p837
asg188
I01
ss(Vbase
p838
Vmipsel
p839
tp840
(dp841
g148
(lp842
g150
asVkernel-arch
p843
Vmips
p844
ss(Vimage
p845
g839
NVloongson-3
p846
tp847
(dp848
Vconfigs
p849
(lp850
Vkernelarch-mips/config.loongson-3
p851
ass(Vbuild
p852
g839
tp853
(dp854
Vimage-file
p855
Vvmlinux
p856
ss(Vimage
p857
g839
NV4kc-malta
p858
tp859
(dp860
Vconfigs
p861
(lp862
Vkernelarch-mips/config.malta
p863
aVkernelarch-mips/config.mips32r2
p864
ass(Vimage
p865
g839
NV5kc-malta
p866
tp867
(dp868
Vconfigs
p869
(lp870
Vkernelarch-mips/config.malta
p871
aVkernelarch-mips/config.mips64r2
p872
ass(Vdescription
p873
g839
NVocteon
p874
tp875
(dp876
Vhardware
p877
VOcteon
p878
sVhardware-long
p879
VCavium Networks Octeon
p880
ss(Vdescription
p881
g839
NVloongson-3
p882
tp883
(dp884
Vhardware
p885
VLoongson 3A/3B
p886
sVhardware-long
p887
VLoongson 3A or 3B based systems (e.g. from Loongson or Lemote)
p888
ss(Vimage
p889
g839
NVocteon
p890
tp891
(dp892
Vconfigs
p893
(lp894
Vkernelarch-mips/config.octeon
p895
ass(Vimage
p896
g839
tp897
(dp898
Vinstall-stem
p899
Vvmlinux
p900
ss(Vdescription
p901
g839
NV5kc-malta
p902
tp903
(dp904
Vhardware
p905
VMIPS Malta (64-bit)
p906
sVhardware-long
p907
VMIPS Malta boards (64-bit)
p908
ss(Vdescription
p909
g839
NV4kc-malta
p910
tp911
(dp912
Vhardware
p913
VMIPS Malta
p914
sVhardware-long
p915
VMIPS Malta boards
p916
ss(g181
g839
g150
tp917
(dp918
g184
(lp919
V4kc-malta
p920
aV5kc-malta
p921
aVloongson-3
p922
aVocteon
p923
asg188
I01
ss(Vbase
p924
Vmipsn32
p925
tp926
(dp927
Vfeaturesets
p928
(lp929
sVkernel-arch
p930
Vmips
p931
ss(Vbase
p932
Vmipsn32el
p933
tp934
(dp935
Vfeaturesets
p936
(lp937
sVkernel-arch
p938
Vmips
p939
ss(Vbase
p940
Vmipsn32r6
p941
tp942
(dp943
Vfeaturesets
p944
(lp945
sVkernel-arch
p946
Vmips
p947
ss(Vbase
p948
Vmipsn32r6el
p949
tp950
(dp951
Vfeaturesets
p952
(lp953
sVkernel-arch
p954
Vmips
p955
ss(Vbase
p956
Vmipsr6
p957
tp958
(dp959
g148
(lp960
g150
asVkernel-arch
p961
Vmips
p962
ss(Vbuild
p963
g957
tp964
(dp965
Vimage-file
p966
Vvmlinux
p967
ss(Vdescription
p968
g957
NVmips32r6
p969
tp970
(dp971
Vhardware
p972
VMIPS R6 (32 bit, big endian)
p973
sVhardware-long
p974
VMIPS R6 (32 bit, big endian)
p975
ss(Vdescription
p976
g957
NVmips64r6
p977
tp978
(dp979
Vhardware
p980
VMIPS R6 (64 bit, big endian)
p981
sVhardware-long
p982
VMIPS R6 (64 bit, big endian)
p983
ss(Vimage
p984
g957
NVmips64r6
p985
tp986
(dp987
Vconfigs
p988
(lp989
Vkernelarch-mips/config.malta
p990
aVkernelarch-mips/config.mips64r6
p991
ass(Vimage
p992
g957
tp993
(dp994
Vinstall-stem
p995
Vvmlinux
p996
ss(Vimage
p997
g957
NVmips32r6
p998
tp999
(dp1000
Vconfigs
p1001
(lp1002
Vkernelarch-mips/config.malta
p1003
aVkernelarch-mips/config.mips32r6
p1004
ass(g181
g957
g150
tp1005
(dp1006
g184
(lp1007
Vmips32r6
p1008
aVmips64r6
p1009
asg188
I01
ss(Vbase
p1010
Vmipsr6el
p1011
tp1012
(dp1013
g148
(lp1014
g150
asVkernel-arch
p1015
Vmips
p1016
ss(Vimage
p1017
g1011
NVmips32r6el
p1018
tp1019
(dp1020
Vconfigs
p1021
(lp1022
Vkernelarch-mips/config.malta
p1023
aVkernelarch-mips/config.mips32r6
p1024
ass(Vdescription
p1025
g1011
NVmips64r6el
p1026
tp1027
(dp1028
Vhardware
p1029
VMIPS R6 (64 bit, little endian)
p1030
sVhardware-long
p1031
VMIPS R6 (64 bit, little endian)
p1032
ss(Vdescription
p1033
g1011
NVmips32r6el
p1034
tp1035
(dp1036
Vhardware
p1037
VMIPS R6 (32 bit, little endian)
p1038
sVhardware-long
p1039
VMIPS R6 (32 bit, little endian)
p1040
ss(Vimage
p1041
g1011
NVmips64r6el
p1042
tp1043
(dp1044
Vconfigs
p1045
(lp1046
Vkernelarch-mips/config.malta
p1047
aVkernelarch-mips/config.mips64r6
p1048
ass(Vbuild
p1049
g1011
tp1050
(dp1051
Vimage-file
p1052
Vvmlinux
p1053
ss(Vimage
p1054
g1011
tp1055
(dp1056
Vinstall-stem
p1057
Vvmlinux
p1058
ss(g181
g1011
g150
tp1059
(dp1060
g184
(lp1061
Vmips32r6el
p1062
aVmips64r6el
p1063
asg188
I01
ss(Vbase
p1064
Vpowerpc
p1065
tp1066
(dp1067
g148
(lp1068
g150
asVkernel-arch
p1069
Vpowerpc
p1070
ss(Vdescription
p1071
g1065
NVpowerpc64
p1072
tp1073
(dp1074
Vhardware
p1075
V64-bit PowerPC
p1076
ss(Vbuild
p1077
g1065
tp1078
(dp1079
Vvdso
p1080
I01
sVimage-file
p1081
Vvmlinux
p1082
ss(Vimage
p1083
g1065
NVpowerpc-smp
p1084
tp1085
(dp1086
Vconfigs
p1087
(lp1088
Vpowerpc/config.powerpc
p1089
aVpowerpc/config.powerpc-smp
p1090
ass(Vdescription
p1091
g1065
NVpowerpc
p1092
tp1093
(dp1094
Vhardware
p1095
Vuniprocessor 32-bit PowerPC
p1096
ss(Vimage
p1097
g1065
NVpowerpc64
p1098
tp1099
(dp1100
Vconfigs
p1101
(lp1102
Vkernelarch-powerpc/config-arch-64
p1103
aVkernelarch-powerpc/config-arch-64-be
p1104
ass(Vdescription
p1105
g1065
NVpowerpc-smp
p1106
tp1107
(dp1108
Vhardware
p1109
Vmultiprocessor 32-bit PowerPC
p1110
ss(Vimage
p1111
g1065
tp1112
(dp1113
Vsuggests
p1114
Vmkvmlinuz
p1115
sVinstall-stem
p1116
Vvmlinux
p1117
sVconfigs
p1118
(lp1119
ss(g181
g1065
g150
tp1120
(dp1121
g184
(lp1122
Vpowerpc
p1123
aVpowerpc-smp
p1124
aVpowerpc64
p1125
asg188
I01
ss(Vbase
p1126
Vpowerpcspe
p1127
tp1128
(dp1129
g148
(lp1130
g150
asVkernel-arch
p1131
Vpowerpc
p1132
ss(Vbuild
p1133
g1127
tp1134
(dp1135
Vvdso
p1136
I01
sVimage-file
p1137
Vvmlinux
p1138
ss(Vimage
p1139
g1127
tp1140
(dp1141
Vsuggests
p1142
Vmkvmlinuz
p1143
sVinstall-stem
p1144
Vvmlinux
p1145
ss(Vdescription
p1146
g1127
tp1147
(dp1148
Vhardware
p1149
V32-bit PowerPC with SPE (instead of AltiVec) with SMP support
p1150
ss(g181
g1127
g150
tp1151
(dp1152
g184
(lp1153
Vpowerpcspe
p1154
asg188
I01
ss(Vbase
p1155
Vppc64
p1156
tp1157
(dp1158
g148
(lp1159
g150
asVkernel-arch
p1160
Vpowerpc
p1161
ss(Vdescription
p1162
g1156
NVpowerpc64
p1163
tp1164
(dp1165
Vhardware
p1166
V64-bit PowerPC
p1167
ss(Vbuild
p1168
g1156
tp1169
(dp1170
Vvdso
p1171
I01
sVimage-file
p1172
Vvmlinux
p1173
ss(Vimage
p1174
g1156
NVpowerpc64
p1175
tp1176
(dp1177
Vconfigs
p1178
(lp1179
Vkernelarch-powerpc/config-arch-64
p1180
aVkernelarch-powerpc/config-arch-64-be
p1181
ass(Vimage
p1182
g1156
tp1183
(dp1184
Vsuggests
p1185
Vmkvmlinuz
p1186
sVinstall-stem
p1187
Vvmlinux
p1188
sVconfigs
p1189
(lp1190
ss(g181
g1156
g150
tp1191
(dp1192
g184
(lp1193
Vpowerpc64
p1194
asg188
I01
ss(Vbase
p1195
Vppc64el
p1196
tp1197
(dp1198
g148
(lp1199
g150
asVkernel-arch
p1200
Vpowerpc
p1201
ss(Vdescription
p1202
g1196
NVpowerpc64le
p1203
tp1204
(dp1205
Vhardware
p1206
VLittle-endian 64-bit PowerPC
p1207
ss(Vbuild
p1208
g1196
tp1209
(dp1210
Vvdso
p1211
I01
sVimage-file
p1212
Vvmlinux
p1213
ss(Vimage
p1214
g1196
tp1215
(dp1216
Vsuggests
p1217
Vmkvmlinuz
p1218
sVinstall-stem
p1219
Vvmlinux
p1220
sVconfigs
p1221
(lp1222
ss(Vimage
p1223
g1196
NVpowerpc64le
p1224
tp1225
(dp1226
Vconfigs
p1227
(lp1228
Vkernelarch-powerpc/config-arch-64
p1229
aVkernelarch-powerpc/config-arch-64-le
p1230
ass(g181
g1196
g150
tp1231
(dp1232
g184
(lp1233
Vpowerpc64le
p1234
asg188
I01
ss(Vbase
p1235
Vs390
p1236
tp1237
(dp1238
Vfeaturesets
p1239
(lp1240
sVkernel-arch
p1241
Vs390
p1242
ss(Vbase
p1243
Vs390x
p1244
tp1245
(dp1246
g148
(lp1247
g150
asVkernel-arch
p1248
Vs390
p1249
ss(Vdescription
p1250
g1244
NVs390x
p1251
tp1252
(dp1253
Vhardware
p1254
VIBM zSeries
p1255
ss(Vbuild
p1256
g1244
tp1257
(dp1258
Vvdso
p1259
I01
sVimage-file
p1260
Varch/s390/boot/image
p1261
ss(Vbuild
p1262
g1244
NVs390x
p1263
tp1264
(dp1265
Vdebug-info
p1266
I01
ss(Vrelations
p1267
g1244
tp1268
(dp1269
Vheaders%gcc-7
p1270
Vlinux-compiler-gcc-7-s390
p1271
ss(Vimage
p1272
g1244
tp1273
(dp1274
Vinstall-stem
p1275
Vvmlinuz
p1276
sVbootloaders
p1277
(lp1278
Vs390-tools
p1279
ass(g181
g1244
g150
tp1280
(dp1281
g184
(lp1282
Vs390x
p1283
asg188
I01
ss(Vbase
p1284
Vsh3
p1285
tp1286
(dp1287
Vfeaturesets
p1288
(lp1289
sVkernel-arch
p1290
Vsh
p1291
ss(Vbase
p1292
Vsh4
p1293
tp1294
(dp1295
g148
(lp1296
g150
asVkernel-arch
p1297
Vsh
p1298
ss(Vbuild
p1299
g1293
tp1300
(dp1301
Vimage-file
p1302
Varch/sh/boot/zImage
p1303
ss(Vdescription
p1304
g1293
NVsh7751r
p1305
tp1306
(dp1307
Vhardware
p1308
Vsh7751r
p1309
sVhardware-long
p1310
VRenesas SH7751R R2D plus board
p1311
ss(Vdescription
p1312
g1293
NVsh7785lcr
p1313
tp1314
(dp1315
Vhardware
p1316
Vsh7785lcr
p1317
sVhardware-long
p1318
VRenesas SH7785 reference board
p1319
ss(Vimage
p1320
g1293
tp1321
(dp1322
Vinstall-stem
p1323
Vvmlinuz
p1324
ss(Vimage
p1325
g1293
NVsh7785lcr
p1326
tp1327
(dp1328
Vrecommends
p1329
Vu-boot-tools
p1330
sVcheck-size
p1331
L4194304L
ss(g181
g1293
g150
tp1332
(dp1333
g184
(lp1334
Vsh7751r
p1335
aVsh7785lcr
p1336
asg188
I01
ss(Vbase
p1337
Vsparc
p1338
tp1339
(dp1340
Vfeaturesets
p1341
(lp1342
sVkernel-arch
p1343
Vsparc
p1344
ss(Vbase
p1345
Vsparc64
p1346
tp1347
(dp1348
g148
(lp1349
g150
asVkernel-arch
p1350
Vsparc
p1351
ss(Vbuild
p1352
g1346
tp1353
(dp1354
Vimage-file
p1355
Varch/sparc/boot/zImage
p1356
ss(Vimage
p1357
g1346
NVsparc64
p1358
tp1359
(dp1360
Vconfigs
p1361
(lp1362
Vkernelarch-sparc/config-up
p1363
ass(Vimage
p1364
g1346
NVsparc64-smp
p1365
tp1366
(dp1367
Vconfigs
p1368
(lp1369
Vkernelarch-sparc/config-smp
p1370
ass(Vimage
p1371
g1346
tp1372
(dp1373
Vsuggests
p1374
Vsilo, fdutils
p1375
sVinstall-stem
p1376
Vvmlinuz
p1377
sVconfigs
p1378
(lp1379
ss(Vdescription
p1380
g1346
NVsparc64-smp
p1381
tp1382
(dp1383
Vhardware
p1384
Vmultiprocessor 64-bit UltraSPARC
p1385
ss(Vdescription
p1386
g1346
NVsparc64
p1387
tp1388
(dp1389
Vhardware
p1390
Vuniprocessor 64-bit UltraSPARC
p1391
ss(g181
g1346
g150
tp1392
(dp1393
g184
(lp1394
Vsparc64
p1395
aVsparc64-smp
p1396
asg188
I01
ss(Vbase
p1397
Vtilegx
p1398
tp1399
(dp1400
Vfeaturesets
p1401
(lp1402
sVkernel-arch
p1403
Vtile
p1404
ss(Vbase
p1405
Vx32
p1406
tp1407
(dp1408
Vfeaturesets
p1409
(lp1410
sVkernel-arch
p1411
Vx86
p1412
ss(Vdescription
p1413
NVrt
p1414
tp1415
(dp1416
Vparts
p1417
(lp1418
Vrt
p1419
asVpart-long-rt
p1420
VThis kernel includes the PREEMPT_RT realtime patch set.
p1421
sVpart-short-rt
p1422
VPREEMPT_RT
p1423
ss(Vabi
p1424
Ng1414
tp1425
(dp1426
Vignore-changes
p1427
(lp1428
V*
p1429
ass(Vversion
p1430
tp1431
(dp1432
Vupstream
p1433
V4.16
p1434
sVsource
p1435
V4.16.5-1+rpi1
p1436
sVabiname
p1437
V4.16.0-1
p1438
sVabiname_base
p1439
V4.16.0
p1440
ss.