ccopy_reg
_reconstructor
p0
(cdebian_linux.config
ConfigCore
p1
c__builtin__
dict
p2
(dp3
(S'image'
p4
S'amd64'
p5
tp6
(dp7
S'install-stem'
p8
S'vmlinuz'
p9
sS'configs'
p10
(lp11
sS'bootloaders'
p12
(lp13
S'grub-pc'
p14
aS'grub-efi'
p15
aS'extlinux'
p16
ass(S'base'
p17
S'hppa'
p18
NS'parisc64-smp'
p19
tp20
(dp21
S'override-host-type'
p22
S'hppa64-linux-gnu'
p23
sS'cflags'
p24
S'-fno-cse-follow-jumps'
p25
ss(S'base'
p26
g5
S'none'
p27
tp28
(dp29
S'flavours'
p30
(lp31
S'amd64'
p32
ass(S'description'
p33
S'armel'
p34
NS'kirkwood'
p35
tp36
(dp37
S'hardware'
p38
S'Marvell Kirkwood'
p39
sS'hardware-long'
p40
S'Marvell Kirkwood based systems (SheevaPlug, QNAP TS-119/TS-219, etc)'
p41
ss(S'image'
p42
S'mips64el'
p43
NS'5kc-malta'
p44
tp45
(dp46
S'configs'
p47
(lp48
S'kernelarch-mips/config.5kc-malta'
p49
ass(S'description'
p50
S'mips'
p51
NS'5kc-malta'
p52
tp53
(dp54
S'hardware'
p55
S'MIPS Malta (64-bit)'
p56
sS'hardware-long'
p57
S'MIPS Malta boards (64-bit)'
p58
ss(S'image'
p59
S'ia64'
p60
tp61
(dp62
S'suggests'
p63
S'fdutils'
p64
sS'bootloaders'
p65
(lp66
S'elilo'
p67
asS'install-stem'
p68
S'vmlinuz'
p69
ss(S'image'
p70
S'armhf'
p71
NS'armmp-lpae'
p72
tp73
(dp74
S'configs'
p75
(lp76
S'armhf/config.armmp'
p77
aS'armhf/config.lpae'
p78
ass(S'base'
p79
NS'rt'
p80
tp81
(dp82
S'enabled'
p83
I00
ss(S'image'
p84
S'sparc64'
p85
NS'sparc64'
p86
tp87
(dp88
S'configs'
p89
(lp90
S'kernelarch-sparc/config-up'
p91
ass(S'description'
p92
g5
g27
S'amd64'
p93
tp94
(dp95
S'parts'
p96
(lp97
S'xen'
p98
ass(S'image'
p99
g34
NS'orion5x'
p100
tp101
(dp102
S'check-size'
p103
S'1572792'
p104
sS'configs'
p105
(lp106
S'armel/config-reduced'
p107
aS'armel/config.orion5x'
p108
asS'recommends'
p109
S'u-boot-tools'
p110
ss(S'image'
p111
S'arm64'
p112
NS'arm64'
p113
tp114
(dp115
s(S'description'
p116
S'm68k'
p117
NS'm68k'
p118
tp119
(dp120
S'hardware'
p121
S'Motorola MC68020+ family'
p122
ss(S'base'
p123
S'ppc64'
p124
S'none'
p125
tp126
(dp127
S'implicit-flavour'
p128
I01
sS'flavours'
p129
(lp130
S'powerpc64'
p131
ass(S'description'
p132
S'mips64'
p133
NS'5kc-malta'
p134
tp135
(dp136
S'hardware'
p137
S'MIPS Malta'
p138
sS'hardware-long'
p139
S'MIPS Malta boards'
p140
ss(S'description'
p141
S's390x'
p142
NS's390x'
p143
tp144
(dp145
S'hardware'
p146
S'IBM zSeries'
p147
ss(S'description'
p148
g34
NS'versatile'
p149
tp150
(dp151
S'hardware'
p152
S'Versatile'
p153
sS'hardware-long'
p154
S'Versatile systems (PB, AB, Qemu)'
p155
ss(g123
g71
g125
tp156
(dp157
g128
I01
sg129
(lp158
S'armmp'
p159
aS'armmp-lpae'
p160
ass(S'image'
p161
S'mipsel'
p162
NS'sb1-bcm91250a'
p163
tp164
(dp165
S'configs'
p166
(lp167
S'kernelarch-mips/config.sb1-bcm91250a'
p168
ass(S'description'
p169
g162
NS'loongson-2f'
p170
tp171
(dp172
S'hardware'
p173
S'Loongson 2F'
p174
sS'hardware-long'
p175
S'Lemote Loongson 2F systems'
p176
ss(S'build'
p177
g5
tp178
(dp179
S'debug-info'
p180
I01
sS'image-file'
p181
S'arch/x86/boot/bzImage'
p182
ss(S'base'
p183
S'i386'
p184
S'rt'
p185
tp186
(dp187
S'flavours'
p188
(lp189
S'686-pae'
p190
ass(g123
g133
g125
tp191
(dp192
g128
I01
sg129
(lp193
S'sb1-bcm91250a'
p194
aS'5kc-malta'
p195
aS'octeon'
p196
ass(g123
g117
g125
tp197
(dp198
g128
I01
sg129
(lp199
S'm68k'
p200
ass(S'image'
p201
S'ppc64el'
p202
tp203
(dp204
S'suggests'
p205
S'mkvmlinuz'
p206
sS'configs'
p207
(lp208
sS'install-stem'
p209
S'vmlinux'
p210
ss(S'description'
p211
g43
NS'5kc-malta'
p212
tp213
(dp214
S'hardware'
p215
S'MIPS Malta'
p216
sS'hardware-long'
p217
S'MIPS Malta boards'
p218
ss(S'description'
p219
g124
NS'powerpc64'
p220
tp221
(dp222
S'hardware'
p223
S'64-bit PowerPC'
p224
ss(S'relations'
p225
g184
tp226
(dp227
S'headers%gcc-4.8'
p228
S'linux-compiler-gcc-4.8-x86'
p229
ss(S'image'
p230
S'powerpc'
p231
tp232
(dp233
S'suggests'
p234
S'mkvmlinuz'
p235
sS'configs'
p236
(lp237
sS'install-stem'
p238
S'vmlinux'
p239
ss(S'description'
p240
g184
NS'586'
p241
tp242
(dp243
S'hardware'
p244
S'older PCs'
p245
sS'parts'
p246
(lp247
S'up'
p248
asS'hardware-long'
p249
S'PCs with a single processor not supporting PAE'
p250
ss(S'description'
p251
g162
NS'4kc-malta'
p252
tp253
(dp254
S'hardware'
p255
S'MIPS Malta'
p256
sS'hardware-long'
p257
S'MIPS Malta boards'
p258
ss(S'base'
p259
g5
S'rt'
p260
tp261
(dp262
S'flavours'
p263
(lp264
S'amd64'
p265
ass(S'image'
p266
S'sh4'
p267
NS'sh7785lcr'
p268
tp269
(dp270
S'check-size'
p271
S'4194304'
p272
sS'recommends'
p273
S'u-boot-tools'
p274
ss(S'build'
p275
g202
tp276
(dp277
S'image-file'
p278
S'vmlinux'
p279
ss(S'build'
p280
g124
tp281
(dp282
S'image-file'
p283
S'vmlinux'
p284
ss(S'description'
p285
g34
NS'ixp4xx'
p286
tp287
(dp288
S'hardware'
p289
S'IXP4xx'
p290
sS'hardware-long'
p291
S'IXP4xx based systems (Linksys NSLU2, etc)'
p292
ss(S'description'
p293
g184
S'none'
p294
S'amd64'
p295
tp296
(dp297
S'parts'
p298
(lp299
S'xen'
p300
ass(S'base'
p301
g112
tp302
(dp303
S'kernel-arch'
p304
S'arm64'
p305
sS'featuresets'
p306
(lp307
S'none'
p308
ass(S'description'
p309
g43
NS'sb1-bcm91250a'
p310
tp311
(dp312
S'hardware'
p313
S'BCM91250A'
p314
sS'hardware-long'
p315
S'Broadcom BCM91250A systems (aka SWARM)'
p316
ss(S'base'
p317
g184
tp318
(dp319
S'kernel-arch'
p320
S'x86'
p321
sS'featuresets'
p322
(lp323
S'none'
p324
aS'rt'
p325
ass(S'base'
p326
g162
tp327
(dp328
S'kernel-arch'
p329
S'mips'
p330
sS'featuresets'
p331
(lp332
g125
ass(S'description'
p333
g112
NS'arm64'
p334
tp335
(dp336
S'hardware'
p337
S'64-bit ARMv8 machines'
p338
ss(S'relations'
p339
g5
tp340
(dp341
S'headers%gcc-4.8'
p342
S'linux-compiler-gcc-4.8-x86'
p343
ss(S'description'
p344
S'sparc'
p345
NS'sparc64'
p346
tp347
(dp348
S'hardware'
p349
S'uniprocessor 64-bit UltraSPARC'
p350
ss(S'image'
p351
g184
NS'686-pae'
p352
tp353
(dp354
S'configs'
p355
(lp356
S'kernelarch-x86/config-arch-32'
p357
aS'i386/config.686-pae'
p358
asS'recommends'
p359
S'libc6-i686'
p360
ss(S'description'
p361
NS'rt'
p362
tp363
(dp364
S'part-long-rt'
p365
S'This kernel includes the PREEMPT_RT realtime patch set.'
p366
sS'parts'
p367
(lp368
S'rt'
p369
asS'part-short-rt'
p370
S'PREEMPT_RT'
p371
ss(S'relations'
p372
S's390'
p373
tp374
(dp375
S'headers%gcc-4.8'
p376
S'linux-compiler-gcc-4.8-s390'
p377
ss(S'image'
p378
g85
NS'sparc64-smp'
p379
tp380
(dp381
S'configs'
p382
(lp383
S'kernelarch-sparc/config-smp'
p384
ass(g123
g162
g125
tp385
(dp386
g128
I01
sg129
(lp387
S'sb1-bcm91250a'
p388
aS'4kc-malta'
p389
aS'5kc-malta'
p390
aS'loongson-2e'
p391
aS'loongson-2f'
p392
aS'loongson-3'
p393
ass(S'description'
p394
g267
NS'sh7751r'
p395
tp396
(dp397
S'hardware'
p398
S'sh7751r'
p399
sS'hardware-long'
p400
S'Renesas SH7751R R2D plus board'
p401
ss(S'description'
p402
S'powerpcspe'
p403
tp404
(dp405
S'hardware'
p406
S'32-bit PowerPC with SPE (instead of AltiVec) with SMP support'
p407
ss(S'relations'
p408
tp409
(dp410
S'gcc-4.8'
p411
S'gcc-4.8'
p412
sS'initramfs-fallback'
p413
S'linux-initramfs-tool'
p414
sS'gcc-4.7'
p415
S'gcc-4.7'
p416
sS'gcc-4.6'
p417
S'gcc-4.6'
p418
sS'gcc-4.4'
p419
S'gcc-4.4'
p420
sS'initramfs-tools'
p421
S'initramfs-tools (>= 0.110~)'
p422
ss(S'image'
p423
g133
NS'5kc-malta'
p424
tp425
(dp426
S'configs'
p427
(lp428
S'kernelarch-mips/config.5kc-malta'
p429
ass(S'description'
p430
g71
NS'armmp-lpae'
p431
tp432
(dp433
S'hardware'
p434
S'ARMv7 multiplatform compatible SoCs supporting LPAE'
p435
sS'hardware-long'
p436
S'ARMv7 multiplatform kernel supporting LPAE. See\nhttps://wiki.debian.org/DebianKernel/ARMMP for details of supported\nplatforms.'
p437
ss(g123
g43
g125
tp438
(dp439
g128
I01
sg129
(lp440
S'sb1-bcm91250a'
p441
aS'5kc-malta'
p442
aS'loongson-3'
p443
aS'octeon'
p444
ass(S'image'
p445
g51
NS'4kc-malta'
p446
tp447
(dp448
S'configs'
p449
(lp450
S'kernelarch-mips/config.4kc-malta'
p451
ass(S'abi'
p452
g34
NS'kirkwood'
p453
tp454
(dp455
S'ignore-changes'
p456
(lp457
S'zs_create_pool'
p458
aS'zs_destroy_pool'
p459
aS'zs_free'
p460
aS'zs_get_total_size_bytes'
p461
aS'zs_malloc'
p462
aS'zs_map_object'
p463
aS'zs_unmap_object'
p464
aS'fips_enabled'
p465
aS'dcookie_register'
p466
aS'dcookie_unregister'
p467
aS'get_dcookie'
p468
aS'prof_on'
p469
aS'profile_event_register'
p470
aS'profile_event_unregister'
p471
aS'profile_hits'
p472
aS'ring_buffer_swap_cpu'
p473
aS'task_handoff_register'
p474
aS'task_handoff_unregister'
p475
aS'disable_kprobe'
p476
aS'enable_kprobe'
p477
aS'jprobe_return'
p478
aS'profile_hits'
p479
aS'register_jprobe'
p480
aS'register_jprobes'
p481
aS'register_kprobe'
p482
aS'register_kprobes'
p483
aS'register_kretprobe'
p484
aS'register_kretprobes'
p485
aS'unregister_jprobe'
p486
aS'unregister_jprobes'
p487
aS'unregister_kprobe'
p488
aS'unregister_kprobes'
p489
aS'unregister_kretprobe'
p490
aS'unregister_kretprobes'
p491
ass(g123
g267
g125
tp492
(dp493
g128
I01
sg129
(lp494
S'sh7751r'
p495
aS'sh7785lcr'
p496
ass(S'build'
p497
g18
tp498
(dp499
S'image-file'
p500
S'vmlinux'
p501
ss(S'description'
p502
g85
NS'sparc64'
p503
tp504
(dp505
S'hardware'
p506
S'uniprocessor 64-bit UltraSPARC'
p507
ss(S'image'
p508
g345
NS'sparc64'
p509
tp510
(dp511
S'configs'
p512
(lp513
S'kernelarch-sparc/config-up'
p514
ass(S'build'
p515
g43
tp516
(dp517
S'image-file'
p518
S'vmlinux'
p519
ss(S'image'
p520
g373
NS's390x'
p521
tp522
(dp523
S'configs'
p524
(lp525
S'kernelarch-s390/config-arch-64'
p526
ass(S'base'
p527
g34
tp528
(dp529
S'kernel-arch'
p530
S'arm'
p531
sg331
(lp532
g125
ass(S'image'
p533
g133
NS'sb1-bcm91250a'
p534
tp535
(dp536
S'configs'
p537
(lp538
S'kernelarch-mips/config.sb1-bcm91250a'
p539
ass(S'image'
p540
g43
tp541
(dp542
S'install-stem'
p543
S'vmlinux'
p544
ss(S'base'
p545
g345
tp546
(dp547
S'kernel-arch'
p548
S'sparc'
p549
sg331
(lp550
g125
ass(S'base'
p551
g403
tp552
(dp553
S'kernel-arch'
p554
S'powerpc'
p555
sg331
(lp556
g125
ass(S'version'
p557
tp558
(dp559
S'abiname'
p560
S'3.16.0-4'
p561
sS'source'
p562
V3.16.36-1+deb8u1
p563
sS'abiname_base'
p564
S'3.16.0'
p565
sS'upstream'
p566
S'3.16'
p567
ss(S'description'
p568
g18
NS'parisc'
p569
tp570
(dp571
S'hardware'
p572
S'32-bit PA-RISC'
p573
sS'hardware-long'
p574
S'HP PA-RISC 32-bit systems with max 4 GB RAM'
p575
ss(g123
g373
g125
tp576
(dp577
g128
I01
sg129
(lp578
S's390x'
p579
ass(S'build'
p580
g51
tp581
(dp582
S'image-file'
p583
S'vmlinux'
p584
ss(S'description'
p585
g51
NS'r5k-ip32'
p586
tp587
(dp588
S'hardware'
p589
S'SGI IP32'
p590
sS'hardware-long'
p591
S'SGI IP32 systems (O2)'
p592
ss(S'description'
p593
g133
NS'sb1-bcm91250a'
p594
tp595
(dp596
S'hardware'
p597
S'BCM91250A'
p598
sS'hardware-long'
p599
S'Broadcom BCM91250A systems (aka SWARM)'
p600
ss(g123
g142
g125
tp601
(dp602
g128
I01
sg129
(lp603
S's390x'
p604
ass(S'base'
p605
S'alpha'
p606
tp607
(dp608
S'kernel-arch'
p609
S'alpha'
p610
sg331
(lp611
g125
ass(S'description'
p612
g231
NS'powerpc64'
p613
tp614
(dp615
S'hardware'
p616
S'64-bit PowerPC'
p617
ss(S'image'
p618
g133
NS'octeon'
p619
tp620
(dp621
S'configs'
p622
(lp623
S'kernelarch-mips/config.octeon'
p624
ass(S'build'
p625
g345
tp626
(dp627
S'image-file'
p628
S'arch/sparc/boot/zImage'
p629
ss(S'image'
p630
g162
tp631
(dp632
S'install-stem'
p633
S'vmlinux'
p634
ss(S'image'
p635
g71
tp636
(dp637
S'suggests'
p638
S'fdutils'
p639
sS'configs'
p640
(lp641
S'kernelarch-arm/config'
p642
aS'armhf/config'
p643
asS'install-stem'
p644
S'vmlinuz'
p645
ss(S'build'
p646
g142
NS's390x'
p647
tp648
(dp649
S'debug-info'
p650
I01
ss(S'build'
p651
g231
tp652
(dp653
S'image-file'
p654
S'vmlinux'
p655
ss(S'build'
p656
g112
tp657
(dp658
S'debug-info'
p659
I01
sS'image-file'
p660
S'arch/arm64/boot/Image'
p661
ss(S'description'
p662
g51
NS'r4k-ip22'
p663
tp664
(dp665
S'hardware'
p666
S'SGI IP22'
p667
sS'hardware-long'
p668
S'SGI IP22 systems (Indy, Indigo2)'
p669
ss(S'build'
p670
g162
tp671
(dp672
S'image-file'
p673
S'vmlinux'
p674
ss(S'base'
p675
g133
tp676
(dp677
S'kernel-arch'
p678
S'mips'
p679
sg331
(lp680
g125
ass(S'base'
p681
g5
tp682
(dp683
S'kernel-arch'
p684
S'x86'
p685
sS'featuresets'
p686
(lp687
S'none'
p688
aS'rt'
p689
ass(S'base'
p690
g60
tp691
(dp692
S'kernel-arch'
p693
S'ia64'
p694
sg331
(lp695
g125
asS'compiler'
p696
S'gcc-4.6'
p697
ss(S'image'
p698
g43
NS'sb1-bcm91250a'
p699
tp700
(dp701
S'configs'
p702
(lp703
S'kernelarch-mips/config.sb1-bcm91250a'
p704
ass(S'base'
p705
g51
tp706
(dp707
S'kernel-arch'
p708
S'mips'
p709
sg331
(lp710
g125
ass(S'image'
p711
g43
NS'octeon'
p712
tp713
(dp714
S'configs'
p715
(lp716
S'kernelarch-mips/config.octeon'
p717
ass(S'description'
p718
g51
NS'4kc-malta'
p719
tp720
(dp721
S'hardware'
p722
S'MIPS Malta'
p723
sS'hardware-long'
p724
S'MIPS Malta boards'
p725
ss(S'description'
p726
g34
NS'orion5x'
p727
tp728
(dp729
S'hardware'
p730
S'Marvell Orion'
p731
sS'hardware-long'
p732
S'Marvell Orion 5181, 5182 and 5281 based systems (QNAP TS-109/TS-209, etc)'
p733
ss(S'base'
p734
g373
tp735
(dp736
S'kernel-arch'
p737
S's390'
p738
sg331
(lp739
g125
ass(g123
g34
g125
tp740
(dp741
g128
I01
sg129
(lp742
S'ixp4xx'
p743
aS'kirkwood'
p744
aS'orion5x'
p745
aS'versatile'
p746
ass(S'description'
p747
g231
NS'powerpc'
p748
tp749
(dp750
S'hardware'
p751
S'uniprocessor 32-bit PowerPC'
p752
ss(S'description'
p753
g85
NS'sparc64-smp'
p754
tp755
(dp756
S'hardware'
p757
S'multiprocessor 64-bit UltraSPARC'
p758
ss(S'description'
p759
g162
NS'5kc-malta'
p760
tp761
(dp762
S'hardware'
p763
S'MIPS Malta (64-bit)'
p764
sS'hardware-long'
p765
S'MIPS Malta boards (64-bit)'
p766
ss(S'description'
p767
g162
NS'loongson-3'
p768
tp769
(dp770
S'hardware'
p771
S'Loongson 3A/3B'
p772
sS'hardware-long'
p773
S'Loongson 3A or 3B based systems (e.g. from Loongson or Lemote)'
p774
ss(S'description'
p775
g345
NS'sparc64-smp'
p776
tp777
(dp778
S'hardware'
p779
S'multiprocessor 64-bit UltraSPARC'
p780
ss(S'image'
p781
g162
NS'loongson-3'
p782
tp783
(dp784
S'configs'
p785
(lp786
S'kernelarch-mips/config.loongson-3'
p787
ass(S'description'
p788
g184
tp789
(dp790
S'part-long-pae'
p791
S'This kernel requires PAE (Physical Address Extension).\nThis feature is supported by the Intel Pentium Pro/II/III/4/4M/D, Xeon,\nCore and Atom; AMD Geode NX, Athlon (K7), Duron, Opteron, Sempron,\nTurion or Phenom; Transmeta Efficeon; VIA C7; and some other processors.'
p792
ss(S'image'
p793
g51
NS'r5k-ip32'
p794
tp795
(dp796
S'configs'
p797
(lp798
S'kernelarch-mips/config.r5k-ip32'
p799
ass(S'xen'
p800
g5
g27
S'amd64'
p801
tp802
(dp803
S'flavours'
p804
(lp805
S'amd64'
p806
ass(S'image'
p807
g34
tp808
(dp809
S'suggests'
p810
S'fdutils'
p811
sS'configs'
p812
(lp813
S'kernelarch-arm/config'
p814
aS'armel/config'
p815
asS'install-stem'
p816
S'vmlinuz'
p817
ss(S'image'
p818
g373
tp819
(dp820
S'install-stem'
p821
S'vmlinuz'
p822
sS'configs'
p823
(lp824
sS'bootloaders'
p825
(lp826
S's390-tools'
p827
ass(S'relations'
p828
g34
tp829
(dp830
S'headers%gcc-4.8'
p831
S'linux-compiler-gcc-4.8-arm'
p832
ss(S'image'
p833
g18
tp834
(dp835
S'suggests'
p836
S'palo'
p837
sS'install-stem'
p838
S'vmlinux'
p839
ss(S'image'
p840
g403
tp841
(dp842
S'suggests'
p843
S'mkvmlinuz'
p844
sS'install-stem'
p845
S'vmlinux'
p846
ss(S'relations'
p847
g18
tp848
(dp849
S'gcc-4.8'
p850
S'gcc-4.8, binutils-hppa64, gcc-4.8-hppa64'
p851
ss(S'image'
p852
g5
NS'amd64'
p853
tp854
(dp855
S'configs'
p856
(lp857
S'kernelarch-x86/config-arch-64'
p858
ass(S'description'
p859
g606
NS'alpha-generic'
p860
tp861
(dp862
S'hardware'
p863
S'Alpha'
p864
sS'hardware-long'
p865
S'DEC Alpha systems with extended kernel start address (Wildfire, Titan, Marvel)'
p866
ss(S'description'
p867
g51
NS'sb1-bcm91250a'
p868
tp869
(dp870
S'hardware'
p871
S'BCM91250A'
p872
sS'hardware-long'
p873
S'Broadcom BCM91250A systems (aka SWARM)'
p874
ss(S'base'
p875
g231
tp876
(dp877
S'kernel-arch'
p878
S'powerpc'
p879
sg331
(lp880
g125
ass(g123
g18
g125
tp881
(dp882
g128
I01
sg129
(lp883
S'parisc'
p884
aS'parisc64-smp'
p885
ass(S'description'
p886
g606
NS'alpha-smp'
p887
tp888
(dp889
S'hardware'
p890
S'Alpha SMP'
p891
sS'hardware-long'
p892
S'DEC Alpha SMP systems with extended kernel start address (Wildfire, Titan, Marvel)'
p893
ss(S'image'
p894
g51
NS'5kc-malta'
p895
tp896
(dp897
S'configs'
p898
(lp899
S'kernelarch-mips/config.5kc-malta'
p900
ass(S'image'
p901
g606
tp902
(dp903
S'suggests'
p904
S'aboot, fdutils'
p905
sS'install-stem'
p906
S'vmlinuz'
p907
ss(S'base'
p908
g85
tp909
(dp910
S'kernel-arch'
p911
S'sparc'
p912
sg331
(lp913
g125
ass(S'description'
p914
g60
NS'itanium'
p915
tp916
(dp917
S'hardware'
p918
S'Itanium'
p919
ss(S'image'
p920
g51
NS'r4k-ip22'
p921
tp922
(dp923
S'configs'
p924
(lp925
S'kernelarch-mips/config.r4k-ip22'
p926
ass(S'image'
p927
g162
NS'5kc-malta'
p928
tp929
(dp930
S'configs'
p931
(lp932
S'kernelarch-mips/config.5kc-malta'
p933
ass(S'base'
p934
g142
tp935
(dp936
S'kernel-arch'
p937
S's390'
p938
sg331
(lp939
g125
ass(S'image'
p940
g231
NS'powerpc64'
p941
tp942
(dp943
S'configs'
p944
(lp945
S'kernelarch-powerpc/config-arch-64'
p946
aS'kernelarch-powerpc/config-arch-64-be'
p947
ass(S'abi'
p948
g34
NS'orion5x'
p949
tp950
(dp951
S'ignore-changes'
p952
(lp953
S'__ring_buffer_alloc'
p954
aS'dcookie_register'
p955
aS'dcookie_unregister'
p956
aS'get_dcookie'
p957
aS'prof_on'
p958
aS'profile_event_register'
p959
aS'profile_event_unregister'
p960
aS'profile_hits'
p961
aS'ring_buffer_alloc_read_page'
p962
aS'ring_buffer_bytes_cpu'
p963
aS'ring_buffer_change_overwrite'
p964
aS'ring_buffer_commit_overrun_cpu'
p965
aS'ring_buffer_consume'
p966
aS'ring_buffer_discard_commit'
p967
aS'ring_buffer_dropped_events_cpu'
p968
aS'ring_buffer_empty'
p969
aS'ring_buffer_empty_cpu'
p970
aS'ring_buffer_entries'
p971
aS'ring_buffer_entries_cpu'
p972
aS'ring_buffer_event_data'
p973
aS'ring_buffer_event_length'
p974
aS'ring_buffer_free'
p975
aS'ring_buffer_free_read_page'
p976
aS'ring_buffer_iter_empty'
p977
aS'ring_buffer_iter_peek'
p978
aS'ring_buffer_iter_reset'
p979
aS'ring_buffer_lock_reserve'
p980
aS'ring_buffer_normalize_time_stamp'
p981
aS'ring_buffer_oldest_event_ts'
p982
aS'ring_buffer_overrun_cpu'
p983
aS'ring_buffer_overruns'
p984
aS'ring_buffer_peek'
p985
aS'ring_buffer_read'
p986
aS'ring_buffer_read_events_cpu'
p987
aS'ring_buffer_read_finish'
p988
aS'ring_buffer_read_page'
p989
aS'ring_buffer_read_prepare'
p990
aS'ring_buffer_read_prepare_sync'
p991
aS'ring_buffer_read_start'
p992
aS'ring_buffer_record_disable'
p993
aS'ring_buffer_record_disable_cpu'
p994
aS'ring_buffer_record_enable'
p995
aS'ring_buffer_record_enable_cpu'
p996
aS'ring_buffer_record_off'
p997
aS'ring_buffer_record_on'
p998
aS'ring_buffer_reset'
p999
aS'ring_buffer_reset_cpu'
p1000
aS'ring_buffer_resize'
p1001
aS'ring_buffer_size'
p1002
aS'ring_buffer_swap_cpu'
p1003
aS'ring_buffer_time_stamp'
p1004
aS'ring_buffer_unlock_commit'
p1005
aS'ring_buffer_write'
p1006
aS'task_handoff_register'
p1007
aS'task_handoff_unregister'
p1008
aS'trace_clock_local'
p1009
ass(S'description'
p1010
g60
NS'mckinley'
p1011
tp1012
(dp1013
S'hardware'
p1014
S'Itanium II'
p1015
ss(S'image'
p1016
g124
tp1017
(dp1018
S'suggests'
p1019
S'mkvmlinuz'
p1020
sS'configs'
p1021
(lp1022
sS'install-stem'
p1023
S'vmlinux'
p1024
ss(S'image'
p1025
g51
tp1026
(dp1027
S'install-stem'
p1028
S'vmlinux'
p1029
ss(S'image'
p1030
g184
tp1031
(dp1032
S'install-stem'
p1033
S'vmlinuz'
p1034
sS'configs'
p1035
(lp1036
sS'bootloaders'
p1037
(lp1038
S'grub-pc'
p1039
aS'extlinux'
p1040
ass(S'image'
p1041
g162
NS'loongson-2f'
p1042
tp1043
(dp1044
S'configs'
p1045
(lp1046
S'kernelarch-mips/config.loongson-2f'
p1047
asS'recommends'
p1048
S'libc6-loongson2f'
p1049
ss(g123
g345
g125
tp1050
(dp1051
g128
I01
sg129
(lp1052
S'sparc64'
p1053
aS'sparc64-smp'
p1054
ass(S'relations'
p1055
g231
tp1056
(dp1057
S'gcc-4.8'
p1058
S'gcc-4.8 (>= 4.8.2-21)'
p1059
ss(g123
g606
g125
tp1060
(dp1061
g128
I01
sg129
(lp1062
S'alpha-generic'
p1063
aS'alpha-smp'
p1064
ass(S'description'
p1065
g184
g294
S'686-pae'
p1066
tp1067
(dp1068
S'parts'
p1069
(lp1070
S'xen'
p1071
ass(g123
g60
g125
tp1072
(dp1073
g128
I01
sg129
(lp1074
S'itanium'
p1075
aS'mckinley'
p1076
ass(S'base'
p1077
g124
tp1078
(dp1079
S'kernel-arch'
p1080
S'powerpc'
p1081
sg331
(lp1082
g125
ass(S'image'
p1083
g184
NS'amd64'
p1084
tp1085
(dp1086
S'configs'
p1087
(lp1088
S'kernelarch-x86/config-arch-64'
p1089
asS'recommends'
p1090
S'libc6-i686'
p1091
ss(S'build'
p1092
g142
tp1093
(dp1094
S'image-file'
p1095
S'arch/s390/boot/image'
p1096
ss(S'build'
p1097
g403
tp1098
(dp1099
S'image-file'
p1100
S'vmlinux'
p1101
ss(g123
g51
g125
tp1102
(dp1103
g128
I01
sg129
(lp1104
S'r4k-ip22'
p1105
aS'r5k-ip32'
p1106
aS'sb1-bcm91250a'
p1107
aS'4kc-malta'
p1108
aS'5kc-malta'
p1109
aS'octeon'
p1110
ass(S'build'
p1111
g606
tp1112
(dp1113
S'image-file'
p1114
S'arch/alpha/boot/vmlinux.gz'
p1115
ss(S'image'
p1116
g133
tp1117
(dp1118
S'install-stem'
p1119
S'vmlinux'
p1120
ss(S'abi'
p1121
Ng362
tp1122
(dp1123
S'ignore-changes'
p1124
(lp1125
S'*'
p1126
ass(S'base'
p1127
S'x32'
p1128
tp1129
(dp1130
S'kernel-arch'
p1131
S'x86'
p1132
sS'featuresets'
p1133
(lp1134
ss(S'build'
p1135
g267
tp1136
(dp1137
S'image-file'
p1138
S'arch/sh/boot/zImage'
p1139
ss(S'image'
p1140
g117
tp1141
(dp1142
S'suggests'
p1143
S'vmelilo, fdutils'
p1144
sS'install-stem'
p1145
S'vmlinuz'
p1146
ss(S'image'
p1147
g51
NS'sb1-bcm91250a'
p1148
tp1149
(dp1150
S'configs'
p1151
(lp1152
S'kernelarch-mips/config.sb1-bcm91250a'
p1153
ass(S'base'
p1154
g112
S'none'
p1155
tp1156
(dp1157
S'flavours'
p1158
(lp1159
S'arm64'
p1160
ass(S'build'
p1161
g133
tp1162
(dp1163
S'image-file'
p1164
S'vmlinux'
p1165
ss(S'build'
p1166
g71
tp1167
(dp1168
S'image-file'
p1169
S'arch/arm/boot/zImage'
p1170
ss(S'description'
p1171
g267
NS'sh7785lcr'
p1172
tp1173
(dp1174
S'hardware'
p1175
S'sh7785lcr'
p1176
sS'hardware-long'
p1177
S'Renesas SH7785 reference board'
p1178
ss(S'build'
p1179
g60
tp1180
(dp1181
S'image-file'
p1182
S'vmlinux.gz'
p1183
ss(S'base'
p1184
g71
tp1185
(dp1186
S'kernel-arch'
p1187
S'arm'
p1188
sg331
(lp1189
g125
ass(S'image'
p1190
g267
tp1191
(dp1192
S'suggests'
p1193
S'fdutils'
p1194
sS'install-stem'
p1195
S'vmlinuz'
p1196
ss(S'build'
p1197
g373
NS's390x'
p1198
tp1199
(dp1200
S'debug-info'
p1201
I01
ss(S'base'
p1202
g18
tp1203
(dp1204
S'kernel-arch'
p1205
S'parisc'
p1206
sg331
(lp1207
g125
ass(S'image'
p1208
g142
NS's390x'
p1209
tp1210
(dp1211
S'configs'
p1212
(lp1213
S'kernelarch-s390/config-arch-64'
p1214
ass(S'image'
p1215
g345
tp1216
(dp1217
S'suggests'
p1218
S'silo, fdutils'
p1219
sS'configs'
p1220
(lp1221
sS'install-stem'
p1222
S'vmlinuz'
p1223
ss(S'description'
p1224
tp1225
(dp1226
S'part-long-up'
p1227
S'This kernel is not suitable for SMP (multi-processor,\nmulti-core or hyper-threaded) systems.'
p1228
sS'part-long-xen'
p1229
S'This kernel also runs on a Xen hypervisor.\nIt supports both privileged (dom0) and unprivileged (domU) operation.'
p1230
ss(S'build'
p1231
g85
tp1232
(dp1233
S'image-file'
p1234
S'arch/sparc/boot/zImage'
p1235
ss(S'relations'
p1236
g71
tp1237
(dp1238
S'headers%gcc-4.8'
p1239
S'linux-compiler-gcc-4.8-arm'
p1240
ss(S'image'
p1241
g34
NS'ixp4xx'
p1242
tp1243
(dp1244
S'check-size'
p1245
S'1441760'
p1246
sS'configs'
p1247
(lp1248
S'armel/config-reduced'
p1249
aS'armel/config.ixp4xx'
p1250
ass(S'image'
p1251
g345
NS'sparc64-smp'
p1252
tp1253
(dp1254
S'configs'
p1255
(lp1256
S'kernelarch-sparc/config-smp'
p1257
ass(S'description'
p1258
g71
NS'armmp'
p1259
tp1260
(dp1261
S'hardware'
p1262
S'ARMv7 multiplatform compatible SoCs'
p1263
sS'hardware-long'
p1264
S'ARMv7 multiplatform kernel. See\nhttps://wiki.debian.org/DebianKernel/ARMMP for details of supported\nplatforms'
p1265
ss(S'image'
p1266
g85
tp1267
(dp1268
S'suggests'
p1269
S'silo, fdutils'
p1270
sS'configs'
p1271
(lp1272
sS'install-stem'
p1273
S'vmlinuz'
p1274
ss(S'description'
p1275
g162
NS'sb1-bcm91250a'
p1276
tp1277
(dp1278
S'hardware'
p1279
S'BCM91250A'
p1280
sS'hardware-long'
p1281
S'Broadcom BCM91250A systems (aka SWARM)'
p1282
ss(S'relations'
p1283
g142
tp1284
(dp1285
S'headers%gcc-4.8'
p1286
S'linux-compiler-gcc-4.8-s390'
p1287
ss(S'description'
p1288
g18
NS'parisc64-smp'
p1289
tp1290
(dp1291
S'hardware'
p1292
S'multiprocessor 64-bit PA-RISC'
p1293
sS'hardware-long'
p1294
S'HP PA-RISC 64-bit SMP systems with support for more than 4 GB RAM'
p1295
ss(S'image'
p1296
g184
NS'586'
p1297
tp1298
(dp1299
S'configs'
p1300
(lp1301
S'kernelarch-x86/config-arch-32'
p1302
aS'i386/config.586'
p1303
ass(S'image'
p1304
g124
NS'powerpc64'
p1305
tp1306
(dp1307
S'configs'
p1308
(lp1309
S'kernelarch-powerpc/config-arch-64'
p1310
aS'kernelarch-powerpc/config-arch-64-be'
p1311
ass(S'abi'
p1312
g34
NS'ixp4xx'
p1313
tp1314
(dp1315
S'ignore-changes'
p1316
(lp1317
S'__ring_buffer_alloc'
p1318
aS'dcookie_register'
p1319
aS'dcookie_unregister'
p1320
aS'get_dcookie'
p1321
aS'prof_on'
p1322
aS'profile_event_register'
p1323
aS'profile_event_unregister'
p1324
aS'profile_hits'
p1325
aS'ring_buffer_alloc_read_page'
p1326
aS'ring_buffer_bytes_cpu'
p1327
aS'ring_buffer_change_overwrite'
p1328
aS'ring_buffer_commit_overrun_cpu'
p1329
aS'ring_buffer_consume'
p1330
aS'ring_buffer_discard_commit'
p1331
aS'ring_buffer_dropped_events_cpu'
p1332
aS'ring_buffer_empty'
p1333
aS'ring_buffer_empty_cpu'
p1334
aS'ring_buffer_entries'
p1335
aS'ring_buffer_entries_cpu'
p1336
aS'ring_buffer_event_data'
p1337
aS'ring_buffer_event_length'
p1338
aS'ring_buffer_free'
p1339
aS'ring_buffer_free_read_page'
p1340
aS'ring_buffer_iter_empty'
p1341
aS'ring_buffer_iter_peek'
p1342
aS'ring_buffer_iter_reset'
p1343
aS'ring_buffer_lock_reserve'
p1344
aS'ring_buffer_normalize_time_stamp'
p1345
aS'ring_buffer_oldest_event_ts'
p1346
aS'ring_buffer_overrun_cpu'
p1347
aS'ring_buffer_overruns'
p1348
aS'ring_buffer_peek'
p1349
aS'ring_buffer_read'
p1350
aS'ring_buffer_read_events_cpu'
p1351
aS'ring_buffer_read_finish'
p1352
aS'ring_buffer_read_page'
p1353
aS'ring_buffer_read_prepare'
p1354
aS'ring_buffer_read_prepare_sync'
p1355
aS'ring_buffer_read_start'
p1356
aS'ring_buffer_record_disable'
p1357
aS'ring_buffer_record_disable_cpu'
p1358
aS'ring_buffer_record_enable'
p1359
aS'ring_buffer_record_enable_cpu'
p1360
aS'ring_buffer_record_off'
p1361
aS'ring_buffer_record_on'
p1362
aS'ring_buffer_reset'
p1363
aS'ring_buffer_reset_cpu'
p1364
aS'ring_buffer_resize'
p1365
aS'ring_buffer_size'
p1366
aS'ring_buffer_swap_cpu'
p1367
aS'ring_buffer_time_stamp'
p1368
aS'ring_buffer_unlock_commit'
p1369
aS'ring_buffer_write'
p1370
aS'task_handoff_register'
p1371
aS'task_handoff_unregister'
p1372
aS'trace_clock_local'
p1373
ass(S'relations'
p1374
g124
tp1375
(dp1376
S'gcc-4.8'
p1377
S'gcc-4.8 (>= 4.8.2-21)'
p1378
ss(S'image'
p1379
g34
NS'kirkwood'
p1380
tp1381
(dp1382
S'check-size'
p1383
S'2097080'
p1384
sS'breaks'
p1385
S'flash-kernel (<< 3.14~)'
p1386
sS'recommends'
p1387
S'u-boot-tools'
p1388
ss(S'image'
p1389
g142
tp1390
(dp1391
S'install-stem'
p1392
S'vmlinuz'
p1393
sS'configs'
p1394
(lp1395
sS'bootloaders'
p1396
(lp1397
S's390-tools'
p1398
ass(S'image'
p1399
g202
NS'powerpc64le'
p1400
tp1401
(dp1402
S'configs'
p1403
(lp1404
S'kernelarch-powerpc/config-arch-64'
p1405
aS'kernelarch-powerpc/config-arch-64-le'
p1406
ass(S'image'
p1407
g162
NS'4kc-malta'
p1408
tp1409
(dp1410
S'configs'
p1411
(lp1412
S'kernelarch-mips/config.4kc-malta'
p1413
ass(S'build'
p1414
g373
tp1415
(dp1416
S'image-file'
p1417
S'arch/s390/boot/image'
p1418
ss(S'description'
p1419
g51
NS'octeon'
p1420
tp1421
(dp1422
S'hardware'
p1423
S'Octeon'
p1424
sS'hardware-long'
p1425
S'Cavium Networks Octeon'
p1426
ss(S'description'
p1427
g231
NS'powerpc-smp'
p1428
tp1429
(dp1430
S'hardware'
p1431
S'multiprocessor 32-bit PowerPC'
p1432
ss(S'abi'
p1433
tp1434
(dp1435
S'abiname'
p1436
S'4'
p1437
sS'ignore-changes'
p1438
(lp1439
S'module:arch/x86/kvm/kvm'
p1440
aS'module:drivers/md/dm-snapshot'
p1441
aS'module:drivers/misc/mei/*'
p1442
aS'module:drivers/mtd/spi-nor/spi-nor'
p1443
aS'module:drivers/net/ethernet/broadcom/bnx2x/bnx2x'
p1444
aS'module:drivers/net/wireless/**'
p1445
aS'module:drivers/scsi/qla2xxx/qla2xxx'
p1446
aS'module:drivers/target/iscsi/iscsi_target_mod'
p1447
aS'module:drivers/target/target_core_mod'
p1448
aS'module:drivers/usb/musb/*'
p1449
aS'module:net/ceph/libceph'
p1450
aS'module:sound/firewire/snd-firewire-lib'
p1451
aS'module:sound/i2c/other/snd-ak4113'
p1452
aS'module:sound/i2c/other/snd-ak4114'
p1453
aS'module:sound/pci/emu10k1/*'
p1454
aS'azx_alloc_cmd_io'
p1455
aS'azx_free_cmd_io'
p1456
aS'azx_get_response'
p1457
aS'azx_init_cmd_io'
p1458
aS'azx_send_cmd'
p1459
aS'cpuidle_*'
p1460
aS'musb_*'
p1461
aS'__add_pages'
p1462
aS'__remove_pages'
p1463
aS'nf_register_queue_handler'
p1464
aS'of_device_is_stdout_path'
p1465
aS'module:sound/soc/*'
p1466
aS'blk_rq_check_limits'
p1467
aS'clk_divider_ro_ops'
p1468
aS'tick_nohz_idle_enter'
p1469
aS'tick_nohz_idle_exit'
p1470
aS'skb_copy_and_csum_datagram_iovec'
p1471
aS'module:net/dccp/dccp'
p1472
aS'fl6_*'
p1473
aS'inet_sk_diag_fill'
p1474
aS'ip6_append_data'
p1475
aS'ip6_datagram_send_ctl'
p1476
aS'ip6_xmit'
p1477
aS'ipv6_dup_options'
p1478
aS'ipv6_fixup_options'
p1479
aS'ipv6_push_nfrag_opts'
p1480
aS'tcp_cong_avoid_ai'
p1481
aS'tcp_slow_start'
p1482
aS'__scm_destroy'
p1483
aS'__scm_send'
p1484
aS'scm_detach_fds'
p1485
aS'scm_fp_dup'
p1486
aS'af_alg_*'
p1487
aS'xt_compat_match_from_user'
p1488
aS'efivar_validate'
p1489
aS'zpci_disable_device'
p1490
aS'zpci_enable_device'
p1491
aS'zpci_stop_device'
p1492
ass(S'description'
p1493
g202
NS'powerpc64le'
p1494
tp1495
(dp1496
S'hardware'
p1497
S'Little-endian 64-bit PowerPC'
p1498
ss(g123
g403
g125
tp1499
(dp1500
g128
I01
sg129
(lp1501
S'powerpcspe'
p1502
ass(S'description'
p1503
g373
NS's390x'
p1504
tp1505
(dp1506
S'hardware'
p1507
S'IBM zSeries'
p1508
ss(S'image'
p1509
g345
NS'sparc32'
p1510
tp1511
(dp1512
S'image-postproc'
p1513
S'sparc32-image-postproc'
p1514
ss(S'description'
p1515
g43
NS'loongson-3'
p1516
tp1517
(dp1518
S'hardware'
p1519
S'Loongson 3A/3B'
p1520
sS'hardware-long'
p1521
S'Loongson 3A or 3B based systems (e.g. from Loongson or Lemote)'
p1522
ss(S'base'
p1523
g184
g294
tp1524
(dp1525
S'flavours'
p1526
(lp1527
S'586'
p1528
aS'686-pae'
p1529
aS'amd64'
p1530
ass(S'base'
p1531
tp1532
(dp1533
S'arches'
p1534
(lp1535
S'alpha'
p1536
aS'amd64'
p1537
aS'arm64'
p1538
aS'armel'
p1539
aS'armhf'
p1540
aS'hppa'
p1541
aS'i386'
p1542
aS'ia64'
p1543
aS'm68k'
p1544
aS'mips'
p1545
aS'mipsel'
p1546
aS'mips64'
p1547
aS'mips64el'
p1548
aS'or1k'
p1549
aS'powerpc'
p1550
aS'powerpcspe'
p1551
aS'ppc64'
p1552
aS'ppc64el'
p1553
aS's390'
p1554
aS's390x'
p1555
aS'sh4'
p1556
aS'sparc'
p1557
aS'sparc64'
p1558
aS'x32'
p1559
asS'featuresets'
p1560
(lp1561
S'none'
p1562
aS'rt'
p1563
asS'compiler'
p1564
S'gcc-4.8'
p1565
ss(S'build'
p1566
g117
tp1567
(dp1568
S'image-file'
p1569
S'vmlinux.gz'
p1570
ss(S'build'
p1571
g34
tp1572
(dp1573
S'image-file'
p1574
S'arch/arm/boot/zImage'
p1575
ss(g123
g231
g125
tp1576
(dp1577
g128
I01
sg129
(lp1578
S'powerpc'
p1579
aS'powerpc-smp'
p1580
aS'powerpc64'
p1581
ass(S'description'
p1582
g5
NS'amd64'
p1583
tp1584
(dp1585
S'hardware'
p1586
S'64-bit PCs'
p1587
sS'hardware-long'
p1588
S'PCs with AMD64, Intel 64 or VIA Nano processors'
p1589
ss(S'base'
p1590
g202
tp1591
(dp1592
S'kernel-arch'
p1593
S'powerpc'
p1594
sg331
(lp1595
g125
ass(S'base'
p1596
g43
tp1597
(dp1598
S'kernel-arch'
p1599
S'mips'
p1600
sg331
(lp1601
g125
ass(S'base'
p1602
g117
tp1603
(dp1604
S'kernel-arch'
p1605
S'm68k'
p1606
sg331
(lp1607
g125
asS'cflags'
p1608
S'-ffreestanding'
p1609
sS'compiler'
p1610
S'gcc-4.8'
p1611
ss(S'image'
p1612
tp1613
(dp1614
S'initramfs-generators'
p1615
(lp1616
S'initramfs-tools'
p1617
aS'initramfs-fallback'
p1618
asS'type'
p1619
S'plain'
p1620
ss(S'description'
p1621
g133
NS'octeon'
p1622
tp1623
(dp1624
S'hardware'
p1625
S'Octeon'
p1626
sS'hardware-long'
p1627
S'Cavium Networks Octeon'
p1628
ss(g123
g85
g125
tp1629
(dp1630
g128
I01
sg129
(lp1631
S'sparc64'
p1632
aS'sparc64-smp'
p1633
ass(S'description'
p1634
g162
NS'loongson-2e'
p1635
tp1636
(dp1637
S'hardware'
p1638
S'Loongson 2E'
p1639
sS'hardware-long'
p1640
S'Lemote Loongson 2E systems'
p1641
ss(S'image'
p1642
g162
NS'loongson-2e'
p1643
tp1644
(dp1645
S'configs'
p1646
(lp1647
S'kernelarch-mips/config.loongson-2e'
p1648
ass(S'description'
p1649
g43
NS'octeon'
p1650
tp1651
(dp1652
S'hardware'
p1653
S'Octeon'
p1654
sS'hardware-long'
p1655
S'Cavium Networks Octeon'
p1656
ss(S'description'
p1657
g345
NS'sparc32'
p1658
tp1659
(dp1660
S'hardware'
p1661
S'uniprocessor sparc32 (sun4m)'
p1662
ss(S'description'
p1663
g184
NS'amd64'
p1664
tp1665
(dp1666
S'hardware'
p1667
S'64-bit PCs'
p1668
sS'parts'
p1669
(lp1670
S'xen'
p1671
asS'hardware-long'
p1672
S'PCs with AMD64, Intel 64 or VIA Nano processors'
p1673
ss(S'base'
p1674
S'or1k'
p1675
tp1676
(dp1677
S'kernel-arch'
p1678
S'openrisc'
p1679
sS'featuresets'
p1680
(lp1681
ss(S'base'
p1682
g267
tp1683
(dp1684
S'kernel-arch'
p1685
S'sh'
p1686
sg331
(lp1687
g125
ass(S'description'
p1688
g184
NS'686-pae'
p1689
tp1690
(dp1691
S'hardware'
p1692
S'modern PCs'
p1693
sS'parts'
p1694
(lp1695
S'pae'
p1696
asS'hardware-long'
p1697
S'PCs with one or more processors supporting PAE'
p1698
ss(S'image'
p1699
g51
NS'octeon'
p1700
tp1701
(dp1702
S'configs'
p1703
(lp1704
S'kernelarch-mips/config.octeon'
p1705
ass(S'build'
p1706
g184
NS'686-pae'
p1707
tp1708
(dp1709
S'debug-info'
p1710
I01
ss(S'image'
p1711
g112
tp1712
(dp1713
S'install-stem'
p1714
S'vmlinuz'
p1715
ss(S'image'
p1716
g231
NS'powerpc-smp'
p1717
tp1718
(dp1719
S'configs'
p1720
(lp1721
S'powerpc/config.powerpc'
p1722
aS'powerpc/config.powerpc-smp'
p1723
ass(S'build'
p1724
g184
tp1725
(dp1726
S'image-file'
p1727
S'arch/x86/boot/bzImage'
p1728
ss(g123
g202
g125
tp1729
(dp1730
g128
I01
sg129
(lp1731
S'powerpc64le'
p1732
ass(S'image'
p1733
g43
NS'loongson-3'
p1734
tp1735
(dp1736
S'configs'
p1737
(lp1738
S'kernelarch-mips/config.loongson-3'
p1739
asstp1740
Rp1741
.