cdebian_linux.config
ConfigCore
p0
(tRp1
(Vabi
p2
tp3
(dp4
Vabiname
p5
V33
p6
sVignore-changes
p7
(lp8
V__cpuhp_*
p9
aV__udp_gso_segment
p10
aVbpf_analyzer
p11
aVbpf_offload_dev_create
p12
aVbpf_verifier_log_write
p13
aVcxl_*
p14
aVdax_flush
p15
aVieee80211_nullfunc_get
p16
aVinet_add_protocol
p17
aVinet_del_protocol
p18
aViommu_device_*
p19
aVmm_iommu_*
p20
aVmv_mbus_*
p21
aVperf_*
p22
aVregister_cxl_calls
p23
aVregister_key_type
p24
aVunregister_cxl_calls
p25
aV*_hw_breakpoint
p26
aVmodule:drivers/crypto/ccp/*
p27
aVmodule:drivers/hv/*
p28
aVmodule:drivers/gpu/drm/sun4i/*
p29
aVmodule:drivers/iio/**
p30
aVmodule:drivers/misc/cxl/*
p31
aVmodule:drivers/misc/lis3lv02d/*
p32
aVmodule:drivers/mtd/nand/*
p33
aVmodule:drivers/net/ethernet/**
p34
aVmodule:drivers/net/wireless/**
p35
aVmodule:drivers/nvdimm/*
p36
aVmodule:drivers/nvme/**
p37
aVmodule:drivers/power/supply/bq27xxx_battery
p38
aVmodule:drivers/scsi/cxgbi/*
p39
aVmodule:drivers/scsi/libiscs*
p40
aVmodule:drivers/scsi/qla2xxx/qla2xxx
p41
aVmodule:drivers/scsi/ufs/*
p42
aVmodule:drivers/target/**
p43
aVmodule:drivers/usb/chipidea/**
p44
aVmodule:drivers/usb/gadget/**
p45
aVmodule:drivers/usb/host/**
p46
aVmodule:drivers/usb/musb/**
p47
aVmodule:fs/nfs/**
p48
aVmodule:net/ceph/libceph
p49
aVmodule:net/l2tp/**
p50
aVmodule:net/openvswitch/**
p51
aVmodule:net/rxrpc/rxrpc
p52
aVmodule:net/sctp/**
p53
aVmodule:sound/core/seq/**
p54
aVmodule:sound/firewire/snd-firewire-lib
p55
aVmodule:sound/pci/hda/*
p56
aVbtree_*
p57
aVvisitor*
p58
aVcan_rx_register
p59
aVip6_xmit
p60
aVmodule:net/dccp/dccp
p61
aVmodule:net/rds/rds
p62
aVdevfreq_*
p63
aVdevm_devfreq_*
p64
aVupdate_devfreq
p65
aVmodule:drivers/infiniband/**
p66
aVacpi_ec_add_query_handler
p67
aVacpi_ec_remove_query_handler
p68
aVfirst_ec
p69
aVdebugfs_create_automount
p70
aVmodule:drivers/iio/imu/inv_mpu6050/*
p71
aVdrm_crtc_accurate_vblank_count
p72
aVacpi_nfit_desc_init
p73
aVacpi_nfit_init
p74
aVloop_register_transfer
p75
aVxen_xlate_*
p76
aVnf_nat_masquerade_ipv4_register_notifier
p77
aVnf_nat_masquerade_ipv6_register_notifier
p78
aVdfltcc_*
p79
aVmodule:drivers/scsi/hisi_sas/*
p80
aV__gfn_*
p81
aV__kvmhv_*
p82
aV__kvm_*
p83
aV__xive_vm_h_*
p84
aVgfn_*
p85
aVh_ipi_redirect
p86
aVhalt_poll_ns*
p87
aVkvm_*
p88
aVkvmhv_*
p89
aVkvmppc_*
p90
aVmark_page_dirty
p91
aVvcpu_*
p92
aVmodule:arch/powerpc/kvm/*
p93
aVmodule:arch/s390/kvm/*
p94
aVmodule:arch/x86/kvm/*
p95
aVuv_info
p96
aVxhci_init_driver
p97
aVnft_parse_register
p98
ass(Vbase
p99
tp100
(dp101
Varches
p102
(lp103
Valpha
p104
aVamd64
p105
aVarm64
p106
aVarm64ilp32
p107
aVarmel
p108
aVarmhf
p109
aVhppa
p110
aVi386
p111
aVia64
p112
aVm68k
p113
aVmips
p114
aVmips64
p115
aVmips64el
p116
aVmips64r6
p117
aVmips64r6el
p118
aVmipsel
p119
aVmipsn32
p120
aVmipsn32el
p121
aVmipsn32r6
p122
aVmipsn32r6el
p123
aVmipsr6
p124
aVmipsr6el
p125
aVpowerpc
p126
aVppc64
p127
aVppc64el
p128
aVriscv64
p129
aVs390
p130
aVs390x
p131
aVsh3
p132
aVsh4
p133
aVsparc
p134
aVsparc64
p135
aVx32
p136
asVcompiler
p137
Vgcc-10
p138
sVfeaturesets
p139
(lp140
Vnone
p141
aVrt
p142
ass(Vbuild
p143
tp144
(dp145
Vdebug-info
p146
I01
sVsigned-code
p147
I00
ss(Vbase
p148
NVrt
p149
tp150
(dp151
Venabled
p152
I01
ss(Vdescription
p153
tp154
(dp155
Vpart-long-up
p156
VThis kernel is not suitable for SMP (multi-processor,\u000amulti-core or hyper-threaded) systems.
p157
ss(Vimage
p158
tp159
(dp160
Vinitramfs-generators
p161
(lp162
Vinitramfs-tools
p163
aVinitramfs-fallback
p164
asVbreaks
p165
(lp166
Vfwupdate (<< 12-7)
p167
aVwireless-regdb (<< 2019.06.03-1~)
p168
asVrecommends
p169
(lp170
Vapparmor
p171
ass(Vrelations
p172
tp173
(dp174
Vgcc-10
p175
Vgcc-10 <!stage1 !cross !pkg.linux.nokernel>, gcc-10-@gnu-type-package@ <!stage1 cross !pkg.linux.nokernel>
p176
sVinitramfs-fallback
p177
Vlinux-initramfs-tool
p178
sVinitramfs-tools
p179
Vinitramfs-tools (>= 0.120+deb8u2)
p180
ss(Vbase
p181
Valpha
p182
tp183
(dp184
Vdefault-flavour
p185
Valpha-smp
p186
sVkernel-arch
p187
Valpha
p188
sVfeaturesets
p189
(lp190
Vnone
p191
ass(Vbuild
p192
g182
tp193
(dp194
Vimage-file
p195
Varch/alpha/boot/vmlinux.gz
p196
ss(Vimage
p197
g182
tp198
(dp199
Vsuggests
p200
(lp201
Vaboot
p202
aVfdutils
p203
asVinstall-stem
p204
Vvmlinuz
p205
ss(Vdescription
p206
g182
NValpha-generic
p207
tp208
(dp209
Vhardware
p210
VAlpha
p211
sVhardware-long
p212
VDEC Alpha systems with extended kernel start address (Wildfire, Titan, Marvel)
p213
ss(Vdescription
p214
g182
NValpha-smp
p215
tp216
(dp217
Vhardware
p218
VAlpha SMP
p219
sVhardware-long
p220
VDEC Alpha SMP systems with extended kernel start address (Wildfire, Titan, Marvel)
p221
ss(Vbase
p222
g182
g191
tp223
(dp224
Vflavours
p225
(lp226
Valpha-generic
p227
aValpha-smp
p228
asVimplicit-flavour
p229
I01
ss(Vbase
p230
Vamd64
p231
tp232
(dp233
Vfeaturesets
p234
(lp235
Vnone
p236
aVrt
p237
asVkernel-arch
p238
Vx86
p239
ss(Vbuild
p240
g231
tp241
(dp242
Vimage-file
p243
Varch/x86/boot/bzImage
p244
sVsigned-code
p245
I01
sVvdso
p246
I01
ss(Vimage
p247
g231
tp248
(dp249
Vbootloaders
p250
(lp251
Vgrub-pc
p252
aVgrub-efi-amd64
p253
aVextlinux
p254
asVinstall-stem
p255
Vvmlinuz
p256
sVbreaks
p257
(lp258
Vxserver-xorg-input-vmmouse (<< 1:13.0.99)
p259
ass(Vrelations
p260
g231
tp261
(dp262
Vheaders%gcc-10
p263
Vlinux-compiler-gcc-10-x86
p264
ss(Vdescription
p265
g231
NVamd64
p266
tp267
(dp268
Vhardware
p269
V64-bit PCs
p270
sVhardware-long
p271
VPCs with AMD64, Intel 64 or VIA Nano processors
p272
ss(Vdescription
p273
g231
NVcloud-amd64
p274
tp275
(dp276
Vhardware
p277
Vx86-64 cloud
p278
sVhardware-long
p279
Vcloud platforms including Amazon EC2, Microsoft Azure, and Google Compute Engine
p280
ss(Vbase
p281
g231
Vnone
p282
tp283
(dp284
Vflavours
p285
(lp286
Vamd64
p287
aVcloud-amd64
p288
asVdefault-flavour
p289
Vamd64
p290
sVquick-flavour
p291
Vcloud-amd64
p292
ss(Vimage
p293
g231
g282
Vcloud-amd64
p294
tp295
(dp296
Vconfigs
p297
(lp298
Vconfig.cloud
p299
aVamd64/config.cloud-amd64
p300
ass(Vbase
p301
g231
Vrt
p302
tp303
(dp304
Vflavours
p305
(lp306
Vamd64
p307
ass(Vbase
p308
Varm64
p309
tp310
(dp311
Vcross-compile-compat
p312
Varm-linux-gnueabihf-
p313
sVkernel-arch
p314
Varm64
p315
sVfeaturesets
p316
(lp317
Vnone
p318
aVrt
p319
ass(Vbuild
p320
g309
tp321
(dp322
Vimage-file
p323
Varch/arm64/boot/Image
p324
sVsigned-code
p325
I01
sVvdso
p326
I01
ss(Vimage
p327
g309
tp328
(dp329
Vinstall-stem
p330
Vvmlinuz
p331
sVbreaks
p332
(lp333
Vlibmozjs185-1.0
p334
aVlibmozjs-24-0 (<< 24.2.0-5.1~)
p335
ass(Vdescription
p336
g309
NVarm64
p337
tp338
(dp339
Vhardware
p340
V64-bit ARMv8 machines
p341
ss(Vdescription
p342
g309
NVcloud-arm64
p343
tp344
(dp345
Vhardware
p346
Varm64 cloud
p347
sVhardware-long
p348
Vcloud platforms supporting arm64 virtual machines
p349
ss(Vimage
p350
g309
NVarm64
p351
tp352
(dp353
s(Vrelations
p354
g309
tp355
(dp356
Vgcc-10
p357
Vgcc-10 <!stage1 !cross !pkg.linux.nokernel>, gcc-10-aarch64-linux-gnu <!stage1 cross !pkg.linux.nokernel>, gcc-arm-linux-gnueabihf <!stage1 !pkg.linux.nokernel>
p358
sVheaders%gcc-10
p359
Vgcc-10
p360
ss(Vbase
p361
g309
Vnone
p362
tp363
(dp364
Vflavours
p365
(lp366
Varm64
p367
aVcloud-arm64
p368
asVdefault-flavour
p369
Varm64
p370
sVquick-flavour
p371
Vcloud-arm64
p372
ss(Vimage
p373
g309
g362
Vcloud-arm64
p374
tp375
(dp376
Vconfigs
p377
(lp378
Vconfig.cloud
p379
aVarm64/config.cloud-arm64
p380
ass(Vbase
p381
g309
Vrt
p382
tp383
(dp384
Vflavours
p385
(lp386
Varm64
p387
ass(Vbase
p388
Varm64ilp32
p389
tp390
(dp391
Vkernel-arch
p392
Varm64
p393
sVfeaturesets
p394
(lp395
ss(Vbase
p396
Varmel
p397
tp398
(dp399
Vkernel-arch
p400
Varm
p401
sg189
(lp402
g191
ass(Vbuild
p403
g397
tp404
(dp405
Vimage-file
p406
Varch/arm/boot/zImage
p407
sVuncompressed-image-file
p408
Varch/arm/boot/Image
p409
ss(Vimage
p410
g397
tp411
(dp412
Vinstall-stem
p413
Vvmlinuz
p414
ss(Vrelations
p415
g397
tp416
(dp417
Vheaders%gcc-10
p418
Vlinux-compiler-gcc-10-arm
p419
ss(Vdescription
p420
g397
NVmarvell
p421
tp422
(dp423
Vhardware
p424
VMarvell Kirkwood/Orion
p425
sVhardware-long
p426
VMarvell Kirkwood and Orion based systems (https://wiki.debian.org/ArmEabiPort#Supported_hardware)
p427
ss(Vdescription
p428
g397
NVrpi
p429
tp430
(dp431
Vhardware
p432
VRaspberry Pi and Pi Zero
p433
sVhardware-long
p434
VRaspberry Pi, Raspberry Pi Zero based systems
p435
ss(Vimage
p436
g397
NVmarvell
p437
tp438
(dp439
Vrecommends
p440
(lp441
Vu-boot-tools
p442
asVcheck-size
p443
I2729712
sVcheck-size-with-dtb
p444
I01
sVbreaks
p445
(lp446
Vflash-kernel (<< 3.57~)
p447
ass(g222
g397
g191
tp448
(dp449
g225
(lp450
Vmarvell
p451
aVrpi
p452
asg229
I01
ss(Vbase
p453
Varmhf
p454
tp455
(dp456
Vfeaturesets
p457
(lp458
Vnone
p459
aVrt
p460
asVkernel-arch
p461
Varm
p462
ss(Vbuild
p463
g454
tp464
(dp465
Vimage-file
p466
Varch/arm/boot/zImage
p467
sVvdso
p468
I01
ss(Vimage
p469
g454
tp470
(dp471
Vinstall-stem
p472
Vvmlinuz
p473
ss(Vrelations
p474
g454
tp475
(dp476
Vheaders%gcc-10
p477
Vlinux-compiler-gcc-10-arm
p478
ss(Vdescription
p479
g454
NVarmmp
p480
tp481
(dp482
Vhardware
p483
VARMv7 multiplatform compatible SoCs
p484
sVhardware-long
p485
VARMv7 multiplatform kernel. See\u000ahttps://wiki.debian.org/DebianKernel/ARMMP for details of supported\u000aplatforms
p486
ss(Vdescription
p487
g454
NVarmmp-lpae
p488
tp489
(dp490
Vhardware
p491
VARMv7 multiplatform compatible SoCs supporting LPAE
p492
sVhardware-long
p493
VARMv7 multiplatform kernel supporting LPAE. See\u000ahttps://wiki.debian.org/DebianKernel/ARMMP for details of supported\u000aplatforms.
p494
ss(Vbase
p495
g454
Vnone
p496
tp497
(dp498
Vflavours
p499
(lp500
Varmmp
p501
aVarmmp-lpae
p502
asVdefault-flavour
p503
Varmmp
p504
ss(Vbase
p505
g454
Vrt
p506
tp507
(dp508
Vflavours
p509
(lp510
Varmmp
p511
ass(Vbase
p512
Vhppa
p513
tp514
(dp515
Vdefault-flavour
p516
Vparisc
p517
sVkernel-arch
p518
Vparisc
p519
sg189
(lp520
g191
ass(Vbuild
p521
g513
tp522
(dp523
Vimage-file
p524
Varch/parisc/boot/bzImage
p525
sVdebug-info
p526
I00
ss(Vimage
p527
g513
tp528
(dp529
Vsuggests
p530
(lp531
Vpalo
p532
asVinstall-stem
p533
Vvmlinuz
p534
ss(Vdescription
p535
g513
NVparisc
p536
tp537
(dp538
Vhardware
p539
V32-bit PA-RISC
p540
sVhardware-long
p541
VHP PA-RISC 32-bit systems with max 4 GB RAM
p542
ss(Vbase
p543
g513
NVparisc64
p544
tp545
(dp546
Vcflags
p547
V-fno-cse-follow-jumps
p548
sVoverride-host-type
p549
Vhppa64-linux-gnu
p550
ss(Vdescription
p551
g513
NVparisc64
p552
tp553
(dp554
Vhardware
p555
V64-bit PA-RISC
p556
sVhardware-long
p557
VHP PA-RISC 64-bit systems with support for more than 4 GB RAM
p558
ss(Vrelations
p559
g513
tp560
(dp561
Vgcc-10
p562
Vgcc-10 <!stage1 !cross !pkg.linux.nokernel>, gcc-10-hppa-linux-gnu <!stage1 cross !pkg.linux.nokernel>, binutils-hppa64-linux-gnu <!stage1 !pkg.linux.nokernel>, gcc-10-hppa64-linux-gnu <!stage1 !pkg.linux.nokernel>
p563
ss(g222
g513
g191
tp564
(dp565
g225
(lp566
Vparisc
p567
aVparisc64
p568
asg229
I01
ss(Vbase
p569
Vi386
p570
tp571
(dp572
Vfeaturesets
p573
(lp574
Vnone
p575
aVrt
p576
asVkernel-arch
p577
Vx86
p578
ss(Vbuild
p579
g570
tp580
(dp581
Vimage-file
p582
Varch/x86/boot/bzImage
p583
sVsigned-code
p584
I01
sVvdso
p585
I01
ss(Vdescription
p586
g570
tp587
(dp588
Vpart-long-pae
p589
VThis kernel requires PAE (Physical Address Extension).\u000aThis feature is supported by the Intel Pentium Pro/II/III/4/4M/D, Xeon,\u000aCore and Atom; AMD Geode NX, Athlon (K7), Duron, Opteron, Sempron,\u000aTurion or Phenom; Transmeta Efficeon; VIA C7; and some other processors.
p590
ss(Vimage
p591
g570
tp592
(dp593
Vbootloaders
p594
(lp595
Vgrub-pc
p596
aVgrub-efi-ia32
p597
aVextlinux
p598
asVinstall-stem
p599
Vvmlinuz
p600
sVbreaks
p601
(lp602
Vxserver-xorg-input-vmmouse (<< 1:13.0.99)
p603
ass(Vrelations
p604
g570
tp605
(dp606
Vheaders%gcc-10
p607
Vlinux-compiler-gcc-10-x86
p608
ss(Vdescription
p609
g570
NV686
p610
tp611
(dp612
Vhardware
p613
Volder PCs
p614
sVhardware-long
p615
VPCs with one or more processors not supporting PAE
p616
ss(Vdescription
p617
g570
NV686-pae
p618
tp619
(dp620
Vhardware
p621
Vmodern PCs
p622
sVhardware-long
p623
VPCs with one or more processors supporting PAE
p624
sVparts
p625
(lp626
Vpae
p627
ass(Vbase
p628
g570
Vnone
p629
tp630
(dp631
Vflavours
p632
(lp633
V686
p634
aV686-pae
p635
asVdefault-flavour
p636
V686-pae
p637
ss(Vbase
p638
g570
Vrt
p639
tp640
(dp641
Vflavours
p642
(lp643
V686-pae
p644
ass(Vbase
p645
Via64
p646
tp647
(dp648
Vdefault-flavour
p649
Vitanium
p650
sVkernel-arch
p651
Via64
p652
sg189
(lp653
g191
ass(Vbuild
p654
g646
tp655
(dp656
Vimage-file
p657
Vvmlinux.gz
p658
ss(Vimage
p659
g646
tp660
(dp661
Vbootloaders
p662
(lp663
Vgrub-efi-ia64
p664
asVinstall-stem
p665
Vvmlinuz
p666
ss(Vdescription
p667
g646
NVitanium
p668
tp669
(dp670
Vhardware
p671
VItanium (Merced)
p672
sVhardware-long
p673
Vsystems with original Itanium (Merced) processors
p674
ss(Vdescription
p675
g646
NVmckinley
p676
tp677
(dp678
Vhardware
p679
VItanium 2+
p680
sVhardware-long
p681
Vsystems with Itanium 2 or 9300/9500/9700-series processors
p682
ss(g222
g646
g191
tp683
(dp684
g225
(lp685
Vitanium
p686
aVmckinley
p687
asg229
I01
ss(Vbase
p688
Vm68k
p689
tp690
(dp691
Vcflags
p692
V-ffreestanding
p693
sVdefault-flavour
p694
Vm68k
p695
sVkernel-arch
p696
Vm68k
p697
sg189
(lp698
g191
ass(Vbuild
p699
g689
tp700
(dp701
Vimage-file
p702
Vvmlinux
p703
ss(Vimage
p704
g689
tp705
(dp706
Vsuggests
p707
(lp708
Vvmelilo
p709
aVfdutils
p710
asVinstall-stem
p711
Vvmlinux
p712
ss(Vdescription
p713
g689
NVm68k
p714
tp715
(dp716
Vhardware
p717
VMotorola MC68020+ family
p718
ss(g222
g689
g191
tp719
(dp720
g225
(lp721
Vm68k
p722
asg229
I01
ss(Vbase
p723
Vmips
p724
tp725
(dp726
Vkernel-arch
p727
Vmips
p728
sg189
(lp729
g191
ass(Vbuild
p730
g724
tp731
(dp732
Vimage-file
p733
Vvmlinuz
p734
ss(Vimage
p735
g724
tp736
(dp737
Vinstall-stem
p738
Vvmlinuz
p739
ss(Vdescription
p740
g724
NV4kc-malta
p741
tp742
(dp743
Vhardware
p744
VMIPS Malta
p745
sVhardware-long
p746
VMIPS Malta boards
p747
ss(Vimage
p748
g724
NV4kc-malta
p749
tp750
(dp751
Vconfigs
p752
(lp753
Vkernelarch-mips/config.malta
p754
aVkernelarch-mips/config.mips32r2
p755
ass(Vdescription
p756
g724
NV5kc-malta
p757
tp758
(dp759
Vhardware
p760
VMIPS Malta (64-bit)
p761
sVhardware-long
p762
VMIPS Malta boards (64-bit)
p763
ss(Vimage
p764
g724
NV5kc-malta
p765
tp766
(dp767
Vconfigs
p768
(lp769
Vkernelarch-mips/config.malta
p770
aVkernelarch-mips/config.mips64r2
p771
ass(Vdescription
p772
g724
NVocteon
p773
tp774
(dp775
Vhardware
p776
VOcteon
p777
sVhardware-long
p778
VCavium Networks Octeon
p779
ss(Vbuild
p780
g724
NVocteon
p781
tp782
(dp783
Vimage-file
p784
Vvmlinux
p785
ss(Vimage
p786
g724
NVocteon
p787
tp788
(dp789
Vinstall-stem
p790
Vvmlinux
p791
sVconfigs
p792
(lp793
Vkernelarch-mips/config.octeon
p794
ass(g222
g724
g191
tp795
(dp796
g225
(lp797
V4kc-malta
p798
aV5kc-malta
p799
aVocteon
p800
asg229
I01
ss(Vbase
p801
Vmips64
p802
tp803
(dp804
Vkernel-arch
p805
Vmips
p806
sg189
(lp807
g191
ass(Vbuild
p808
g802
tp809
(dp810
Vimage-file
p811
Vvmlinuz
p812
ss(Vimage
p813
g802
tp814
(dp815
Vinstall-stem
p816
Vvmlinuz
p817
ss(Vdescription
p818
g802
NV5kc-malta
p819
tp820
(dp821
Vhardware
p822
VMIPS Malta
p823
sVhardware-long
p824
VMIPS Malta boards
p825
ss(Vimage
p826
g802
NV5kc-malta
p827
tp828
(dp829
Vconfigs
p830
(lp831
Vkernelarch-mips/config.malta
p832
aVkernelarch-mips/config.mips64r2
p833
ass(Vdescription
p834
g802
NVocteon
p835
tp836
(dp837
Vhardware
p838
VOcteon
p839
sVhardware-long
p840
VCavium Networks Octeon
p841
ss(Vbuild
p842
g802
NVocteon
p843
tp844
(dp845
Vimage-file
p846
Vvmlinux
p847
ss(Vimage
p848
g802
NVocteon
p849
tp850
(dp851
Vinstall-stem
p852
Vvmlinux
p853
sVconfigs
p854
(lp855
Vkernelarch-mips/config.octeon
p856
ass(g222
g802
g191
tp857
(dp858
g225
(lp859
V5kc-malta
p860
aVocteon
p861
asg229
I01
ss(Vbase
p862
Vmips64el
p863
tp864
(dp865
Vkernel-arch
p866
Vmips
p867
sg189
(lp868
g191
ass(Vbuild
p869
g863
tp870
(dp871
Vimage-file
p872
Vvmlinuz
p873
ss(Vimage
p874
g863
tp875
(dp876
Vinstall-stem
p877
Vvmlinuz
p878
ss(Vdescription
p879
g863
NV5kc-malta
p880
tp881
(dp882
Vhardware
p883
VMIPS Malta
p884
sVhardware-long
p885
VMIPS Malta boards
p886
ss(Vimage
p887
g863
NV5kc-malta
p888
tp889
(dp890
Vconfigs
p891
(lp892
Vkernelarch-mips/config.malta
p893
aVkernelarch-mips/config.mips64r2
p894
ass(Vdescription
p895
g863
NVloongson-3
p896
tp897
(dp898
Vhardware
p899
VLoongson 3A/3B
p900
sVhardware-long
p901
VLoongson 3A or 3B based systems (e.g. from Loongson or Lemote)
p902
ss(Vimage
p903
g863
NVloongson-3
p904
tp905
(dp906
Vconfigs
p907
(lp908
Vkernelarch-mips/config.loongson-3
p909
ass(Vdescription
p910
g863
NVocteon
p911
tp912
(dp913
Vhardware
p914
VOcteon
p915
sVhardware-long
p916
VCavium Networks Octeon
p917
ss(Vbuild
p918
g863
NVocteon
p919
tp920
(dp921
Vimage-file
p922
Vvmlinux
p923
ss(Vimage
p924
g863
NVocteon
p925
tp926
(dp927
Vinstall-stem
p928
Vvmlinux
p929
sVconfigs
p930
(lp931
Vkernelarch-mips/config.octeon
p932
ass(g222
g863
g191
tp933
(dp934
g225
(lp935
V5kc-malta
p936
aVloongson-3
p937
aVocteon
p938
asg229
I01
ss(Vbase
p939
Vmips64r6
p940
tp941
(dp942
Vdefault-flavour
p943
Vmips64r6
p944
sVkernel-arch
p945
Vmips
p946
sg189
(lp947
g191
ass(Vbuild
p948
g940
tp949
(dp950
Vimage-file
p951
Vvmlinux
p952
ss(Vimage
p953
g940
tp954
(dp955
Vinstall-stem
p956
Vvmlinux
p957
ss(Vdescription
p958
g940
NVmips64r6
p959
tp960
(dp961
Vhardware
p962
VMIPS R6 (64 bit, big endian)
p963
sVhardware-long
p964
VMIPS R6 (64 bit, big endian)
p965
ss(Vimage
p966
g940
NVmips64r6
p967
tp968
(dp969
Vconfigs
p970
(lp971
Vkernelarch-mips/config.boston
p972
aVkernelarch-mips/config.mips64r6
p973
ass(g222
g940
g191
tp974
(dp975
g225
(lp976
Vmips64r6
p977
asg229
I01
ss(Vbase
p978
Vmips64r6el
p979
tp980
(dp981
Vdefault-flavour
p982
Vmips64r6el
p983
sVkernel-arch
p984
Vmips
p985
sg189
(lp986
g191
ass(Vbuild
p987
g979
tp988
(dp989
Vimage-file
p990
Vvmlinux
p991
ss(Vimage
p992
g979
tp993
(dp994
Vinstall-stem
p995
Vvmlinux
p996
ss(Vdescription
p997
g979
NVmips64r6el
p998
tp999
(dp1000
Vhardware
p1001
VMIPS R6 (64 bit, little endian)
p1002
sVhardware-long
p1003
VMIPS R6 (64 bit, little endian)
p1004
ss(Vimage
p1005
g979
NVmips64r6el
p1006
tp1007
(dp1008
Vconfigs
p1009
(lp1010
Vkernelarch-mips/config.boston
p1011
aVkernelarch-mips/config.mips64r6
p1012
ass(g222
g979
g191
tp1013
(dp1014
g225
(lp1015
Vmips64r6el
p1016
asg229
I01
ss(Vbase
p1017
Vmipsel
p1018
tp1019
(dp1020
Vkernel-arch
p1021
Vmips
p1022
sg189
(lp1023
g191
ass(Vbuild
p1024
g1018
tp1025
(dp1026
Vimage-file
p1027
Vvmlinuz
p1028
ss(Vimage
p1029
g1018
tp1030
(dp1031
Vinstall-stem
p1032
Vvmlinuz
p1033
ss(Vdescription
p1034
g1018
NV4kc-malta
p1035
tp1036
(dp1037
Vhardware
p1038
VMIPS Malta
p1039
sVhardware-long
p1040
VMIPS Malta boards
p1041
ss(Vimage
p1042
g1018
NV4kc-malta
p1043
tp1044
(dp1045
Vconfigs
p1046
(lp1047
Vkernelarch-mips/config.malta
p1048
aVkernelarch-mips/config.mips32r2
p1049
ass(Vdescription
p1050
g1018
NV5kc-malta
p1051
tp1052
(dp1053
Vhardware
p1054
VMIPS Malta (64-bit)
p1055
sVhardware-long
p1056
VMIPS Malta boards (64-bit)
p1057
ss(Vimage
p1058
g1018
NV5kc-malta
p1059
tp1060
(dp1061
Vconfigs
p1062
(lp1063
Vkernelarch-mips/config.malta
p1064
aVkernelarch-mips/config.mips64r2
p1065
ass(Vdescription
p1066
g1018
NVloongson-3
p1067
tp1068
(dp1069
Vhardware
p1070
VLoongson 3A/3B
p1071
sVhardware-long
p1072
VLoongson 3A or 3B based systems (e.g. from Loongson or Lemote)
p1073
ss(Vimage
p1074
g1018
NVloongson-3
p1075
tp1076
(dp1077
Vconfigs
p1078
(lp1079
Vkernelarch-mips/config.loongson-3
p1080
ass(Vdescription
p1081
g1018
NVocteon
p1082
tp1083
(dp1084
Vhardware
p1085
VOcteon
p1086
sVhardware-long
p1087
VCavium Networks Octeon
p1088
ss(Vbuild
p1089
g1018
NVocteon
p1090
tp1091
(dp1092
Vimage-file
p1093
Vvmlinux
p1094
ss(Vimage
p1095
g1018
NVocteon
p1096
tp1097
(dp1098
Vinstall-stem
p1099
Vvmlinux
p1100
sVconfigs
p1101
(lp1102
Vkernelarch-mips/config.octeon
p1103
ass(g222
g1018
g191
tp1104
(dp1105
g225
(lp1106
V4kc-malta
p1107
aV5kc-malta
p1108
aVloongson-3
p1109
aVocteon
p1110
asg229
I01
ss(Vbase
p1111
Vmipsn32
p1112
tp1113
(dp1114
Vkernel-arch
p1115
Vmips
p1116
sVfeaturesets
p1117
(lp1118
ss(Vbase
p1119
Vmipsn32el
p1120
tp1121
(dp1122
Vkernel-arch
p1123
Vmips
p1124
sVfeaturesets
p1125
(lp1126
ss(Vbase
p1127
Vmipsn32r6
p1128
tp1129
(dp1130
Vkernel-arch
p1131
Vmips
p1132
sVfeaturesets
p1133
(lp1134
ss(Vbase
p1135
Vmipsn32r6el
p1136
tp1137
(dp1138
Vkernel-arch
p1139
Vmips
p1140
sVfeaturesets
p1141
(lp1142
ss(Vbase
p1143
Vmipsr6
p1144
tp1145
(dp1146
Vdefault-flavour
p1147
Vmips32r6
p1148
sVkernel-arch
p1149
Vmips
p1150
sg189
(lp1151
g191
ass(Vbuild
p1152
g1144
tp1153
(dp1154
Vimage-file
p1155
Vvmlinux
p1156
ss(Vimage
p1157
g1144
tp1158
(dp1159
Vinstall-stem
p1160
Vvmlinux
p1161
ss(Vdescription
p1162
g1144
NVmips32r6
p1163
tp1164
(dp1165
Vhardware
p1166
VMIPS R6 (32 bit, big endian)
p1167
sVhardware-long
p1168
VMIPS R6 (32 bit, big endian)
p1169
ss(Vimage
p1170
g1144
NVmips32r6
p1171
tp1172
(dp1173
Vconfigs
p1174
(lp1175
Vkernelarch-mips/config.boston
p1176
aVkernelarch-mips/config.mips32r6
p1177
ass(Vdescription
p1178
g1144
NVmips64r6
p1179
tp1180
(dp1181
Vhardware
p1182
VMIPS R6 (64 bit, big endian)
p1183
sVhardware-long
p1184
VMIPS R6 (64 bit, big endian)
p1185
ss(Vimage
p1186
g1144
NVmips64r6
p1187
tp1188
(dp1189
Vconfigs
p1190
(lp1191
Vkernelarch-mips/config.boston
p1192
aVkernelarch-mips/config.mips64r6
p1193
ass(g222
g1144
g191
tp1194
(dp1195
g225
(lp1196
Vmips32r6
p1197
aVmips64r6
p1198
asg229
I01
ss(Vbase
p1199
Vmipsr6el
p1200
tp1201
(dp1202
Vdefault-flavour
p1203
Vmips32r6el
p1204
sVkernel-arch
p1205
Vmips
p1206
sg189
(lp1207
g191
ass(Vbuild
p1208
g1200
tp1209
(dp1210
Vimage-file
p1211
Vvmlinux
p1212
ss(Vimage
p1213
g1200
tp1214
(dp1215
Vinstall-stem
p1216
Vvmlinux
p1217
ss(Vdescription
p1218
g1200
NVmips32r6el
p1219
tp1220
(dp1221
Vhardware
p1222
VMIPS R6 (32 bit, little endian)
p1223
sVhardware-long
p1224
VMIPS R6 (32 bit, little endian)
p1225
ss(Vimage
p1226
g1200
NVmips32r6el
p1227
tp1228
(dp1229
Vconfigs
p1230
(lp1231
Vkernelarch-mips/config.boston
p1232
aVkernelarch-mips/config.mips32r6
p1233
ass(Vdescription
p1234
g1200
NVmips64r6el
p1235
tp1236
(dp1237
Vhardware
p1238
VMIPS R6 (64 bit, little endian)
p1239
sVhardware-long
p1240
VMIPS R6 (64 bit, little endian)
p1241
ss(Vimage
p1242
g1200
NVmips64r6el
p1243
tp1244
(dp1245
Vconfigs
p1246
(lp1247
Vkernelarch-mips/config.boston
p1248
aVkernelarch-mips/config.mips64r6
p1249
ass(g222
g1200
g191
tp1250
(dp1251
g225
(lp1252
Vmips32r6el
p1253
aVmips64r6el
p1254
asg229
I01
ss(Vbase
p1255
Vpowerpc
p1256
tp1257
(dp1258
Vkernel-arch
p1259
Vpowerpc
p1260
sg189
(lp1261
g191
ass(Vbuild
p1262
g1256
tp1263
(dp1264
Vimage-file
p1265
Vvmlinux
p1266
sVvdso
p1267
I01
ss(Vimage
p1268
g1256
tp1269
(dp1270
Vconfigs
p1271
(lp1272
sVbootloaders
p1273
(lp1274
Vgrub-ieee1275
p1275
asVsuggests
p1276
(lp1277
Vmkvmlinuz
p1278
asVinstall-stem
p1279
Vvmlinux
p1280
ss(Vdescription
p1281
g1256
NVpowerpc
p1282
tp1283
(dp1284
Vhardware
p1285
Vuniprocessor 32-bit PowerPC
p1286
ss(Vdescription
p1287
g1256
NVpowerpc-smp
p1288
tp1289
(dp1290
Vhardware
p1291
Vmultiprocessor 32-bit PowerPC
p1292
ss(Vimage
p1293
g1256
NVpowerpc-smp
p1294
tp1295
(dp1296
Vconfigs
p1297
(lp1298
Vpowerpc/config.powerpc
p1299
aVpowerpc/config.powerpc-smp
p1300
ass(Vdescription
p1301
g1256
NVpowerpc64
p1302
tp1303
(dp1304
Vhardware
p1305
V64-bit PowerPC
p1306
ss(Vimage
p1307
g1256
NVpowerpc64
p1308
tp1309
(dp1310
Vconfigs
p1311
(lp1312
Vkernelarch-powerpc/config-arch-64
p1313
aVkernelarch-powerpc/config-arch-64-be
p1314
ass(g222
g1256
g191
tp1315
(dp1316
g225
(lp1317
Vpowerpc
p1318
aVpowerpc-smp
p1319
aVpowerpc64
p1320
asg229
I01
ss(Vbase
p1321
Vppc64
p1322
tp1323
(dp1324
Vdefault-flavour
p1325
Vpowerpc64
p1326
sVkernel-arch
p1327
Vpowerpc
p1328
sg189
(lp1329
g191
ass(Vbuild
p1330
g1322
tp1331
(dp1332
Vimage-file
p1333
Vvmlinux
p1334
sVvdso
p1335
I01
ss(Vimage
p1336
g1322
tp1337
(dp1338
Vconfigs
p1339
(lp1340
sVbootloaders
p1341
(lp1342
Vgrub-ieee1275
p1343
asVsuggests
p1344
(lp1345
Vmkvmlinuz
p1346
asVinstall-stem
p1347
Vvmlinux
p1348
ss(Vdescription
p1349
g1322
NVpowerpc64
p1350
tp1351
(dp1352
Vhardware
p1353
V64-bit PowerPC
p1354
ss(Vimage
p1355
g1322
NVpowerpc64
p1356
tp1357
(dp1358
Vconfigs
p1359
(lp1360
Vkernelarch-powerpc/config-arch-64
p1361
aVkernelarch-powerpc/config-arch-64-be
p1362
ass(g222
g1322
g191
tp1363
(dp1364
g225
(lp1365
Vpowerpc64
p1366
asg229
I01
ss(Vbase
p1367
Vppc64el
p1368
tp1369
(dp1370
Vdefault-flavour
p1371
Vpowerpc64le
p1372
sVkernel-arch
p1373
Vpowerpc
p1374
sg189
(lp1375
g191
ass(Vbuild
p1376
g1368
tp1377
(dp1378
Vimage-file
p1379
Vvmlinux
p1380
sVvdso
p1381
I01
ss(Vimage
p1382
g1368
tp1383
(dp1384
Vconfigs
p1385
(lp1386
sVbootloaders
p1387
(lp1388
Vgrub-ieee1275
p1389
asVsuggests
p1390
(lp1391
Vmkvmlinuz
p1392
asVinstall-stem
p1393
Vvmlinux
p1394
ss(Vdescription
p1395
g1368
NVpowerpc64le
p1396
tp1397
(dp1398
Vhardware
p1399
VLittle-endian 64-bit PowerPC
p1400
ss(Vimage
p1401
g1368
NVpowerpc64le
p1402
tp1403
(dp1404
Vconfigs
p1405
(lp1406
Vkernelarch-powerpc/config-arch-64
p1407
aVkernelarch-powerpc/config-arch-64-le
p1408
ass(g222
g1368
g191
tp1409
(dp1410
g225
(lp1411
Vpowerpc64le
p1412
asg229
I01
ss(Vbase
p1413
Vriscv64
p1414
tp1415
(dp1416
Vkernel-arch
p1417
Vriscv
p1418
sVfeaturesets
p1419
(lp1420
Vnone
p1421
ass(Vbuild
p1422
g1414
tp1423
(dp1424
Vimage-file
p1425
Varch/riscv/boot/Image
p1426
sVvdso
p1427
I01
ss(Vimage
p1428
g1414
tp1429
(dp1430
Vinstall-stem
p1431
Vvmlinux
p1432
ss(Vdescription
p1433
g1414
NVriscv64
p1434
tp1435
(dp1436
Vhardware
p1437
V64-bit RISC-V platforms
p1438
sVhardware-long
p1439
V64-bit RISC-V platforms
p1440
ss(Vbase
p1441
g1414
Vnone
p1442
tp1443
(dp1444
Vflavours
p1445
(lp1446
Vriscv64
p1447
asVdefault-flavour
p1448
Vriscv64
p1449
ss(Vbase
p1450
Vs390
p1451
tp1452
(dp1453
Vkernel-arch
p1454
Vs390
p1455
sVfeaturesets
p1456
(lp1457
ss(Vbase
p1458
Vs390x
p1459
tp1460
(dp1461
Vdefault-flavour
p1462
Vs390x
p1463
sVkernel-arch
p1464
Vs390
p1465
sg189
(lp1466
g191
ass(Vbuild
p1467
g1459
tp1468
(dp1469
Vimage-file
p1470
Varch/s390/boot/bzImage
p1471
sVvdso
p1472
I01
ss(Vimage
p1473
g1459
tp1474
(dp1475
Vbootloaders
p1476
(lp1477
Vs390-tools
p1478
asVinstall-stem
p1479
Vvmlinuz
p1480
ss(Vrelations
p1481
g1459
tp1482
(dp1483
Vheaders%gcc-10
p1484
Vlinux-compiler-gcc-10-s390
p1485
ss(Vdescription
p1486
g1459
NVs390x
p1487
tp1488
(dp1489
Vhardware
p1490
VIBM zSeries
p1491
ss(g222
g1459
g191
tp1492
(dp1493
g225
(lp1494
Vs390x
p1495
asg229
I01
ss(Vbase
p1496
Vsh3
p1497
tp1498
(dp1499
Vkernel-arch
p1500
Vsh
p1501
sVfeaturesets
p1502
(lp1503
ss(Vbase
p1504
Vsh4
p1505
tp1506
(dp1507
Vkernel-arch
p1508
Vsh
p1509
sg189
(lp1510
g191
ass(Vbuild
p1511
g1505
tp1512
(dp1513
Vimage-file
p1514
Varch/sh/boot/zImage
p1515
ss(Vimage
p1516
g1505
tp1517
(dp1518
Vinstall-stem
p1519
Vvmlinuz
p1520
ss(Vdescription
p1521
g1505
NVsh7751r
p1522
tp1523
(dp1524
Vhardware
p1525
Vsh7751r
p1526
sVhardware-long
p1527
VRenesas SH7751R R2D plus board
p1528
ss(Vdescription
p1529
g1505
NVsh7785lcr
p1530
tp1531
(dp1532
Vhardware
p1533
Vsh7785lcr
p1534
sVhardware-long
p1535
VRenesas SH7785 reference board
p1536
ss(Vimage
p1537
g1505
NVsh7785lcr
p1538
tp1539
(dp1540
Vrecommends
p1541
(lp1542
Vu-boot-tools
p1543
asVcheck-size
p1544
I4194304
ss(g222
g1505
g191
tp1545
(dp1546
g225
(lp1547
Vsh7751r
p1548
aVsh7785lcr
p1549
asg229
I01
ss(Vbase
p1550
Vsparc
p1551
tp1552
(dp1553
Vkernel-arch
p1554
Vsparc
p1555
sVfeaturesets
p1556
(lp1557
ss(Vbase
p1558
Vsparc64
p1559
tp1560
(dp1561
Vdefault-flavour
p1562
Vsparc64-smp
p1563
sVkernel-arch
p1564
Vsparc
p1565
sg189
(lp1566
g191
ass(Vbuild
p1567
g1559
tp1568
(dp1569
Vimage-file
p1570
Vvmlinux
p1571
ss(Vimage
p1572
g1559
tp1573
(dp1574
Vconfigs
p1575
(lp1576
sVbootloaders
p1577
(lp1578
Vgrub-ieee1275
p1579
asVsuggests
p1580
(lp1581
Vfdutils
p1582
asVinstall-stem
p1583
Vvmlinux
p1584
ss(Vdescription
p1585
g1559
NVsparc64
p1586
tp1587
(dp1588
Vhardware
p1589
Vuniprocessor 64-bit UltraSPARC
p1590
ss(Vimage
p1591
g1559
NVsparc64
p1592
tp1593
(dp1594
Vconfigs
p1595
(lp1596
Vkernelarch-sparc/config-up
p1597
ass(Vdescription
p1598
g1559
NVsparc64-smp
p1599
tp1600
(dp1601
Vhardware
p1602
Vmultiprocessor 64-bit UltraSPARC
p1603
ss(Vimage
p1604
g1559
NVsparc64-smp
p1605
tp1606
(dp1607
Vconfigs
p1608
(lp1609
Vkernelarch-sparc/config-smp
p1610
ass(g222
g1559
g191
tp1611
(dp1612
g225
(lp1613
Vsparc64
p1614
aVsparc64-smp
p1615
asg229
I01
ss(Vbase
p1616
Vx32
p1617
tp1618
(dp1619
Vkernel-arch
p1620
Vx86
p1621
sVfeaturesets
p1622
(lp1623
ss(Vabi
p1624
NVrt
p1625
tp1626
(dp1627
Vignore-changes
p1628
(lp1629
V*
p1630
ass(Vdescription
p1631
Ng1625
tp1632
(dp1633
Vpart-long-rt
p1634
VThis kernel includes the PREEMPT_RT realtime patch set.
p1635
sVpart-short-rt
p1636
VPREEMPT_RT
p1637
sVparts
p1638
(lp1639
Vrt
p1640
ass(Vversion
p1641
tp1642
(dp1643
Vsource
p1644
V5.10.226-1
p1645
sVupstream
p1646
V5.10
p1647
sVabiname_base
p1648
V5.10.0
p1649
sVabiname
p1650
V5.10.0-33
p1651
ss.