cdebian_linux.config
ConfigCore
p0
(tRp1
(Vbase
p2
tp3
(dp4
Varches
p5
(lp6
Valpha
p7
aVamd64
p8
aVarm64
p9
aVarm64ilp32
p10
aVarmel
p11
aVarmhf
p12
aVhppa
p13
aVi386
p14
aVia64
p15
aVm68k
p16
aVmips
p17
aVmips64
p18
aVmips64el
p19
aVmips64r6
p20
aVmips64r6el
p21
aVmipsel
p22
aVmipsn32
p23
aVmipsn32el
p24
aVmipsn32r6
p25
aVmipsn32r6el
p26
aVmipsr6
p27
aVmipsr6el
p28
aVpowerpc
p29
aVpowerpcspe
p30
aVppc64
p31
aVppc64el
p32
aVriscv64
p33
aVs390
p34
aVs390x
p35
aVsh3
p36
aVsh4
p37
aVsparc
p38
aVsparc64
p39
aVx32
p40
asVfeaturesets
p41
(lp42
Vnone
p43
aVrt
p44
asVcompiler
p45
Vgcc-7
p46
ss(Vbuild
p47
tp48
(dp49
Vsigned-code
p50
I00
sVdebug-info
p51
I01
ss(Vbase
p52
NVrt
p53
tp54
(dp55
Venabled
p56
I01
ss(Vdescription
p57
tp58
(dp59
Vpart-long-up
p60
VThis kernel is not suitable for SMP (multi-processor,\u000amulti-core or hyper-threaded) systems.
p61
ss(Vrelations
p62
tp63
(dp64
Vinitramfs-tools
p65
Vinitramfs-tools (>= 0.120+deb8u2)
p66
sVgcc-7
p67
Vgcc-7 <!stage1 !cross>, gcc-7-@gnu-type-package@ <!stage1 cross>
p68
sVinitramfs-fallback
p69
Vlinux-initramfs-tool
p70
ss(Vimage
p71
tp72
(dp73
Vinitramfs-generators
p74
(lp75
Vinitramfs-tools
p76
aVinitramfs-fallback
p77
asVrecommends
p78
Vapparmor
p79
ss(Vabi
p80
tp81
(dp82
Vabiname
p83
V3
p84
sVignore-changes
p85
(lp86
V__cpuhp_*
p87
aV__xive_vm_h_*
p88
aVbpf_analyzer
p89
aVcxl_*
p90
aVdax_flush
p91
aVieee80211_nullfunc_get
p92
aVinet_add_protocol
p93
aVinet_del_protocol
p94
aViommu_device_*
p95
aVkvm_async_pf_task_wait
p96
aVkvmppc_*
p97
aVmm_iommu_*
p98
aVmv_mbus_*
p99
aVperf_*
p100
aVregister_cxl_calls
p101
aVregister_key_type
p102
aVunregister_cxl_calls
p103
aV*_hw_breakpoint
p104
aVmodule:arch/x86/kvm/*
p105
aVmodule:drivers/crypto/ccp/*
p106
aVmodule:drivers/hv/*
p107
aVmodule:drivers/gpu/drm/sun4i/*
p108
aVmodule:drivers/iio/**
p109
aVmodule:drivers/misc/cxl/*
p110
aVmodule:drivers/mtd/nand/*
p111
aVmodule:drivers/net/ethernet/**
p112
aVmodule:drivers/net/wireless/**
p113
aVmodule:drivers/nvdimm/*
p114
aVmodule:drivers/power/supply/bq27xxx_battery
p115
aVmodule:drivers/scsi/cxgbi/*
p116
aVmodule:drivers/scsi/libiscs*
p117
aVmodule:drivers/scsi/qla2xxx/qla2xxx
p118
aVmodule:drivers/scsi/ufs/*
p119
aVmodule:drivers/target/**
p120
aVmodule:drivers/usb/chipidea/**
p121
aVmodule:drivers/usb/gadget/**
p122
aVmodule:drivers/usb/host/**
p123
aVmodule:drivers/usb/musb/**
p124
aVmodule:fs/nfs/**
p125
aVmodule:net/ceph/libceph
p126
aVmodule:net/l2tp/**
p127
aVmodule:net/rxrpc/rxrpc
p128
aVmodule:sound/core/seq/**
p129
aVmodule:sound/firewire/snd-firewire-lib
p130
aVmodule:sound/pci/hda/*
p131
aVbtree_*
p132
aVvisitor*
p133
aVcan_rx_register
p134
aVip6_xmit
p135
aVmodule:net/dccp/dccp
p136
aVmodule:net/rds/rds
p137
aVdevfreq_*
p138
aVdevm_devfreq_*
p139
aVupdate_devfreq
p140
aVmodule:drivers/infiniband/**
p141
aVacpi_ec_add_query_handler
p142
aVacpi_ec_remove_query_handler
p143
aVfirst_ec
p144
aVdebugfs_create_automount
p145
aVmodule:drivers/iio/imu/inv_mpu6050/*
p146
aVdrm_crtc_accurate_vblank_count
p147
aVacpi_nfit_desc_init
p148
aVacpi_nfit_init
p149
aVloop_register_transfer
p150
ass(Vbase
p151
Valpha
p152
tp153
(dp154
Vfeaturesets
p155
(lp156
Vnone
p157
asVkernel-arch
p158
Valpha
p159
ss(Vdescription
p160
g152
NValpha-smp
p161
tp162
(dp163
Vhardware
p164
VAlpha SMP
p165
sVhardware-long
p166
VDEC Alpha SMP systems with extended kernel start address (Wildfire, Titan, Marvel)
p167
ss(Vbuild
p168
g152
tp169
(dp170
Vimage-file
p171
Varch/alpha/boot/vmlinux.gz
p172
ss(Vdescription
p173
g152
NValpha-generic
p174
tp175
(dp176
Vhardware
p177
VAlpha
p178
sVhardware-long
p179
VDEC Alpha systems with extended kernel start address (Wildfire, Titan, Marvel)
p180
ss(Vimage
p181
g152
tp182
(dp183
Vsuggests
p184
Vaboot, fdutils
p185
sVinstall-stem
p186
Vvmlinuz
p187
ss(Vbase
p188
g152
g157
tp189
(dp190
Vflavours
p191
(lp192
Valpha-generic
p193
aValpha-smp
p194
asVimplicit-flavour
p195
I01
ss(Vbase
p196
Vamd64
p197
tp198
(dp199
Vfeaturesets
p200
(lp201
Vnone
p202
aVrt
p203
asVkernel-arch
p204
Vx86
p205
ss(Vbuild
p206
g197
tp207
(dp208
Vvdso
p209
I01
sVimage-file
p210
Varch/x86/boot/bzImage
p211
sVdebug-info
p212
I01
ss(Vdescription
p213
g197
NVamd64
p214
tp215
(dp216
Vhardware
p217
V64-bit PCs
p218
sVhardware-long
p219
VPCs with AMD64, Intel 64 or VIA Nano processors
p220
ss(Vrelations
p221
g197
tp222
(dp223
Vgcc-7
p224
Vgcc-7 (>= 7.2.0-20~) <!stage1 !cross>, gcc-7-x86-64-linux-gnu (>= 7.2.0-20~) <!stage1 cross>
p225
sVheaders%gcc-7
p226
Vlinux-compiler-gcc-7-x86 (>= 4.14.17-1~)
p227
ss(Vdescription
p228
g197
NVcloud-amd64
p229
tp230
(dp231
Vhardware
p232
Vx86-64 cloud
p233
sVhardware-long
p234
VAmazon EC2, Google Compute Engine and Microsoft Azure cloud platforms
p235
ss(Vimage
p236
g197
tp237
(dp238
Vbreaks
p239
Vxserver-xorg-input-vmmouse (<< 1:13.0.99)
p240
sVinstall-stem
p241
Vvmlinuz
p242
sVbootloaders
p243
(lp244
Vgrub-pc
p245
aVgrub-efi-amd64
p246
aVextlinux
p247
ass(Vbase
p248
g197
Vnone
p249
tp250
(dp251
Vflavours
p252
(lp253
Vamd64
p254
aVcloud-amd64
p255
ass(Vbase
p256
g197
Vrt
p257
tp258
(dp259
Vflavours
p260
(lp261
Vamd64
p262
ass(Vbase
p263
Varm64
p264
tp265
(dp266
Vfeaturesets
p267
(lp268
Vnone
p269
aVrt
p270
asVkernel-arch
p271
Varm64
p272
ss(Vdescription
p273
g264
NVarm64
p274
tp275
(dp276
Vhardware
p277
V64-bit ARMv8 machines
p278
ss(Vbuild
p279
g264
tp280
(dp281
Vvdso
p282
I01
sVimage-file
p283
Varch/arm64/boot/Image
p284
sVdebug-info
p285
I01
ss(Vimage
p286
g264
NVarm64
p287
tp288
(dp289
s(Vimage
p290
g264
tp291
(dp292
Vbreaks
p293
Vlibmozjs185-1.0, libmozjs-24-0 (<< 24.2.0-5.1~)
p294
sVinstall-stem
p295
Vvmlinuz
p296
ss(Vbase
p297
g264
Vnone
p298
tp299
(dp300
Vflavours
p301
(lp302
Varm64
p303
ass(Vbase
p304
g264
Vrt
p305
tp306
(dp307
Vflavours
p308
(lp309
Varm64
p310
ass(Vbase
p311
Varm64ilp32
p312
tp313
(dp314
Vfeaturesets
p315
(lp316
sVkernel-arch
p317
Varm64
p318
ss(Vbase
p319
Varmel
p320
tp321
(dp322
g155
(lp323
g157
asVkernel-arch
p324
Varm
p325
ss(Vbuild
p326
g320
tp327
(dp328
Vimage-file
p329
Varch/arm/boot/zImage
p330
sVuncompressed-image-file
p331
Varch/arm/boot/Image
p332
ss(Vimage
p333
g320
NVmarvell
p334
tp335
(dp336
Vrecommends
p337
Vu-boot-tools
p338
sVbreaks
p339
Vflash-kernel (<< 3.57~)
p340
sVcheck-size-with-dtb
p341
I01
sVcheck-size
p342
L2097080L
sVcheck-uncompressed-size
p343
L7340032L
ss(Vdescription
p344
g320
NVmarvell
p345
tp346
(dp347
Vhardware
p348
VMarvell Kirkwood/Orion
p349
sVhardware-long
p350
VMarvell Kirkwood and Orion based systems (https://wiki.debian.org/ArmEabiPort#Supported_hardware)
p351
ss(Vrelations
p352
g320
tp353
(dp354
Vheaders%gcc-7
p355
Vlinux-compiler-gcc-7-arm
p356
ss(Vimage
p357
g320
tp358
(dp359
Vinstall-stem
p360
Vvmlinuz
p361
ss(g188
g320
g157
tp362
(dp363
g191
(lp364
Vmarvell
p365
asg195
I01
ss(Vbase
p366
Varmhf
p367
tp368
(dp369
Vfeaturesets
p370
(lp371
sVkernel-arch
p372
Varm
p373
ss(Vbase
p374
Vhppa
p375
tp376
(dp377
g155
(lp378
g157
asVkernel-arch
p379
Vparisc
p380
ss(Vbuild
p381
g375
tp382
(dp383
Vdebug-info
p384
I00
sVimage-file
p385
Varch/parisc/boot/bzImage
p386
ss(Vdescription
p387
g375
NVparisc64-smp
p388
tp389
(dp390
Vhardware
p391
Vmultiprocessor 64-bit PA-RISC
p392
sVhardware-long
p393
VHP PA-RISC 64-bit SMP systems with support for more than 4 GB RAM
p394
ss(Vrelations
p395
g375
tp396
(dp397
Vgcc-7
p398
Vgcc-7 <!stage1 !cross>, binutils-hppa64-linux-gnu <!stage1 !cross>, gcc-7-hppa64-linux-gnu <!stage1 !cross>, gcc-7-hppa-linux-gnu <!stage1 cross>, binutils-hppa64-linux-gnu <!stage1 cross>, gcc-7-hppa64-linux-gnu <!stage1 cross>
p399
ss(Vbase
p400
g375
NVparisc64-smp
p401
tp402
(dp403
Vcflags
p404
V-fno-cse-follow-jumps
p405
sVoverride-host-type
p406
Vhppa64-linux-gnu
p407
ss(Vdescription
p408
g375
NVparisc-smp
p409
tp410
(dp411
Vhardware
p412
Vmultiprocessor 32-bit PA-RISC
p413
sVhardware-long
p414
VHP PA-RISC 32-bit SMP systems with max 4 GB RAM
p415
ss(Vdescription
p416
g375
NVparisc
p417
tp418
(dp419
Vhardware
p420
V32-bit PA-RISC
p421
sVhardware-long
p422
VHP PA-RISC 32-bit systems with max 4 GB RAM
p423
ss(Vimage
p424
g375
tp425
(dp426
Vsuggests
p427
Vpalo
p428
sVinstall-stem
p429
Vvmlinuz
p430
ss(g188
g375
g157
tp431
(dp432
g191
(lp433
Vparisc
p434
aVparisc-smp
p435
aVparisc64-smp
p436
asg195
I01
ss(Vbase
p437
Vi386
p438
tp439
(dp440
Vfeaturesets
p441
(lp442
Vnone
p443
aVrt
p444
asVkernel-arch
p445
Vx86
p446
ss(Vbuild
p447
g438
tp448
(dp449
Vvdso
p450
I01
sVimage-file
p451
Varch/x86/boot/bzImage
p452
ss(Vdescription
p453
g438
NV686-pae
p454
tp455
(dp456
Vhardware
p457
Vmodern PCs
p458
sVhardware-long
p459
VPCs with one or more processors supporting PAE
p460
sVparts
p461
(lp462
Vpae
p463
ass(Vdescription
p464
g438
tp465
(dp466
Vpart-long-pae
p467
VThis kernel requires PAE (Physical Address Extension).\u000aThis feature is supported by the Intel Pentium Pro/II/III/4/4M/D, Xeon,\u000aCore and Atom; AMD Geode NX, Athlon (K7), Duron, Opteron, Sempron,\u000aTurion or Phenom; Transmeta Efficeon; VIA C7; and some other processors.
p468
ss(Vbuild
p469
g438
NV686-pae
p470
tp471
(dp472
Vdebug-info
p473
I01
ss(Vdescription
p474
g438
NV686
p475
tp476
(dp477
Vhardware
p478
Volder PCs
p479
sVhardware-long
p480
VPCs with one or more processors not supporting PAE
p481
ss(Vrelations
p482
g438
tp483
(dp484
Vgcc-7
p485
Vgcc-7 (>= 7.2.0-20~) <!stage1 !cross>, gcc-7-i686-linux-gnu (>= 7.2.0-20~) <!stage1 cross>
p486
sVheaders%gcc-7
p487
Vlinux-compiler-gcc-7-x86 (>= 4.14.17-1~)
p488
ss(Vimage
p489
g438
tp490
(dp491
Vbreaks
p492
Vxserver-xorg-input-vmmouse (<< 1:13.0.99)
p493
sVinstall-stem
p494
Vvmlinuz
p495
sVbootloaders
p496
(lp497
Vgrub-pc
p498
aVextlinux
p499
ass(Vbase
p500
g438
Vnone
p501
tp502
(dp503
Vflavours
p504
(lp505
V686
p506
aV686-pae
p507
ass(Vbase
p508
g438
Vrt
p509
tp510
(dp511
Vflavours
p512
(lp513
V686-pae
p514
ass(Vbase
p515
Via64
p516
tp517
(dp518
g155
(lp519
g157
asVkernel-arch
p520
Via64
p521
ss(Vdescription
p522
g516
NVitanium
p523
tp524
(dp525
Vhardware
p526
VItanium (Merced)
p527
sVhardware-long
p528
Vsystems with original Itanium (Merced) processors
p529
ss(Vbuild
p530
g516
tp531
(dp532
Vimage-file
p533
Vvmlinux.gz
p534
ss(Vimage
p535
g516
tp536
(dp537
Vinstall-stem
p538
Vvmlinuz
p539
sVbootloaders
p540
(lp541
Velilo
p542
ass(Vdescription
p543
g516
NVmckinley
p544
tp545
(dp546
Vhardware
p547
VItanium 2+
p548
sVhardware-long
p549
Vsystems with Itanium 2 or 9300/9500/9700-series processors
p550
ss(g188
g516
g157
tp551
(dp552
g191
(lp553
Vitanium
p554
aVmckinley
p555
asg195
I01
ss(Vbase
p556
Vm68k
p557
tp558
(dp559
Vcflags
p560
V-ffreestanding
p561
sg155
(lp562
g157
asVkernel-arch
p563
Vm68k
p564
ss(Vbuild
p565
g557
tp566
(dp567
Vimage-file
p568
Vvmlinux
p569
ss(Vdescription
p570
g557
NVm68k
p571
tp572
(dp573
Vhardware
p574
VMotorola MC68020+ family
p575
ss(Vimage
p576
g557
tp577
(dp578
Vsuggests
p579
Vvmelilo, fdutils
p580
sVinstall-stem
p581
Vvmlinux
p582
ss(g188
g557
g157
tp583
(dp584
g191
(lp585
Vm68k
p586
asg195
I01
ss(Vbase
p587
Vmips
p588
tp589
(dp590
g155
(lp591
g157
asVkernel-arch
p592
Vmips
p593
ss(Vbuild
p594
g588
tp595
(dp596
Vimage-file
p597
Vvmlinux
p598
ss(Vimage
p599
g588
NV4kc-malta
p600
tp601
(dp602
Vconfigs
p603
(lp604
Vkernelarch-mips/config.malta
p605
aVkernelarch-mips/config.mips32r2
p606
ass(Vimage
p607
g588
NV5kc-malta
p608
tp609
(dp610
Vconfigs
p611
(lp612
Vkernelarch-mips/config.malta
p613
aVkernelarch-mips/config.mips64r2
p614
ass(Vdescription
p615
g588
NVocteon
p616
tp617
(dp618
Vhardware
p619
VOcteon
p620
sVhardware-long
p621
VCavium Networks Octeon
p622
ss(Vimage
p623
g588
NVocteon
p624
tp625
(dp626
Vconfigs
p627
(lp628
Vkernelarch-mips/config.octeon
p629
ass(Vimage
p630
g588
tp631
(dp632
Vinstall-stem
p633
Vvmlinux
p634
ss(Vdescription
p635
g588
NV5kc-malta
p636
tp637
(dp638
Vhardware
p639
VMIPS Malta (64-bit)
p640
sVhardware-long
p641
VMIPS Malta boards (64-bit)
p642
ss(Vdescription
p643
g588
NV4kc-malta
p644
tp645
(dp646
Vhardware
p647
VMIPS Malta
p648
sVhardware-long
p649
VMIPS Malta boards
p650
ss(g188
g588
g157
tp651
(dp652
g191
(lp653
V4kc-malta
p654
aV5kc-malta
p655
aVocteon
p656
asg195
I01
ss(Vbase
p657
Vmips64
p658
tp659
(dp660
g155
(lp661
g157
asVkernel-arch
p662
Vmips
p663
ss(Vbuild
p664
g658
tp665
(dp666
Vimage-file
p667
Vvmlinux
p668
ss(Vimage
p669
g658
NV5kc-malta
p670
tp671
(dp672
Vconfigs
p673
(lp674
Vkernelarch-mips/config.malta
p675
aVkernelarch-mips/config.mips64r2
p676
ass(Vdescription
p677
g658
NVocteon
p678
tp679
(dp680
Vhardware
p681
VOcteon
p682
sVhardware-long
p683
VCavium Networks Octeon
p684
ss(Vimage
p685
g658
tp686
(dp687
Vinstall-stem
p688
Vvmlinux
p689
ss(Vdescription
p690
g658
NV5kc-malta
p691
tp692
(dp693
Vhardware
p694
VMIPS Malta
p695
sVhardware-long
p696
VMIPS Malta boards
p697
ss(Vimage
p698
g658
NVocteon
p699
tp700
(dp701
Vconfigs
p702
(lp703
Vkernelarch-mips/config.octeon
p704
ass(g188
g658
g157
tp705
(dp706
g191
(lp707
V5kc-malta
p708
aVocteon
p709
asg195
I01
ss(Vbase
p710
Vmips64el
p711
tp712
(dp713
g155
(lp714
g157
asVkernel-arch
p715
Vmips
p716
ss(Vimage
p717
g711
NVloongson-3
p718
tp719
(dp720
Vconfigs
p721
(lp722
Vkernelarch-mips/config.loongson-3
p723
ass(Vbuild
p724
g711
tp725
(dp726
Vimage-file
p727
Vvmlinux
p728
ss(Vimage
p729
g711
NV5kc-malta
p730
tp731
(dp732
Vconfigs
p733
(lp734
Vkernelarch-mips/config.malta
p735
aVkernelarch-mips/config.mips64r2
p736
ass(Vdescription
p737
g711
NVocteon
p738
tp739
(dp740
Vhardware
p741
VOcteon
p742
sVhardware-long
p743
VCavium Networks Octeon
p744
ss(Vdescription
p745
g711
NVloongson-3
p746
tp747
(dp748
Vhardware
p749
VLoongson 3A/3B
p750
sVhardware-long
p751
VLoongson 3A or 3B based systems (e.g. from Loongson or Lemote)
p752
ss(Vimage
p753
g711
tp754
(dp755
Vinstall-stem
p756
Vvmlinux
p757
ss(Vdescription
p758
g711
NV5kc-malta
p759
tp760
(dp761
Vhardware
p762
VMIPS Malta
p763
sVhardware-long
p764
VMIPS Malta boards
p765
ss(Vimage
p766
g711
NVocteon
p767
tp768
(dp769
Vconfigs
p770
(lp771
Vkernelarch-mips/config.octeon
p772
ass(g188
g711
g157
tp773
(dp774
g191
(lp775
V5kc-malta
p776
aVloongson-3
p777
aVocteon
p778
asg195
I01
ss(Vbase
p779
Vmips64r6
p780
tp781
(dp782
g155
(lp783
g157
asVkernel-arch
p784
Vmips
p785
ss(Vbuild
p786
g780
tp787
(dp788
Vimage-file
p789
Vvmlinux
p790
ss(Vimage
p791
g780
tp792
(dp793
Vinstall-stem
p794
Vvmlinux
p795
ss(Vimage
p796
g780
NVmips64r6
p797
tp798
(dp799
Vconfigs
p800
(lp801
Vkernelarch-mips/config.boston
p802
aVkernelarch-mips/config.mips64r6
p803
ass(Vdescription
p804
g780
NVmips64r6
p805
tp806
(dp807
Vhardware
p808
VMIPS R6 (64 bit, big endian)
p809
sVhardware-long
p810
VMIPS R6 (64 bit, big endian)
p811
ss(g188
g780
g157
tp812
(dp813
g191
(lp814
Vmips64r6
p815
asg195
I01
ss(Vbase
p816
Vmips64r6el
p817
tp818
(dp819
g155
(lp820
g157
asVkernel-arch
p821
Vmips
p822
ss(Vimage
p823
g817
NVmips64r6el
p824
tp825
(dp826
Vconfigs
p827
(lp828
Vkernelarch-mips/config.boston
p829
aVkernelarch-mips/config.mips64r6
p830
ass(Vbuild
p831
g817
tp832
(dp833
Vimage-file
p834
Vvmlinux
p835
ss(Vdescription
p836
g817
NVmips64r6el
p837
tp838
(dp839
Vhardware
p840
VMIPS R6 (64 bit, little endian)
p841
sVhardware-long
p842
VMIPS R6 (64 bit, little endian)
p843
ss(Vimage
p844
g817
tp845
(dp846
Vinstall-stem
p847
Vvmlinux
p848
ss(g188
g817
g157
tp849
(dp850
g191
(lp851
Vmips64r6el
p852
asg195
I01
ss(Vbase
p853
Vmipsel
p854
tp855
(dp856
g155
(lp857
g157
asVkernel-arch
p858
Vmips
p859
ss(Vimage
p860
g854
NVloongson-3
p861
tp862
(dp863
Vconfigs
p864
(lp865
Vkernelarch-mips/config.loongson-3
p866
ass(Vbuild
p867
g854
tp868
(dp869
Vimage-file
p870
Vvmlinux
p871
ss(Vimage
p872
g854
NV4kc-malta
p873
tp874
(dp875
Vconfigs
p876
(lp877
Vkernelarch-mips/config.malta
p878
aVkernelarch-mips/config.mips32r2
p879
ass(Vimage
p880
g854
NV5kc-malta
p881
tp882
(dp883
Vconfigs
p884
(lp885
Vkernelarch-mips/config.malta
p886
aVkernelarch-mips/config.mips64r2
p887
ass(Vdescription
p888
g854
NVocteon
p889
tp890
(dp891
Vhardware
p892
VOcteon
p893
sVhardware-long
p894
VCavium Networks Octeon
p895
ss(Vdescription
p896
g854
NVloongson-3
p897
tp898
(dp899
Vhardware
p900
VLoongson 3A/3B
p901
sVhardware-long
p902
VLoongson 3A or 3B based systems (e.g. from Loongson or Lemote)
p903
ss(Vimage
p904
g854
NVocteon
p905
tp906
(dp907
Vconfigs
p908
(lp909
Vkernelarch-mips/config.octeon
p910
ass(Vimage
p911
g854
tp912
(dp913
Vinstall-stem
p914
Vvmlinux
p915
ss(Vdescription
p916
g854
NV5kc-malta
p917
tp918
(dp919
Vhardware
p920
VMIPS Malta (64-bit)
p921
sVhardware-long
p922
VMIPS Malta boards (64-bit)
p923
ss(Vdescription
p924
g854
NV4kc-malta
p925
tp926
(dp927
Vhardware
p928
VMIPS Malta
p929
sVhardware-long
p930
VMIPS Malta boards
p931
ss(g188
g854
g157
tp932
(dp933
g191
(lp934
V4kc-malta
p935
aV5kc-malta
p936
aVloongson-3
p937
aVocteon
p938
asg195
I01
ss(Vbase
p939
Vmipsn32
p940
tp941
(dp942
Vfeaturesets
p943
(lp944
sVkernel-arch
p945
Vmips
p946
ss(Vbase
p947
Vmipsn32el
p948
tp949
(dp950
Vfeaturesets
p951
(lp952
sVkernel-arch
p953
Vmips
p954
ss(Vbase
p955
Vmipsn32r6
p956
tp957
(dp958
Vfeaturesets
p959
(lp960
sVkernel-arch
p961
Vmips
p962
ss(Vbase
p963
Vmipsn32r6el
p964
tp965
(dp966
Vfeaturesets
p967
(lp968
sVkernel-arch
p969
Vmips
p970
ss(Vbase
p971
Vmipsr6
p972
tp973
(dp974
g155
(lp975
g157
asVkernel-arch
p976
Vmips
p977
ss(Vbuild
p978
g972
tp979
(dp980
Vimage-file
p981
Vvmlinux
p982
ss(Vdescription
p983
g972
NVmips32r6
p984
tp985
(dp986
Vhardware
p987
VMIPS R6 (32 bit, big endian)
p988
sVhardware-long
p989
VMIPS R6 (32 bit, big endian)
p990
ss(Vdescription
p991
g972
NVmips64r6
p992
tp993
(dp994
Vhardware
p995
VMIPS R6 (64 bit, big endian)
p996
sVhardware-long
p997
VMIPS R6 (64 bit, big endian)
p998
ss(Vimage
p999
g972
NVmips64r6
p1000
tp1001
(dp1002
Vconfigs
p1003
(lp1004
Vkernelarch-mips/config.boston
p1005
aVkernelarch-mips/config.mips64r6
p1006
ass(Vimage
p1007
g972
tp1008
(dp1009
Vinstall-stem
p1010
Vvmlinux
p1011
ss(Vimage
p1012
g972
NVmips32r6
p1013
tp1014
(dp1015
Vconfigs
p1016
(lp1017
Vkernelarch-mips/config.boston
p1018
aVkernelarch-mips/config.mips32r6
p1019
ass(g188
g972
g157
tp1020
(dp1021
g191
(lp1022
Vmips32r6
p1023
aVmips64r6
p1024
asg195
I01
ss(Vbase
p1025
Vmipsr6el
p1026
tp1027
(dp1028
g155
(lp1029
g157
asVkernel-arch
p1030
Vmips
p1031
ss(Vimage
p1032
g1026
NVmips32r6el
p1033
tp1034
(dp1035
Vconfigs
p1036
(lp1037
Vkernelarch-mips/config.boston
p1038
aVkernelarch-mips/config.mips32r6
p1039
ass(Vdescription
p1040
g1026
NVmips64r6el
p1041
tp1042
(dp1043
Vhardware
p1044
VMIPS R6 (64 bit, little endian)
p1045
sVhardware-long
p1046
VMIPS R6 (64 bit, little endian)
p1047
ss(Vdescription
p1048
g1026
NVmips32r6el
p1049
tp1050
(dp1051
Vhardware
p1052
VMIPS R6 (32 bit, little endian)
p1053
sVhardware-long
p1054
VMIPS R6 (32 bit, little endian)
p1055
ss(Vimage
p1056
g1026
NVmips64r6el
p1057
tp1058
(dp1059
Vconfigs
p1060
(lp1061
Vkernelarch-mips/config.boston
p1062
aVkernelarch-mips/config.mips64r6
p1063
ass(Vbuild
p1064
g1026
tp1065
(dp1066
Vimage-file
p1067
Vvmlinux
p1068
ss(Vimage
p1069
g1026
tp1070
(dp1071
Vinstall-stem
p1072
Vvmlinux
p1073
ss(g188
g1026
g157
tp1074
(dp1075
g191
(lp1076
Vmips32r6el
p1077
aVmips64r6el
p1078
asg195
I01
ss(Vbase
p1079
Vpowerpc
p1080
tp1081
(dp1082
g155
(lp1083
g157
asVkernel-arch
p1084
Vpowerpc
p1085
ss(Vdescription
p1086
g1080
NVpowerpc64
p1087
tp1088
(dp1089
Vhardware
p1090
V64-bit PowerPC
p1091
ss(Vbuild
p1092
g1080
tp1093
(dp1094
Vvdso
p1095
I01
sVimage-file
p1096
Vvmlinux
p1097
ss(Vimage
p1098
g1080
NVpowerpc-smp
p1099
tp1100
(dp1101
Vconfigs
p1102
(lp1103
Vpowerpc/config.powerpc
p1104
aVpowerpc/config.powerpc-smp
p1105
ass(Vdescription
p1106
g1080
NVpowerpc
p1107
tp1108
(dp1109
Vhardware
p1110
Vuniprocessor 32-bit PowerPC
p1111
ss(Vimage
p1112
g1080
NVpowerpc64
p1113
tp1114
(dp1115
Vconfigs
p1116
(lp1117
Vkernelarch-powerpc/config-arch-64
p1118
aVkernelarch-powerpc/config-arch-64-be
p1119
ass(Vdescription
p1120
g1080
NVpowerpc-smp
p1121
tp1122
(dp1123
Vhardware
p1124
Vmultiprocessor 32-bit PowerPC
p1125
ss(Vimage
p1126
g1080
tp1127
(dp1128
Vsuggests
p1129
Vmkvmlinuz
p1130
sVinstall-stem
p1131
Vvmlinux
p1132
sVconfigs
p1133
(lp1134
ss(g188
g1080
g157
tp1135
(dp1136
g191
(lp1137
Vpowerpc
p1138
aVpowerpc-smp
p1139
aVpowerpc64
p1140
asg195
I01
ss(Vbase
p1141
Vpowerpcspe
p1142
tp1143
(dp1144
g155
(lp1145
g157
asVkernel-arch
p1146
Vpowerpc
p1147
ss(Vbuild
p1148
g1142
tp1149
(dp1150
Vvdso
p1151
I01
sVimage-file
p1152
Vvmlinux
p1153
ss(Vimage
p1154
g1142
tp1155
(dp1156
Vsuggests
p1157
Vmkvmlinuz
p1158
sVinstall-stem
p1159
Vvmlinux
p1160
ss(Vdescription
p1161
g1142
tp1162
(dp1163
Vhardware
p1164
V32-bit PowerPC with SPE (instead of AltiVec) with SMP support
p1165
ss(g188
g1142
g157
tp1166
(dp1167
g191
(lp1168
Vpowerpcspe
p1169
asg195
I01
ss(Vbase
p1170
Vppc64
p1171
tp1172
(dp1173
g155
(lp1174
g157
asVkernel-arch
p1175
Vpowerpc
p1176
ss(Vdescription
p1177
g1171
NVpowerpc64
p1178
tp1179
(dp1180
Vhardware
p1181
V64-bit PowerPC
p1182
ss(Vbuild
p1183
g1171
tp1184
(dp1185
Vvdso
p1186
I01
sVimage-file
p1187
Vvmlinux
p1188
ss(Vimage
p1189
g1171
NVpowerpc64
p1190
tp1191
(dp1192
Vconfigs
p1193
(lp1194
Vkernelarch-powerpc/config-arch-64
p1195
aVkernelarch-powerpc/config-arch-64-be
p1196
ass(Vimage
p1197
g1171
tp1198
(dp1199
Vsuggests
p1200
Vmkvmlinuz
p1201
sVinstall-stem
p1202
Vvmlinux
p1203
sVconfigs
p1204
(lp1205
ss(g188
g1171
g157
tp1206
(dp1207
g191
(lp1208
Vpowerpc64
p1209
asg195
I01
ss(Vbase
p1210
Vppc64el
p1211
tp1212
(dp1213
g155
(lp1214
g157
asVkernel-arch
p1215
Vpowerpc
p1216
ss(Vdescription
p1217
g1211
NVpowerpc64le
p1218
tp1219
(dp1220
Vhardware
p1221
VLittle-endian 64-bit PowerPC
p1222
ss(Vbuild
p1223
g1211
tp1224
(dp1225
Vvdso
p1226
I01
sVimage-file
p1227
Vvmlinux
p1228
ss(Vimage
p1229
g1211
tp1230
(dp1231
Vsuggests
p1232
Vmkvmlinuz
p1233
sVinstall-stem
p1234
Vvmlinux
p1235
sVconfigs
p1236
(lp1237
ss(Vimage
p1238
g1211
NVpowerpc64le
p1239
tp1240
(dp1241
Vconfigs
p1242
(lp1243
Vkernelarch-powerpc/config-arch-64
p1244
aVkernelarch-powerpc/config-arch-64-le
p1245
ass(g188
g1211
g157
tp1246
(dp1247
g191
(lp1248
Vpowerpc64le
p1249
asg195
I01
ss(Vbase
p1250
Vriscv64
p1251
tp1252
(dp1253
Vfeaturesets
p1254
(lp1255
sVkernel-arch
p1256
Vriscv
p1257
ss(Vbase
p1258
Vs390
p1259
tp1260
(dp1261
Vfeaturesets
p1262
(lp1263
sVkernel-arch
p1264
Vs390
p1265
ss(Vbase
p1266
Vs390x
p1267
tp1268
(dp1269
g155
(lp1270
g157
asVkernel-arch
p1271
Vs390
p1272
ss(Vdescription
p1273
g1267
NVs390x
p1274
tp1275
(dp1276
Vhardware
p1277
VIBM zSeries
p1278
ss(Vbuild
p1279
g1267
tp1280
(dp1281
Vvdso
p1282
I01
sVimage-file
p1283
Varch/s390/boot/image
p1284
ss(Vbuild
p1285
g1267
NVs390x
p1286
tp1287
(dp1288
Vdebug-info
p1289
I01
ss(Vrelations
p1290
g1267
tp1291
(dp1292
Vheaders%gcc-7
p1293
Vlinux-compiler-gcc-7-s390
p1294
ss(Vimage
p1295
g1267
tp1296
(dp1297
Vinstall-stem
p1298
Vvmlinuz
p1299
sVbootloaders
p1300
(lp1301
Vs390-tools
p1302
ass(g188
g1267
g157
tp1303
(dp1304
g191
(lp1305
Vs390x
p1306
asg195
I01
ss(Vbase
p1307
Vsh3
p1308
tp1309
(dp1310
Vfeaturesets
p1311
(lp1312
sVkernel-arch
p1313
Vsh
p1314
ss(Vbase
p1315
Vsh4
p1316
tp1317
(dp1318
g155
(lp1319
g157
asVkernel-arch
p1320
Vsh
p1321
ss(Vbuild
p1322
g1316
tp1323
(dp1324
Vimage-file
p1325
Varch/sh/boot/zImage
p1326
ss(Vdescription
p1327
g1316
NVsh7751r
p1328
tp1329
(dp1330
Vhardware
p1331
Vsh7751r
p1332
sVhardware-long
p1333
VRenesas SH7751R R2D plus board
p1334
ss(Vdescription
p1335
g1316
NVsh7785lcr
p1336
tp1337
(dp1338
Vhardware
p1339
Vsh7785lcr
p1340
sVhardware-long
p1341
VRenesas SH7785 reference board
p1342
ss(Vimage
p1343
g1316
tp1344
(dp1345
Vinstall-stem
p1346
Vvmlinuz
p1347
ss(Vimage
p1348
g1316
NVsh7785lcr
p1349
tp1350
(dp1351
Vrecommends
p1352
Vu-boot-tools
p1353
sVcheck-size
p1354
L4194304L
ss(g188
g1316
g157
tp1355
(dp1356
g191
(lp1357
Vsh7751r
p1358
aVsh7785lcr
p1359
asg195
I01
ss(Vbase
p1360
Vsparc
p1361
tp1362
(dp1363
Vfeaturesets
p1364
(lp1365
sVkernel-arch
p1366
Vsparc
p1367
ss(Vbase
p1368
Vsparc64
p1369
tp1370
(dp1371
g155
(lp1372
g157
asVkernel-arch
p1373
Vsparc
p1374
ss(Vbuild
p1375
g1369
tp1376
(dp1377
Vimage-file
p1378
Varch/sparc/boot/zImage
p1379
ss(Vimage
p1380
g1369
NVsparc64
p1381
tp1382
(dp1383
Vconfigs
p1384
(lp1385
Vkernelarch-sparc/config-up
p1386
ass(Vimage
p1387
g1369
NVsparc64-smp
p1388
tp1389
(dp1390
Vconfigs
p1391
(lp1392
Vkernelarch-sparc/config-smp
p1393
ass(Vimage
p1394
g1369
tp1395
(dp1396
Vsuggests
p1397
Vsilo, fdutils
p1398
sVinstall-stem
p1399
Vvmlinuz
p1400
sVconfigs
p1401
(lp1402
ss(Vdescription
p1403
g1369
NVsparc64-smp
p1404
tp1405
(dp1406
Vhardware
p1407
Vmultiprocessor 64-bit UltraSPARC
p1408
ss(Vdescription
p1409
g1369
NVsparc64
p1410
tp1411
(dp1412
Vhardware
p1413
Vuniprocessor 64-bit UltraSPARC
p1414
ss(g188
g1369
g157
tp1415
(dp1416
g191
(lp1417
Vsparc64
p1418
aVsparc64-smp
p1419
asg195
I01
ss(Vbase
p1420
Vx32
p1421
tp1422
(dp1423
Vfeaturesets
p1424
(lp1425
sVkernel-arch
p1426
Vx86
p1427
ss(Vdescription
p1428
NVrt
p1429
tp1430
(dp1431
Vparts
p1432
(lp1433
Vrt
p1434
asVpart-long-rt
p1435
VThis kernel includes the PREEMPT_RT realtime patch set.
p1436
sVpart-short-rt
p1437
VPREEMPT_RT
p1438
ss(Vabi
p1439
Ng1429
tp1440
(dp1441
Vignore-changes
p1442
(lp1443
V*
p1444
ass(Vversion
p1445
tp1446
(dp1447
Vupstream
p1448
V4.18
p1449
sVsource
p1450
V4.18.20-2+rpi1
p1451
sVabiname
p1452
V4.18.0-3
p1453
sVabiname_base
p1454
V4.18.0
p1455
ss.