ccopy_reg
_reconstructor
p0
(cdebian_linux.config
ConfigCore
p1
c__builtin__
dict
p2
(dp3
(S'image'
p4
S'amd64'
p5
tp6
(dp7
S'install-stem'
p8
S'vmlinuz'
p9
sS'configs'
p10
(lp11
sS'bootloaders'
p12
(lp13
S'grub-pc'
p14
aS'grub-efi'
p15
aS'extlinux'
p16
ass(S'image'
p17
S'armel'
p18
NS'kirkwood'
p19
tp20
(dp21
S'check-size'
p22
S'2097080'
p23
sS'breaks'
p24
S'flash-kernel (<< 3.14~)'
p25
sS'recommends'
p26
S'uboot-mkimage'
p27
ss(S'image'
p28
S'mips'
p29
NS'octeon'
p30
tp31
(dp32
S'configs'
p33
(lp34
S'kernelarch-mips/config.octeon'
p35
ass(S'base'
p36
g5
S'none'
p37
tp38
(dp39
S'flavours'
p40
(lp41
S'amd64'
p42
ass(S'image'
p43
S'ppc64el'
p44
NS'powerpc64le'
p45
tp46
(dp47
S'configs'
p48
(lp49
S'kernelarch-powerpc/config-arch-64'
p50
aS'kernelarch-powerpc/config-arch-64-le'
p51
ass(S'image'
p52
S'ia64'
p53
tp54
(dp55
S'suggests'
p56
S'fdutils'
p57
sS'bootloaders'
p58
(lp59
S'elilo'
p60
asS'install-stem'
p61
S'vmlinuz'
p62
ss(S'description'
p63
S'powerpc'
p64
NS'powerpc-smp'
p65
tp66
(dp67
S'hardware'
p68
S'multiprocessor 32-bit PowerPC'
p69
ss(S'description'
p70
S'sparc'
p71
NS'sparc32'
p72
tp73
(dp74
S'hardware'
p75
S'uniprocessor sparc32 (sun4m)'
p76
ss(S'description'
p77
S'i386'
p78
NS'amd64'
p79
tp80
(dp81
S'hardware'
p82
S'64-bit PCs'
p83
sS'parts'
p84
(lp85
S'xen'
p86
asS'hardware-long'
p87
S'PCs with AMD64, Intel 64 or VIA Nano processors'
p88
ss(S'image'
p89
S'arm64'
p90
NS'arm64'
p91
tp92
(dp93
s(S'description'
p94
g18
NS'versatile'
p95
tp96
(dp97
S'hardware'
p98
S'Versatile'
p99
sS'hardware-long'
p100
S'Versatile systems (PB, AB, Qemu)'
p101
ss(S'description'
p102
S'hppa'
p103
NS'parisc64-smp'
p104
tp105
(dp106
S'hardware'
p107
S'multiprocessor 64-bit PA-RISC'
p108
sS'hardware-long'
p109
S'HP PA-RISC 64-bit SMP systems with support for more than 4 GB RAM'
p110
ss(S'description'
p111
g5
g37
S'amd64'
p112
tp113
(dp114
S'parts'
p115
(lp116
S'xen'
p117
ass(S'description'
p118
S'mipsel'
p119
NS'4kc-malta'
p120
tp121
(dp122
S'hardware'
p123
S'MIPS Malta'
p124
sS'hardware-long'
p125
S'MIPS Malta boards'
p126
ss(S'image'
p127
g78
NS'586'
p128
tp129
(dp130
S'configs'
p131
(lp132
S'kernelarch-x86/config-arch-32'
p133
aS'i386/config.586'
p134
ass(S'base'
p135
S'ppc64'
p136
S'none'
p137
tp138
(dp139
S'implicit-flavour'
p140
I01
sS'flavours'
p141
(lp142
S'powerpc64'
p143
ass(S'description'
p144
g78
NS'586'
p145
tp146
(dp147
S'hardware'
p148
S'older PCs'
p149
sS'parts'
p150
(lp151
S'up'
p152
asS'hardware-long'
p153
S'PCs with a single processor not supporting PAE'
p154
ss(S'image'
p155
g18
NS'orion5x'
p156
tp157
(dp158
S'check-size'
p159
S'1572792'
p160
sS'configs'
p161
(lp162
S'armel/config-reduced'
p163
aS'armel/config.orion5x'
p164
asS'recommends'
p165
S'uboot-mkimage'
p166
ss(S'base'
p167
S'alpha'
p168
tp169
(dp170
S'kernel-arch'
p171
S'alpha'
p172
sS'featuresets'
p173
(lp174
g137
ass(S'description'
p175
g71
NS'sparc64'
p176
tp177
(dp178
S'hardware'
p179
S'uniprocessor 64-bit UltraSPARC'
p180
ss(g135
S'armhf'
p181
g137
tp182
(dp183
g140
I01
sg141
(lp184
S'armmp'
p185
aS'armmp-lpae'
p186
ass(S'image'
p187
g181
NS'armmp-lpae'
p188
tp189
(dp190
S'configs'
p191
(lp192
S'armhf/config.armmp'
p193
aS'armhf/config.lpae'
p194
ass(S'description'
p195
g64
NS'powerpc'
p196
tp197
(dp198
S'hardware'
p199
S'uniprocessor 32-bit PowerPC'
p200
ss(S'description'
p201
g18
NS'kirkwood'
p202
tp203
(dp204
S'hardware'
p205
S'Marvell Kirkwood'
p206
sS'hardware-long'
p207
S'Marvell Kirkwood based systems (SheevaPlug, QNAP TS-119/TS-219, etc)'
p208
ss(S'base'
p209
g78
S'rt'
p210
tp211
(dp212
S'flavours'
p213
(lp214
S'686-pae'
p215
ass(S'image'
p216
g78
NS'686-pae'
p217
tp218
(dp219
S'configs'
p220
(lp221
S'kernelarch-x86/config-arch-32'
p222
aS'i386/config.686-pae'
p223
asS'recommends'
p224
S'libc6-i686'
p225
ss(S'base'
p226
g103
NS'parisc64-smp'
p227
tp228
(dp229
S'override-host-type'
p230
S'hppa64-linux-gnu'
p231
sS'cflags'
p232
S'-fno-cse-follow-jumps'
p233
ss(S'relations'
p234
g78
tp235
(dp236
S'headers%gcc-4.8'
p237
S'linux-compiler-gcc-4.8-x86'
p238
ss(S'description'
p239
g78
NS'686-pae'
p240
tp241
(dp242
S'hardware'
p243
S'modern PCs'
p244
sS'parts'
p245
(lp246
S'pae'
p247
asS'hardware-long'
p248
S'PCs with one or more processors supporting PAE'
p249
ss(S'image'
p250
S'mips64el'
p251
NS'loongson-3'
p252
tp253
(dp254
S'configs'
p255
(lp256
S'kernelarch-mips/config.loongson-3'
p257
ass(S'image'
p258
g64
tp259
(dp260
S'suggests'
p261
S'mkvmlinuz'
p262
sS'configs'
p263
(lp264
sS'install-stem'
p265
S'vmlinux'
p266
ss(S'image'
p267
g29
NS'sb1-bcm91250a'
p268
tp269
(dp270
S'configs'
p271
(lp272
S'kernelarch-mips/config.sb1-bcm91250a'
p273
ass(S'description'
p274
g29
NS'r5k-ip32'
p275
tp276
(dp277
S'hardware'
p278
S'SGI IP32'
p279
sS'hardware-long'
p280
S'SGI IP32 systems (O2)'
p281
ss(S'base'
p282
g5
S'rt'
p283
tp284
(dp285
S'flavours'
p286
(lp287
S'amd64'
p288
ass(S'description'
p289
g44
NS'powerpc64le'
p290
tp291
(dp292
S'hardware'
p293
S'Little-endian 64-bit PowerPC'
p294
ss(S'build'
p295
g136
tp296
(dp297
S'image-file'
p298
S'vmlinux'
p299
ss(S'description'
p300
g78
S'none'
p301
S'amd64'
p302
tp303
(dp304
S'parts'
p305
(lp306
S'xen'
p307
ass(S'base'
p308
g90
tp309
(dp310
S'kernel-arch'
p311
S'arm64'
p312
sS'featuresets'
p313
(lp314
S'none'
p315
ass(S'base'
p316
g78
tp317
(dp318
S'kernel-arch'
p319
S'x86'
p320
sS'featuresets'
p321
(lp322
S'none'
p323
aS'rt'
p324
ass(S'image'
p325
g119
NS'loongson-2e'
p326
tp327
(dp328
S'configs'
p329
(lp330
S'kernelarch-mips/config.loongson-2e'
p331
ass(S'base'
p332
g119
tp333
(dp334
S'kernel-arch'
p335
S'mips'
p336
sg173
(lp337
g137
ass(S'relations'
p338
g5
tp339
(dp340
S'headers%gcc-4.8'
p341
S'linux-compiler-gcc-4.8-x86'
p342
ss(S'description'
p343
g251
NS'octeon'
p344
tp345
(dp346
S'hardware'
p347
S'Octeon'
p348
sS'hardware-long'
p349
S'Cavium Networks Octeon'
p350
ss(S'description'
p351
NS'rt'
p352
tp353
(dp354
S'part-long-rt'
p355
S'This kernel includes the PREEMPT_RT realtime patch set.'
p356
sS'parts'
p357
(lp358
S'rt'
p359
asS'part-short-rt'
p360
S'PREEMPT_RT'
p361
ss(S'base'
p362
NS'rt'
p363
tp364
(dp365
S'enabled'
p366
I00
ss(S'relations'
p367
S's390'
p368
tp369
(dp370
S'headers%gcc-4.8'
p371
S'linux-compiler-gcc-4.8-s390'
p372
ss(g135
g119
g137
tp373
(dp374
g140
I01
sg141
(lp375
S'sb1-bcm91250a'
p376
aS'4kc-malta'
p377
aS'5kc-malta'
p378
aS'loongson-2e'
p379
aS'loongson-2f'
p380
aS'loongson-3'
p381
ass(S'description'
p382
g29
NS'4kc-malta'
p383
tp384
(dp385
S'hardware'
p386
S'MIPS Malta'
p387
sS'hardware-long'
p388
S'MIPS Malta boards'
p389
ss(S'description'
p390
g53
NS'itanium'
p391
tp392
(dp393
S'hardware'
p394
S'Itanium'
p395
ss(S'description'
p396
S'mips64'
p397
NS'octeon'
p398
tp399
(dp400
S'hardware'
p401
S'Octeon'
p402
sS'hardware-long'
p403
S'Cavium Networks Octeon'
p404
ss(S'relations'
p405
tp406
(dp407
S'gcc-4.8'
p408
S'gcc-4.8'
p409
sS'initramfs-fallback'
p410
S'linux-initramfs-tool'
p411
sS'gcc-4.7'
p412
S'gcc-4.7'
p413
sS'gcc-4.6'
p414
S'gcc-4.6'
p415
sS'gcc-4.4'
p416
S'gcc-4.4'
p417
sS'initramfs-tools'
p418
S'initramfs-tools (>= 0.110~)'
p419
ss(S'build'
p420
S'm68k'
p421
tp422
(dp423
S'image-file'
p424
S'vmlinux.gz'
p425
ss(S'image'
p426
g29
NS'5kc-malta'
p427
tp428
(dp429
S'configs'
p430
(lp431
S'kernelarch-mips/config.5kc-malta'
p432
ass(g135
g251
g137
tp433
(dp434
g140
I01
sg141
(lp435
S'sb1-bcm91250a'
p436
aS'5kc-malta'
p437
aS'loongson-3'
p438
aS'octeon'
p439
ass(S'build'
p440
S'powerpcspe'
p441
tp442
(dp443
S'image-file'
p444
S'vmlinux'
p445
ss(g135
S'sh4'
p446
g137
tp447
(dp448
g140
I01
sg141
(lp449
S'sh7751r'
p450
aS'sh7785lcr'
p451
ass(S'build'
p452
g103
tp453
(dp454
S'image-file'
p455
S'vmlinux'
p456
ss(S'abi'
p457
Ng352
tp458
(dp459
S'ignore-changes'
p460
(lp461
S'*'
p462
ass(S'description'
p463
g251
NS'loongson-3'
p464
tp465
(dp466
S'hardware'
p467
S'Loongson 3A/3B'
p468
sS'hardware-long'
p469
S'Loongson 3A or 3B based systems (e.g. from Loongson or Lemote)'
p470
ss(S'description'
p471
g18
NS'ixp4xx'
p472
tp473
(dp474
S'hardware'
p475
S'IXP4xx'
p476
sS'hardware-long'
p477
S'IXP4xx based systems (Linksys NSLU2, etc)'
p478
ss(S'description'
p479
g119
NS'loongson-2e'
p480
tp481
(dp482
S'hardware'
p483
S'Loongson 2E'
p484
sS'hardware-long'
p485
S'Lemote Loongson 2E systems'
p486
ss(S'image'
p487
g446
NS'sh7785lcr'
p488
tp489
(dp490
S'check-size'
p491
S'4194304'
p492
sS'recommends'
p493
S'uboot-mkimage'
p494
ss(S'base'
p495
g18
tp496
(dp497
S'kernel-arch'
p498
S'arm'
p499
sg173
(lp500
g137
ass(S'build'
p501
g181
tp502
(dp503
S'image-file'
p504
S'arch/arm/boot/zImage'
p505
ss(S'description'
p506
g29
NS'sb1-bcm91250a'
p507
tp508
(dp509
S'hardware'
p510
S'BCM91250A'
p511
sS'hardware-long'
p512
S'Broadcom BCM91250A systems (aka SWARM)'
p513
ss(S'base'
p514
g71
tp515
(dp516
S'kernel-arch'
p517
S'sparc'
p518
sg173
(lp519
g137
ass(S'image'
p520
g29
NS'r5k-ip32'
p521
tp522
(dp523
S'configs'
p524
(lp525
S'kernelarch-mips/config.r5k-ip32'
p526
ass(S'base'
p527
g441
tp528
(dp529
S'kernel-arch'
p530
S'powerpc'
p531
sg173
(lp532
g137
ass(S'version'
p533
tp534
(dp535
S'abiname'
p536
S'3.16.0-4'
p537
sS'source'
p538
V3.16.7-ckt11-1+deb8u4
p539
sS'abiname_base'
p540
S'3.16.0'
p541
sS'upstream'
p542
S'3.16'
p543
ss(g135
g368
g137
tp544
(dp545
g140
I01
sg141
(lp546
S's390x'
p547
ass(S'build'
p548
g29
tp549
(dp550
S'image-file'
p551
S'vmlinux'
p552
ss(S'description'
p553
g181
NS'armmp'
p554
tp555
(dp556
S'hardware'
p557
S'ARMv7 multiplatform compatible SoCs'
p558
sS'hardware-long'
p559
S'ARMv7 multiplatform kernel. See\nhttps://wiki.debian.org/DebianKernel/ARMMP for details of supported\nplatforms'
p560
ss(g135
S's390x'
p561
g137
tp562
(dp563
g140
I01
sg141
(lp564
S's390x'
p565
ass(S'base'
p566
g29
tp567
(dp568
S'kernel-arch'
p569
S'mips'
p570
sg173
(lp571
g137
ass(S'build'
p572
g5
tp573
(dp574
S'debug-info'
p575
I01
sS'image-file'
p576
S'arch/x86/boot/bzImage'
p577
ss(S'image'
p578
g119
NS'5kc-malta'
p579
tp580
(dp581
S'configs'
p582
(lp583
S'kernelarch-mips/config.5kc-malta'
p584
ass(S'build'
p585
g71
tp586
(dp587
S'image-file'
p588
S'arch/sparc/boot/zImage'
p589
ss(S'image'
p590
g119
tp591
(dp592
S'install-stem'
p593
S'vmlinux'
p594
ss(S'image'
p595
g136
NS'powerpc64'
p596
tp597
(dp598
S'configs'
p599
(lp600
S'kernelarch-powerpc/config-arch-64'
p601
aS'kernelarch-powerpc/config-arch-64-be'
p602
ass(S'description'
p603
g368
NS's390x'
p604
tp605
(dp606
S'hardware'
p607
S'IBM zSeries'
p608
ss(S'build'
p609
g561
NS's390x'
p610
tp611
(dp612
S'debug-info'
p613
I01
ss(S'build'
p614
g64
tp615
(dp616
S'image-file'
p617
S'vmlinux'
p618
ss(S'build'
p619
g90
tp620
(dp621
S'debug-info'
p622
I01
sS'image-file'
p623
S'arch/arm64/boot/Image'
p624
ss(S'build'
p625
g119
tp626
(dp627
S'image-file'
p628
S'vmlinux'
p629
ss(S'base'
p630
g397
tp631
(dp632
S'kernel-arch'
p633
S'mips'
p634
sg173
(lp635
g137
ass(S'base'
p636
g5
tp637
(dp638
S'kernel-arch'
p639
S'x86'
p640
sS'featuresets'
p641
(lp642
S'none'
p643
aS'rt'
p644
ass(S'base'
p645
g53
tp646
(dp647
S'kernel-arch'
p648
S'ia64'
p649
sg173
(lp650
g137
asS'compiler'
p651
S'gcc-4.6'
p652
ss(S'image'
p653
g251
NS'sb1-bcm91250a'
p654
tp655
(dp656
S'configs'
p657
(lp658
S'kernelarch-mips/config.sb1-bcm91250a'
p659
ass(S'description'
p660
g397
NS'5kc-malta'
p661
tp662
(dp663
S'hardware'
p664
S'MIPS Malta'
p665
sS'hardware-long'
p666
S'MIPS Malta boards'
p667
ss(g135
g18
g137
tp668
(dp669
g140
I01
sg141
(lp670
S'ixp4xx'
p671
aS'kirkwood'
p672
aS'orion5x'
p673
aS'versatile'
p674
ass(S'description'
p675
g441
tp676
(dp677
S'hardware'
p678
S'32-bit PowerPC with SPE (instead of AltiVec) with SMP support'
p679
ss(S'description'
p680
S'sparc64'
p681
NS'sparc64-smp'
p682
tp683
(dp684
S'hardware'
p685
S'multiprocessor 64-bit UltraSPARC'
p686
ss(S'image'
p687
g71
NS'sparc32'
p688
tp689
(dp690
S'image-postproc'
p691
S'sparc32-image-postproc'
p692
ss(S'description'
p693
g103
NS'parisc'
p694
tp695
(dp696
S'hardware'
p697
S'32-bit PA-RISC'
p698
sS'hardware-long'
p699
S'HP PA-RISC 32-bit systems with max 4 GB RAM'
p700
ss(S'description'
p701
g78
tp702
(dp703
S'part-long-pae'
p704
S'This kernel requires PAE (Physical Address Extension).\nThis feature is supported by the Intel Pentium Pro/II/III/4/4M/D, Xeon,\nCore and Atom; AMD Geode NX, Athlon (K7), Duron, Opteron, Sempron,\nTurion or Phenom; Transmeta Efficeon; VIA C7; and some other processors.'
p705
ss(S'description'
p706
g421
NS'm68k'
p707
tp708
(dp709
S'hardware'
p710
S'Motorola MC68020+ family'
p711
ss(S'build'
p712
g251
tp713
(dp714
S'image-file'
p715
S'vmlinux'
p716
ss(S'xen'
p717
g5
g37
S'amd64'
p718
tp719
(dp720
S'flavours'
p721
(lp722
S'amd64'
p723
ass(S'image'
p724
g18
tp725
(dp726
S'suggests'
p727
S'fdutils'
p728
sS'configs'
p729
(lp730
S'kernelarch-arm/config'
p731
aS'armel/config'
p732
asS'install-stem'
p733
S'vmlinuz'
p734
ss(S'image'
p735
g368
tp736
(dp737
S'install-stem'
p738
S'vmlinuz'
p739
sS'configs'
p740
(lp741
sS'bootloaders'
p742
(lp743
S's390-tools'
p744
ass(S'relations'
p745
g18
tp746
(dp747
S'headers%gcc-4.8'
p748
S'linux-compiler-gcc-4.8-arm'
p749
ss(S'image'
p750
g103
tp751
(dp752
S'suggests'
p753
S'palo'
p754
sS'install-stem'
p755
S'vmlinux'
p756
ss(g135
g397
g137
tp757
(dp758
g140
I01
sg141
(lp759
S'sb1-bcm91250a'
p760
aS'5kc-malta'
p761
aS'octeon'
p762
ass(S'relations'
p763
g103
tp764
(dp765
S'gcc-4.8'
p766
S'gcc-4.8, binutils-hppa64, gcc-4.8-hppa64'
p767
ss(S'image'
p768
g681
NS'sparc64'
p769
tp770
(dp771
S'configs'
p772
(lp773
S'kernelarch-sparc/config-up'
p774
ass(S'image'
p775
g681
NS'sparc64-smp'
p776
tp777
(dp778
S'configs'
p779
(lp780
S'kernelarch-sparc/config-smp'
p781
ass(S'description'
p782
g446
NS'sh7785lcr'
p783
tp784
(dp785
S'hardware'
p786
S'sh7785lcr'
p787
sS'hardware-long'
p788
S'Renesas SH7785 reference board'
p789
ss(S'image'
p790
g18
NS'ixp4xx'
p791
tp792
(dp793
S'check-size'
p794
S'1441760'
p795
sS'configs'
p796
(lp797
S'armel/config-reduced'
p798
aS'armel/config.ixp4xx'
p799
ass(S'abi'
p800
g18
NS'kirkwood'
p801
tp802
(dp803
S'ignore-changes'
p804
(lp805
S'zs_create_pool'
p806
aS'zs_destroy_pool'
p807
aS'zs_free'
p808
aS'zs_get_total_size_bytes'
p809
aS'zs_malloc'
p810
aS'zs_map_object'
p811
aS'zs_unmap_object'
p812
aS'fips_enabled'
p813
aS'dcookie_register'
p814
aS'dcookie_unregister'
p815
aS'get_dcookie'
p816
aS'prof_on'
p817
aS'profile_event_register'
p818
aS'profile_event_unregister'
p819
aS'profile_hits'
p820
aS'ring_buffer_swap_cpu'
p821
aS'task_handoff_register'
p822
aS'task_handoff_unregister'
p823
aS'disable_kprobe'
p824
aS'enable_kprobe'
p825
aS'jprobe_return'
p826
aS'profile_hits'
p827
aS'register_jprobe'
p828
aS'register_jprobes'
p829
aS'register_kprobe'
p830
aS'register_kprobes'
p831
aS'register_kretprobe'
p832
aS'register_kretprobes'
p833
aS'unregister_jprobe'
p834
aS'unregister_jprobes'
p835
aS'unregister_kprobe'
p836
aS'unregister_kprobes'
p837
aS'unregister_kretprobe'
p838
aS'unregister_kretprobes'
p839
ass(S'image'
p840
g29
NS'4kc-malta'
p841
tp842
(dp843
S'configs'
p844
(lp845
S'kernelarch-mips/config.4kc-malta'
p846
ass(S'image'
p847
g397
NS'sb1-bcm91250a'
p848
tp849
(dp850
S'configs'
p851
(lp852
S'kernelarch-mips/config.sb1-bcm91250a'
p853
ass(S'image'
p854
g64
NS'powerpc-smp'
p855
tp856
(dp857
S'configs'
p858
(lp859
S'powerpc/config.powerpc'
p860
aS'powerpc/config.powerpc-smp'
p861
ass(S'description'
p862
g561
NS's390x'
p863
tp864
(dp865
S'hardware'
p866
S'IBM zSeries'
p867
ss(g135
g103
g137
tp868
(dp869
g140
I01
sg141
(lp870
S'parisc'
p871
aS'parisc64-smp'
p872
ass(S'image'
p873
g71
NS'sparc64-smp'
p874
tp875
(dp876
S'configs'
p877
(lp878
S'kernelarch-sparc/config-smp'
p879
ass(S'image'
p880
g397
NS'octeon'
p881
tp882
(dp883
S'configs'
p884
(lp885
S'kernelarch-mips/config.octeon'
p886
ass(S'image'
p887
g64
NS'powerpc64'
p888
tp889
(dp890
S'configs'
p891
(lp892
S'kernelarch-powerpc/config-arch-64'
p893
aS'kernelarch-powerpc/config-arch-64-be'
p894
ass(S'base'
p895
g681
tp896
(dp897
S'kernel-arch'
p898
S'sparc'
p899
sg173
(lp900
g137
ass(S'base'
p901
S'or1k'
p902
tp903
(dp904
S'kernel-arch'
p905
S'openrisc'
p906
sS'featuresets'
p907
(lp908
ss(S'description'
p909
g446
NS'sh7751r'
p910
tp911
(dp912
S'hardware'
p913
S'sh7751r'
p914
sS'hardware-long'
p915
S'Renesas SH7751R R2D plus board'
p916
ss(S'base'
p917
g561
tp918
(dp919
S'kernel-arch'
p920
S's390'
p921
sg173
(lp922
g137
ass(S'base'
p923
g368
tp924
(dp925
S'kernel-arch'
p926
S's390'
p927
sg173
(lp928
g137
ass(S'abi'
p929
g18
NS'orion5x'
p930
tp931
(dp932
S'ignore-changes'
p933
(lp934
S'__ring_buffer_alloc'
p935
aS'dcookie_register'
p936
aS'dcookie_unregister'
p937
aS'get_dcookie'
p938
aS'prof_on'
p939
aS'profile_event_register'
p940
aS'profile_event_unregister'
p941
aS'profile_hits'
p942
aS'ring_buffer_alloc_read_page'
p943
aS'ring_buffer_bytes_cpu'
p944
aS'ring_buffer_change_overwrite'
p945
aS'ring_buffer_commit_overrun_cpu'
p946
aS'ring_buffer_consume'
p947
aS'ring_buffer_discard_commit'
p948
aS'ring_buffer_dropped_events_cpu'
p949
aS'ring_buffer_empty'
p950
aS'ring_buffer_empty_cpu'
p951
aS'ring_buffer_entries'
p952
aS'ring_buffer_entries_cpu'
p953
aS'ring_buffer_event_data'
p954
aS'ring_buffer_event_length'
p955
aS'ring_buffer_free'
p956
aS'ring_buffer_free_read_page'
p957
aS'ring_buffer_iter_empty'
p958
aS'ring_buffer_iter_peek'
p959
aS'ring_buffer_iter_reset'
p960
aS'ring_buffer_lock_reserve'
p961
aS'ring_buffer_normalize_time_stamp'
p962
aS'ring_buffer_oldest_event_ts'
p963
aS'ring_buffer_overrun_cpu'
p964
aS'ring_buffer_overruns'
p965
aS'ring_buffer_peek'
p966
aS'ring_buffer_read'
p967
aS'ring_buffer_read_events_cpu'
p968
aS'ring_buffer_read_finish'
p969
aS'ring_buffer_read_page'
p970
aS'ring_buffer_read_prepare'
p971
aS'ring_buffer_read_prepare_sync'
p972
aS'ring_buffer_read_start'
p973
aS'ring_buffer_record_disable'
p974
aS'ring_buffer_record_disable_cpu'
p975
aS'ring_buffer_record_enable'
p976
aS'ring_buffer_record_enable_cpu'
p977
aS'ring_buffer_record_off'
p978
aS'ring_buffer_record_on'
p979
aS'ring_buffer_reset'
p980
aS'ring_buffer_reset_cpu'
p981
aS'ring_buffer_resize'
p982
aS'ring_buffer_size'
p983
aS'ring_buffer_swap_cpu'
p984
aS'ring_buffer_time_stamp'
p985
aS'ring_buffer_unlock_commit'
p986
aS'ring_buffer_write'
p987
aS'task_handoff_register'
p988
aS'task_handoff_unregister'
p989
aS'trace_clock_local'
p990
ass(S'image'
p991
g681
tp992
(dp993
S'suggests'
p994
S'silo, fdutils'
p995
sS'configs'
p996
(lp997
sS'install-stem'
p998
S'vmlinuz'
p999
ss(S'image'
p1000
g136
tp1001
(dp1002
S'suggests'
p1003
S'mkvmlinuz'
p1004
sS'configs'
p1005
(lp1006
sS'install-stem'
p1007
S'vmlinux'
p1008
ss(S'image'
p1009
g29
tp1010
(dp1011
S'install-stem'
p1012
S'vmlinux'
p1013
ss(S'image'
p1014
g78
tp1015
(dp1016
S'install-stem'
p1017
S'vmlinuz'
p1018
sS'configs'
p1019
(lp1020
sS'bootloaders'
p1021
(lp1022
S'grub-pc'
p1023
aS'extlinux'
p1024
ass(g135
g71
g137
tp1025
(dp1026
g140
I01
sg141
(lp1027
S'sparc64'
p1028
aS'sparc64-smp'
p1029
ass(S'relations'
p1030
g64
tp1031
(dp1032
S'gcc-4.8'
p1033
S'gcc-4.8 (>= 4.8.2-21)'
p1034
ss(g135
g168
g137
tp1035
(dp1036
g140
I01
sg141
(lp1037
S'alpha-generic'
p1038
aS'alpha-smp'
p1039
ass(S'description'
p1040
g78
g301
S'686-pae'
p1041
tp1042
(dp1043
S'parts'
p1044
(lp1045
S'xen'
p1046
ass(S'base'
p1047
S'x32'
p1048
tp1049
(dp1050
S'kernel-arch'
p1051
S'x86'
p1052
sS'featuresets'
p1053
(lp1054
ss(S'base'
p1055
g136
tp1056
(dp1057
S'kernel-arch'
p1058
S'powerpc'
p1059
sg173
(lp1060
g137
ass(S'build'
p1061
g78
NS'686-pae'
p1062
tp1063
(dp1064
S'debug-info'
p1065
I01
ss(S'build'
p1066
g397
tp1067
(dp1068
S'image-file'
p1069
S'vmlinux'
p1070
ss(g135
g29
g137
tp1071
(dp1072
g140
I01
sg141
(lp1073
S'r4k-ip22'
p1074
aS'r5k-ip32'
p1075
aS'sb1-bcm91250a'
p1076
aS'4kc-malta'
p1077
aS'5kc-malta'
p1078
aS'octeon'
p1079
ass(S'description'
p1080
g119
NS'sb1-bcm91250a'
p1081
tp1082
(dp1083
S'hardware'
p1084
S'BCM91250A'
p1085
sS'hardware-long'
p1086
S'Broadcom BCM91250A systems (aka SWARM)'
p1087
ss(S'build'
p1088
g168
tp1089
(dp1090
S'image-file'
p1091
S'arch/alpha/boot/vmlinux.gz'
p1092
ss(S'description'
p1093
g90
NS'arm64'
p1094
tp1095
(dp1096
S'hardware'
p1097
S'64-bit ARMv8 machines'
p1098
ss(S'image'
p1099
g397
tp1100
(dp1101
S'install-stem'
p1102
S'vmlinux'
p1103
ss(S'description'
p1104
g251
NS'sb1-bcm91250a'
p1105
tp1106
(dp1107
S'hardware'
p1108
S'BCM91250A'
p1109
sS'hardware-long'
p1110
S'Broadcom BCM91250A systems (aka SWARM)'
p1111
ss(S'description'
p1112
g251
NS'5kc-malta'
p1113
tp1114
(dp1115
S'hardware'
p1116
S'MIPS Malta'
p1117
sS'hardware-long'
p1118
S'MIPS Malta boards'
p1119
ss(S'image'
p1120
g29
NS'r4k-ip22'
p1121
tp1122
(dp1123
S'configs'
p1124
(lp1125
S'kernelarch-mips/config.r4k-ip22'
p1126
ass(g135
g53
g137
tp1127
(dp1128
g140
I01
sg141
(lp1129
S'itanium'
p1130
aS'mckinley'
p1131
ass(S'build'
p1132
g446
tp1133
(dp1134
S'image-file'
p1135
S'arch/sh/boot/zImage'
p1136
ss(S'image'
p1137
g421
tp1138
(dp1139
S'suggests'
p1140
S'vmelilo, fdutils'
p1141
sS'install-stem'
p1142
S'vmlinuz'
p1143
ss(S'base'
p1144
g90
S'none'
p1145
tp1146
(dp1147
S'flavours'
p1148
(lp1149
S'arm64'
p1150
ass(S'description'
p1151
g397
NS'sb1-bcm91250a'
p1152
tp1153
(dp1154
S'hardware'
p1155
S'BCM91250A'
p1156
sS'hardware-long'
p1157
S'Broadcom BCM91250A systems (aka SWARM)'
p1158
ss(S'build'
p1159
g53
tp1160
(dp1161
S'image-file'
p1162
S'vmlinux.gz'
p1163
ss(S'base'
p1164
g181
tp1165
(dp1166
S'kernel-arch'
p1167
S'arm'
p1168
sg173
(lp1169
g137
ass(S'abi'
p1170
g18
NS'ixp4xx'
p1171
tp1172
(dp1173
S'ignore-changes'
p1174
(lp1175
S'__ring_buffer_alloc'
p1176
aS'dcookie_register'
p1177
aS'dcookie_unregister'
p1178
aS'get_dcookie'
p1179
aS'prof_on'
p1180
aS'profile_event_register'
p1181
aS'profile_event_unregister'
p1182
aS'profile_hits'
p1183
aS'ring_buffer_alloc_read_page'
p1184
aS'ring_buffer_bytes_cpu'
p1185
aS'ring_buffer_change_overwrite'
p1186
aS'ring_buffer_commit_overrun_cpu'
p1187
aS'ring_buffer_consume'
p1188
aS'ring_buffer_discard_commit'
p1189
aS'ring_buffer_dropped_events_cpu'
p1190
aS'ring_buffer_empty'
p1191
aS'ring_buffer_empty_cpu'
p1192
aS'ring_buffer_entries'
p1193
aS'ring_buffer_entries_cpu'
p1194
aS'ring_buffer_event_data'
p1195
aS'ring_buffer_event_length'
p1196
aS'ring_buffer_free'
p1197
aS'ring_buffer_free_read_page'
p1198
aS'ring_buffer_iter_empty'
p1199
aS'ring_buffer_iter_peek'
p1200
aS'ring_buffer_iter_reset'
p1201
aS'ring_buffer_lock_reserve'
p1202
aS'ring_buffer_normalize_time_stamp'
p1203
aS'ring_buffer_oldest_event_ts'
p1204
aS'ring_buffer_overrun_cpu'
p1205
aS'ring_buffer_overruns'
p1206
aS'ring_buffer_peek'
p1207
aS'ring_buffer_read'
p1208
aS'ring_buffer_read_events_cpu'
p1209
aS'ring_buffer_read_finish'
p1210
aS'ring_buffer_read_page'
p1211
aS'ring_buffer_read_prepare'
p1212
aS'ring_buffer_read_prepare_sync'
p1213
aS'ring_buffer_read_start'
p1214
aS'ring_buffer_record_disable'
p1215
aS'ring_buffer_record_disable_cpu'
p1216
aS'ring_buffer_record_enable'
p1217
aS'ring_buffer_record_enable_cpu'
p1218
aS'ring_buffer_record_off'
p1219
aS'ring_buffer_record_on'
p1220
aS'ring_buffer_reset'
p1221
aS'ring_buffer_reset_cpu'
p1222
aS'ring_buffer_resize'
p1223
aS'ring_buffer_size'
p1224
aS'ring_buffer_swap_cpu'
p1225
aS'ring_buffer_time_stamp'
p1226
aS'ring_buffer_unlock_commit'
p1227
aS'ring_buffer_write'
p1228
aS'task_handoff_register'
p1229
aS'task_handoff_unregister'
p1230
aS'trace_clock_local'
p1231
ass(S'image'
p1232
g446
tp1233
(dp1234
S'suggests'
p1235
S'fdutils'
p1236
sS'install-stem'
p1237
S'vmlinuz'
p1238
ss(S'image'
p1239
g119
NS'loongson-3'
p1240
tp1241
(dp1242
S'configs'
p1243
(lp1244
S'kernelarch-mips/config.loongson-3'
p1245
ass(S'base'
p1246
g103
tp1247
(dp1248
S'kernel-arch'
p1249
S'parisc'
p1250
sg173
(lp1251
g137
ass(S'build'
p1252
g561
tp1253
(dp1254
S'image-file'
p1255
S'arch/s390/boot/image'
p1256
ss(S'description'
p1257
g119
NS'loongson-3'
p1258
tp1259
(dp1260
S'hardware'
p1261
S'Loongson 3A/3B'
p1262
sS'hardware-long'
p1263
S'Loongson 3A or 3B based systems (e.g. from Loongson or Lemote)'
p1264
ss(S'base'
p1265
g446
tp1266
(dp1267
S'kernel-arch'
p1268
S'sh'
p1269
sg173
(lp1270
g137
ass(S'image'
p1271
g119
NS'sb1-bcm91250a'
p1272
tp1273
(dp1274
S'configs'
p1275
(lp1276
S'kernelarch-mips/config.sb1-bcm91250a'
p1277
ass(S'image'
p1278
g71
tp1279
(dp1280
S'suggests'
p1281
S'silo, fdutils'
p1282
sS'configs'
p1283
(lp1284
sS'install-stem'
p1285
S'vmlinuz'
p1286
ss(S'description'
p1287
tp1288
(dp1289
S'part-long-up'
p1290
S'This kernel is not suitable for SMP (multi-processor,\nmulti-core or hyper-threaded) systems.'
p1291
sS'part-long-xen'
p1292
S'This kernel also runs on a Xen hypervisor.\nIt supports both privileged (dom0) and unprivileged (domU) operation.'
p1293
ss(S'description'
p1294
g18
NS'orion5x'
p1295
tp1296
(dp1297
S'hardware'
p1298
S'Marvell Orion'
p1299
sS'hardware-long'
p1300
S'Marvell Orion 5181, 5182 and 5281 based systems (QNAP TS-109/TS-209, etc)'
p1301
ss(S'build'
p1302
g681
tp1303
(dp1304
S'image-file'
p1305
S'arch/sparc/boot/zImage'
p1306
ss(S'relations'
p1307
g181
tp1308
(dp1309
S'headers%gcc-4.8'
p1310
S'linux-compiler-gcc-4.8-arm'
p1311
ss(S'image'
p1312
g251
NS'octeon'
p1313
tp1314
(dp1315
S'configs'
p1316
(lp1317
S'kernelarch-mips/config.octeon'
p1318
ass(S'description'
p1319
g136
NS'powerpc64'
p1320
tp1321
(dp1322
S'hardware'
p1323
S'64-bit PowerPC'
p1324
ss(S'image'
p1325
g71
NS'sparc64'
p1326
tp1327
(dp1328
S'configs'
p1329
(lp1330
S'kernelarch-sparc/config-up'
p1331
ass(S'relations'
p1332
g136
tp1333
(dp1334
S'gcc-4.8'
p1335
S'gcc-4.8 (>= 4.8.2-21)'
p1336
ss(S'description'
p1337
g64
NS'powerpc64'
p1338
tp1339
(dp1340
S'hardware'
p1341
S'64-bit PowerPC'
p1342
ss(S'description'
p1343
g29
NS'5kc-malta'
p1344
tp1345
(dp1346
S'hardware'
p1347
S'MIPS Malta (64-bit)'
p1348
sS'hardware-long'
p1349
S'MIPS Malta boards (64-bit)'
p1350
ss(S'description'
p1351
g29
NS'r4k-ip22'
p1352
tp1353
(dp1354
S'hardware'
p1355
S'SGI IP22'
p1356
sS'hardware-long'
p1357
S'SGI IP22 systems (Indy, Indigo2)'
p1358
ss(S'image'
p1359
g168
tp1360
(dp1361
S'suggests'
p1362
S'aboot, fdutils'
p1363
sS'install-stem'
p1364
S'vmlinuz'
p1365
ss(S'relations'
p1366
g561
tp1367
(dp1368
S'headers%gcc-4.8'
p1369
S'linux-compiler-gcc-4.8-s390'
p1370
ss(S'description'
p1371
g119
NS'loongson-2f'
p1372
tp1373
(dp1374
S'hardware'
p1375
S'Loongson 2F'
p1376
sS'hardware-long'
p1377
S'Lemote Loongson 2F systems'
p1378
ss(S'base'
p1379
g64
tp1380
(dp1381
S'kernel-arch'
p1382
S'powerpc'
p1383
sg173
(lp1384
g137
ass(S'image'
p1385
g251
NS'5kc-malta'
p1386
tp1387
(dp1388
S'configs'
p1389
(lp1390
S'kernelarch-mips/config.5kc-malta'
p1391
ass(S'description'
p1392
g119
NS'5kc-malta'
p1393
tp1394
(dp1395
S'hardware'
p1396
S'MIPS Malta (64-bit)'
p1397
sS'hardware-long'
p1398
S'MIPS Malta boards (64-bit)'
p1399
ss(S'image'
p1400
g44
tp1401
(dp1402
S'suggests'
p1403
S'mkvmlinuz'
p1404
sS'configs'
p1405
(lp1406
sS'install-stem'
p1407
S'vmlinux'
p1408
ss(S'build'
p1409
g368
tp1410
(dp1411
S'image-file'
p1412
S'arch/s390/boot/image'
p1413
ss(S'image'
p1414
g441
tp1415
(dp1416
S'suggests'
p1417
S'mkvmlinuz'
p1418
sS'install-stem'
p1419
S'vmlinux'
p1420
ss(S'image'
p1421
g181
tp1422
(dp1423
S'suggests'
p1424
S'fdutils'
p1425
sS'configs'
p1426
(lp1427
S'kernelarch-arm/config'
p1428
aS'armhf/config'
p1429
asS'install-stem'
p1430
S'vmlinuz'
p1431
ss(S'abi'
p1432
tp1433
(dp1434
S'abiname'
p1435
S'4'
p1436
sS'ignore-changes'
p1437
(lp1438
S'module:arch/x86/kvm/kvm'
p1439
aS'module:drivers/md/dm-snapshot'
p1440
aS'module:drivers/mtd/spi-nor/spi-nor'
p1441
aS'module:drivers/net/ethernet/broadcom/bnx2x/bnx2x'
p1442
aS'module:drivers/net/wireless/**'
p1443
aS'module:drivers/scsi/qla2xxx/qla2xxx'
p1444
aS'module:drivers/target/iscsi/iscsi_target_mod'
p1445
aS'module:drivers/target/target_core_mod'
p1446
aS'module:drivers/usb/musb/*'
p1447
aS'module:sound/i2c/other/snd-ak4113'
p1448
aS'module:sound/i2c/other/snd-ak4114'
p1449
aS'azx_alloc_cmd_io'
p1450
aS'azx_free_cmd_io'
p1451
aS'azx_get_response'
p1452
aS'azx_init_cmd_io'
p1453
aS'azx_send_cmd'
p1454
aS'cpuidle_*'
p1455
aS'musb_*'
p1456
aS'__add_pages'
p1457
aS'__remove_pages'
p1458
aS'of_device_is_stdout_path'
p1459
aS'module:sound/soc/*'
p1460
aS'clk_divider_ro_ops'
p1461
aS'tick_nohz_idle_enter'
p1462
aS'tick_nohz_idle_exit'
p1463
ass(S'image'
p1464
g5
NS'amd64'
p1465
tp1466
(dp1467
S'configs'
p1468
(lp1469
S'kernelarch-x86/config-arch-64'
p1470
ass(g135
g441
g137
tp1471
(dp1472
g140
I01
sg141
(lp1473
S'powerpcspe'
p1474
ass(g135
g421
g137
tp1475
(dp1476
g140
I01
sg141
(lp1477
S'm68k'
p1478
ass(S'base'
p1479
g78
g301
tp1480
(dp1481
S'flavours'
p1482
(lp1483
S'586'
p1484
aS'686-pae'
p1485
aS'amd64'
p1486
ass(S'base'
p1487
tp1488
(dp1489
S'arches'
p1490
(lp1491
S'alpha'
p1492
aS'amd64'
p1493
aS'arm64'
p1494
aS'armel'
p1495
aS'armhf'
p1496
aS'hppa'
p1497
aS'i386'
p1498
aS'ia64'
p1499
aS'm68k'
p1500
aS'mips'
p1501
aS'mipsel'
p1502
aS'mips64'
p1503
aS'mips64el'
p1504
aS'or1k'
p1505
aS'powerpc'
p1506
aS'powerpcspe'
p1507
aS'ppc64'
p1508
aS'ppc64el'
p1509
aS's390'
p1510
aS's390x'
p1511
aS'sh4'
p1512
aS'sparc'
p1513
aS'sparc64'
p1514
aS'x32'
p1515
asS'featuresets'
p1516
(lp1517
S'none'
p1518
aS'rt'
p1519
asS'compiler'
p1520
S'gcc-4.8'
p1521
ss(S'image'
p1522
g119
NS'loongson-2f'
p1523
tp1524
(dp1525
S'configs'
p1526
(lp1527
S'kernelarch-mips/config.loongson-2f'
p1528
asS'recommends'
p1529
S'libc6-loongson2f'
p1530
ss(S'build'
p1531
g18
tp1532
(dp1533
S'image-file'
p1534
S'arch/arm/boot/zImage'
p1535
ss(g135
g64
g137
tp1536
(dp1537
g140
I01
sg141
(lp1538
S'powerpc'
p1539
aS'powerpc-smp'
p1540
aS'powerpc64'
p1541
ass(S'image'
p1542
g251
tp1543
(dp1544
S'install-stem'
p1545
S'vmlinux'
p1546
ss(S'description'
p1547
g181
NS'armmp-lpae'
p1548
tp1549
(dp1550
S'hardware'
p1551
S'ARMv7 multiplatform compatible SoCs supporting LPAE'
p1552
sS'hardware-long'
p1553
S'ARMv7 multiplatform kernel supporting LPAE. See\nhttps://wiki.debian.org/DebianKernel/ARMMP for details of supported\nplatforms.'
p1554
ss(S'description'
p1555
g53
NS'mckinley'
p1556
tp1557
(dp1558
S'hardware'
p1559
S'Itanium II'
p1560
ss(S'image'
p1561
g397
NS'5kc-malta'
p1562
tp1563
(dp1564
S'configs'
p1565
(lp1566
S'kernelarch-mips/config.5kc-malta'
p1567
ass(S'base'
p1568
g44
tp1569
(dp1570
S'kernel-arch'
p1571
S'powerpc'
p1572
sg173
(lp1573
g137
ass(S'base'
p1574
g251
tp1575
(dp1576
S'kernel-arch'
p1577
S'mips'
p1578
sg173
(lp1579
g137
ass(S'base'
p1580
g421
tp1581
(dp1582
S'kernel-arch'
p1583
S'm68k'
p1584
sg173
(lp1585
g137
asS'cflags'
p1586
S'-ffreestanding'
p1587
sS'compiler'
p1588
S'gcc-4.8'
p1589
ss(S'description'
p1590
g681
NS'sparc64'
p1591
tp1592
(dp1593
S'hardware'
p1594
S'uniprocessor 64-bit UltraSPARC'
p1595
ss(S'image'
p1596
tp1597
(dp1598
S'initramfs-generators'
p1599
(lp1600
S'initramfs-tools'
p1601
aS'initramfs-fallback'
p1602
asS'type'
p1603
S'plain'
p1604
ss(S'description'
p1605
g29
NS'octeon'
p1606
tp1607
(dp1608
S'hardware'
p1609
S'Octeon'
p1610
sS'hardware-long'
p1611
S'Cavium Networks Octeon'
p1612
ss(S'image'
p1613
g561
NS's390x'
p1614
tp1615
(dp1616
S'configs'
p1617
(lp1618
S'kernelarch-s390/config-arch-64'
p1619
ass(S'build'
p1620
g44
tp1621
(dp1622
S'image-file'
p1623
S'vmlinux'
p1624
ss(S'description'
p1625
g71
NS'sparc64-smp'
p1626
tp1627
(dp1628
S'hardware'
p1629
S'multiprocessor 64-bit UltraSPARC'
p1630
ss(g135
g681
g137
tp1631
(dp1632
g140
I01
sg141
(lp1633
S'sparc64'
p1634
aS'sparc64-smp'
p1635
ass(S'build'
p1636
g368
NS's390x'
p1637
tp1638
(dp1639
S'debug-info'
p1640
I01
ss(S'image'
p1641
g368
NS's390x'
p1642
tp1643
(dp1644
S'configs'
p1645
(lp1646
S'kernelarch-s390/config-arch-64'
p1647
ass(S'description'
p1648
g5
NS'amd64'
p1649
tp1650
(dp1651
S'hardware'
p1652
S'64-bit PCs'
p1653
sS'hardware-long'
p1654
S'PCs with AMD64, Intel 64 or VIA Nano processors'
p1655
ss(S'image'
p1656
g90
tp1657
(dp1658
S'install-stem'
p1659
S'vmlinuz'
p1660
ss(S'description'
p1661
g168
NS'alpha-generic'
p1662
tp1663
(dp1664
S'hardware'
p1665
S'Alpha'
p1666
sS'hardware-long'
p1667
S'DEC Alpha systems with extended kernel start address (Wildfire, Titan, Marvel)'
p1668
ss(S'image'
p1669
g78
NS'amd64'
p1670
tp1671
(dp1672
S'configs'
p1673
(lp1674
S'kernelarch-x86/config-arch-64'
p1675
asS'recommends'
p1676
S'libc6-i686'
p1677
ss(S'image'
p1678
g561
tp1679
(dp1680
S'install-stem'
p1681
S'vmlinuz'
p1682
sS'configs'
p1683
(lp1684
sS'bootloaders'
p1685
(lp1686
S's390-tools'
p1687
ass(S'image'
p1688
g119
NS'4kc-malta'
p1689
tp1690
(dp1691
S'configs'
p1692
(lp1693
S'kernelarch-mips/config.4kc-malta'
p1694
ass(S'build'
p1695
g78
tp1696
(dp1697
S'image-file'
p1698
S'arch/x86/boot/bzImage'
p1699
ss(g135
g44
g137
tp1700
(dp1701
g140
I01
sg141
(lp1702
S'powerpc64le'
p1703
ass(S'description'
p1704
g168
NS'alpha-smp'
p1705
tp1706
(dp1707
S'hardware'
p1708
S'Alpha SMP'
p1709
sS'hardware-long'
p1710
S'DEC Alpha SMP systems with extended kernel start address (Wildfire, Titan, Marvel)'
p1711
sstp1712
Rp1713
.