cdebian_linux.config
ConfigCore
p0
(tRp1
(Vbase
p2
tp3
(dp4
Varches
p5
(lp6
Valpha
p7
aVamd64
p8
aVarm64
p9
aVarm64ilp32
p10
aVarmel
p11
aVarmhf
p12
aVhppa
p13
aVi386
p14
aVia64
p15
aVm68k
p16
aVmips
p17
aVmips64
p18
aVmips64el
p19
aVmips64r6
p20
aVmips64r6el
p21
aVmipsel
p22
aVmipsn32
p23
aVmipsn32el
p24
aVmipsn32r6
p25
aVmipsn32r6el
p26
aVmipsr6
p27
aVmipsr6el
p28
aVpowerpc
p29
aVpowerpcspe
p30
aVppc64
p31
aVppc64el
p32
aVs390
p33
aVs390x
p34
aVsh3
p35
aVsh4
p36
aVsparc
p37
aVsparc64
p38
aVtilegx
p39
aVx32
p40
asVfeaturesets
p41
(lp42
Vnone
p43
aVrt
p44
asVcompiler
p45
Vgcc-7
p46
ss(Vbuild
p47
tp48
(dp49
Vsigned-code
p50
I00
sVdebug-info
p51
I01
ss(Vbase
p52
NVrt
p53
tp54
(dp55
Venabled
p56
I01
ss(Vdescription
p57
tp58
(dp59
Vpart-long-up
p60
VThis kernel is not suitable for SMP (multi-processor,\u000amulti-core or hyper-threaded) systems.
p61
ss(Vrelations
p62
tp63
(dp64
Vinitramfs-tools
p65
Vinitramfs-tools (>= 0.120+deb8u2)
p66
sVgcc-7
p67
Vgcc-7 <!stage1 !cross>, gcc-7-@gnu-type-package@ <!stage1 cross>
p68
sVinitramfs-fallback
p69
Vlinux-initramfs-tool
p70
ss(Vimage
p71
tp72
(dp73
Vinitramfs-generators
p74
(lp75
Vinitramfs-tools
p76
aVinitramfs-fallback
p77
asVrecommends
p78
Vapparmor
p79
ss(Vabi
p80
tp81
(dp82
Vabiname
p83
V2
p84
sVignore-changes
p85
(lp86
V__cpuhp_*
p87
aV__xive_vm_h_*
p88
aVbpf_analyzer
p89
aVcxl_*
p90
aVdax_flush
p91
aVieee80211_nullfunc_get
p92
aVinet_add_protocol
p93
aVinet_del_protocol
p94
aViommu_device_*
p95
aVkvm_async_pf_task_wait
p96
aVkvmppc_*
p97
aVmm_iommu_*
p98
aVmv_mbus_*
p99
aVperf_*
p100
aVregister_cxl_calls
p101
aVregister_key_type
p102
aVunregister_cxl_calls
p103
aV*_hw_breakpoint
p104
aVmodule:arch/x86/kvm/*
p105
aVmodule:drivers/crypto/ccp/*
p106
aVmodule:drivers/hv/*
p107
aVmodule:drivers/iio/**
p108
aVmodule:drivers/misc/cxl/*
p109
aVmodule:drivers/mtd/nand/*
p110
aVmodule:drivers/net/wireless/**
p111
aVmodule:drivers/nvdimm/*
p112
aVmodule:drivers/power/supply/bq27xxx_battery
p113
aVmodule:drivers/scsi/cxgbi/*
p114
aVmodule:drivers/scsi/libiscs*
p115
aVmodule:drivers/scsi/qla2xxx/qla2xxx
p116
aVmodule:drivers/scsi/ufs/*
p117
aVmodule:drivers/target/**
p118
aVmodule:drivers/usb/chipidea/**
p119
aVmodule:drivers/usb/gadget/**
p120
aVmodule:drivers/usb/host/**
p121
aVmodule:drivers/usb/musb/**
p122
aVmodule:fs/nfs/**
p123
aVmodule:net/ceph/libceph
p124
aVmodule:net/l2tp/**
p125
aVmodule:net/rxrpc/rxrpc
p126
aVmodule:sound/core/seq/**
p127
aVmodule:sound/firewire/snd-firewire-lib
p128
aVbtree_*
p129
aVvisitor*
p130
aVcan_rx_register
p131
aVip6_xmit
p132
aVmodule:net/dccp/dccp
p133
aVmodule:net/rds/rds
p134
aVdevfreq_*
p135
aVdevm_devfreq_*
p136
aVupdate_devfreq
p137
aVmodule:drivers/infiniband/**
p138
aVacpi_ec_add_query_handler
p139
aVacpi_ec_remove_query_handler
p140
aVfirst_ec
p141
aVdebugfs_create_automount
p142
aVmodule:drivers/iio/imu/inv_mpu6050/*
p143
aVdrm_crtc_accurate_vblank_count
p144
ass(Vbase
p145
Valpha
p146
tp147
(dp148
Vfeaturesets
p149
(lp150
Vnone
p151
asVkernel-arch
p152
Valpha
p153
ss(Vdescription
p154
g146
NValpha-smp
p155
tp156
(dp157
Vhardware
p158
VAlpha SMP
p159
sVhardware-long
p160
VDEC Alpha SMP systems with extended kernel start address (Wildfire, Titan, Marvel)
p161
ss(Vbuild
p162
g146
tp163
(dp164
Vimage-file
p165
Varch/alpha/boot/vmlinux.gz
p166
ss(Vdescription
p167
g146
NValpha-generic
p168
tp169
(dp170
Vhardware
p171
VAlpha
p172
sVhardware-long
p173
VDEC Alpha systems with extended kernel start address (Wildfire, Titan, Marvel)
p174
ss(Vimage
p175
g146
tp176
(dp177
Vsuggests
p178
Vaboot, fdutils
p179
sVinstall-stem
p180
Vvmlinuz
p181
ss(Vbase
p182
g146
g151
tp183
(dp184
Vflavours
p185
(lp186
Valpha-generic
p187
aValpha-smp
p188
asVimplicit-flavour
p189
I01
ss(Vbase
p190
Vamd64
p191
tp192
(dp193
Vfeaturesets
p194
(lp195
Vnone
p196
aVrt
p197
asVkernel-arch
p198
Vx86
p199
ss(Vbuild
p200
g191
tp201
(dp202
Vvdso
p203
I01
sVimage-file
p204
Varch/x86/boot/bzImage
p205
sVdebug-info
p206
I01
ss(Vdescription
p207
g191
NVamd64
p208
tp209
(dp210
Vhardware
p211
V64-bit PCs
p212
sVhardware-long
p213
VPCs with AMD64, Intel 64 or VIA Nano processors
p214
ss(Vrelations
p215
g191
tp216
(dp217
Vgcc-7
p218
Vgcc-7 (>= 7.2.0-20~) <!stage1 !cross>, gcc-7-x86-64-linux-gnu (>= 7.2.0-20~) <!stage1 cross>
p219
sVheaders%gcc-7
p220
Vlinux-compiler-gcc-7-x86 (>= 4.14.17-1~)
p221
ss(Vdescription
p222
g191
NVcloud-amd64
p223
tp224
(dp225
Vhardware
p226
Vx86-64 cloud
p227
sVhardware-long
p228
VAmazon EC2, Google Compute Engine and Microsoft Azure cloud platforms
p229
ss(Vimage
p230
g191
tp231
(dp232
Vbreaks
p233
Vxserver-xorg-input-vmmouse (<< 1:13.0.99)
p234
sVinstall-stem
p235
Vvmlinuz
p236
sVbootloaders
p237
(lp238
Vgrub-pc
p239
aVgrub-efi-amd64
p240
aVextlinux
p241
ass(Vbase
p242
g191
Vnone
p243
tp244
(dp245
Vflavours
p246
(lp247
Vamd64
p248
aVcloud-amd64
p249
ass(Vbase
p250
g191
Vrt
p251
tp252
(dp253
Vflavours
p254
(lp255
Vamd64
p256
ass(Vbase
p257
Varm64
p258
tp259
(dp260
Vfeaturesets
p261
(lp262
Vnone
p263
asVkernel-arch
p264
Varm64
p265
ss(Vdescription
p266
g258
NVarm64
p267
tp268
(dp269
Vhardware
p270
V64-bit ARMv8 machines
p271
ss(Vbuild
p272
g258
tp273
(dp274
Vvdso
p275
I01
sVimage-file
p276
Varch/arm64/boot/Image
p277
sVdebug-info
p278
I01
ss(Vimage
p279
g258
NVarm64
p280
tp281
(dp282
s(Vimage
p283
g258
tp284
(dp285
Vbreaks
p286
Vlibmozjs185-1.0, libmozjs-24-0 (<< 24.2.0-5.1~)
p287
sVinstall-stem
p288
Vvmlinuz
p289
ss(Vbase
p290
g258
Vnone
p291
tp292
(dp293
Vflavours
p294
(lp295
Varm64
p296
ass(Vbase
p297
Varm64ilp32
p298
tp299
(dp300
Vfeaturesets
p301
(lp302
sVkernel-arch
p303
Varm64
p304
ss(Vbase
p305
Varmel
p306
tp307
(dp308
g149
(lp309
g151
asVkernel-arch
p310
Varm
p311
ss(Vbuild
p312
g306
tp313
(dp314
Vimage-file
p315
Varch/arm/boot/zImage
p316
sVuncompressed-image-file
p317
Varch/arm/boot/Image
p318
ss(Vimage
p319
g306
NVmarvell
p320
tp321
(dp322
Vrecommends
p323
Vu-boot-tools
p324
sVbreaks
p325
Vflash-kernel (<< 3.57~)
p326
sVcheck-size-with-dtb
p327
I01
sVcheck-size
p328
L2097080L
sVcheck-uncompressed-size
p329
L7340032L
ss(Vdescription
p330
g306
NVmarvell
p331
tp332
(dp333
Vhardware
p334
VMarvell Kirkwood/Orion
p335
sVhardware-long
p336
VMarvell Kirkwood and Orion based systems (https://wiki.debian.org/ArmEabiPort#Supported_hardware)
p337
ss(Vrelations
p338
g306
tp339
(dp340
Vheaders%gcc-7
p341
Vlinux-compiler-gcc-7-arm
p342
ss(Vimage
p343
g306
tp344
(dp345
Vinstall-stem
p346
Vvmlinuz
p347
ss(g182
g306
g151
tp348
(dp349
g185
(lp350
Vmarvell
p351
asg189
I01
ss(Vbase
p352
Varmhf
p353
tp354
(dp355
Vfeaturesets
p356
(lp357
sVkernel-arch
p358
Varm
p359
ss(Vbase
p360
Vhppa
p361
tp362
(dp363
g149
(lp364
g151
asVkernel-arch
p365
Vparisc
p366
ss(Vbuild
p367
g361
tp368
(dp369
Vdebug-info
p370
I01
sVimage-file
p371
Varch/parisc/boot/bzImage
p372
ss(Vdescription
p373
g361
NVparisc64-smp
p374
tp375
(dp376
Vhardware
p377
Vmultiprocessor 64-bit PA-RISC
p378
sVhardware-long
p379
VHP PA-RISC 64-bit SMP systems with support for more than 4 GB RAM
p380
ss(Vrelations
p381
g361
tp382
(dp383
Vgcc-7
p384
Vgcc-7 <!stage1 !cross>, binutils-hppa64-linux-gnu <!stage1 !cross>, gcc-7-hppa64-linux-gnu <!stage1 !cross>, gcc-7-hppa-linux-gnu <!stage1 cross>, binutils-hppa64-linux-gnu <!stage1 cross>, gcc-7-hppa64-linux-gnu <!stage1 cross>
p385
ss(Vbase
p386
g361
NVparisc64-smp
p387
tp388
(dp389
Vcflags
p390
V-fno-cse-follow-jumps
p391
sVoverride-host-type
p392
Vhppa64-linux-gnu
p393
ss(Vdescription
p394
g361
NVparisc-smp
p395
tp396
(dp397
Vhardware
p398
Vmultiprocessor 32-bit PA-RISC
p399
sVhardware-long
p400
VHP PA-RISC 32-bit SMP systems with max 4 GB RAM
p401
ss(Vdescription
p402
g361
NVparisc
p403
tp404
(dp405
Vhardware
p406
V32-bit PA-RISC
p407
sVhardware-long
p408
VHP PA-RISC 32-bit systems with max 4 GB RAM
p409
ss(Vimage
p410
g361
tp411
(dp412
Vsuggests
p413
Vpalo
p414
sVinstall-stem
p415
Vvmlinuz
p416
ss(g182
g361
g151
tp417
(dp418
g185
(lp419
Vparisc
p420
aVparisc-smp
p421
aVparisc64-smp
p422
asg189
I01
ss(Vbase
p423
Vi386
p424
tp425
(dp426
Vfeaturesets
p427
(lp428
Vnone
p429
aVrt
p430
asVkernel-arch
p431
Vx86
p432
ss(Vbuild
p433
g424
tp434
(dp435
Vvdso
p436
I01
sVimage-file
p437
Varch/x86/boot/bzImage
p438
ss(Vdescription
p439
g424
NV686-pae
p440
tp441
(dp442
Vhardware
p443
Vmodern PCs
p444
sVhardware-long
p445
VPCs with one or more processors supporting PAE
p446
sVparts
p447
(lp448
Vpae
p449
ass(Vdescription
p450
g424
tp451
(dp452
Vpart-long-pae
p453
VThis kernel requires PAE (Physical Address Extension).\u000aThis feature is supported by the Intel Pentium Pro/II/III/4/4M/D, Xeon,\u000aCore and Atom; AMD Geode NX, Athlon (K7), Duron, Opteron, Sempron,\u000aTurion or Phenom; Transmeta Efficeon; VIA C7; and some other processors.
p454
ss(Vbuild
p455
g424
NV686-pae
p456
tp457
(dp458
Vdebug-info
p459
I01
ss(Vdescription
p460
g424
NV686
p461
tp462
(dp463
Vhardware
p464
Volder PCs
p465
sVhardware-long
p466
VPCs with one or more processors not supporting PAE
p467
ss(Vrelations
p468
g424
tp469
(dp470
Vgcc-7
p471
Vgcc-7 (>= 7.2.0-20~) <!stage1 !cross>, gcc-7-i686-linux-gnu (>= 7.2.0-20~) <!stage1 cross>
p472
sVheaders%gcc-7
p473
Vlinux-compiler-gcc-7-x86 (>= 4.14.17-1~)
p474
ss(Vimage
p475
g424
tp476
(dp477
Vbreaks
p478
Vxserver-xorg-input-vmmouse (<< 1:13.0.99)
p479
sVinstall-stem
p480
Vvmlinuz
p481
sVbootloaders
p482
(lp483
Vgrub-pc
p484
aVextlinux
p485
ass(Vbase
p486
g424
Vnone
p487
tp488
(dp489
Vflavours
p490
(lp491
V686
p492
aV686-pae
p493
ass(Vbase
p494
g424
Vrt
p495
tp496
(dp497
Vflavours
p498
(lp499
V686-pae
p500
ass(Vbase
p501
Via64
p502
tp503
(dp504
g149
(lp505
g151
asVkernel-arch
p506
Via64
p507
ss(Vdescription
p508
g502
NVitanium
p509
tp510
(dp511
Vhardware
p512
VItanium (Merced)
p513
sVhardware-long
p514
Vsystems with original Itanium (Merced) processors
p515
ss(Vbuild
p516
g502
tp517
(dp518
Vimage-file
p519
Vvmlinux.gz
p520
ss(Vimage
p521
g502
tp522
(dp523
Vinstall-stem
p524
Vvmlinuz
p525
sVbootloaders
p526
(lp527
Velilo
p528
ass(Vdescription
p529
g502
NVmckinley
p530
tp531
(dp532
Vhardware
p533
VItanium 2+
p534
sVhardware-long
p535
Vsystems with Itanium 2 or 9300/9500/9700-series processors
p536
ss(g182
g502
g151
tp537
(dp538
g185
(lp539
Vitanium
p540
aVmckinley
p541
asg189
I01
ss(Vbase
p542
Vm68k
p543
tp544
(dp545
Vcflags
p546
V-ffreestanding
p547
sg149
(lp548
g151
asVkernel-arch
p549
Vm68k
p550
ss(Vbuild
p551
g543
tp552
(dp553
Vimage-file
p554
Vvmlinux
p555
ss(Vdescription
p556
g543
NVm68k
p557
tp558
(dp559
Vhardware
p560
VMotorola MC68020+ family
p561
ss(Vimage
p562
g543
tp563
(dp564
Vsuggests
p565
Vvmelilo, fdutils
p566
sVinstall-stem
p567
Vvmlinux
p568
ss(g182
g543
g151
tp569
(dp570
g185
(lp571
Vm68k
p572
asg189
I01
ss(Vbase
p573
Vmips
p574
tp575
(dp576
g149
(lp577
g151
asVkernel-arch
p578
Vmips
p579
ss(Vbuild
p580
g574
tp581
(dp582
Vimage-file
p583
Vvmlinux
p584
ss(Vimage
p585
g574
NV4kc-malta
p586
tp587
(dp588
Vconfigs
p589
(lp590
Vkernelarch-mips/config.malta
p591
aVkernelarch-mips/config.mips32r2
p592
ass(Vimage
p593
g574
NV5kc-malta
p594
tp595
(dp596
Vconfigs
p597
(lp598
Vkernelarch-mips/config.malta
p599
aVkernelarch-mips/config.mips64r2
p600
ass(Vdescription
p601
g574
NVocteon
p602
tp603
(dp604
Vhardware
p605
VOcteon
p606
sVhardware-long
p607
VCavium Networks Octeon
p608
ss(Vimage
p609
g574
NVocteon
p610
tp611
(dp612
Vconfigs
p613
(lp614
Vkernelarch-mips/config.octeon
p615
ass(Vimage
p616
g574
tp617
(dp618
Vinstall-stem
p619
Vvmlinux
p620
ss(Vdescription
p621
g574
NV5kc-malta
p622
tp623
(dp624
Vhardware
p625
VMIPS Malta (64-bit)
p626
sVhardware-long
p627
VMIPS Malta boards (64-bit)
p628
ss(Vdescription
p629
g574
NV4kc-malta
p630
tp631
(dp632
Vhardware
p633
VMIPS Malta
p634
sVhardware-long
p635
VMIPS Malta boards
p636
ss(g182
g574
g151
tp637
(dp638
g185
(lp639
V4kc-malta
p640
aV5kc-malta
p641
aVocteon
p642
asg189
I01
ss(Vbase
p643
Vmips64
p644
tp645
(dp646
g149
(lp647
g151
asVkernel-arch
p648
Vmips
p649
ss(Vbuild
p650
g644
tp651
(dp652
Vimage-file
p653
Vvmlinux
p654
ss(Vimage
p655
g644
NV5kc-malta
p656
tp657
(dp658
Vconfigs
p659
(lp660
Vkernelarch-mips/config.malta
p661
aVkernelarch-mips/config.mips64r2
p662
ass(Vdescription
p663
g644
NVocteon
p664
tp665
(dp666
Vhardware
p667
VOcteon
p668
sVhardware-long
p669
VCavium Networks Octeon
p670
ss(Vimage
p671
g644
tp672
(dp673
Vinstall-stem
p674
Vvmlinux
p675
ss(Vdescription
p676
g644
NV5kc-malta
p677
tp678
(dp679
Vhardware
p680
VMIPS Malta
p681
sVhardware-long
p682
VMIPS Malta boards
p683
ss(Vimage
p684
g644
NVocteon
p685
tp686
(dp687
Vconfigs
p688
(lp689
Vkernelarch-mips/config.octeon
p690
ass(g182
g644
g151
tp691
(dp692
g185
(lp693
V5kc-malta
p694
aVocteon
p695
asg189
I01
ss(Vbase
p696
Vmips64el
p697
tp698
(dp699
g149
(lp700
g151
asVkernel-arch
p701
Vmips
p702
ss(Vimage
p703
g697
NVloongson-3
p704
tp705
(dp706
Vconfigs
p707
(lp708
Vkernelarch-mips/config.loongson-3
p709
ass(Vbuild
p710
g697
tp711
(dp712
Vimage-file
p713
Vvmlinux
p714
ss(Vimage
p715
g697
NV5kc-malta
p716
tp717
(dp718
Vconfigs
p719
(lp720
Vkernelarch-mips/config.malta
p721
aVkernelarch-mips/config.mips64r2
p722
ass(Vdescription
p723
g697
NVocteon
p724
tp725
(dp726
Vhardware
p727
VOcteon
p728
sVhardware-long
p729
VCavium Networks Octeon
p730
ss(Vdescription
p731
g697
NVloongson-3
p732
tp733
(dp734
Vhardware
p735
VLoongson 3A/3B
p736
sVhardware-long
p737
VLoongson 3A or 3B based systems (e.g. from Loongson or Lemote)
p738
ss(Vimage
p739
g697
tp740
(dp741
Vinstall-stem
p742
Vvmlinux
p743
ss(Vdescription
p744
g697
NV5kc-malta
p745
tp746
(dp747
Vhardware
p748
VMIPS Malta
p749
sVhardware-long
p750
VMIPS Malta boards
p751
ss(Vimage
p752
g697
NVocteon
p753
tp754
(dp755
Vconfigs
p756
(lp757
Vkernelarch-mips/config.octeon
p758
ass(g182
g697
g151
tp759
(dp760
g185
(lp761
V5kc-malta
p762
aVloongson-3
p763
aVocteon
p764
asg189
I01
ss(Vbase
p765
Vmips64r6
p766
tp767
(dp768
g149
(lp769
g151
asVkernel-arch
p770
Vmips
p771
ss(Vbuild
p772
g766
tp773
(dp774
Vimage-file
p775
Vvmlinux
p776
ss(Vimage
p777
g766
tp778
(dp779
Vinstall-stem
p780
Vvmlinux
p781
ss(Vimage
p782
g766
NVmips64r6
p783
tp784
(dp785
Vconfigs
p786
(lp787
Vkernelarch-mips/config.malta
p788
aVkernelarch-mips/config.mips64r6
p789
ass(Vdescription
p790
g766
NVmips64r6
p791
tp792
(dp793
Vhardware
p794
VMIPS R6 (64 bit, big endian)
p795
sVhardware-long
p796
VMIPS R6 (64 bit, big endian)
p797
ss(g182
g766
g151
tp798
(dp799
g185
(lp800
Vmips64r6
p801
asg189
I01
ss(Vbase
p802
Vmips64r6el
p803
tp804
(dp805
g149
(lp806
g151
asVkernel-arch
p807
Vmips
p808
ss(Vimage
p809
g803
NVmips64r6el
p810
tp811
(dp812
Vconfigs
p813
(lp814
Vkernelarch-mips/config.malta
p815
aVkernelarch-mips/config.mips64r6
p816
ass(Vbuild
p817
g803
tp818
(dp819
Vimage-file
p820
Vvmlinux
p821
ss(Vdescription
p822
g803
NVmips64r6el
p823
tp824
(dp825
Vhardware
p826
VMIPS R6 (64 bit, little endian)
p827
sVhardware-long
p828
VMIPS R6 (64 bit, little endian)
p829
ss(Vimage
p830
g803
tp831
(dp832
Vinstall-stem
p833
Vvmlinux
p834
ss(g182
g803
g151
tp835
(dp836
g185
(lp837
Vmips64r6el
p838
asg189
I01
ss(Vbase
p839
Vmipsel
p840
tp841
(dp842
g149
(lp843
g151
asVkernel-arch
p844
Vmips
p845
ss(Vimage
p846
g840
NVloongson-3
p847
tp848
(dp849
Vconfigs
p850
(lp851
Vkernelarch-mips/config.loongson-3
p852
ass(Vbuild
p853
g840
tp854
(dp855
Vimage-file
p856
Vvmlinux
p857
ss(Vimage
p858
g840
NV4kc-malta
p859
tp860
(dp861
Vconfigs
p862
(lp863
Vkernelarch-mips/config.malta
p864
aVkernelarch-mips/config.mips32r2
p865
ass(Vimage
p866
g840
NV5kc-malta
p867
tp868
(dp869
Vconfigs
p870
(lp871
Vkernelarch-mips/config.malta
p872
aVkernelarch-mips/config.mips64r2
p873
ass(Vdescription
p874
g840
NVocteon
p875
tp876
(dp877
Vhardware
p878
VOcteon
p879
sVhardware-long
p880
VCavium Networks Octeon
p881
ss(Vdescription
p882
g840
NVloongson-3
p883
tp884
(dp885
Vhardware
p886
VLoongson 3A/3B
p887
sVhardware-long
p888
VLoongson 3A or 3B based systems (e.g. from Loongson or Lemote)
p889
ss(Vimage
p890
g840
NVocteon
p891
tp892
(dp893
Vconfigs
p894
(lp895
Vkernelarch-mips/config.octeon
p896
ass(Vimage
p897
g840
tp898
(dp899
Vinstall-stem
p900
Vvmlinux
p901
ss(Vdescription
p902
g840
NV5kc-malta
p903
tp904
(dp905
Vhardware
p906
VMIPS Malta (64-bit)
p907
sVhardware-long
p908
VMIPS Malta boards (64-bit)
p909
ss(Vdescription
p910
g840
NV4kc-malta
p911
tp912
(dp913
Vhardware
p914
VMIPS Malta
p915
sVhardware-long
p916
VMIPS Malta boards
p917
ss(g182
g840
g151
tp918
(dp919
g185
(lp920
V4kc-malta
p921
aV5kc-malta
p922
aVloongson-3
p923
aVocteon
p924
asg189
I01
ss(Vbase
p925
Vmipsn32
p926
tp927
(dp928
Vfeaturesets
p929
(lp930
sVkernel-arch
p931
Vmips
p932
ss(Vbase
p933
Vmipsn32el
p934
tp935
(dp936
Vfeaturesets
p937
(lp938
sVkernel-arch
p939
Vmips
p940
ss(Vbase
p941
Vmipsn32r6
p942
tp943
(dp944
Vfeaturesets
p945
(lp946
sVkernel-arch
p947
Vmips
p948
ss(Vbase
p949
Vmipsn32r6el
p950
tp951
(dp952
Vfeaturesets
p953
(lp954
sVkernel-arch
p955
Vmips
p956
ss(Vbase
p957
Vmipsr6
p958
tp959
(dp960
g149
(lp961
g151
asVkernel-arch
p962
Vmips
p963
ss(Vbuild
p964
g958
tp965
(dp966
Vimage-file
p967
Vvmlinux
p968
ss(Vdescription
p969
g958
NVmips32r6
p970
tp971
(dp972
Vhardware
p973
VMIPS R6 (32 bit, big endian)
p974
sVhardware-long
p975
VMIPS R6 (32 bit, big endian)
p976
ss(Vdescription
p977
g958
NVmips64r6
p978
tp979
(dp980
Vhardware
p981
VMIPS R6 (64 bit, big endian)
p982
sVhardware-long
p983
VMIPS R6 (64 bit, big endian)
p984
ss(Vimage
p985
g958
NVmips64r6
p986
tp987
(dp988
Vconfigs
p989
(lp990
Vkernelarch-mips/config.malta
p991
aVkernelarch-mips/config.mips64r6
p992
ass(Vimage
p993
g958
tp994
(dp995
Vinstall-stem
p996
Vvmlinux
p997
ss(Vimage
p998
g958
NVmips32r6
p999
tp1000
(dp1001
Vconfigs
p1002
(lp1003
Vkernelarch-mips/config.malta
p1004
aVkernelarch-mips/config.mips32r6
p1005
ass(g182
g958
g151
tp1006
(dp1007
g185
(lp1008
Vmips32r6
p1009
aVmips64r6
p1010
asg189
I01
ss(Vbase
p1011
Vmipsr6el
p1012
tp1013
(dp1014
g149
(lp1015
g151
asVkernel-arch
p1016
Vmips
p1017
ss(Vimage
p1018
g1012
NVmips32r6el
p1019
tp1020
(dp1021
Vconfigs
p1022
(lp1023
Vkernelarch-mips/config.malta
p1024
aVkernelarch-mips/config.mips32r6
p1025
ass(Vdescription
p1026
g1012
NVmips64r6el
p1027
tp1028
(dp1029
Vhardware
p1030
VMIPS R6 (64 bit, little endian)
p1031
sVhardware-long
p1032
VMIPS R6 (64 bit, little endian)
p1033
ss(Vdescription
p1034
g1012
NVmips32r6el
p1035
tp1036
(dp1037
Vhardware
p1038
VMIPS R6 (32 bit, little endian)
p1039
sVhardware-long
p1040
VMIPS R6 (32 bit, little endian)
p1041
ss(Vimage
p1042
g1012
NVmips64r6el
p1043
tp1044
(dp1045
Vconfigs
p1046
(lp1047
Vkernelarch-mips/config.malta
p1048
aVkernelarch-mips/config.mips64r6
p1049
ass(Vbuild
p1050
g1012
tp1051
(dp1052
Vimage-file
p1053
Vvmlinux
p1054
ss(Vimage
p1055
g1012
tp1056
(dp1057
Vinstall-stem
p1058
Vvmlinux
p1059
ss(g182
g1012
g151
tp1060
(dp1061
g185
(lp1062
Vmips32r6el
p1063
aVmips64r6el
p1064
asg189
I01
ss(Vbase
p1065
Vpowerpc
p1066
tp1067
(dp1068
g149
(lp1069
g151
asVkernel-arch
p1070
Vpowerpc
p1071
ss(Vdescription
p1072
g1066
NVpowerpc64
p1073
tp1074
(dp1075
Vhardware
p1076
V64-bit PowerPC
p1077
ss(Vbuild
p1078
g1066
tp1079
(dp1080
Vvdso
p1081
I01
sVimage-file
p1082
Vvmlinux
p1083
ss(Vimage
p1084
g1066
NVpowerpc-smp
p1085
tp1086
(dp1087
Vconfigs
p1088
(lp1089
Vpowerpc/config.powerpc
p1090
aVpowerpc/config.powerpc-smp
p1091
ass(Vdescription
p1092
g1066
NVpowerpc
p1093
tp1094
(dp1095
Vhardware
p1096
Vuniprocessor 32-bit PowerPC
p1097
ss(Vimage
p1098
g1066
NVpowerpc64
p1099
tp1100
(dp1101
Vconfigs
p1102
(lp1103
Vkernelarch-powerpc/config-arch-64
p1104
aVkernelarch-powerpc/config-arch-64-be
p1105
ass(Vdescription
p1106
g1066
NVpowerpc-smp
p1107
tp1108
(dp1109
Vhardware
p1110
Vmultiprocessor 32-bit PowerPC
p1111
ss(Vimage
p1112
g1066
tp1113
(dp1114
Vsuggests
p1115
Vmkvmlinuz
p1116
sVinstall-stem
p1117
Vvmlinux
p1118
sVconfigs
p1119
(lp1120
ss(g182
g1066
g151
tp1121
(dp1122
g185
(lp1123
Vpowerpc
p1124
aVpowerpc-smp
p1125
aVpowerpc64
p1126
asg189
I01
ss(Vbase
p1127
Vpowerpcspe
p1128
tp1129
(dp1130
g149
(lp1131
g151
asVkernel-arch
p1132
Vpowerpc
p1133
ss(Vbuild
p1134
g1128
tp1135
(dp1136
Vvdso
p1137
I01
sVimage-file
p1138
Vvmlinux
p1139
ss(Vimage
p1140
g1128
tp1141
(dp1142
Vsuggests
p1143
Vmkvmlinuz
p1144
sVinstall-stem
p1145
Vvmlinux
p1146
ss(Vdescription
p1147
g1128
tp1148
(dp1149
Vhardware
p1150
V32-bit PowerPC with SPE (instead of AltiVec) with SMP support
p1151
ss(g182
g1128
g151
tp1152
(dp1153
g185
(lp1154
Vpowerpcspe
p1155
asg189
I01
ss(Vbase
p1156
Vppc64
p1157
tp1158
(dp1159
g149
(lp1160
g151
asVkernel-arch
p1161
Vpowerpc
p1162
ss(Vdescription
p1163
g1157
NVpowerpc64
p1164
tp1165
(dp1166
Vhardware
p1167
V64-bit PowerPC
p1168
ss(Vbuild
p1169
g1157
tp1170
(dp1171
Vvdso
p1172
I01
sVimage-file
p1173
Vvmlinux
p1174
ss(Vimage
p1175
g1157
NVpowerpc64
p1176
tp1177
(dp1178
Vconfigs
p1179
(lp1180
Vkernelarch-powerpc/config-arch-64
p1181
aVkernelarch-powerpc/config-arch-64-be
p1182
ass(Vimage
p1183
g1157
tp1184
(dp1185
Vsuggests
p1186
Vmkvmlinuz
p1187
sVinstall-stem
p1188
Vvmlinux
p1189
sVconfigs
p1190
(lp1191
ss(g182
g1157
g151
tp1192
(dp1193
g185
(lp1194
Vpowerpc64
p1195
asg189
I01
ss(Vbase
p1196
Vppc64el
p1197
tp1198
(dp1199
g149
(lp1200
g151
asVkernel-arch
p1201
Vpowerpc
p1202
ss(Vdescription
p1203
g1197
NVpowerpc64le
p1204
tp1205
(dp1206
Vhardware
p1207
VLittle-endian 64-bit PowerPC
p1208
ss(Vbuild
p1209
g1197
tp1210
(dp1211
Vvdso
p1212
I01
sVimage-file
p1213
Vvmlinux
p1214
ss(Vimage
p1215
g1197
tp1216
(dp1217
Vsuggests
p1218
Vmkvmlinuz
p1219
sVinstall-stem
p1220
Vvmlinux
p1221
sVconfigs
p1222
(lp1223
ss(Vimage
p1224
g1197
NVpowerpc64le
p1225
tp1226
(dp1227
Vconfigs
p1228
(lp1229
Vkernelarch-powerpc/config-arch-64
p1230
aVkernelarch-powerpc/config-arch-64-le
p1231
ass(g182
g1197
g151
tp1232
(dp1233
g185
(lp1234
Vpowerpc64le
p1235
asg189
I01
ss(Vbase
p1236
Vs390
p1237
tp1238
(dp1239
Vfeaturesets
p1240
(lp1241
sVkernel-arch
p1242
Vs390
p1243
ss(Vbase
p1244
Vs390x
p1245
tp1246
(dp1247
g149
(lp1248
g151
asVkernel-arch
p1249
Vs390
p1250
ss(Vdescription
p1251
g1245
NVs390x
p1252
tp1253
(dp1254
Vhardware
p1255
VIBM zSeries
p1256
ss(Vbuild
p1257
g1245
tp1258
(dp1259
Vvdso
p1260
I01
sVimage-file
p1261
Varch/s390/boot/image
p1262
ss(Vbuild
p1263
g1245
NVs390x
p1264
tp1265
(dp1266
Vdebug-info
p1267
I01
ss(Vrelations
p1268
g1245
tp1269
(dp1270
Vheaders%gcc-7
p1271
Vlinux-compiler-gcc-7-s390
p1272
ss(Vimage
p1273
g1245
tp1274
(dp1275
Vinstall-stem
p1276
Vvmlinuz
p1277
sVbootloaders
p1278
(lp1279
Vs390-tools
p1280
ass(g182
g1245
g151
tp1281
(dp1282
g185
(lp1283
Vs390x
p1284
asg189
I01
ss(Vbase
p1285
Vsh3
p1286
tp1287
(dp1288
Vfeaturesets
p1289
(lp1290
sVkernel-arch
p1291
Vsh
p1292
ss(Vbase
p1293
Vsh4
p1294
tp1295
(dp1296
g149
(lp1297
g151
asVkernel-arch
p1298
Vsh
p1299
ss(Vbuild
p1300
g1294
tp1301
(dp1302
Vimage-file
p1303
Varch/sh/boot/zImage
p1304
ss(Vdescription
p1305
g1294
NVsh7751r
p1306
tp1307
(dp1308
Vhardware
p1309
Vsh7751r
p1310
sVhardware-long
p1311
VRenesas SH7751R R2D plus board
p1312
ss(Vdescription
p1313
g1294
NVsh7785lcr
p1314
tp1315
(dp1316
Vhardware
p1317
Vsh7785lcr
p1318
sVhardware-long
p1319
VRenesas SH7785 reference board
p1320
ss(Vimage
p1321
g1294
tp1322
(dp1323
Vinstall-stem
p1324
Vvmlinuz
p1325
ss(Vimage
p1326
g1294
NVsh7785lcr
p1327
tp1328
(dp1329
Vrecommends
p1330
Vu-boot-tools
p1331
sVcheck-size
p1332
L4194304L
ss(g182
g1294
g151
tp1333
(dp1334
g185
(lp1335
Vsh7751r
p1336
aVsh7785lcr
p1337
asg189
I01
ss(Vbase
p1338
Vsparc
p1339
tp1340
(dp1341
Vfeaturesets
p1342
(lp1343
sVkernel-arch
p1344
Vsparc
p1345
ss(Vbase
p1346
Vsparc64
p1347
tp1348
(dp1349
g149
(lp1350
g151
asVkernel-arch
p1351
Vsparc
p1352
ss(Vbuild
p1353
g1347
tp1354
(dp1355
Vimage-file
p1356
Varch/sparc/boot/zImage
p1357
ss(Vimage
p1358
g1347
NVsparc64
p1359
tp1360
(dp1361
Vconfigs
p1362
(lp1363
Vkernelarch-sparc/config-up
p1364
ass(Vimage
p1365
g1347
NVsparc64-smp
p1366
tp1367
(dp1368
Vconfigs
p1369
(lp1370
Vkernelarch-sparc/config-smp
p1371
ass(Vimage
p1372
g1347
tp1373
(dp1374
Vsuggests
p1375
Vsilo, fdutils
p1376
sVinstall-stem
p1377
Vvmlinuz
p1378
sVconfigs
p1379
(lp1380
ss(Vdescription
p1381
g1347
NVsparc64-smp
p1382
tp1383
(dp1384
Vhardware
p1385
Vmultiprocessor 64-bit UltraSPARC
p1386
ss(Vdescription
p1387
g1347
NVsparc64
p1388
tp1389
(dp1390
Vhardware
p1391
Vuniprocessor 64-bit UltraSPARC
p1392
ss(g182
g1347
g151
tp1393
(dp1394
g185
(lp1395
Vsparc64
p1396
aVsparc64-smp
p1397
asg189
I01
ss(Vbase
p1398
Vtilegx
p1399
tp1400
(dp1401
Vfeaturesets
p1402
(lp1403
sVkernel-arch
p1404
Vtile
p1405
ss(Vbase
p1406
Vx32
p1407
tp1408
(dp1409
Vfeaturesets
p1410
(lp1411
sVkernel-arch
p1412
Vx86
p1413
ss(Vdescription
p1414
NVrt
p1415
tp1416
(dp1417
Vparts
p1418
(lp1419
Vrt
p1420
asVpart-long-rt
p1421
VThis kernel includes the PREEMPT_RT realtime patch set.
p1422
sVpart-short-rt
p1423
VPREEMPT_RT
p1424
ss(Vabi
p1425
Ng1415
tp1426
(dp1427
Vignore-changes
p1428
(lp1429
V*
p1430
ass(Vversion
p1431
tp1432
(dp1433
Vupstream
p1434
V4.16
p1435
sVsource
p1436
V4.16.16-2+rpi1
p1437
sVabiname
p1438
V4.16.0-2
p1439
sVabiname_base
p1440
V4.16.0
p1441
ss.