cdebian_linux.config
ConfigCore
p0
(tRp1
(Vabi
p2
tp3
(dp4
Vabiname
p5
V2
p6
sVignore-changes
p7
(lp8
V__cpuhp_*
p9
aV__xive_vm_h_*
p10
aVbpf_analyzer
p11
aVcxl_*
p12
aVdax_flush
p13
aVieee80211_nullfunc_get
p14
aVinet_add_protocol
p15
aVinet_del_protocol
p16
aViommu_device_*
p17
aVkvm_async_pf_task_wait
p18
aVkvmppc_*
p19
aVmm_iommu_*
p20
aVmv_mbus_*
p21
aVperf_*
p22
aVregister_cxl_calls
p23
aVregister_key_type
p24
aVunregister_cxl_calls
p25
aV*_hw_breakpoint
p26
aVmodule:arch/x86/kvm/*
p27
aVmodule:drivers/crypto/ccp/*
p28
aVmodule:drivers/hv/*
p29
aVmodule:drivers/gpu/drm/sun4i/*
p30
aVmodule:drivers/iio/**
p31
aVmodule:drivers/misc/cxl/*
p32
aVmodule:drivers/mtd/nand/*
p33
aVmodule:drivers/net/ethernet/**
p34
aVmodule:drivers/net/wireless/**
p35
aVmodule:drivers/nvdimm/*
p36
aVmodule:drivers/power/supply/bq27xxx_battery
p37
aVmodule:drivers/scsi/cxgbi/*
p38
aVmodule:drivers/scsi/libiscs*
p39
aVmodule:drivers/scsi/qla2xxx/qla2xxx
p40
aVmodule:drivers/scsi/ufs/*
p41
aVmodule:drivers/target/**
p42
aVmodule:drivers/usb/chipidea/**
p43
aVmodule:drivers/usb/gadget/**
p44
aVmodule:drivers/usb/host/**
p45
aVmodule:drivers/usb/musb/**
p46
aVmodule:fs/nfs/**
p47
aVmodule:net/ceph/libceph
p48
aVmodule:net/l2tp/**
p49
aVmodule:net/rxrpc/rxrpc
p50
aVmodule:sound/core/seq/**
p51
aVmodule:sound/firewire/snd-firewire-lib
p52
aVmodule:sound/pci/hda/*
p53
aVbtree_*
p54
aVvisitor*
p55
aVcan_rx_register
p56
aVip6_xmit
p57
aVmodule:net/dccp/dccp
p58
aVmodule:net/rds/rds
p59
aVdevfreq_*
p60
aVdevm_devfreq_*
p61
aVupdate_devfreq
p62
aVmodule:drivers/infiniband/**
p63
aVacpi_ec_add_query_handler
p64
aVacpi_ec_remove_query_handler
p65
aVfirst_ec
p66
aVdebugfs_create_automount
p67
aVmodule:drivers/iio/imu/inv_mpu6050/*
p68
aVdrm_crtc_accurate_vblank_count
p69
aVacpi_nfit_desc_init
p70
aVacpi_nfit_init
p71
aVloop_register_transfer
p72
ass(Vbase
p73
tp74
(dp75
Varches
p76
(lp77
Valpha
p78
aVamd64
p79
aVarm64
p80
aVarm64ilp32
p81
aVarmel
p82
aVarmhf
p83
aVhppa
p84
aVi386
p85
aVia64
p86
aVm68k
p87
aVmips
p88
aVmips64
p89
aVmips64el
p90
aVmips64r6
p91
aVmips64r6el
p92
aVmipsel
p93
aVmipsn32
p94
aVmipsn32el
p95
aVmipsn32r6
p96
aVmipsn32r6el
p97
aVmipsr6
p98
aVmipsr6el
p99
aVpowerpc
p100
aVpowerpcspe
p101
aVppc64
p102
aVppc64el
p103
aVriscv64
p104
aVs390
p105
aVs390x
p106
aVsh3
p107
aVsh4
p108
aVsparc
p109
aVsparc64
p110
aVx32
p111
asVcompiler
p112
Vgcc-7
p113
sVfeaturesets
p114
(lp115
Vnone
p116
aVrt
p117
ass(Vbuild
p118
tp119
(dp120
Vdebug-info
p121
I01
sVsigned-code
p122
I00
ss(Vbase
p123
NVrt
p124
tp125
(dp126
Venabled
p127
I01
ss(Vdescription
p128
tp129
(dp130
Vpart-long-up
p131
VThis kernel is not suitable for SMP (multi-processor,\u000amulti-core or hyper-threaded) systems.
p132
ss(Vimage
p133
tp134
(dp135
Vinitramfs-generators
p136
(lp137
Vinitramfs-tools
p138
aVinitramfs-fallback
p139
asVrecommends
p140
Vapparmor
p141
ss(Vrelations
p142
tp143
(dp144
Vgcc-7
p145
Vgcc-7 <!stage1 !cross>, gcc-7-@gnu-type-package@ <!stage1 cross>
p146
sVinitramfs-fallback
p147
Vlinux-initramfs-tool
p148
sVinitramfs-tools
p149
Vinitramfs-tools (>= 0.120+deb8u2)
p150
ss(Vbase
p151
Valpha
p152
tp153
(dp154
Vkernel-arch
p155
Valpha
p156
sVfeaturesets
p157
(lp158
Vnone
p159
ass(Vbuild
p160
g152
tp161
(dp162
Vimage-file
p163
Varch/alpha/boot/vmlinux.gz
p164
ss(Vimage
p165
g152
tp166
(dp167
Vsuggests
p168
Vaboot, fdutils
p169
sVinstall-stem
p170
Vvmlinuz
p171
ss(Vdescription
p172
g152
NValpha-generic
p173
tp174
(dp175
Vhardware
p176
VAlpha
p177
sVhardware-long
p178
VDEC Alpha systems with extended kernel start address (Wildfire, Titan, Marvel)
p179
ss(Vdescription
p180
g152
NValpha-smp
p181
tp182
(dp183
Vhardware
p184
VAlpha SMP
p185
sVhardware-long
p186
VDEC Alpha SMP systems with extended kernel start address (Wildfire, Titan, Marvel)
p187
ss(Vbase
p188
g152
g159
tp189
(dp190
Vflavours
p191
(lp192
Valpha-generic
p193
aValpha-smp
p194
asVimplicit-flavour
p195
I01
ss(Vbase
p196
Vamd64
p197
tp198
(dp199
Vfeaturesets
p200
(lp201
Vnone
p202
aVrt
p203
asVkernel-arch
p204
Vx86
p205
ss(Vbuild
p206
g197
tp207
(dp208
Vdebug-info
p209
I01
sVimage-file
p210
Varch/x86/boot/bzImage
p211
sVvdso
p212
I01
ss(Vimage
p213
g197
tp214
(dp215
Vbootloaders
p216
(lp217
Vgrub-pc
p218
aVgrub-efi-amd64
p219
aVextlinux
p220
asVinstall-stem
p221
Vvmlinuz
p222
sVbreaks
p223
Vxserver-xorg-input-vmmouse (<< 1:13.0.99)
p224
ss(Vrelations
p225
g197
tp226
(dp227
Vgcc-7
p228
Vgcc-7 (>= 7.2.0-20~) <!stage1 !cross>, gcc-7-x86-64-linux-gnu (>= 7.2.0-20~) <!stage1 cross>
p229
sVheaders%gcc-7
p230
Vlinux-compiler-gcc-7-x86 (>= 4.14.17-1~)
p231
ss(Vdescription
p232
g197
NVamd64
p233
tp234
(dp235
Vhardware
p236
V64-bit PCs
p237
sVhardware-long
p238
VPCs with AMD64, Intel 64 or VIA Nano processors
p239
ss(Vdescription
p240
g197
NVcloud-amd64
p241
tp242
(dp243
Vhardware
p244
Vx86-64 cloud
p245
sVhardware-long
p246
VAmazon EC2, Google Compute Engine and Microsoft Azure cloud platforms
p247
ss(Vbase
p248
g197
Vnone
p249
tp250
(dp251
Vflavours
p252
(lp253
Vamd64
p254
aVcloud-amd64
p255
ass(Vbase
p256
g197
Vrt
p257
tp258
(dp259
Vflavours
p260
(lp261
Vamd64
p262
ass(Vbase
p263
Varm64
p264
tp265
(dp266
Vkernel-arch
p267
Varm64
p268
sVfeaturesets
p269
(lp270
Vnone
p271
aVrt
p272
ass(Vbuild
p273
g264
tp274
(dp275
Vdebug-info
p276
I01
sVimage-file
p277
Varch/arm64/boot/Image
p278
sVvdso
p279
I01
ss(Vimage
p280
g264
tp281
(dp282
Vinstall-stem
p283
Vvmlinuz
p284
sVbreaks
p285
Vlibmozjs185-1.0, libmozjs-24-0 (<< 24.2.0-5.1~)
p286
ss(Vdescription
p287
g264
NVarm64
p288
tp289
(dp290
Vhardware
p291
V64-bit ARMv8 machines
p292
ss(Vimage
p293
g264
NVarm64
p294
tp295
(dp296
s(Vbase
p297
g264
Vnone
p298
tp299
(dp300
Vflavours
p301
(lp302
Varm64
p303
ass(Vbase
p304
g264
Vrt
p305
tp306
(dp307
Vflavours
p308
(lp309
Varm64
p310
ass(Vbase
p311
Varm64ilp32
p312
tp313
(dp314
Vkernel-arch
p315
Varm64
p316
sVfeaturesets
p317
(lp318
ss(Vbase
p319
Varmel
p320
tp321
(dp322
Vkernel-arch
p323
Varm
p324
sg157
(lp325
g159
ass(Vbuild
p326
g320
tp327
(dp328
Vimage-file
p329
Varch/arm/boot/zImage
p330
sVuncompressed-image-file
p331
Varch/arm/boot/Image
p332
ss(Vimage
p333
g320
tp334
(dp335
Vinstall-stem
p336
Vvmlinuz
p337
ss(Vrelations
p338
g320
tp339
(dp340
Vheaders%gcc-7
p341
Vlinux-compiler-gcc-7-arm
p342
ss(Vdescription
p343
g320
NVmarvell
p344
tp345
(dp346
Vhardware
p347
VMarvell Kirkwood/Orion
p348
sVhardware-long
p349
VMarvell Kirkwood and Orion based systems (https://wiki.debian.org/ArmEabiPort#Supported_hardware)
p350
ss(Vimage
p351
g320
NVmarvell
p352
tp353
(dp354
Vrecommends
p355
Vu-boot-tools
p356
sVcheck-size
p357
L2097080L
sVcheck-size-with-dtb
p358
I01
sVcheck-uncompressed-size
p359
L7340032L
sVbreaks
p360
Vflash-kernel (<< 3.57~)
p361
ss(g188
g320
g159
tp362
(dp363
g191
(lp364
Vmarvell
p365
asg195
I01
ss(Vbase
p366
Varmhf
p367
tp368
(dp369
Vfeaturesets
p370
(lp371
sVkernel-arch
p372
Varm
p373
ss(Vbase
p374
Vhppa
p375
tp376
(dp377
Vkernel-arch
p378
Vparisc
p379
sg157
(lp380
g159
ass(Vbuild
p381
g375
tp382
(dp383
Vimage-file
p384
Varch/parisc/boot/bzImage
p385
sVdebug-info
p386
I00
ss(Vimage
p387
g375
tp388
(dp389
Vsuggests
p390
Vpalo
p391
sVinstall-stem
p392
Vvmlinuz
p393
ss(Vdescription
p394
g375
NVparisc
p395
tp396
(dp397
Vhardware
p398
V32-bit PA-RISC
p399
sVhardware-long
p400
VHP PA-RISC 32-bit systems with max 4 GB RAM
p401
ss(Vdescription
p402
g375
NVparisc-smp
p403
tp404
(dp405
Vhardware
p406
Vmultiprocessor 32-bit PA-RISC
p407
sVhardware-long
p408
VHP PA-RISC 32-bit SMP systems with max 4 GB RAM
p409
ss(Vbase
p410
g375
NVparisc64-smp
p411
tp412
(dp413
Vcflags
p414
V-fno-cse-follow-jumps
p415
sVoverride-host-type
p416
Vhppa64-linux-gnu
p417
ss(Vdescription
p418
g375
NVparisc64-smp
p419
tp420
(dp421
Vhardware
p422
Vmultiprocessor 64-bit PA-RISC
p423
sVhardware-long
p424
VHP PA-RISC 64-bit SMP systems with support for more than 4 GB RAM
p425
ss(Vrelations
p426
g375
tp427
(dp428
Vgcc-7
p429
Vgcc-7 <!stage1 !cross>, binutils-hppa64-linux-gnu <!stage1 !cross>, gcc-7-hppa64-linux-gnu <!stage1 !cross>, gcc-7-hppa-linux-gnu <!stage1 cross>, binutils-hppa64-linux-gnu <!stage1 cross>, gcc-7-hppa64-linux-gnu <!stage1 cross>
p430
ss(g188
g375
g159
tp431
(dp432
g191
(lp433
Vparisc
p434
aVparisc-smp
p435
aVparisc64-smp
p436
asg195
I01
ss(Vbase
p437
Vi386
p438
tp439
(dp440
Vfeaturesets
p441
(lp442
Vnone
p443
aVrt
p444
asVkernel-arch
p445
Vx86
p446
ss(Vbuild
p447
g438
tp448
(dp449
Vimage-file
p450
Varch/x86/boot/bzImage
p451
sVvdso
p452
I01
ss(Vdescription
p453
g438
tp454
(dp455
Vpart-long-pae
p456
VThis kernel requires PAE (Physical Address Extension).\u000aThis feature is supported by the Intel Pentium Pro/II/III/4/4M/D, Xeon,\u000aCore and Atom; AMD Geode NX, Athlon (K7), Duron, Opteron, Sempron,\u000aTurion or Phenom; Transmeta Efficeon; VIA C7; and some other processors.
p457
ss(Vimage
p458
g438
tp459
(dp460
Vbootloaders
p461
(lp462
Vgrub-pc
p463
aVextlinux
p464
asVinstall-stem
p465
Vvmlinuz
p466
sVbreaks
p467
Vxserver-xorg-input-vmmouse (<< 1:13.0.99)
p468
ss(Vrelations
p469
g438
tp470
(dp471
Vgcc-7
p472
Vgcc-7 (>= 7.2.0-20~) <!stage1 !cross>, gcc-7-i686-linux-gnu (>= 7.2.0-20~) <!stage1 cross>
p473
sVheaders%gcc-7
p474
Vlinux-compiler-gcc-7-x86 (>= 4.14.17-1~)
p475
ss(Vdescription
p476
g438
NV686
p477
tp478
(dp479
Vhardware
p480
Volder PCs
p481
sVhardware-long
p482
VPCs with one or more processors not supporting PAE
p483
ss(Vbuild
p484
g438
NV686-pae
p485
tp486
(dp487
Vdebug-info
p488
I01
ss(Vdescription
p489
g438
NV686-pae
p490
tp491
(dp492
Vhardware
p493
Vmodern PCs
p494
sVhardware-long
p495
VPCs with one or more processors supporting PAE
p496
sVparts
p497
(lp498
Vpae
p499
ass(Vbase
p500
g438
Vnone
p501
tp502
(dp503
Vflavours
p504
(lp505
V686
p506
aV686-pae
p507
ass(Vbase
p508
g438
Vrt
p509
tp510
(dp511
Vflavours
p512
(lp513
V686-pae
p514
ass(Vbase
p515
Via64
p516
tp517
(dp518
Vkernel-arch
p519
Via64
p520
sg157
(lp521
g159
ass(Vbuild
p522
g516
tp523
(dp524
Vimage-file
p525
Vvmlinux.gz
p526
ss(Vimage
p527
g516
tp528
(dp529
Vbootloaders
p530
(lp531
Velilo
p532
asVinstall-stem
p533
Vvmlinuz
p534
ss(Vdescription
p535
g516
NVitanium
p536
tp537
(dp538
Vhardware
p539
VItanium (Merced)
p540
sVhardware-long
p541
Vsystems with original Itanium (Merced) processors
p542
ss(Vdescription
p543
g516
NVmckinley
p544
tp545
(dp546
Vhardware
p547
VItanium 2+
p548
sVhardware-long
p549
Vsystems with Itanium 2 or 9300/9500/9700-series processors
p550
ss(g188
g516
g159
tp551
(dp552
g191
(lp553
Vitanium
p554
aVmckinley
p555
asg195
I01
ss(Vbase
p556
Vm68k
p557
tp558
(dp559
Vcflags
p560
V-ffreestanding
p561
sVkernel-arch
p562
Vm68k
p563
sg157
(lp564
g159
ass(Vbuild
p565
g557
tp566
(dp567
Vimage-file
p568
Vvmlinux
p569
ss(Vimage
p570
g557
tp571
(dp572
Vsuggests
p573
Vvmelilo, fdutils
p574
sVinstall-stem
p575
Vvmlinux
p576
ss(Vdescription
p577
g557
NVm68k
p578
tp579
(dp580
Vhardware
p581
VMotorola MC68020+ family
p582
ss(g188
g557
g159
tp583
(dp584
g191
(lp585
Vm68k
p586
asg195
I01
ss(Vbase
p587
Vmips
p588
tp589
(dp590
Vkernel-arch
p591
Vmips
p592
sg157
(lp593
g159
ass(Vbuild
p594
g588
tp595
(dp596
Vimage-file
p597
Vvmlinux
p598
ss(Vimage
p599
g588
tp600
(dp601
Vinstall-stem
p602
Vvmlinux
p603
ss(Vdescription
p604
g588
NV4kc-malta
p605
tp606
(dp607
Vhardware
p608
VMIPS Malta
p609
sVhardware-long
p610
VMIPS Malta boards
p611
ss(Vimage
p612
g588
NV4kc-malta
p613
tp614
(dp615
Vconfigs
p616
(lp617
Vkernelarch-mips/config.malta
p618
aVkernelarch-mips/config.mips32r2
p619
ass(Vdescription
p620
g588
NV5kc-malta
p621
tp622
(dp623
Vhardware
p624
VMIPS Malta (64-bit)
p625
sVhardware-long
p626
VMIPS Malta boards (64-bit)
p627
ss(Vimage
p628
g588
NV5kc-malta
p629
tp630
(dp631
Vconfigs
p632
(lp633
Vkernelarch-mips/config.malta
p634
aVkernelarch-mips/config.mips64r2
p635
ass(Vdescription
p636
g588
NVocteon
p637
tp638
(dp639
Vhardware
p640
VOcteon
p641
sVhardware-long
p642
VCavium Networks Octeon
p643
ss(Vimage
p644
g588
NVocteon
p645
tp646
(dp647
Vconfigs
p648
(lp649
Vkernelarch-mips/config.octeon
p650
ass(g188
g588
g159
tp651
(dp652
g191
(lp653
V4kc-malta
p654
aV5kc-malta
p655
aVocteon
p656
asg195
I01
ss(Vbase
p657
Vmips64
p658
tp659
(dp660
Vkernel-arch
p661
Vmips
p662
sg157
(lp663
g159
ass(Vbuild
p664
g658
tp665
(dp666
Vimage-file
p667
Vvmlinux
p668
ss(Vimage
p669
g658
tp670
(dp671
Vinstall-stem
p672
Vvmlinux
p673
ss(Vdescription
p674
g658
NV5kc-malta
p675
tp676
(dp677
Vhardware
p678
VMIPS Malta
p679
sVhardware-long
p680
VMIPS Malta boards
p681
ss(Vimage
p682
g658
NV5kc-malta
p683
tp684
(dp685
Vconfigs
p686
(lp687
Vkernelarch-mips/config.malta
p688
aVkernelarch-mips/config.mips64r2
p689
ass(Vdescription
p690
g658
NVocteon
p691
tp692
(dp693
Vhardware
p694
VOcteon
p695
sVhardware-long
p696
VCavium Networks Octeon
p697
ss(Vimage
p698
g658
NVocteon
p699
tp700
(dp701
Vconfigs
p702
(lp703
Vkernelarch-mips/config.octeon
p704
ass(g188
g658
g159
tp705
(dp706
g191
(lp707
V5kc-malta
p708
aVocteon
p709
asg195
I01
ss(Vbase
p710
Vmips64el
p711
tp712
(dp713
Vkernel-arch
p714
Vmips
p715
sg157
(lp716
g159
ass(Vbuild
p717
g711
tp718
(dp719
Vimage-file
p720
Vvmlinux
p721
ss(Vimage
p722
g711
tp723
(dp724
Vinstall-stem
p725
Vvmlinux
p726
ss(Vdescription
p727
g711
NV5kc-malta
p728
tp729
(dp730
Vhardware
p731
VMIPS Malta
p732
sVhardware-long
p733
VMIPS Malta boards
p734
ss(Vimage
p735
g711
NV5kc-malta
p736
tp737
(dp738
Vconfigs
p739
(lp740
Vkernelarch-mips/config.malta
p741
aVkernelarch-mips/config.mips64r2
p742
ass(Vdescription
p743
g711
NVloongson-3
p744
tp745
(dp746
Vhardware
p747
VLoongson 3A/3B
p748
sVhardware-long
p749
VLoongson 3A or 3B based systems (e.g. from Loongson or Lemote)
p750
ss(Vimage
p751
g711
NVloongson-3
p752
tp753
(dp754
Vconfigs
p755
(lp756
Vkernelarch-mips/config.loongson-3
p757
ass(Vdescription
p758
g711
NVocteon
p759
tp760
(dp761
Vhardware
p762
VOcteon
p763
sVhardware-long
p764
VCavium Networks Octeon
p765
ss(Vimage
p766
g711
NVocteon
p767
tp768
(dp769
Vconfigs
p770
(lp771
Vkernelarch-mips/config.octeon
p772
ass(g188
g711
g159
tp773
(dp774
g191
(lp775
V5kc-malta
p776
aVloongson-3
p777
aVocteon
p778
asg195
I01
ss(Vbase
p779
Vmips64r6
p780
tp781
(dp782
Vkernel-arch
p783
Vmips
p784
sg157
(lp785
g159
ass(Vbuild
p786
g780
tp787
(dp788
Vimage-file
p789
Vvmlinux
p790
ss(Vimage
p791
g780
tp792
(dp793
Vinstall-stem
p794
Vvmlinux
p795
ss(Vdescription
p796
g780
NVmips64r6
p797
tp798
(dp799
Vhardware
p800
VMIPS R6 (64 bit, big endian)
p801
sVhardware-long
p802
VMIPS R6 (64 bit, big endian)
p803
ss(Vimage
p804
g780
NVmips64r6
p805
tp806
(dp807
Vconfigs
p808
(lp809
Vkernelarch-mips/config.boston
p810
aVkernelarch-mips/config.mips64r6
p811
ass(g188
g780
g159
tp812
(dp813
g191
(lp814
Vmips64r6
p815
asg195
I01
ss(Vbase
p816
Vmips64r6el
p817
tp818
(dp819
Vkernel-arch
p820
Vmips
p821
sg157
(lp822
g159
ass(Vbuild
p823
g817
tp824
(dp825
Vimage-file
p826
Vvmlinux
p827
ss(Vimage
p828
g817
tp829
(dp830
Vinstall-stem
p831
Vvmlinux
p832
ss(Vdescription
p833
g817
NVmips64r6el
p834
tp835
(dp836
Vhardware
p837
VMIPS R6 (64 bit, little endian)
p838
sVhardware-long
p839
VMIPS R6 (64 bit, little endian)
p840
ss(Vimage
p841
g817
NVmips64r6el
p842
tp843
(dp844
Vconfigs
p845
(lp846
Vkernelarch-mips/config.boston
p847
aVkernelarch-mips/config.mips64r6
p848
ass(g188
g817
g159
tp849
(dp850
g191
(lp851
Vmips64r6el
p852
asg195
I01
ss(Vbase
p853
Vmipsel
p854
tp855
(dp856
Vkernel-arch
p857
Vmips
p858
sg157
(lp859
g159
ass(Vbuild
p860
g854
tp861
(dp862
Vimage-file
p863
Vvmlinux
p864
ss(Vimage
p865
g854
tp866
(dp867
Vinstall-stem
p868
Vvmlinux
p869
ss(Vdescription
p870
g854
NV4kc-malta
p871
tp872
(dp873
Vhardware
p874
VMIPS Malta
p875
sVhardware-long
p876
VMIPS Malta boards
p877
ss(Vimage
p878
g854
NV4kc-malta
p879
tp880
(dp881
Vconfigs
p882
(lp883
Vkernelarch-mips/config.malta
p884
aVkernelarch-mips/config.mips32r2
p885
ass(Vdescription
p886
g854
NV5kc-malta
p887
tp888
(dp889
Vhardware
p890
VMIPS Malta (64-bit)
p891
sVhardware-long
p892
VMIPS Malta boards (64-bit)
p893
ss(Vimage
p894
g854
NV5kc-malta
p895
tp896
(dp897
Vconfigs
p898
(lp899
Vkernelarch-mips/config.malta
p900
aVkernelarch-mips/config.mips64r2
p901
ass(Vdescription
p902
g854
NVloongson-3
p903
tp904
(dp905
Vhardware
p906
VLoongson 3A/3B
p907
sVhardware-long
p908
VLoongson 3A or 3B based systems (e.g. from Loongson or Lemote)
p909
ss(Vimage
p910
g854
NVloongson-3
p911
tp912
(dp913
Vconfigs
p914
(lp915
Vkernelarch-mips/config.loongson-3
p916
ass(Vdescription
p917
g854
NVocteon
p918
tp919
(dp920
Vhardware
p921
VOcteon
p922
sVhardware-long
p923
VCavium Networks Octeon
p924
ss(Vimage
p925
g854
NVocteon
p926
tp927
(dp928
Vconfigs
p929
(lp930
Vkernelarch-mips/config.octeon
p931
ass(g188
g854
g159
tp932
(dp933
g191
(lp934
V4kc-malta
p935
aV5kc-malta
p936
aVloongson-3
p937
aVocteon
p938
asg195
I01
ss(Vbase
p939
Vmipsn32
p940
tp941
(dp942
Vkernel-arch
p943
Vmips
p944
sVfeaturesets
p945
(lp946
ss(Vbase
p947
Vmipsn32el
p948
tp949
(dp950
Vkernel-arch
p951
Vmips
p952
sVfeaturesets
p953
(lp954
ss(Vbase
p955
Vmipsn32r6
p956
tp957
(dp958
Vkernel-arch
p959
Vmips
p960
sVfeaturesets
p961
(lp962
ss(Vbase
p963
Vmipsn32r6el
p964
tp965
(dp966
Vkernel-arch
p967
Vmips
p968
sVfeaturesets
p969
(lp970
ss(Vbase
p971
Vmipsr6
p972
tp973
(dp974
Vkernel-arch
p975
Vmips
p976
sg157
(lp977
g159
ass(Vbuild
p978
g972
tp979
(dp980
Vimage-file
p981
Vvmlinux
p982
ss(Vimage
p983
g972
tp984
(dp985
Vinstall-stem
p986
Vvmlinux
p987
ss(Vdescription
p988
g972
NVmips32r6
p989
tp990
(dp991
Vhardware
p992
VMIPS R6 (32 bit, big endian)
p993
sVhardware-long
p994
VMIPS R6 (32 bit, big endian)
p995
ss(Vimage
p996
g972
NVmips32r6
p997
tp998
(dp999
Vconfigs
p1000
(lp1001
Vkernelarch-mips/config.boston
p1002
aVkernelarch-mips/config.mips32r6
p1003
ass(Vdescription
p1004
g972
NVmips64r6
p1005
tp1006
(dp1007
Vhardware
p1008
VMIPS R6 (64 bit, big endian)
p1009
sVhardware-long
p1010
VMIPS R6 (64 bit, big endian)
p1011
ss(Vimage
p1012
g972
NVmips64r6
p1013
tp1014
(dp1015
Vconfigs
p1016
(lp1017
Vkernelarch-mips/config.boston
p1018
aVkernelarch-mips/config.mips64r6
p1019
ass(g188
g972
g159
tp1020
(dp1021
g191
(lp1022
Vmips32r6
p1023
aVmips64r6
p1024
asg195
I01
ss(Vbase
p1025
Vmipsr6el
p1026
tp1027
(dp1028
Vkernel-arch
p1029
Vmips
p1030
sg157
(lp1031
g159
ass(Vbuild
p1032
g1026
tp1033
(dp1034
Vimage-file
p1035
Vvmlinux
p1036
ss(Vimage
p1037
g1026
tp1038
(dp1039
Vinstall-stem
p1040
Vvmlinux
p1041
ss(Vdescription
p1042
g1026
NVmips32r6el
p1043
tp1044
(dp1045
Vhardware
p1046
VMIPS R6 (32 bit, little endian)
p1047
sVhardware-long
p1048
VMIPS R6 (32 bit, little endian)
p1049
ss(Vimage
p1050
g1026
NVmips32r6el
p1051
tp1052
(dp1053
Vconfigs
p1054
(lp1055
Vkernelarch-mips/config.boston
p1056
aVkernelarch-mips/config.mips32r6
p1057
ass(Vdescription
p1058
g1026
NVmips64r6el
p1059
tp1060
(dp1061
Vhardware
p1062
VMIPS R6 (64 bit, little endian)
p1063
sVhardware-long
p1064
VMIPS R6 (64 bit, little endian)
p1065
ss(Vimage
p1066
g1026
NVmips64r6el
p1067
tp1068
(dp1069
Vconfigs
p1070
(lp1071
Vkernelarch-mips/config.boston
p1072
aVkernelarch-mips/config.mips64r6
p1073
ass(g188
g1026
g159
tp1074
(dp1075
g191
(lp1076
Vmips32r6el
p1077
aVmips64r6el
p1078
asg195
I01
ss(Vbase
p1079
Vpowerpc
p1080
tp1081
(dp1082
Vkernel-arch
p1083
Vpowerpc
p1084
sg157
(lp1085
g159
ass(Vbuild
p1086
g1080
tp1087
(dp1088
Vimage-file
p1089
Vvmlinux
p1090
sVvdso
p1091
I01
ss(Vimage
p1092
g1080
tp1093
(dp1094
Vconfigs
p1095
(lp1096
sVsuggests
p1097
Vmkvmlinuz
p1098
sVinstall-stem
p1099
Vvmlinux
p1100
ss(Vdescription
p1101
g1080
NVpowerpc
p1102
tp1103
(dp1104
Vhardware
p1105
Vuniprocessor 32-bit PowerPC
p1106
ss(Vdescription
p1107
g1080
NVpowerpc-smp
p1108
tp1109
(dp1110
Vhardware
p1111
Vmultiprocessor 32-bit PowerPC
p1112
ss(Vimage
p1113
g1080
NVpowerpc-smp
p1114
tp1115
(dp1116
Vconfigs
p1117
(lp1118
Vpowerpc/config.powerpc
p1119
aVpowerpc/config.powerpc-smp
p1120
ass(Vdescription
p1121
g1080
NVpowerpc64
p1122
tp1123
(dp1124
Vhardware
p1125
V64-bit PowerPC
p1126
ss(Vimage
p1127
g1080
NVpowerpc64
p1128
tp1129
(dp1130
Vconfigs
p1131
(lp1132
Vkernelarch-powerpc/config-arch-64
p1133
aVkernelarch-powerpc/config-arch-64-be
p1134
ass(g188
g1080
g159
tp1135
(dp1136
g191
(lp1137
Vpowerpc
p1138
aVpowerpc-smp
p1139
aVpowerpc64
p1140
asg195
I01
ss(Vbase
p1141
Vpowerpcspe
p1142
tp1143
(dp1144
Vkernel-arch
p1145
Vpowerpc
p1146
sg157
(lp1147
g159
ass(Vbuild
p1148
g1142
tp1149
(dp1150
Vimage-file
p1151
Vvmlinux
p1152
sVvdso
p1153
I01
ss(Vimage
p1154
g1142
tp1155
(dp1156
Vsuggests
p1157
Vmkvmlinuz
p1158
sVinstall-stem
p1159
Vvmlinux
p1160
ss(Vdescription
p1161
g1142
tp1162
(dp1163
Vhardware
p1164
V32-bit PowerPC with SPE (instead of AltiVec) with SMP support
p1165
ss(g188
g1142
g159
tp1166
(dp1167
g191
(lp1168
Vpowerpcspe
p1169
asg195
I01
ss(Vbase
p1170
Vppc64
p1171
tp1172
(dp1173
Vkernel-arch
p1174
Vpowerpc
p1175
sg157
(lp1176
g159
ass(Vbuild
p1177
g1171
tp1178
(dp1179
Vimage-file
p1180
Vvmlinux
p1181
sVvdso
p1182
I01
ss(Vimage
p1183
g1171
tp1184
(dp1185
Vconfigs
p1186
(lp1187
sVsuggests
p1188
Vmkvmlinuz
p1189
sVinstall-stem
p1190
Vvmlinux
p1191
ss(Vdescription
p1192
g1171
NVpowerpc64
p1193
tp1194
(dp1195
Vhardware
p1196
V64-bit PowerPC
p1197
ss(Vimage
p1198
g1171
NVpowerpc64
p1199
tp1200
(dp1201
Vconfigs
p1202
(lp1203
Vkernelarch-powerpc/config-arch-64
p1204
aVkernelarch-powerpc/config-arch-64-be
p1205
ass(g188
g1171
g159
tp1206
(dp1207
g191
(lp1208
Vpowerpc64
p1209
asg195
I01
ss(Vbase
p1210
Vppc64el
p1211
tp1212
(dp1213
Vkernel-arch
p1214
Vpowerpc
p1215
sg157
(lp1216
g159
ass(Vbuild
p1217
g1211
tp1218
(dp1219
Vimage-file
p1220
Vvmlinux
p1221
sVvdso
p1222
I01
ss(Vimage
p1223
g1211
tp1224
(dp1225
Vconfigs
p1226
(lp1227
sVsuggests
p1228
Vmkvmlinuz
p1229
sVinstall-stem
p1230
Vvmlinux
p1231
ss(Vdescription
p1232
g1211
NVpowerpc64le
p1233
tp1234
(dp1235
Vhardware
p1236
VLittle-endian 64-bit PowerPC
p1237
ss(Vimage
p1238
g1211
NVpowerpc64le
p1239
tp1240
(dp1241
Vconfigs
p1242
(lp1243
Vkernelarch-powerpc/config-arch-64
p1244
aVkernelarch-powerpc/config-arch-64-le
p1245
ass(g188
g1211
g159
tp1246
(dp1247
g191
(lp1248
Vpowerpc64le
p1249
asg195
I01
ss(Vbase
p1250
Vriscv64
p1251
tp1252
(dp1253
Vkernel-arch
p1254
Vriscv
p1255
sVfeaturesets
p1256
(lp1257
ss(Vbase
p1258
Vs390
p1259
tp1260
(dp1261
Vkernel-arch
p1262
Vs390
p1263
sVfeaturesets
p1264
(lp1265
ss(Vbase
p1266
Vs390x
p1267
tp1268
(dp1269
Vkernel-arch
p1270
Vs390
p1271
sg157
(lp1272
g159
ass(Vbuild
p1273
g1267
tp1274
(dp1275
Vimage-file
p1276
Varch/s390/boot/image
p1277
sVvdso
p1278
I01
ss(Vimage
p1279
g1267
tp1280
(dp1281
Vbootloaders
p1282
(lp1283
Vs390-tools
p1284
asVinstall-stem
p1285
Vvmlinuz
p1286
ss(Vrelations
p1287
g1267
tp1288
(dp1289
Vheaders%gcc-7
p1290
Vlinux-compiler-gcc-7-s390
p1291
ss(Vbuild
p1292
g1267
NVs390x
p1293
tp1294
(dp1295
Vdebug-info
p1296
I01
ss(Vdescription
p1297
g1267
NVs390x
p1298
tp1299
(dp1300
Vhardware
p1301
VIBM zSeries
p1302
ss(g188
g1267
g159
tp1303
(dp1304
g191
(lp1305
Vs390x
p1306
asg195
I01
ss(Vbase
p1307
Vsh3
p1308
tp1309
(dp1310
Vkernel-arch
p1311
Vsh
p1312
sVfeaturesets
p1313
(lp1314
ss(Vbase
p1315
Vsh4
p1316
tp1317
(dp1318
Vkernel-arch
p1319
Vsh
p1320
sg157
(lp1321
g159
ass(Vbuild
p1322
g1316
tp1323
(dp1324
Vimage-file
p1325
Varch/sh/boot/zImage
p1326
ss(Vimage
p1327
g1316
tp1328
(dp1329
Vinstall-stem
p1330
Vvmlinuz
p1331
ss(Vdescription
p1332
g1316
NVsh7751r
p1333
tp1334
(dp1335
Vhardware
p1336
Vsh7751r
p1337
sVhardware-long
p1338
VRenesas SH7751R R2D plus board
p1339
ss(Vdescription
p1340
g1316
NVsh7785lcr
p1341
tp1342
(dp1343
Vhardware
p1344
Vsh7785lcr
p1345
sVhardware-long
p1346
VRenesas SH7785 reference board
p1347
ss(Vimage
p1348
g1316
NVsh7785lcr
p1349
tp1350
(dp1351
Vrecommends
p1352
Vu-boot-tools
p1353
sVcheck-size
p1354
L4194304L
ss(g188
g1316
g159
tp1355
(dp1356
g191
(lp1357
Vsh7751r
p1358
aVsh7785lcr
p1359
asg195
I01
ss(Vbase
p1360
Vsparc
p1361
tp1362
(dp1363
Vkernel-arch
p1364
Vsparc
p1365
sVfeaturesets
p1366
(lp1367
ss(Vbase
p1368
Vsparc64
p1369
tp1370
(dp1371
Vkernel-arch
p1372
Vsparc
p1373
sg157
(lp1374
g159
ass(Vbuild
p1375
g1369
tp1376
(dp1377
Vimage-file
p1378
Varch/sparc/boot/zImage
p1379
ss(Vimage
p1380
g1369
tp1381
(dp1382
Vconfigs
p1383
(lp1384
sVsuggests
p1385
Vsilo, fdutils
p1386
sVinstall-stem
p1387
Vvmlinuz
p1388
ss(Vdescription
p1389
g1369
NVsparc64
p1390
tp1391
(dp1392
Vhardware
p1393
Vuniprocessor 64-bit UltraSPARC
p1394
ss(Vimage
p1395
g1369
NVsparc64
p1396
tp1397
(dp1398
Vconfigs
p1399
(lp1400
Vkernelarch-sparc/config-up
p1401
ass(Vdescription
p1402
g1369
NVsparc64-smp
p1403
tp1404
(dp1405
Vhardware
p1406
Vmultiprocessor 64-bit UltraSPARC
p1407
ss(Vimage
p1408
g1369
NVsparc64-smp
p1409
tp1410
(dp1411
Vconfigs
p1412
(lp1413
Vkernelarch-sparc/config-smp
p1414
ass(g188
g1369
g159
tp1415
(dp1416
g191
(lp1417
Vsparc64
p1418
aVsparc64-smp
p1419
asg195
I01
ss(Vbase
p1420
Vx32
p1421
tp1422
(dp1423
Vkernel-arch
p1424
Vx86
p1425
sVfeaturesets
p1426
(lp1427
ss(Vabi
p1428
NVrt
p1429
tp1430
(dp1431
Vignore-changes
p1432
(lp1433
V*
p1434
ass(Vdescription
p1435
Ng1429
tp1436
(dp1437
Vpart-long-rt
p1438
VThis kernel includes the PREEMPT_RT realtime patch set.
p1439
sVpart-short-rt
p1440
VPREEMPT_RT
p1441
sVparts
p1442
(lp1443
Vrt
p1444
ass(Vversion
p1445
tp1446
(dp1447
Vsource
p1448
V4.18.10-2+rpi1
p1449
sVupstream
p1450
V4.18
p1451
sVabiname_base
p1452
V4.18.0
p1453
sVabiname
p1454
V4.18.0-2
p1455
ss.