ccopy_reg
_reconstructor
p1
(cdebian_linux.config
ConfigCore
p2
c__builtin__
dict
p3
(dp4
(S'image'
S's390'
p5
NS's390-tape'
tp6
(dp7
S'override-localversion'
p8
S's390'
p9
sS'type'
p10
S'plain-s390-tape'
p11
sS'initramfs'
p12
I00
ss(S'image'
S'amd64'
p13
tp14
(dp15
S'configs'
p16
(lp17
S'kernelarch-x86/config'
p18
asS'bootloaders'
p19
(lp20
S'grub-pc'
p21
aS'extlinux'
p22
aS'lilo'
p23
ass(S'base'
g13
S'none'
p24
tp25
(dp26
S'flavours'
p27
(lp28
S'amd64'
p29
ass(S'description'
S's390x'
p30
NS's390x-tape'
tp31
(dp32
S'hardware'
p33
S'IBM zSeries'
p34
sS'parts'
p35
(lp36
S'tape'
p37
ass(S'image'
S'ia64'
p38
tp39
(dp40
S'suggests'
p41
S'fdutils'
p42
sS'bootloaders'
p43
(lp44
S'elilo'
p45
ass(S'image'
S'sparc64'
p46
NS'sparc64'
tp47
(dp48
S'configs'
p49
(lp50
S'sparc/config.sparc64'
p51
ass(S'xen'
S'i386'
p52
S'none'
p53
S'amd64'
tp54
(dp55
S'flavours'
p56
(lp57
S'amd64'
p58
asS'dom0-support'
p59
I01
ss(S'version'
p60
tp61
(dp62
S'abiname'
p63
S'3.2.0-4'
p64
sS'source'
p65
V3.2.86-1
p66
ss(S'build'
S'armel'
p67
NS'mv78xx0'
tp68
(dp69
S'image-file'
p70
S'arch/arm/boot/zImage'
p71
ss(S'description'
g13
g24
S'amd64'
tp72
(dp73
S'parts'
p74
(lp75
S'xen'
p76
ass(S'description'
S'mipsel'
p77
NS'loongson-2f'
tp78
(dp79
S'hardware'
p80
S'Loongson 2F'
p81
sS'hardware-long'
p82
S'Lemote Loongson 2F systems'
p83
ss(S'base'
p84
S'ppc64'
p85
S'none'
p86
tp87
(dp88
S'implicit-flavour'
p89
I01
sS'flavours'
p90
(lp91
S'powerpc64'
p92
ass(S'build'
g5
NS's390x'
tp93
(dp94
S'debug-info'
p95
I01
ss(S'description'
S'mips'
p96
NS'octeon'
tp97
(dp98
S'hardware'
p99
S'Octeon'
p100
sS'hardware-long'
p101
S'Cavium Networks Octeon'
p102
ss(S'base'
S'alpha'
p103
tp104
(dp105
S'kernel-arch'
p106
S'alpha'
p107
sS'featuresets'
p108
(lp109
g86
ass(S'description'
S'hppa'
p110
NS'parisc64'
tp111
(dp112
S'hardware'
p113
S'64-bit PA-RISC'
p114
ss(g84
S'armhf'
p115
g86
tp116
(dp117
g89
I01
sg90
(lp118
S'mx5'
p119
aS'omap'
p120
aS'vexpress'
p121
ass(S'abi'
NS'rt'
p122
tp123
(dp124
S'ignore-changes'
p125
(lp126
S'*'
ass(S'image'
g67
NS'iop32x'
tp127
(dp128
S'check-size'
p129
S'1441784'
p130
ss(S'description'
g30
NS's390x'
tp131
(dp132
S'hardware'
p133
S'IBM zSeries'
p134
sS'parts'
p135
(lp136
S'reader'
p137
ass(S'description'
S'sparc'
p138
NS'sparc32'
tp139
(dp140
S'hardware'
p141
S'uniprocessor sparc32 (sun4m)'
p142
ss(S'image'
g77
NS'5kc-malta'
tp143
(dp144
S'configs'
p145
(lp146
S'mips/config.5kc-malta'
p147
ass(S'image'
g67
NS'ixp4xx'
tp148
(dp149
S'check-size'
p150
S'1441760'
p151
ss(S'image'
g52
NS'686-pae'
tp152
(dp153
S'configs'
p154
(lp155
S'kernelarch-x86/config-arch-32'
p156
asS'recommends'
p157
S'libc6-i686'
p158
ss(S'description'
S'm68k'
p159
NS'mvme147'
tp160
(dp161
S'hardware'
p162
S'Motorola MVME147'
p163
ss(S'image'
S'powerpc'
p164
tp165
(dp166
S'suggests'
p167
S'mkvmlinuz'
p168
ss(S'base'
g13
S'rt'
tp169
(dp170
S'flavours'
p171
(lp172
S'amd64'
p173
ass(S'description'
g67
NS'kirkwood'
tp174
(dp175
S'hardware'
p176
S'Marvell Kirkwood'
p177
sS'hardware-long'
p178
S'Marvell Kirkwood based systems (SheevaPlug, QNAP TS-119/TS-219, etc)'
p179
ss(S'description'
g52
g53
S'amd64'
tp180
(dp181
S'parts'
p182
(lp183
S'xen'
p184
ass(S'description'
g103
NS'alpha-generic'
tp185
(dp186
S'hardware'
p187
S'Alpha'
p188
sS'hardware-long'
p189
S'DEC Alpha systems with extended kernel start address (Wildfire, Titan, Marvel)'
p190
ss(S'description'
g52
NS'amd64'
tp191
(dp192
S'hardware'
p193
S'64-bit PCs'
p194
sS'hardware-long'
p195
S'PCs with AMD64, Intel 64 or VIA Nano processors'
p196
ss(S'base'
g52
tp197
(dp198
S'kernel-arch'
p199
S'x86'
p200
sS'featuresets'
p201
(lp202
S'none'
p203
aS'rt'
p204
ass(S'base'
g77
tp205
(dp206
S'kernel-arch'
p207
S'mips'
p208
sg108
(lp209
g86
ass(S'image'
g67
NS'orion5x'
tp210
(dp211
S'check-size'
p212
S'1572792'
p213
sS'recommends'
p214
S'uboot-mkimage'
p215
ss(S'description'
g67
NS'iop32x'
tp216
(dp217
S'hardware'
p218
S'IOP32x'
p219
sS'hardware-long'
p220
S'IOP32x based systems (Thecus N2100, etc)'
p221
ss(g84
g77
g86
tp222
(dp223
g89
I01
sg90
(lp224
S'r5k-cobalt'
p225
aS'sb1-bcm91250a'
p226
aS'sb1a-bcm91480b'
p227
aS'4kc-malta'
p228
aS'5kc-malta'
p229
aS'loongson-2f'
p230
ass(S'abi'
g138
tp231
(dp232
S'ignore-changes'
p233
(lp234
S'__down_read'
p235
aS'__down_read_trylock'
p236
aS'__down_write'
p237
aS'__down_write_trylock'
p238
aS'__downgrade_write'
p239
aS'__up_read'
p240
aS'__up_write'
p241
ass(S'relations'
tp242
(dp243
S'initramfs-fallback'
p244
S'linux-initramfs-tool'
p245
sS'gcc-4.5'
p246
S'gcc-4.5'
p247
sS'gcc-4.6'
p248
S'gcc-4.6'
p249
sS'initramfs-tools'
p250
S'initramfs-tools (>= 0.99~)'
p251
sS'gcc-4.4'
p252
S'gcc-4.4'
p253
ss(S'build'
g115
NS'mx5'
tp254
(dp255
S'image-file'
p256
S'arch/arm/boot/zImage'
p257
ss(g84
S'sh4'
p258
g86
tp259
(dp260
g89
I01
sg90
(lp261
S'sh7751r'
p262
aS'sh7785lcr'
p263
ass(S'image'
g164
NS'powerpc-smp'
tp264
(dp265
S'configs'
p266
(lp267
S'powerpc/config.powerpc'
p268
aS'powerpc/config.powerpc-smp'
p269
ass(S'build'
g258
NS'sh7751r'
tp270
(dp271
S'image-file'
p272
S'arch/sh/boot/zImage'
p273
ss(S'description'
g67
NS'mv78xx0'
tp274
(dp275
S'hardware'
p276
S'Marvell 78xx0'
p277
sS'hardware-long'
p278
S'Marvell DB-78xx0-BP Development Board'
p279
ss(S'description'
g52
NS'486'
tp280
(dp281
S'hardware'
p282
S'older PCs'
p283
sS'parts'
p284
(lp285
S'up'
p286
asS'hardware-long'
p287
S'PCs with a single processor not supporting PAE'
p288
ss(S'description'
g159
NS'atari'
tp289
(dp290
S'hardware'
p291
S'Atari'
p292
ss(S'image'
g103
tp293
(dp294
S'suggests'
p295
S'aboot, fdutils'
p296
ss(S'base'
g67
tp297
(dp298
S'kernel-arch'
p299
S'arm'
p300
sg108
(lp301
g86
ass(S'description'
g103
NS'alpha-legacy'
tp302
(dp303
S'hardware'
p304
S'Alpha Legacy'
p305
sS'hardware-long'
p306
S'DEC Alpha systems with legacy kernel start address'
p307
ss(S'description'
g38
NS'itanium'
tp308
(dp309
S'hardware'
p310
S'Itanium'
p311
ss(S'image'
g67
NS'kirkwood'
tp312
(dp313
S'check-size'
p314
S'2097080'
p315
sS'recommends'
p316
S'uboot-mkimage'
p317
ss(S'base'
g138
tp318
(dp319
S'kernel-arch'
p320
S'sparc'
p321
sg108
(lp322
g86
ass(S'description'
g138
NS'sparc64'
tp323
(dp324
S'hardware'
p325
S'uniprocessor 64-bit UltraSPARC'
p326
ss(S'build'
g67
NS'ixp4xx'
tp327
(dp328
S'image-file'
p329
S'arch/arm/boot/zImage'
p330
ss(g84
g5
g86
tp331
(dp332
g89
I01
sg90
(lp333
S's390x'
p334
aS's390x-tape'
p335
ass(g84
g30
g86
tp336
(dp337
g89
I01
sg90
(lp338
S's390x'
p339
aS's390x-tape'
p340
ass(S'base'
g96
tp341
(dp342
S'kernel-arch'
p343
S'mips'
p344
sg108
(lp345
g86
ass(S'build'
g13
tp346
(dp347
S'debug-info'
p348
I01
ss(S'description'
g5
NS's390-tape'
tp349
(dp350
S'hardware'
p351
S'IBM S/390'
p352
sS'parts'
p353
(lp354
S'tape'
p355
ass(S'image'
g258
NS'sh7785lcr'
tp356
(dp357
S'check-size'
p358
S'4194304'
p359
sS'recommends'
p360
S'uboot-mkimage'
p361
ss(S'image'
g77
tp362
(dp363
S'configs'
p364
(lp365
S'kernelarch-mips/config'
p366
aS'mipsel/config'
p367
asS'initramfs'
p368
I00
ss(S'description'
g52
NS'686-pae'
tp369
(dp370
S'hardware'
p371
S'modern PCs'
p372
sS'parts'
p373
(lp374
S'pae'
p375
asS'hardware-long'
p376
S'PCs with one or more processors supporting PAE'
p377
ss(S'build'
g67
NS'orion5x'
tp378
(dp379
S'image-file'
p380
S'arch/arm/boot/zImage'
p381
ss(S'xen'
g52
g53
S'686-pae'
tp382
(dp383
S'flavours'
p384
(lp385
S'i386'
p386
aS'amd64'
p387
asS'dom0-support'
p388
I01
ss(S'build'
g67
NS'kirkwood'
tp389
(dp390
S'image-file'
p391
S'arch/arm/boot/zImage'
p392
ss(S'image'
g85
NS'powerpc64'
tp393
(dp394
S'configs'
p395
(lp396
S'powerpc/config.powerpc64'
p397
ass(S'base'
g13
tp398
(dp399
S'kernel-arch'
p400
S'x86'
p401
sS'featuresets'
p402
(lp403
S'none'
p404
aS'rt'
p405
ass(S'base'
g38
tp406
(dp407
S'kernel-arch'
p408
S'ia64'
p409
sg108
(lp410
g86
ass(S'image'
g46
NS'sparc64-smp'
tp411
(dp412
S'configs'
p413
(lp414
S'sparc/config.sparc64-smp'
p415
ass(S'description'
g96
NS'sb1-bcm91250a'
tp416
(dp417
S'hardware'
p418
S'BCM91250A'
p419
sS'hardware-long'
p420
S'Broadcom BCM91250A systems (aka SWARM)'
p421
ss(S'description'
g110
NS'parisc64-smp'
tp422
(dp423
S'hardware'
p424
S'multiprocessor 64-bit PA-RISC'
p425
ss(S'base'
g5
tp426
(dp427
S'kernel-arch'
p428
S's390'
p429
sg108
(lp430
g86
ass(g84
g67
g86
tp431
(dp432
g89
I01
sg90
(lp433
S'iop32x'
p434
aS'ixp4xx'
p435
aS'kirkwood'
p436
aS'mv78xx0'
p437
aS'orion5x'
p438
aS'versatile'
p439
ass(S'description'
g5
NS's390x'
tp440
(dp441
S'hardware'
p442
S'IBM zSeries'
p443
sS'parts'
p444
(lp445
S'reader'
p446
ass(S'base'
g110
NS'parisc64'
tp447
(dp448
S'override-host-type'
p449
S'hppa64-linux-gnu'
p450
sS'cflags'
p451
S'-fno-cse-follow-jumps'
p452
ss(S'abi'
g46
tp453
(dp454
S'ignore-changes'
p455
(lp456
S'__down_read'
p457
aS'__down_read_trylock'
p458
aS'__down_write'
p459
aS'__down_write_trylock'
p460
aS'__downgrade_write'
p461
aS'__up_read'
p462
aS'__up_write'
p463
ass(S'description'
g52
tp464
(dp465
S'part-long-pae'
p466
S'This kernel requires PAE (Physical Address Extension).\nThis feature is supported by the Intel Pentium Pro/II/III/4/4M/D, Xeon,\nCore and Atom; AMD Geode NX, Athlon (K7), Duron, Opteron, Sempron,\nTurion or Phenom; Transmeta Efficeon; VIA C7; and some other processors.'
p467
ss(S'image'
g115
tp468
(dp469
S'suggests'
p470
S'fdutils'
p471
sS'configs'
p472
(lp473
S'armel/config'
p474
aS'armhf/config'
p475
ass(S'xen'
g13
g24
S'amd64'
tp476
(dp477
S'flavours'
p478
(lp479
S'amd64'
p480
asS'dom0-support'
p481
I01
ss(S'image'
g67
tp482
(dp483
S'suggests'
p484
S'fdutils'
p485
ss(S'image'
g5
tp486
(dp487
S'bootloaders'
p488
(lp489
S's390-tools'
p490
ass(S'abi'
g30
tp491
(dp492
S'ignore-changes'
p493
(lp494
S'arch_pick_mmap_layout'
p495
aS'lowcore_ptr'
p496
ass(S'description'
g110
NS'parisc'
tp497
(dp498
S'hardware'
p499
S'32-bit PA-RISC'
p500
ss(S'description'
g159
NS'amiga'
tp501
(dp502
S'hardware'
p503
S'Amiga'
p504
ss(S'description'
g159
NS'mvme16x'
tp505
(dp506
S'hardware'
p507
S'Motorola MVME162/6/7, MVME172/7'
p508
ss(S'abi'
g96
tp509
(dp510
S'ignore-changes'
p511
(lp512
S'vgacon_*'
p513
ass(S'relations'
g110
tp514
(dp515
S'gcc-4.4'
p516
S'gcc-4.4, binutils-hppa64, gcc-4.4-hppa64'
p517
ss(S'description'
g85
NS'powerpc64'
tp518
(dp519
S'hardware'
p520
S'64-bit PowerPC'
p521
ss(S'abi'
g5
tp522
(dp523
S'ignore-changes'
p524
(lp525
S'arch_pick_mmap_layout'
p526
aS'lowcore_ptr'
p527
ass(S'build'
g67
NS'iop32x'
tp528
(dp529
S'image-file'
p530
S'arch/arm/boot/zImage'
p531
ss(g84
g110
g86
tp532
(dp533
g89
I01
sg90
(lp534
S'parisc'
p535
aS'parisc-smp'
p536
aS'parisc64'
p537
aS'parisc64-smp'
p538
ass(S'description'
g46
NS'sparc64'
tp539
(dp540
S'hardware'
p541
S'uniprocessor 64-bit UltraSPARC'
p542
ss(S'description'
g96
NS'5kc-malta'
tp543
(dp544
S'hardware'
p545
S'MIPS Malta (64-bit)'
p546
sS'hardware-long'
p547
S'MIPS Malta boards (64-bit)'
p548
ss(S'build'
g258
NS'sh7785lcr'
tp549
(dp550
S'image-file'
p551
S'arch/sh/boot/zImage'
p552
ss(S'base'
g46
tp553
(dp554
S'kernel-arch'
p555
S'sparc'
p556
sg108
(lp557
g86
ass(S'build'
g30
NS's390x-tape'
tp558
(dp559
S'modules'
p560
I00
ss(S'description'
g5
NS's390x-tape'
tp561
(dp562
S'hardware'
p563
S'IBM zSeries'
p564
sS'parts'
p565
(lp566
S'tape'
p567
ass(S'image'
g52
NS'amd64'
tp568
(dp569
S'configs'
p570
(lp571
S'kernelarch-x86/config-arch-64'
p572
asS'recommends'
p573
S'libc6-i686'
p574
ss(S'base'
g30
tp575
(dp576
S'kernel-arch'
p577
S's390'
p578
sg108
(lp579
g86
ass(S'image'
g96
tp580
(dp581
S'configs'
p582
(lp583
S'kernelarch-mips/config'
p584
aS'mips/config'
p585
asS'initramfs'
p586
I00
ss(S'description'
g77
NS'5kc-malta'
tp587
(dp588
S'hardware'
p589
S'MIPS Malta (64-bit)'
p590
sS'hardware-long'
p591
S'MIPS Malta boards (64-bit)'
p592
ss(S'image'
g77
NS'sb1a-bcm91480b'
tp593
(dp594
S'configs'
p595
(lp596
S'mips/config.sb1a-bcm91480b'
p597
ass(S'description'
g258
NS'sh7785lcr'
tp598
(dp599
S'hardware'
p600
S'sh7785lcr'
p601
sS'hardware-long'
p602
S'Renesas SH7785 reference board'
p603
ss(S'image'
g30
NS's390x'
tp604
(dp605
S'configs'
p606
(lp607
S's390/config.s390x'
p608
ass(S'image'
g85
tp609
(dp610
S'suggests'
p611
S'mkvmlinuz'
p612
sS'configs'
p613
(lp614
S'powerpc/config'
p615
ass(S'build'
g52
NS'686-pae'
tp616
(dp617
S'debug-info'
p618
I01
ss(S'image'
g52
tp619
(dp620
S'configs'
p621
(lp622
S'kernelarch-x86/config'
p623
asS'bootloaders'
p624
(lp625
S'grub-pc'
p626
aS'extlinux'
p627
aS'lilo'
p628
ass(S'description'
g67
NS'orion5x'
tp629
(dp630
S'hardware'
p631
S'Marvell Orion'
p632
sS'hardware-long'
p633
S'Marvell Orion 5181, 5182 and 5281 based systems (QNAP TS-109/TS-209, etc)'
p634
ss(g84
g138
g86
tp635
(dp636
g89
I01
sg90
(lp637
S'sparc64'
p638
aS'sparc64-smp'
p639
ass(S'base'
g85
tp640
(dp641
S'kernel-arch'
p642
S'powerpc'
p643
sg108
(lp644
g86
ass(g84
g103
g86
tp645
(dp646
g89
I01
sg90
(lp647
S'alpha-generic'
p648
aS'alpha-smp'
p649
aS'alpha-legacy'
p650
ass(S'description'
g52
g53
S'686-pae'
tp651
(dp652
S'parts'
p653
(lp654
S'xen'
p655
ass(g84
g38
g86
tp656
(dp657
g89
I01
sg90
(lp658
S'itanium'
p659
aS'mckinley'
p660
ass(S'description'
g96
NS'sb1a-bcm91480b'
tp661
(dp662
S'hardware'
p663
S'BCM91480B'
p664
sS'hardware-long'
p665
S'Broadcom BCM91480B systems (aka BigSur)'
p666
ss(S'description'
g164
NS'powerpc'
tp667
(dp668
S'hardware'
p669
S'uniprocessor 32-bit PowerPC'
p670
ss(g84
g96
g86
tp671
(dp672
g89
I01
sg90
(lp673
S'r4k-ip22'
p674
aS'r5k-ip32'
p675
aS'sb1-bcm91250a'
p676
aS'sb1a-bcm91480b'
p677
aS'4kc-malta'
p678
aS'5kc-malta'
p679
aS'octeon'
p680
ass(S'build'
g5
NS's390-tape'
tp681
(dp682
S'modules'
p683
I00
ss(S'description'
g77
NS'sb1a-bcm91480b'
tp684
(dp685
S'hardware'
p686
S'BCM91480B'
p687
sS'hardware-long'
p688
S'Broadcom BCM91480B systems (aka BigSur)'
p689
ss(S'description'
g96
NS'4kc-malta'
tp690
(dp691
S'hardware'
p692
S'MIPS Malta'
p693
sS'hardware-long'
p694
S'MIPS Malta boards'
p695
ss(S'description'
g159
NS'mac'
tp696
(dp697
S'hardware'
p698
S'Macintosh'
p699
ss(S'description'
g67
NS'versatile'
tp700
(dp701
S'hardware'
p702
S'Versatile'
p703
sS'hardware-long'
p704
S'Versatile systems (PB, AB, Qemu)'
p705
ss(S'image'
g159
tp706
(dp707
S'suggests'
p708
S'vmelilo, fdutils'
p709
sS'initramfs'
p710
I00
ss(S'description'
g110
NS'parisc-smp'
tp711
(dp712
S'hardware'
p713
S'multiprocessor 32-bit PA-RISC'
p714
ss(S'description'
g67
NS'ixp4xx'
tp715
(dp716
S'hardware'
p717
S'IXP4xx'
p718
sS'hardware-long'
p719
S'IXP4xx based systems (Linksys NSLU2, etc)'
p720
ss(S'image'
g5
NS's390x-tape'
tp721
(dp722
S'override-localversion'
p723
S's390x'
p724
sS'type'
p725
S'plain-s390-tape'
p726
sS'initramfs'
p727
I00
ss(S'build'
g115
NS'omap'
tp728
(dp729
S'image-file'
p730
S'arch/arm/boot/zImage'
p731
ss(S'image'
g13
NS'amd64'
tp732
(dp733
S'configs'
p734
(lp735
S'kernelarch-x86/config-arch-64'
p736
ass(S'description'
g5
tp737
(dp738
S'part-short-tape'
p739
S'IPL from tape'
p740
sS'part-long-tape'
p741
S'This kernel has support to IPL (boot) from a tape.'
p742
sS'part-long-reader'
p743
S'This kernel has support to IPL (boot) from a VM reader or DASD device.'
p744
ss(S'base'
g115
tp745
(dp746
S'kernel-arch'
p747
S'arm'
p748
sg108
(lp749
g86
ass(S'build'
g115
NS'vexpress'
tp750
(dp751
S'image-file'
p752
S'arch/arm/boot/zImage'
p753
ss(S'image'
g258
tp754
(dp755
S'suggests'
p756
S'fdutils'
p757
ss(S'base'
g110
tp758
(dp759
S'kernel-arch'
p760
S'parisc'
p761
sg108
(lp762
g86
asS'compiler'
p763
S'gcc-4.4'
p764
ss(S'base'
g258
tp765
(dp766
S'kernel-arch'
p767
S'sh'
p768
sg108
(lp769
g86
ass(S'abi'
g77
tp770
(dp771
S'ignore-changes'
p772
(lp773
S'vgacon_*'
p774
ass(S'image'
g138
tp775
(dp776
S'suggests'
p777
S'silo, fdutils'
p778
ss(S'description'
g164
NS'powerpc-smp'
tp779
(dp780
S'hardware'
p781
S'multiprocessor 32-bit PowerPC'
p782
ss(S'description'
g77
NS'sb1-bcm91250a'
tp783
(dp784
S'hardware'
p785
S'BCM91250A'
p786
sS'hardware-long'
p787
S'Broadcom BCM91250A systems (aka SWARM)'
p788
ss(S'description'
g46
NS'sparc64-smp'
tp789
(dp790
S'hardware'
p791
S'multiprocessor 64-bit UltraSPARC'
p792
ss(S'base'
g52
S'rt'
tp793
(dp794
S'flavours'
p795
(lp796
S'686-pae'
p797
ass(S'image'
g138
NS'sparc32'
tp798
(dp799
S'image-postproc'
p800
S'sparc32-image-postproc'
p801
ss(S'image'
g52
NS'486'
tp802
(dp803
S'configs'
p804
(lp805
S'kernelarch-x86/config-arch-32'
p806
ass(S'description'
g13
NS'amd64'
tp807
(dp808
S'hardware'
p809
S'64-bit PCs'
p810
sS'hardware-long'
p811
S'PCs with AMD64, Intel 64 or VIA Nano processors'
p812
ss(S'image'
g46
tp813
(dp814
S'suggests'
p815
S'silo, fdutils'
p816
sS'configs'
p817
(lp818
S'sparc/config'
p819
ass(S'description'
g77
NS'4kc-malta'
tp820
(dp821
S'hardware'
p822
S'MIPS Malta'
p823
sS'hardware-long'
p824
S'MIPS Malta boards'
p825
ss(S'base'
g164
tp826
(dp827
S'kernel-arch'
p828
S'powerpc'
p829
sg108
(lp830
g86
ass(S'description'
g159
NS'bvme6000'
tp831
(dp832
S'hardware'
p833
S'BVM BVME4000 and BVME6000'
p834
ss(S'description'
Ng122
tp835
(dp836
S'part-long-rt'
p837
S'This kernel includes the PREEMPT_RT realtime patch set.'
p838
sS'parts'
p839
(lp840
S'rt'
p841
asS'part-short-rt'
p842
S'PREEMPT_RT'
p843
ss(S'description'
g103
NS'alpha-smp'
tp844
(dp845
S'hardware'
p846
S'Alpha SMP'
p847
sS'hardware-long'
p848
S'DEC Alpha SMP systems with extended kernel start address (Wildfire, Titan, Marvel)'
p849
ss(S'description'
g258
NS'sh7751r'
tp850
(dp851
S'hardware'
p852
S'sh7751r'
p853
sS'hardware-long'
p854
S'Renesas SH7751R R2D plus board'
p855
ss(S'image'
g77
NS'sb1-bcm91250a'
tp856
(dp857
S'configs'
p858
(lp859
S'mips/config.sb1-bcm91250a'
p860
ass(S'description'
g38
NS'mckinley'
tp861
(dp862
S'hardware'
p863
S'Itanium II'
p864
ss(S'description'
g138
NS'sparc64-smp'
tp865
(dp866
S'hardware'
p867
S'multiprocessor 64-bit UltraSPARC'
p868
ss(S'description'
g164
NS'powerpc64'
tp869
(dp870
S'hardware'
p871
S'64-bit PowerPC'
p872
ss(S'description'
g30
tp873
(dp874
S'part-short-tape'
p875
S'IPL from tape'
p876
sS'part-long-tape'
p877
S'This kernel has support to IPL (boot) from a tape.'
p878
sS'part-long-reader'
p879
S'This kernel has support to IPL (boot) from a VM reader or DASD device.'
p880
ss(S'build'
g30
NS's390x'
tp881
(dp882
S'debug-info'
p883
I01
ss(S'abi'
tp884
(dp885
S'abiname'
p886
S'4'
sS'ignore-changes'
p887
(lp888
S'module:net/l2tp/*'
p889
aS'__rpc_wait_for_completion_task'
p890
aS'bc_svc_process'
p891
aS'nfs4*'
p892
aS'nfs_*'
p893
aS'nlmclnt_*'
p894
aS'nlmsvc_*'
p895
aS'pnfs_*'
p896
aS'put_lseg'
p897
aS'put_rpccred'
p898
aS'rpc_*'
p899
aS'rpcauth_*'
p900
aS'rpcb_getport_async'
p901
aS'svc_*'
p902
aS'svcauth_unix_set_client'
p903
aS'unix_domain_find'
p904
aS'xprt_*'
p905
aS'get_write_access'
p906
aS'module:drivers/gpu/drm/*'
p907
aS'drm_sman_*'
p908
aS'intel_agp_enabled'
p909
aS'intel_gmch_*'
p910
aS'intel_gtt_*'
p911
aS'module:drivers/net/wan/cycx_drv'
p912
aS'module:net/wanrouter/wanrouter'
p913
aS'register_virtio_*'
p914
aS'unregister_virtio_*'
p915
aS'virtio_*'
p916
aS'virtqueue_*'
p917
aS'vring_*'
p918
aS'module:drivers/staging/*'
p919
aS'module:drivers/net/ethernet/*'
p920
aS'module:drivers/net/wireless/*'
p921
aS'kmsg_dump_register'
p922
aS'kmsg_dump_unregister'
p923
aS'register_efivars'
p924
aS'unregister_efivars'
p925
aS'module:drivers/usb/serial/*'
p926
aS'module:arch/s390/kvm/kvm'
p927
aS'module:drivers/scsi/esp_scsi'
p928
aS'module:drivers/char/tpm/tpm'
p929
aS'omap_dsp_get_mempool_base'
p930
aS'sysctl_tcp_dma_copybreak'
p931
aS'module:fs/exofs/libore'
p932
aS'DAC1064_global_*'
p933
aS'g450_mnp2f'
p934
aS'matrox_*'
p935
aS'matroxfb_*'
p936
aS'tcp_alloc_md5sig_pool'
p937
aS'tcp_free_md5sig_pool'
p938
aS'tcp_get_md5sig_pool'
p939
aS'tcp_put_md5sig_pool'
p940
aS'module:sound/i2c/other/snd-ak4113'
p941
aS'module:sound/i2c/other/snd-ak4114'
p942
aS'module:net/ipv4/netfilter/nf_conntrac*'
p943
aS'module:net/ipv4/netfilter/nf_nat'
p944
aS'module:net/netfilter/ipvs/*'
p945
aS'module:net/netfilter/nf_conntrac*'
p946
aS'module:sound/pci/emu10k1/*'
p947
aS'module:drivers/md/dm-snapshot'
p948
aS'module:sound/core/snd-rawmidi'
p949
aS'skb_copy_and_csum_datagram_iovec'
p950
aS'module:net/dccp/dccp'
p951
aS'fl6_*'
p952
aS'inet_sk_diag_fill'
p953
aS'ip6_append_data'
p954
aS'ip6_datagram_send_ctl'
p955
aS'ip6_xmit'
p956
aS'ipv6_dup_options'
p957
aS'ipv6_fixup_options'
p958
aS'ipv6_push_nfrag_opts'
p959
aS'tcp_cong_avoid_ai'
p960
aS'tcp_slow_start'
p961
aS'__scm_destroy'
p962
aS'__scm_send'
p963
aS'scm_detach_fds'
p964
aS'scm_fp_dup'
p965
aS'af_alg_*'
p966
aS'module:drivers/net/can/can-dev'
p967
ass(S'description'
g115
NS'mx5'
tp968
(dp969
S'hardware'
p970
S'Freescale i.MX51/53'
p971
sS'hardware-long'
p972
S'Freescale i.MX51 or i.MX53 based systems'
p973
ss(S'base'
g110
NS'parisc64-smp'
tp974
(dp975
S'override-host-type'
p976
S'hppa64-linux-gnu'
p977
sS'cflags'
p978
S'-fno-cse-follow-jumps'
p979
ss(g84
g159
g86
tp980
(dp981
g89
I01
sg90
(lp982
S'amiga'
p983
aS'atari'
p984
aS'bvme6000'
p985
aS'mac'
p986
aS'mvme147'
p987
aS'mvme16x'
p988
ass(S'image'
g115
NS'omap'
tp989
(dp990
S'recommends'
p991
S'uboot-mkimage'
p992
ss(S'abi'
g52
tp993
(dp994
S'ignore-changes'
p995
(lp996
S'disable_hlt'
p997
aS'enable_hlt'
p998
aS'module:arch/x86/kvm/kvm'
p999
ass(S'base'
g52
g53
tp1000
(dp1001
S'flavours'
p1002
(lp1003
S'486'
p1004
aS'686-pae'
p1005
aS'amd64'
p1006
ass(S'base'
tp1007
(dp1008
S'arches'
p1009
(lp1010
S'alpha'
p1011
aS'amd64'
p1012
aS'armel'
p1013
aS'armhf'
p1014
aS'hppa'
p1015
aS'i386'
p1016
aS'ia64'
p1017
aS'm68k'
p1018
aS'mips'
p1019
aS'mipsel'
p1020
aS'powerpc'
p1021
aS'ppc64'
p1022
aS's390'
p1023
aS's390x'
p1024
aS'sh4'
p1025
aS'sparc'
p1026
aS'sparc64'
p1027
asS'featuresets'
p1028
(lp1029
S'none'
p1030
aS'rt'
p1031
asS'compiler'
p1032
S'gcc-4.6'
p1033
ss(S'image'
g77
NS'4kc-malta'
tp1034
(dp1035
S'configs'
p1036
(lp1037
S'mips/config.4kc-malta'
p1038
ass(g84
g164
g86
tp1039
(dp1040
g89
I01
sg90
(lp1041
S'powerpc'
p1042
aS'powerpc-smp'
p1043
aS'powerpc64'
p1044
ass(S'image'
g30
NS's390x-tape'
tp1045
(dp1046
S'configs'
p1047
(lp1048
S's390/config.s390x-tape'
p1049
asS'override-localversion'
p1050
S's390x'
p1051
sS'type'
p1052
S'plain-s390-tape'
p1053
sS'initramfs'
p1054
I00
ss(S'description'
tp1055
(dp1056
S'part-long-up'
p1057
S'This kernel is not suitable for SMP (multi-processor,\nmulti-core or hyper-threaded) systems.'
p1058
sS'part-long-xen'
p1059
S'This kernel also runs on a Xen hypervisor.\nIt supports both privileged (dom0) and unprivileged (domU) operation.'
p1060
ss(S'base'
g159
tp1061
(dp1062
S'kernel-arch'
p1063
S'm68k'
p1064
sg108
(lp1065
g86
asS'cflags'
p1066
S'-ffreestanding'
p1067
sS'compiler'
p1068
S'gcc-4.6'
p1069
ss(S'image'
tp1070
(dp1071
S'initramfs-generators'
p1072
(lp1073
S'initramfs-tools'
p1074
aS'initramfs-fallback'
p1075
asS'type'
p1076
S'plain'
p1077
ss(S'description'
g5
NS's390'
tp1078
(dp1079
S'hardware'
p1080
S'IBM S/390'
p1081
sS'parts'
p1082
(lp1083
S'reader'
p1084
ass(S'abi'
g13
tp1085
(dp1086
S'ignore-changes'
p1087
(lp1088
S'module:arch/x86/kvm/kvm'
p1089
ass(S'base'
NS'rt'
tp1090
(dp1091
S'enabled'
p1092
I01
ss(g84
g46
g86
tp1093
(dp1094
g89
I01
sg90
(lp1095
S'sparc64'
p1096
aS'sparc64-smp'
p1097
ass(S'image'
g110
tp1098
(dp1099
S'suggests'
p1100
S'palo'
p1101
ss(S'description'
g96
NS'r5k-ip32'
tp1102
(dp1103
S'hardware'
p1104
S'SGI IP32'
p1105
sS'hardware-long'
p1106
S'SGI IP32 systems (O2)'
p1107
ss(S'description'
g115
NS'vexpress'
tp1108
(dp1109
S'hardware'
p1110
S'ARM Ltd. Versatile Express'
p1111
sS'hardware-long'
p1112
S'ARM Ltd. Versatile Express family of processors'
p1113
ss(S'description'
g77
NS'r5k-cobalt'
tp1114
(dp1115
S'hardware'
p1116
S'Cobalt'
p1117
sS'hardware-long'
p1118
S'Cobalt systems (Qube, RaQ, Qube2, RaQ2)'
p1119
ss(S'build'
g5
NS's390x-tape'
tp1120
(dp1121
S'modules'
p1122
I00
ss(S'image'
g30
tp1123
(dp1124
S'configs'
p1125
(lp1126
S's390/config'
p1127
asS'bootloaders'
p1128
(lp1129
S's390-tools'
p1130
ass(S'image'
g77
NS'loongson-2f'
tp1131
(dp1132
S'recommends'
p1133
S'libc6-loongson2f'
p1134
ss(S'description'
g115
NS'omap'
tp1135
(dp1136
S'hardware'
p1137
S'TI OMAP3+'
p1138
sS'hardware-long'
p1139
S'Texas Instruments OMAP3 or OMAP4 based systems'
p1140
ss(S'description'
g96
NS'r4k-ip22'
tp1141
(dp1142
S'hardware'
p1143
S'SGI IP22'
p1144
sS'hardware-long'
p1145
S'SGI IP22 systems (Indy, Indigo2)'
p1146
sstRp1147
.