cdebian_linux.config
ConfigCore
p0
(tRp1
(Vabi
p2
tp3
(dp4
Vabiname
p5
V1
p6
sVignore-changes
p7
(lp8
V__cpuhp_*
p9
aV__udp_gso_segment
p10
aVbpf_analyzer
p11
aVbpf_offload_dev_create
p12
aVbpf_verifier_log_write
p13
aVcxl_*
p14
aVdax_flush
p15
aVieee80211_nullfunc_get
p16
aVinet_add_protocol
p17
aVinet_del_protocol
p18
aViommu_device_*
p19
aVmm_iommu_*
p20
aVmv_mbus_*
p21
aVperf_*
p22
aVregister_cxl_calls
p23
aVregister_key_type
p24
aVunregister_cxl_calls
p25
aV*_hw_breakpoint
p26
aVmodule:drivers/crypto/ccp/*
p27
aVmodule:drivers/hv/*
p28
aVmodule:drivers/gpu/drm/sun4i/*
p29
aVmodule:drivers/iio/**
p30
aVmodule:drivers/misc/cxl/*
p31
aVmodule:drivers/misc/lis3lv02d/*
p32
aVmodule:drivers/mtd/nand/*
p33
aVmodule:drivers/net/ethernet/**
p34
aVmodule:drivers/net/wireless/**
p35
aVmodule:drivers/nvdimm/*
p36
aVmodule:drivers/nvme/**
p37
aVmodule:drivers/power/supply/bq27xxx_battery
p38
aVmodule:drivers/scsi/cxgbi/*
p39
aVmodule:drivers/scsi/libiscs*
p40
aVmodule:drivers/scsi/qla2xxx/qla2xxx
p41
aVmodule:drivers/scsi/ufs/*
p42
aVmodule:drivers/target/**
p43
aVmodule:drivers/usb/chipidea/**
p44
aVmodule:drivers/usb/gadget/**
p45
aVmodule:drivers/usb/host/**
p46
aVmodule:drivers/usb/musb/**
p47
aVmodule:fs/nfs/**
p48
aVmodule:net/ceph/libceph
p49
aVmodule:net/l2tp/**
p50
aVmodule:net/openvswitch/**
p51
aVmodule:net/rxrpc/rxrpc
p52
aVmodule:net/sctp/**
p53
aVmodule:sound/core/seq/**
p54
aVmodule:sound/firewire/snd-firewire-lib
p55
aVmodule:sound/pci/hda/*
p56
aVbtree_*
p57
aVvisitor*
p58
aVcan_rx_register
p59
aVip6_xmit
p60
aVmodule:net/dccp/dccp
p61
aVmodule:net/rds/rds
p62
aVdevfreq_*
p63
aVdevm_devfreq_*
p64
aVupdate_devfreq
p65
aVmodule:drivers/infiniband/**
p66
aVacpi_ec_add_query_handler
p67
aVacpi_ec_remove_query_handler
p68
aVfirst_ec
p69
aVdebugfs_create_automount
p70
aVmodule:drivers/iio/imu/inv_mpu6050/*
p71
aVdrm_crtc_accurate_vblank_count
p72
aVacpi_nfit_desc_init
p73
aVacpi_nfit_init
p74
aVloop_register_transfer
p75
aVxen_xlate_*
p76
aVnf_nat_masquerade_ipv4_register_notifier
p77
aVnf_nat_masquerade_ipv6_register_notifier
p78
aVdfltcc_*
p79
aVmodule:drivers/scsi/hisi_sas/*
p80
aV__gfn_*
p81
aV__kvmhv_*
p82
aV__kvm_*
p83
aV__xive_vm_h_*
p84
aVgfn_*
p85
aVh_ipi_redirect
p86
aVhalt_poll_ns*
p87
aVkvm_*
p88
aVkvmhv_*
p89
aVkvmppc_*
p90
aVmark_page_dirty
p91
aVvcpu_*
p92
aVmodule:arch/powerpc/kvm/*
p93
aVmodule:arch/s390/kvm/*
p94
aVmodule:arch/x86/kvm/*
p95
aVuv_info
p96
aVxhci_init_driver
p97
ass(Vbase
p98
tp99
(dp100
Varches
p101
(lp102
Valpha
p103
aVamd64
p104
aVarm64
p105
aVarm64ilp32
p106
aVarmel
p107
aVarmhf
p108
aVhppa
p109
aVi386
p110
aVia64
p111
aVm68k
p112
aVmips
p113
aVmips64
p114
aVmips64el
p115
aVmips64r6
p116
aVmips64r6el
p117
aVmipsel
p118
aVmipsn32
p119
aVmipsn32el
p120
aVmipsn32r6
p121
aVmipsn32r6el
p122
aVmipsr6
p123
aVmipsr6el
p124
aVpowerpc
p125
aVppc64
p126
aVppc64el
p127
aVriscv64
p128
aVs390
p129
aVs390x
p130
aVsh3
p131
aVsh4
p132
aVsparc
p133
aVsparc64
p134
aVx32
p135
asVcompiler
p136
Vgcc-11
p137
sVfeaturesets
p138
(lp139
Vnone
p140
aVrt
p141
ass(Vbuild
p142
tp143
(dp144
Vdebug-info
p145
I01
sVsigned-code
p146
I00
sVtrusted-certs
p147
Vdebian/certs/debian-uefi-certs.pem
p148
ss(Vbase
p149
NVrt
p150
tp151
(dp152
Venabled
p153
I01
ss(Vdescription
p154
tp155
(dp156
Vpart-long-up
p157
VThis kernel is not suitable for SMP (multi-processor,\u000amulti-core or hyper-threaded) systems.
p158
ss(Vimage
p159
tp160
(dp161
Vinitramfs-generators
p162
(lp163
Vinitramfs-tools
p164
aVinitramfs-fallback
p165
asVbreaks
p166
(lp167
Vfwupdate (<< 12-7)
p168
aVwireless-regdb (<< 2019.06.03-1~)
p169
asVrecommends
p170
(lp171
Vapparmor
p172
ass(Vrelations
p173
tp174
(dp175
Vgcc-11
p176
Vgcc-11 <!stage1 !cross !pkg.linux.nokernel>, gcc-11-@gnu-type-package@ <!stage1 cross !pkg.linux.nokernel>
p177
sVinitramfs-fallback
p178
Vlinux-initramfs-tool
p179
sVinitramfs-tools
p180
Vinitramfs-tools (>= 0.120+deb8u2)
p181
ss(Vbase
p182
Valpha
p183
tp184
(dp185
Vdefault-flavour
p186
Valpha-smp
p187
sVkernel-arch
p188
Valpha
p189
sVfeaturesets
p190
(lp191
Vnone
p192
ass(Vbuild
p193
g183
tp194
(dp195
Vimage-file
p196
Varch/alpha/boot/vmlinux.gz
p197
ss(Vimage
p198
g183
tp199
(dp200
Vsuggests
p201
(lp202
Vaboot
p203
aVfdutils
p204
asVinstall-stem
p205
Vvmlinuz
p206
ss(Vdescription
p207
g183
NValpha-generic
p208
tp209
(dp210
Vhardware
p211
VAlpha
p212
sVhardware-long
p213
VDEC Alpha systems with extended kernel start address (Wildfire, Titan, Marvel)
p214
ss(Vdescription
p215
g183
NValpha-smp
p216
tp217
(dp218
Vhardware
p219
VAlpha SMP
p220
sVhardware-long
p221
VDEC Alpha SMP systems with extended kernel start address (Wildfire, Titan, Marvel)
p222
ss(Vbase
p223
g183
g192
tp224
(dp225
Vflavours
p226
(lp227
Valpha-generic
p228
aValpha-smp
p229
asVimplicit-flavour
p230
I01
ss(Vbase
p231
Vamd64
p232
tp233
(dp234
Vfeaturesets
p235
(lp236
Vnone
p237
aVrt
p238
asVkernel-arch
p239
Vx86
p240
ss(Vbuild
p241
g232
tp242
(dp243
Vimage-file
p244
Varch/x86/boot/bzImage
p245
sVsigned-code
p246
I01
sVvdso
p247
I01
ss(Vimage
p248
g232
tp249
(dp250
Vbootloaders
p251
(lp252
Vgrub-pc
p253
aVgrub-efi-amd64
p254
aVextlinux
p255
asVinstall-stem
p256
Vvmlinuz
p257
sVbreaks
p258
(lp259
Vxserver-xorg-input-vmmouse (<< 1:13.0.99)
p260
ass(Vrelations
p261
g232
tp262
(dp263
Vheaders%gcc-11
p264
Vlinux-compiler-gcc-11-x86
p265
ss(Vdescription
p266
g232
NVamd64
p267
tp268
(dp269
Vhardware
p270
V64-bit PCs
p271
sVhardware-long
p272
VPCs with AMD64, Intel 64 or VIA Nano processors
p273
ss(Vdescription
p274
g232
NVcloud-amd64
p275
tp276
(dp277
Vhardware
p278
Vx86-64 cloud
p279
sVhardware-long
p280
Vcloud platforms including Amazon EC2, Microsoft Azure, and Google Compute Engine
p281
ss(Vbase
p282
g232
Vnone
p283
tp284
(dp285
Vflavours
p286
(lp287
Vamd64
p288
aVcloud-amd64
p289
asVdefault-flavour
p290
Vamd64
p291
sVquick-flavour
p292
Vcloud-amd64
p293
ss(Vimage
p294
g232
g283
Vcloud-amd64
p295
tp296
(dp297
Vconfigs
p298
(lp299
Vconfig.cloud
p300
aVamd64/config.cloud-amd64
p301
ass(Vbase
p302
g232
Vrt
p303
tp304
(dp305
Vflavours
p306
(lp307
Vamd64
p308
ass(Vbase
p309
Varm64
p310
tp311
(dp312
Vcross-compile-compat
p313
Varm-linux-gnueabihf-
p314
sVkernel-arch
p315
Varm64
p316
sVfeaturesets
p317
(lp318
Vnone
p319
aVrt
p320
ass(Vbuild
p321
g310
tp322
(dp323
Vimage-file
p324
Varch/arm64/boot/Image
p325
sVsigned-code
p326
I01
sVvdso
p327
I01
ss(Vimage
p328
g310
tp329
(dp330
Vinstall-stem
p331
Vvmlinuz
p332
sVbreaks
p333
(lp334
Vlibmozjs185-1.0
p335
aVlibmozjs-24-0 (<< 24.2.0-5.1~)
p336
ass(Vdescription
p337
g310
NVarm64
p338
tp339
(dp340
Vhardware
p341
V64-bit ARMv8 machines
p342
ss(Vdescription
p343
g310
NVcloud-arm64
p344
tp345
(dp346
Vhardware
p347
Varm64 cloud
p348
sVhardware-long
p349
Vcloud platforms supporting arm64 virtual machines
p350
ss(Vimage
p351
g310
NVarm64
p352
tp353
(dp354
s(Vrelations
p355
g310
tp356
(dp357
Vgcc-11
p358
Vgcc-11 <!stage1 !cross !pkg.linux.nokernel>, gcc-11-aarch64-linux-gnu <!stage1 cross !pkg.linux.nokernel>, gcc-arm-linux-gnueabihf <!stage1 !pkg.linux.nokernel>
p359
sVheaders%gcc-11
p360
Vgcc-11
p361
ss(Vbase
p362
g310
Vnone
p363
tp364
(dp365
Vflavours
p366
(lp367
Varm64
p368
aVcloud-arm64
p369
asVdefault-flavour
p370
Varm64
p371
sVquick-flavour
p372
Vcloud-arm64
p373
ss(Vimage
p374
g310
g363
Vcloud-arm64
p375
tp376
(dp377
Vconfigs
p378
(lp379
Vconfig.cloud
p380
aVarm64/config.cloud-arm64
p381
ass(Vbase
p382
g310
Vrt
p383
tp384
(dp385
Vflavours
p386
(lp387
Varm64
p388
ass(Vbase
p389
Varm64ilp32
p390
tp391
(dp392
Vkernel-arch
p393
Varm64
p394
sVfeaturesets
p395
(lp396
ss(Vbase
p397
Varmel
p398
tp399
(dp400
Vkernel-arch
p401
Varm
p402
sg190
(lp403
g192
ass(Vbuild
p404
g398
tp405
(dp406
Vimage-file
p407
Varch/arm/boot/zImage
p408
sVuncompressed-image-file
p409
Varch/arm/boot/Image
p410
ss(Vimage
p411
g398
tp412
(dp413
Vinstall-stem
p414
Vvmlinuz
p415
ss(Vrelations
p416
g398
tp417
(dp418
Vheaders%gcc-11
p419
Vlinux-compiler-gcc-11-arm
p420
ss(Vdescription
p421
g398
NVmarvell
p422
tp423
(dp424
Vhardware
p425
VMarvell Kirkwood/Orion
p426
sVhardware-long
p427
VMarvell Kirkwood and Orion based systems (https://wiki.debian.org/ArmEabiPort#Supported_hardware)
p428
ss(Vdescription
p429
g398
NVrpi
p430
tp431
(dp432
Vhardware
p433
VRaspberry Pi Zero, Zero W and 1
p434
sVhardware-long
p435
VRaspberry Pi Zero, Zero W and 1 based systems
p436
ss(Vimage
p437
g398
NVmarvell
p438
tp439
(dp440
Vrecommends
p441
(lp442
Vu-boot-tools
p443
asVcheck-size
p444
I2729712
sVcheck-size-with-dtb
p445
I01
sVbreaks
p446
(lp447
Vflash-kernel (<< 3.57~)
p448
ass(g223
g398
g192
tp449
(dp450
g226
(lp451
Vmarvell
p452
aVrpi
p453
asg230
I01
ss(Vbase
p454
Varmhf
p455
tp456
(dp457
Vfeaturesets
p458
(lp459
sVkernel-arch
p460
Varm
p461
ss(Vbase
p462
Vhppa
p463
tp464
(dp465
Vdefault-flavour
p466
Vparisc
p467
sVkernel-arch
p468
Vparisc
p469
sg190
(lp470
g192
ass(Vbuild
p471
g463
tp472
(dp473
Vimage-file
p474
Varch/parisc/boot/bzImage
p475
sVdebug-info
p476
I00
ss(Vimage
p477
g463
tp478
(dp479
Vsuggests
p480
(lp481
Vpalo
p482
asVinstall-stem
p483
Vvmlinuz
p484
ss(Vdescription
p485
g463
NVparisc
p486
tp487
(dp488
Vhardware
p489
V32-bit PA-RISC
p490
sVhardware-long
p491
VHP PA-RISC 32-bit systems with max 4 GB RAM
p492
ss(Vbase
p493
g463
NVparisc64
p494
tp495
(dp496
Vcflags
p497
V-fno-cse-follow-jumps
p498
sVoverride-host-type
p499
Vhppa64-linux-gnu
p500
ss(Vdescription
p501
g463
NVparisc64
p502
tp503
(dp504
Vhardware
p505
V64-bit PA-RISC
p506
sVhardware-long
p507
VHP PA-RISC 64-bit systems with support for more than 4 GB RAM
p508
ss(Vrelations
p509
g463
tp510
(dp511
Vgcc-11
p512
Vgcc-11 <!stage1 !cross !pkg.linux.nokernel>, gcc-11-hppa-linux-gnu <!stage1 cross !pkg.linux.nokernel>, binutils-hppa64-linux-gnu <!stage1 !pkg.linux.nokernel>, gcc-11-hppa64-linux-gnu <!stage1 !pkg.linux.nokernel>
p513
ss(g223
g463
g192
tp514
(dp515
g226
(lp516
Vparisc
p517
aVparisc64
p518
asg230
I01
ss(Vbase
p519
Vi386
p520
tp521
(dp522
Vfeaturesets
p523
(lp524
Vnone
p525
aVrt
p526
asVkernel-arch
p527
Vx86
p528
ss(Vbuild
p529
g520
tp530
(dp531
Vimage-file
p532
Varch/x86/boot/bzImage
p533
sVsigned-code
p534
I01
sVvdso
p535
I01
ss(Vdescription
p536
g520
tp537
(dp538
Vpart-long-pae
p539
VThis kernel requires PAE (Physical Address Extension).\u000aThis feature is supported by the Intel Pentium Pro/II/III/4/4M/D, Xeon,\u000aCore and Atom; AMD Geode NX, Athlon (K7), Duron, Opteron, Sempron,\u000aTurion or Phenom; Transmeta Efficeon; VIA C7; and some other processors.
p540
ss(Vimage
p541
g520
tp542
(dp543
Vbootloaders
p544
(lp545
Vgrub-pc
p546
aVgrub-efi-ia32
p547
aVextlinux
p548
asVinstall-stem
p549
Vvmlinuz
p550
sVbreaks
p551
(lp552
Vxserver-xorg-input-vmmouse (<< 1:13.0.99)
p553
ass(Vrelations
p554
g520
tp555
(dp556
Vheaders%gcc-11
p557
Vlinux-compiler-gcc-11-x86
p558
ss(Vdescription
p559
g520
NV686
p560
tp561
(dp562
Vhardware
p563
Volder PCs
p564
sVhardware-long
p565
VPCs with one or more processors not supporting PAE
p566
ss(Vdescription
p567
g520
NV686-pae
p568
tp569
(dp570
Vhardware
p571
Vmodern PCs
p572
sVhardware-long
p573
VPCs with one or more processors supporting PAE
p574
sVparts
p575
(lp576
Vpae
p577
ass(Vbase
p578
g520
Vnone
p579
tp580
(dp581
Vflavours
p582
(lp583
V686
p584
aV686-pae
p585
asVdefault-flavour
p586
V686-pae
p587
ss(Vbase
p588
g520
Vrt
p589
tp590
(dp591
Vflavours
p592
(lp593
V686-pae
p594
ass(Vbase
p595
Via64
p596
tp597
(dp598
Vdefault-flavour
p599
Vitanium
p600
sVkernel-arch
p601
Via64
p602
sg190
(lp603
g192
ass(Vbuild
p604
g596
tp605
(dp606
Vimage-file
p607
Vvmlinux.gz
p608
ss(Vimage
p609
g596
tp610
(dp611
Vbootloaders
p612
(lp613
Vgrub-efi-ia64
p614
asVinstall-stem
p615
Vvmlinuz
p616
ss(Vdescription
p617
g596
NVitanium
p618
tp619
(dp620
Vhardware
p621
VItanium (Merced)
p622
sVhardware-long
p623
Vsystems with original Itanium (Merced) processors
p624
ss(Vdescription
p625
g596
NVmckinley
p626
tp627
(dp628
Vhardware
p629
VItanium 2+
p630
sVhardware-long
p631
Vsystems with Itanium 2 or 9300/9500/9700-series processors
p632
ss(g223
g596
g192
tp633
(dp634
g226
(lp635
Vitanium
p636
aVmckinley
p637
asg230
I01
ss(Vbase
p638
Vm68k
p639
tp640
(dp641
Vcflags
p642
V-ffreestanding
p643
sVdefault-flavour
p644
Vm68k
p645
sVkernel-arch
p646
Vm68k
p647
sg190
(lp648
g192
ass(Vbuild
p649
g639
tp650
(dp651
Vimage-file
p652
Vvmlinux
p653
ss(Vimage
p654
g639
tp655
(dp656
Vsuggests
p657
(lp658
Vvmelilo
p659
aVfdutils
p660
asVinstall-stem
p661
Vvmlinux
p662
ss(Vdescription
p663
g639
NVm68k
p664
tp665
(dp666
Vhardware
p667
VMotorola MC68020+ family
p668
ss(g223
g639
g192
tp669
(dp670
g226
(lp671
Vm68k
p672
asg230
I01
ss(Vbase
p673
Vmips
p674
tp675
(dp676
Vkernel-arch
p677
Vmips
p678
sg190
(lp679
g192
ass(Vbuild
p680
g674
tp681
(dp682
Vimage-file
p683
Vvmlinuz
p684
ss(Vimage
p685
g674
tp686
(dp687
Vinstall-stem
p688
Vvmlinuz
p689
ss(Vdescription
p690
g674
NV4kc-malta
p691
tp692
(dp693
Vhardware
p694
VMIPS Malta
p695
sVhardware-long
p696
VMIPS Malta boards
p697
ss(Vimage
p698
g674
NV4kc-malta
p699
tp700
(dp701
Vconfigs
p702
(lp703
Vkernelarch-mips/config.malta
p704
aVkernelarch-mips/config.mips32r2
p705
ass(Vdescription
p706
g674
NVmips32r2eb
p707
tp708
(dp709
Vhardware
p710
VMIPS Generic (mips32r2eb)
p711
sVhardware-long
p712
VMIPS Generic platform (mips32r2eb)
p713
ss(Vimage
p714
g674
NVmips32r2eb
p715
tp716
(dp717
Vconfigs
p718
(lp719
Vkernelarch-mips/config.boston
p720
aVkernelarch-mips/config.mips32r2
p721
ass(Vdescription
p722
g674
NVocteon
p723
tp724
(dp725
Vhardware
p726
VOcteon
p727
sVhardware-long
p728
VCavium Networks Octeon
p729
ss(Vbuild
p730
g674
NVocteon
p731
tp732
(dp733
Vimage-file
p734
Vvmlinux
p735
ss(Vimage
p736
g674
NVocteon
p737
tp738
(dp739
Vinstall-stem
p740
Vvmlinux
p741
sVconfigs
p742
(lp743
Vkernelarch-mips/config.octeon
p744
ass(g223
g674
g192
tp745
(dp746
g226
(lp747
V4kc-malta
p748
aVmips32r2eb
p749
aVocteon
p750
asg230
I01
ss(Vbase
p751
Vmips64
p752
tp753
(dp754
Vkernel-arch
p755
Vmips
p756
sg190
(lp757
g192
ass(Vbuild
p758
g752
tp759
(dp760
Vimage-file
p761
Vvmlinuz
p762
ss(Vimage
p763
g752
tp764
(dp765
Vinstall-stem
p766
Vvmlinuz
p767
ss(Vdescription
p768
g752
NV5kc-malta
p769
tp770
(dp771
Vhardware
p772
VMIPS Malta
p773
sVhardware-long
p774
VMIPS Malta boards
p775
ss(Vimage
p776
g752
NV5kc-malta
p777
tp778
(dp779
Vconfigs
p780
(lp781
Vkernelarch-mips/config.malta
p782
aVkernelarch-mips/config.mips64r2
p783
ass(Vdescription
p784
g752
NVmips64r2eb
p785
tp786
(dp787
Vhardware
p788
VMIPS Generic (mips64r2eb)
p789
sVhardware-long
p790
VMIPS Generic platform (mips64r2eb)
p791
ss(Vimage
p792
g752
NVmips64r2eb
p793
tp794
(dp795
Vconfigs
p796
(lp797
Vkernelarch-mips/config.boston
p798
aVkernelarch-mips/config.mips64r2
p799
ass(Vdescription
p800
g752
NVocteon
p801
tp802
(dp803
Vhardware
p804
VOcteon
p805
sVhardware-long
p806
VCavium Networks Octeon
p807
ss(Vbuild
p808
g752
NVocteon
p809
tp810
(dp811
Vimage-file
p812
Vvmlinux
p813
ss(Vimage
p814
g752
NVocteon
p815
tp816
(dp817
Vinstall-stem
p818
Vvmlinux
p819
sVconfigs
p820
(lp821
Vkernelarch-mips/config.octeon
p822
ass(g223
g752
g192
tp823
(dp824
g226
(lp825
V5kc-malta
p826
aVmips64r2eb
p827
aVocteon
p828
asg230
I01
ss(Vbase
p829
Vmips64el
p830
tp831
(dp832
Vkernel-arch
p833
Vmips
p834
sg190
(lp835
g192
ass(Vbuild
p836
g830
tp837
(dp838
Vimage-file
p839
Vvmlinuz
p840
ss(Vimage
p841
g830
tp842
(dp843
Vinstall-stem
p844
Vvmlinuz
p845
ss(Vdescription
p846
g830
NV5kc-malta
p847
tp848
(dp849
Vhardware
p850
VMIPS Malta
p851
sVhardware-long
p852
VMIPS Malta boards
p853
ss(Vimage
p854
g830
NV5kc-malta
p855
tp856
(dp857
Vconfigs
p858
(lp859
Vkernelarch-mips/config.malta
p860
aVkernelarch-mips/config.mips64r2
p861
ass(Vdescription
p862
g830
NVmips64r2el
p863
tp864
(dp865
Vhardware
p866
VMIPS Generic (mips64r2eb)
p867
sVhardware-long
p868
VMIPS Generic platform (mips64r2eb)
p869
ss(Vimage
p870
g830
NVmips64r2el
p871
tp872
(dp873
Vconfigs
p874
(lp875
Vkernelarch-mips/config.boston
p876
aVkernelarch-mips/config.mips64r2
p877
ass(Vdescription
p878
g830
NVloongson-3
p879
tp880
(dp881
Vhardware
p882
VLoongson 3A/3B
p883
sVhardware-long
p884
VLoongson 3A or 3B based systems (e.g. from Loongson or Lemote)
p885
ss(Vimage
p886
g830
NVloongson-3
p887
tp888
(dp889
Vrecommends
p890
(lp891
Vpmon-update
p892
asVconfigs
p893
(lp894
Vkernelarch-mips/config.loongson-3
p895
ass(Vdescription
p896
g830
NVocteon
p897
tp898
(dp899
Vhardware
p900
VOcteon
p901
sVhardware-long
p902
VCavium Networks Octeon
p903
ss(Vbuild
p904
g830
NVocteon
p905
tp906
(dp907
Vimage-file
p908
Vvmlinux
p909
ss(Vimage
p910
g830
NVocteon
p911
tp912
(dp913
Vinstall-stem
p914
Vvmlinux
p915
sVconfigs
p916
(lp917
Vkernelarch-mips/config.octeon
p918
ass(g223
g830
g192
tp919
(dp920
g226
(lp921
V5kc-malta
p922
aVmips64r2el
p923
aVloongson-3
p924
aVocteon
p925
asg230
I01
ss(Vbase
p926
Vmips64r6
p927
tp928
(dp929
Vkernel-arch
p930
Vmips
p931
sg190
(lp932
g192
ass(Vbuild
p933
g927
tp934
(dp935
Vimage-file
p936
Vvmlinuz
p937
ss(Vimage
p938
g927
tp939
(dp940
Vinstall-stem
p941
Vvmlinuz
p942
ss(Vdescription
p943
g927
NVmips64r6eb
p944
tp945
(dp946
Vhardware
p947
VMIPS Generic (mips64r6eb)
p948
sVhardware-long
p949
VMIPS Generic platform (mips64r6eb)
p950
ss(Vimage
p951
g927
NVmips64r6eb
p952
tp953
(dp954
Vconfigs
p955
(lp956
Vkernelarch-mips/config.boston
p957
aVkernelarch-mips/config.mips64r6
p958
ass(g223
g927
g192
tp959
(dp960
g226
(lp961
Vmips64r6eb
p962
asg230
I01
ss(Vbase
p963
Vmips64r6el
p964
tp965
(dp966
Vkernel-arch
p967
Vmips
p968
sg190
(lp969
g192
ass(Vbuild
p970
g964
tp971
(dp972
Vimage-file
p973
Vvmlinuz
p974
ss(Vimage
p975
g964
tp976
(dp977
Vinstall-stem
p978
Vvmlinuz
p979
ss(Vdescription
p980
g964
NVmips64r6el
p981
tp982
(dp983
Vhardware
p984
VMIPS Generic (mips64r6el)
p985
sVhardware-long
p986
VMIPS Generic platform (mips64r6el)
p987
ss(Vimage
p988
g964
NVmips64r6el
p989
tp990
(dp991
Vconfigs
p992
(lp993
Vkernelarch-mips/config.boston
p994
aVkernelarch-mips/config.mips64r6
p995
ass(g223
g964
g192
tp996
(dp997
g226
(lp998
Vmips64r6el
p999
asg230
I01
ss(Vbase
p1000
Vmipsel
p1001
tp1002
(dp1003
Vkernel-arch
p1004
Vmips
p1005
sg190
(lp1006
g192
ass(Vbuild
p1007
g1001
tp1008
(dp1009
Vimage-file
p1010
Vvmlinuz
p1011
ss(Vimage
p1012
g1001
tp1013
(dp1014
Vinstall-stem
p1015
Vvmlinuz
p1016
ss(Vdescription
p1017
g1001
NV4kc-malta
p1018
tp1019
(dp1020
Vhardware
p1021
VMIPS Malta
p1022
sVhardware-long
p1023
VMIPS Malta boards
p1024
ss(Vimage
p1025
g1001
NV4kc-malta
p1026
tp1027
(dp1028
Vconfigs
p1029
(lp1030
Vkernelarch-mips/config.malta
p1031
aVkernelarch-mips/config.mips32r2
p1032
ass(Vdescription
p1033
g1001
NVmips32r2el
p1034
tp1035
(dp1036
Vhardware
p1037
VMIPS Generic (mips32r2el)
p1038
sVhardware-long
p1039
VMIPS Generic platform (mips32r2el)
p1040
ss(Vimage
p1041
g1001
NVmips32r2el
p1042
tp1043
(dp1044
Vconfigs
p1045
(lp1046
Vkernelarch-mips/config.boston
p1047
aVkernelarch-mips/config.mips32r2
p1048
ass(Vdescription
p1049
g1001
NVloongson-3
p1050
tp1051
(dp1052
Vhardware
p1053
VLoongson 3A/3B
p1054
sVhardware-long
p1055
VLoongson 3A or 3B based systems (e.g. from Loongson or Lemote)
p1056
ss(Vimage
p1057
g1001
NVloongson-3
p1058
tp1059
(dp1060
Vrecommends
p1061
(lp1062
Vpmon-update
p1063
asVconfigs
p1064
(lp1065
Vkernelarch-mips/config.loongson-3
p1066
ass(Vdescription
p1067
g1001
NVocteon
p1068
tp1069
(dp1070
Vhardware
p1071
VOcteon
p1072
sVhardware-long
p1073
VCavium Networks Octeon
p1074
ss(Vbuild
p1075
g1001
NVocteon
p1076
tp1077
(dp1078
Vimage-file
p1079
Vvmlinux
p1080
ss(Vimage
p1081
g1001
NVocteon
p1082
tp1083
(dp1084
Vinstall-stem
p1085
Vvmlinux
p1086
sVconfigs
p1087
(lp1088
Vkernelarch-mips/config.octeon
p1089
ass(g223
g1001
g192
tp1090
(dp1091
g226
(lp1092
V4kc-malta
p1093
aVmips32r2el
p1094
aVloongson-3
p1095
aVocteon
p1096
asg230
I01
ss(Vbase
p1097
Vmipsn32
p1098
tp1099
(dp1100
Vkernel-arch
p1101
Vmips
p1102
sVfeaturesets
p1103
(lp1104
ss(Vbase
p1105
Vmipsn32el
p1106
tp1107
(dp1108
Vkernel-arch
p1109
Vmips
p1110
sVfeaturesets
p1111
(lp1112
ss(Vbase
p1113
Vmipsn32r6
p1114
tp1115
(dp1116
Vkernel-arch
p1117
Vmips
p1118
sVfeaturesets
p1119
(lp1120
ss(Vbase
p1121
Vmipsn32r6el
p1122
tp1123
(dp1124
Vkernel-arch
p1125
Vmips
p1126
sVfeaturesets
p1127
(lp1128
ss(Vbase
p1129
Vmipsr6
p1130
tp1131
(dp1132
Vkernel-arch
p1133
Vmips
p1134
sg190
(lp1135
g192
ass(Vbuild
p1136
g1130
tp1137
(dp1138
Vimage-file
p1139
Vvmlinuz
p1140
ss(Vimage
p1141
g1130
tp1142
(dp1143
Vinstall-stem
p1144
Vvmlinuz
p1145
ss(Vdescription
p1146
g1130
NVmips32r6eb
p1147
tp1148
(dp1149
Vhardware
p1150
VMIPS Generic (mips32r6eb)
p1151
sVhardware-long
p1152
VMIPS Generic platform (mips32r6eb)
p1153
ss(Vimage
p1154
g1130
NVmips32r6eb
p1155
tp1156
(dp1157
Vconfigs
p1158
(lp1159
Vkernelarch-mips/config.boston
p1160
aVkernelarch-mips/config.mips32r6
p1161
ass(g223
g1130
g192
tp1162
(dp1163
g226
(lp1164
Vmips32r6eb
p1165
asg230
I01
ss(Vbase
p1166
Vmipsr6el
p1167
tp1168
(dp1169
Vkernel-arch
p1170
Vmips
p1171
sg190
(lp1172
g192
ass(Vbuild
p1173
g1167
tp1174
(dp1175
Vimage-file
p1176
Vvmlinuz
p1177
ss(Vimage
p1178
g1167
tp1179
(dp1180
Vinstall-stem
p1181
Vvmlinuz
p1182
ss(Vdescription
p1183
g1167
NVmips32r6el
p1184
tp1185
(dp1186
Vhardware
p1187
VMIPS Generic (mips32r6el)
p1188
sVhardware-long
p1189
VMIPS Generic platform (mips32r6el)
p1190
ss(Vimage
p1191
g1167
NVmips32r6el
p1192
tp1193
(dp1194
Vconfigs
p1195
(lp1196
Vkernelarch-mips/config.boston
p1197
aVkernelarch-mips/config.mips32r6
p1198
ass(g223
g1167
g192
tp1199
(dp1200
g226
(lp1201
Vmips32r6el
p1202
asg230
I01
ss(Vbase
p1203
Vpowerpc
p1204
tp1205
(dp1206
Vkernel-arch
p1207
Vpowerpc
p1208
sg190
(lp1209
g192
ass(Vbuild
p1210
g1204
tp1211
(dp1212
Vimage-file
p1213
Vvmlinux
p1214
ss(Vimage
p1215
g1204
tp1216
(dp1217
Vconfigs
p1218
(lp1219
sVbootloaders
p1220
(lp1221
Vgrub-ieee1275
p1222
asVsuggests
p1223
(lp1224
Vmkvmlinuz
p1225
asVinstall-stem
p1226
Vvmlinux
p1227
ss(Vdescription
p1228
g1204
NVpowerpc
p1229
tp1230
(dp1231
Vhardware
p1232
Vuniprocessor 32-bit PowerPC
p1233
ss(Vdescription
p1234
g1204
NVpowerpc-smp
p1235
tp1236
(dp1237
Vhardware
p1238
Vmultiprocessor 32-bit PowerPC
p1239
ss(Vimage
p1240
g1204
NVpowerpc-smp
p1241
tp1242
(dp1243
Vconfigs
p1244
(lp1245
Vpowerpc/config.powerpc
p1246
aVpowerpc/config.powerpc-smp
p1247
ass(Vdescription
p1248
g1204
NVpowerpc64
p1249
tp1250
(dp1251
Vhardware
p1252
V64-bit PowerPC
p1253
ss(Vimage
p1254
g1204
NVpowerpc64
p1255
tp1256
(dp1257
Vconfigs
p1258
(lp1259
Vkernelarch-powerpc/config-arch-64
p1260
aVkernelarch-powerpc/config-arch-64-be
p1261
ass(g223
g1204
g192
tp1262
(dp1263
g226
(lp1264
Vpowerpc
p1265
aVpowerpc-smp
p1266
aVpowerpc64
p1267
asg230
I01
ss(Vbase
p1268
Vppc64
p1269
tp1270
(dp1271
Vdefault-flavour
p1272
Vpowerpc64
p1273
sVkernel-arch
p1274
Vpowerpc
p1275
sg190
(lp1276
g192
ass(Vbuild
p1277
g1269
tp1278
(dp1279
Vimage-file
p1280
Vvmlinux
p1281
ss(Vimage
p1282
g1269
tp1283
(dp1284
Vconfigs
p1285
(lp1286
sVbootloaders
p1287
(lp1288
Vgrub-ieee1275
p1289
asVsuggests
p1290
(lp1291
Vmkvmlinuz
p1292
asVinstall-stem
p1293
Vvmlinux
p1294
ss(Vdescription
p1295
g1269
NVpowerpc64
p1296
tp1297
(dp1298
Vhardware
p1299
V64-bit PowerPC
p1300
ss(Vimage
p1301
g1269
NVpowerpc64
p1302
tp1303
(dp1304
Vconfigs
p1305
(lp1306
Vkernelarch-powerpc/config-arch-64
p1307
aVkernelarch-powerpc/config-arch-64-be
p1308
ass(g223
g1269
g192
tp1309
(dp1310
g226
(lp1311
Vpowerpc64
p1312
asg230
I01
ss(Vbase
p1313
Vppc64el
p1314
tp1315
(dp1316
Vdefault-flavour
p1317
Vpowerpc64le
p1318
sVkernel-arch
p1319
Vpowerpc
p1320
sg190
(lp1321
g192
ass(Vbuild
p1322
g1314
tp1323
(dp1324
Vimage-file
p1325
Vvmlinux
p1326
ss(Vimage
p1327
g1314
tp1328
(dp1329
Vconfigs
p1330
(lp1331
sVbootloaders
p1332
(lp1333
Vgrub-ieee1275
p1334
asVsuggests
p1335
(lp1336
Vmkvmlinuz
p1337
asVinstall-stem
p1338
Vvmlinux
p1339
ss(Vdescription
p1340
g1314
NVpowerpc64le
p1341
tp1342
(dp1343
Vhardware
p1344
VLittle-endian 64-bit PowerPC
p1345
ss(Vimage
p1346
g1314
NVpowerpc64le
p1347
tp1348
(dp1349
Vconfigs
p1350
(lp1351
Vkernelarch-powerpc/config-arch-64
p1352
aVkernelarch-powerpc/config-arch-64-le
p1353
ass(g223
g1314
g192
tp1354
(dp1355
g226
(lp1356
Vpowerpc64le
p1357
asg230
I01
ss(Vbase
p1358
Vriscv64
p1359
tp1360
(dp1361
Vkernel-arch
p1362
Vriscv
p1363
sVfeaturesets
p1364
(lp1365
Vnone
p1366
ass(Vbuild
p1367
g1359
tp1368
(dp1369
Vimage-file
p1370
Varch/riscv/boot/Image
p1371
sVvdso
p1372
I01
ss(Vimage
p1373
g1359
tp1374
(dp1375
Vinstall-stem
p1376
Vvmlinux
p1377
ss(Vdescription
p1378
g1359
NVriscv64
p1379
tp1380
(dp1381
Vhardware
p1382
V64-bit RISC-V platforms
p1383
sVhardware-long
p1384
V64-bit RISC-V platforms
p1385
ss(Vbase
p1386
g1359
Vnone
p1387
tp1388
(dp1389
Vflavours
p1390
(lp1391
Vriscv64
p1392
asVdefault-flavour
p1393
Vriscv64
p1394
ss(Vbase
p1395
Vs390
p1396
tp1397
(dp1398
Vkernel-arch
p1399
Vs390
p1400
sVfeaturesets
p1401
(lp1402
ss(Vbase
p1403
Vs390x
p1404
tp1405
(dp1406
Vdefault-flavour
p1407
Vs390x
p1408
sVkernel-arch
p1409
Vs390
p1410
sg190
(lp1411
g192
ass(Vbuild
p1412
g1404
tp1413
(dp1414
Vimage-file
p1415
Varch/s390/boot/bzImage
p1416
sVvdso
p1417
I01
ss(Vimage
p1418
g1404
tp1419
(dp1420
Vbootloaders
p1421
(lp1422
Vs390-tools
p1423
asVinstall-stem
p1424
Vvmlinuz
p1425
ss(Vrelations
p1426
g1404
tp1427
(dp1428
Vheaders%gcc-11
p1429
Vlinux-compiler-gcc-11-s390
p1430
ss(Vdescription
p1431
g1404
NVs390x
p1432
tp1433
(dp1434
Vhardware
p1435
VIBM zSeries
p1436
ss(g223
g1404
g192
tp1437
(dp1438
g226
(lp1439
Vs390x
p1440
asg230
I01
ss(Vbase
p1441
Vsh3
p1442
tp1443
(dp1444
Vkernel-arch
p1445
Vsh
p1446
sVfeaturesets
p1447
(lp1448
ss(Vbase
p1449
Vsh4
p1450
tp1451
(dp1452
Vkernel-arch
p1453
Vsh
p1454
sg190
(lp1455
g192
ass(Vbuild
p1456
g1450
tp1457
(dp1458
Vimage-file
p1459
Varch/sh/boot/zImage
p1460
ss(Vimage
p1461
g1450
tp1462
(dp1463
Vinstall-stem
p1464
Vvmlinuz
p1465
ss(Vdescription
p1466
g1450
NVsh7751r
p1467
tp1468
(dp1469
Vhardware
p1470
Vsh7751r
p1471
sVhardware-long
p1472
VRenesas SH7751R R2D plus board
p1473
ss(Vdescription
p1474
g1450
NVsh7785lcr
p1475
tp1476
(dp1477
Vhardware
p1478
Vsh7785lcr
p1479
sVhardware-long
p1480
VRenesas SH7785 reference board
p1481
ss(Vimage
p1482
g1450
NVsh7785lcr
p1483
tp1484
(dp1485
Vrecommends
p1486
(lp1487
Vu-boot-tools
p1488
asVcheck-size
p1489
I4194304
ss(g223
g1450
g192
tp1490
(dp1491
g226
(lp1492
Vsh7751r
p1493
aVsh7785lcr
p1494
asg230
I01
ss(Vbase
p1495
Vsparc
p1496
tp1497
(dp1498
Vkernel-arch
p1499
Vsparc
p1500
sVfeaturesets
p1501
(lp1502
ss(Vbase
p1503
Vsparc64
p1504
tp1505
(dp1506
Vdefault-flavour
p1507
Vsparc64-smp
p1508
sVkernel-arch
p1509
Vsparc
p1510
sg190
(lp1511
g192
ass(Vbuild
p1512
g1504
tp1513
(dp1514
Vimage-file
p1515
Vvmlinux
p1516
ss(Vimage
p1517
g1504
tp1518
(dp1519
Vconfigs
p1520
(lp1521
sVbootloaders
p1522
(lp1523
Vgrub-ieee1275
p1524
asVsuggests
p1525
(lp1526
Vfdutils
p1527
asVinstall-stem
p1528
Vvmlinux
p1529
ss(Vdescription
p1530
g1504
NVsparc64
p1531
tp1532
(dp1533
Vhardware
p1534
Vuniprocessor 64-bit UltraSPARC
p1535
ss(Vimage
p1536
g1504
NVsparc64
p1537
tp1538
(dp1539
Vconfigs
p1540
(lp1541
Vkernelarch-sparc/config-up
p1542
ass(Vdescription
p1543
g1504
NVsparc64-smp
p1544
tp1545
(dp1546
Vhardware
p1547
Vmultiprocessor 64-bit UltraSPARC
p1548
ss(Vimage
p1549
g1504
NVsparc64-smp
p1550
tp1551
(dp1552
Vconfigs
p1553
(lp1554
Vkernelarch-sparc/config-smp
p1555
ass(g223
g1504
g192
tp1556
(dp1557
g226
(lp1558
Vsparc64
p1559
aVsparc64-smp
p1560
asg230
I01
ss(Vbase
p1561
Vx32
p1562
tp1563
(dp1564
Vkernel-arch
p1565
Vx86
p1566
sVfeaturesets
p1567
(lp1568
ss(Vabi
p1569
NVrt
p1570
tp1571
(dp1572
Vignore-changes
p1573
(lp1574
V*
p1575
ass(Vdescription
p1576
Ng1570
tp1577
(dp1578
Vpart-long-rt
p1579
VThis kernel includes the PREEMPT_RT realtime patch set.
p1580
sVpart-short-rt
p1581
VPREEMPT_RT
p1582
sVparts
p1583
(lp1584
Vrt
p1585
ass(Vversion
p1586
tp1587
(dp1588
Vsource
p1589
V5.16.7-2+rpi1
p1590
sVupstream
p1591
V5.16
p1592
sVabiname_base
p1593
V5.16.0
p1594
sVabiname
p1595
V5.16.0-1
p1596
ss.