ccopy_reg
_reconstructor
p0
(cdebian_linux.config
ConfigCore
p1
c__builtin__
dict
p2
(dp3
(S'image'
p4
S'amd64'
p5
tp6
(dp7
S'configs'
p8
(lp9
sS'bootloaders'
p10
(lp11
S'grub-pc'
p12
aS'extlinux'
p13
aS'lilo'
p14
ass(S'base'
p15
g5
S'none'
p16
tp17
(dp18
S'flavours'
p19
(lp20
S'amd64'
p21
ass(S'description'
p22
S'mipsel'
p23
NS'loongson-2f'
p24
tp25
(dp26
S'hardware'
p27
S'Loongson 2F'
p28
sS'hardware-long'
p29
S'Lemote Loongson 2F systems'
p30
ss(S'image'
p31
S's390'
p32
NS's390x'
p33
tp34
(dp35
S'configs'
p36
(lp37
S's390x/config.s390x'
p38
ass(S'description'
p39
g23
NS'loongson-2e'
p40
tp41
(dp42
S'hardware'
p43
S'Loongson 2E'
p44
sS'hardware-long'
p45
S'Lemote Loongson 2E systems'
p46
ss(S'image'
p47
S'ia64'
p48
tp49
(dp50
S'suggests'
p51
S'fdutils'
p52
sS'bootloaders'
p53
(lp54
S'elilo'
p55
ass(S'description'
p56
S'armel'
p57
NS'iop32x'
p58
tp59
(dp60
S'hardware'
p61
S'IOP32x'
p62
sS'hardware-long'
p63
S'IOP32x based systems (Thecus N2100, etc)'
p64
ss(S'description'
p65
S'i386'
p66
NS'686-pae'
p67
tp68
(dp69
S'hardware'
p70
S'modern PCs'
p71
sS'parts'
p72
(lp73
S'pae'
p74
asS'hardware-long'
p75
S'PCs with one or more processors supporting PAE'
p76
ss(S'version'
p77
tp78
(dp79
S'abiname'
p80
S'3.12-1'
p81
sS'source'
p82
V3.12.9-1
p83
sS'upstream'
p84
S'3.12'
p85
ss(S'description'
p86
S'mips'
p87
NS'octeon'
p88
tp89
(dp90
S'hardware'
p91
S'Octeon'
p92
sS'hardware-long'
p93
S'Cavium Networks Octeon'
p94
ss(S'description'
p95
g5
g16
S'amd64'
p96
tp97
(dp98
S'parts'
p99
(lp100
S'xen'
p101
ass(S'description'
p102
g57
NS'ixp4xx'
p103
tp104
(dp105
S'hardware'
p106
S'IXP4xx'
p107
sS'hardware-long'
p108
S'IXP4xx based systems (Linksys NSLU2, etc)'
p109
ss(S'base'
p110
S'ppc64'
p111
S'none'
p112
tp113
(dp114
S'implicit-flavour'
p115
I01
sS'flavours'
p116
(lp117
S'powerpc64'
p118
ass(S'image'
p119
S'sparc64'
p120
NS'sparc64'
p121
tp122
(dp123
S'configs'
p124
(lp125
S'sparc/config.sparc64'
p126
ass(S'image'
p127
S'armhf'
p128
NS'armmp-lpae'
p129
tp130
(dp131
S'configs'
p132
(lp133
S'armhf/config.armmp'
p134
aS'armhf/config.lpae'
p135
ass(S'base'
p136
S'alpha'
p137
tp138
(dp139
S'kernel-arch'
p140
S'alpha'
p141
sS'featuresets'
p142
(lp143
g112
ass(S'image'
p144
g66
NS'686-pae'
p145
tp146
(dp147
S'configs'
p148
(lp149
S'kernelarch-x86/config-arch-32'
p150
aS'i386/config.686-pae'
p151
asS'recommends'
p152
S'libc6-i686'
p153
ss(g110
g128
g112
tp154
(dp155
g115
I01
sg116
(lp156
S'armmp'
p157
aS'armmp-lpae'
p158
ass(S'image'
p159
g5
NS'amd64'
p160
tp161
(dp162
S'configs'
p163
(lp164
S'kernelarch-x86/config-arch-64'
p165
ass(S'base'
p166
g66
S'rt'
p167
tp168
(dp169
S'flavours'
p170
(lp171
S'686-pae'
p172
ass(S'description'
p173
g87
NS'5kc-malta'
p174
tp175
(dp176
S'hardware'
p177
S'MIPS Malta (64-bit)'
p178
sS'hardware-long'
p179
S'MIPS Malta boards (64-bit)'
p180
ss(S'relations'
p181
g66
tp182
(dp183
S'headers%gcc-4.8'
p184
S'linux-compiler-gcc-4.8-x86'
p185
ss(S'image'
p186
S'powerpc'
p187
tp188
(dp189
S'suggests'
p190
S'mkvmlinuz'
p191
ss(S'description'
p192
g32
NS's390x'
p193
tp194
(dp195
S'hardware'
p196
S'IBM zSeries'
p197
ss(S'build'
p198
g57
NS'ixp4xx'
p199
tp200
(dp201
S'image-file'
p202
S'arch/arm/boot/zImage'
p203
ss(S'description'
p204
S's390x'
p205
NS's390x'
p206
tp207
(dp208
S'hardware'
p209
S'IBM zSeries'
p210
ss(S'base'
p211
g5
S'rt'
p212
tp213
(dp214
S'flavours'
p215
(lp216
S'amd64'
p217
ass(S'image'
p218
g187
NS'powerpc-smp'
p219
tp220
(dp221
S'configs'
p222
(lp223
S'powerpc/config.powerpc'
p224
aS'powerpc/config.powerpc-smp'
p225
ass(S'build'
p226
g57
NS'mv78xx0'
p227
tp228
(dp229
S'image-file'
p230
S'arch/arm/boot/zImage'
p231
ss(S'description'
p232
g66
S'none'
p233
S'amd64'
p234
tp235
(dp236
S'parts'
p237
(lp238
S'xen'
p239
ass(S'base'
p240
S'arm64'
p241
tp242
(dp243
S'kernel-arch'
p244
S'arm64'
p245
sS'featuresets'
p246
(lp247
ss(S'base'
p248
g66
tp249
(dp250
S'kernel-arch'
p251
S'x86'
p252
sS'featuresets'
p253
(lp254
S'none'
p255
aS'rt'
p256
ass(S'base'
p257
g23
tp258
(dp259
S'kernel-arch'
p260
S'mips'
p261
sg142
(lp262
g112
ass(S'description'
p263
g57
NS'orion5x'
p264
tp265
(dp266
S'hardware'
p267
S'Marvell Orion'
p268
sS'hardware-long'
p269
S'Marvell Orion 5181, 5182 and 5281 based systems (QNAP TS-109/TS-209, etc)'
p270
ss(S'relations'
p271
g5
tp272
(dp273
S'headers%gcc-4.8'
p274
S'linux-compiler-gcc-4.8-x86'
p275
ss(S'image'
p276
S'sh4'
p277
NS'sh7785lcr'
p278
tp279
(dp280
S'check-size'
p281
S'4194304'
p282
sS'recommends'
p283
S'uboot-mkimage'
p284
ss(S'description'
p285
g187
NS'powerpc'
p286
tp287
(dp288
S'hardware'
p289
S'uniprocessor 32-bit PowerPC'
p290
ss(g110
g23
g112
tp291
(dp292
g115
I01
sg116
(lp293
S'r5k-cobalt'
p294
aS'sb1-bcm91250a'
p295
aS'sb1a-bcm91480b'
p296
aS'4kc-malta'
p297
aS'5kc-malta'
p298
aS'loongson-2e'
p299
aS'loongson-2f'
p300
ass(S'build'
p301
g277
NS'sh7751r'
p302
tp303
(dp304
S'image-file'
p305
S'arch/sh/boot/zImage'
p306
ss(S'description'
p307
S'powerpcspe'
p308
tp309
(dp310
S'hardware'
p311
S'32-bit PowerPC with SPE (instead of AltiVec) with SMP support'
p312
ss(S'relations'
p313
tp314
(dp315
S'gcc-4.8'
p316
S'gcc-4.8'
p317
sS'initramfs-fallback'
p318
S'linux-initramfs-tool'
p319
sS'gcc-4.7'
p320
S'gcc-4.7'
p321
sS'gcc-4.6'
p322
S'gcc-4.6'
p323
sS'gcc-4.4'
p324
S'gcc-4.4'
p325
sS'initramfs-tools'
p326
S'initramfs-tools (>= 0.110~)'
p327
ss(S'build'
p328
g66
NS'686-pae'
p329
tp330
(dp331
S'debug-info'
p332
I01
ss(S'image'
p333
g23
NS'4kc-malta'
p334
tp335
(dp336
S'configs'
p337
(lp338
S'mips/config.4kc-malta'
p339
ass(S'image'
p340
g137
tp341
(dp342
S'suggests'
p343
S'aboot, fdutils'
p344
ss(S'description'
p345
S'm68k'
p346
NS'm68k'
p347
tp348
(dp349
S'hardware'
p350
S'Motorola MC68020+ family'
p351
ss(S'description'
p352
g120
NS'sparc64'
p353
tp354
(dp355
S'hardware'
p356
S'uniprocessor 64-bit UltraSPARC'
p357
ss(S'base'
p358
g57
tp359
(dp360
S'kernel-arch'
p361
S'arm'
p362
sg142
(lp363
g112
ass(S'description'
p364
g48
NS'mckinley'
p365
tp366
(dp367
S'hardware'
p368
S'Itanium II'
p369
ss(S'base'
p370
S'sparc'
p371
tp372
(dp373
S'kernel-arch'
p374
S'sparc'
p375
sg142
(lp376
g112
ass(S'base'
p377
g308
tp378
(dp379
S'kernel-arch'
p380
S'powerpc'
p381
sg142
(lp382
g112
ass(g110
g32
g112
tp383
(dp384
g115
I01
sg116
(lp385
S's390x'
p386
ass(g110
g205
g112
tp387
(dp388
g115
I01
sg116
(lp389
S's390x'
p390
ass(S'base'
p391
g87
tp392
(dp393
S'kernel-arch'
p394
S'mips'
p395
sg142
(lp396
g112
ass(S'build'
p397
g5
tp398
(dp399
S'debug-info'
p400
I01
ss(S'image'
p401
g66
NS'486'
p402
tp403
(dp404
S'configs'
p405
(lp406
S'kernelarch-x86/config-arch-32'
p407
aS'i386/config.486'
p408
ass(S'image'
p409
g23
tp410
(dp411
S'initramfs'
p412
I00
ss(S'image'
p413
g23
NS'loongson-2f'
p414
tp415
(dp416
S'recommends'
p417
S'libc6-loongson2f'
p418
ss(S'description'
p419
g128
NS'armmp'
p420
tp421
(dp422
S'hardware'
p423
S'ARMv7 multiplatform compatible SoCs'
p424
sS'hardware-long'
p425
S'ARMv7 multiplatform kernel for Marvell Armada 370/xp, Freescale iMX5x/iMX6'
p426
ss(S'description'
p427
g66
NS'amd64'
p428
tp429
(dp430
S'hardware'
p431
S'64-bit PCs'
p432
sS'parts'
p433
(lp434
S'xen'
p435
asS'hardware-long'
p436
S'PCs with AMD64, Intel 64 or VIA Nano processors'
p437
ss(S'base'
p438
g5
tp439
(dp440
S'kernel-arch'
p441
S'x86'
p442
sS'featuresets'
p443
(lp444
S'none'
p445
aS'rt'
p446
ass(S'base'
p447
g48
tp448
(dp449
S'kernel-arch'
p450
S'ia64'
p451
sg142
(lp452
g112
asS'compiler'
p453
S'gcc-4.6'
p454
ss(S'image'
p455
g23
NS'sb1-bcm91250a'
p456
tp457
(dp458
S'configs'
p459
(lp460
S'mips/config.sb1-bcm91250a'
p461
ass(S'description'
p462
g120
NS'sparc64-smp'
p463
tp464
(dp465
S'hardware'
p466
S'multiprocessor 64-bit UltraSPARC'
p467
ss(S'base'
p468
g32
tp469
(dp470
S'kernel-arch'
p471
S's390'
p472
sg142
(lp473
g112
ass(g110
g57
g112
tp474
(dp475
g115
I01
sg116
(lp476
S'iop32x'
p477
aS'ixp4xx'
p478
aS'kirkwood'
p479
aS'mv78xx0'
p480
aS'orion5x'
p481
aS'versatile'
p482
ass(S'image'
p483
g111
NS'powerpc64'
p484
tp485
(dp486
S'configs'
p487
(lp488
S'powerpc/config.powerpc64'
p489
ass(S'description'
p490
S'hppa'
p491
NS'parisc'
p492
tp493
(dp494
S'hardware'
p495
S'32-bit PA-RISC'
p496
sS'hardware-long'
p497
S'HP PA-RISC 32-bit systems with max 4 GB RAM'
p498
ss(S'description'
p499
g66
tp500
(dp501
S'part-long-pae'
p502
S'This kernel requires PAE (Physical Address Extension).\nThis feature is supported by the Intel Pentium Pro/II/III/4/4M/D, Xeon,\nCore and Atom; AMD Geode NX, Athlon (K7), Duron, Opteron, Sempron,\nTurion or Phenom; Transmeta Efficeon; VIA C7; and some other processors.'
p503
ss(S'base'
p504
g66
g233
tp505
(dp506
S'flavours'
p507
(lp508
S'486'
p509
aS'686-pae'
p510
aS'amd64'
p511
ass(S'xen'
p512
g5
g16
S'amd64'
p513
tp514
(dp515
S'flavours'
p516
(lp517
S'amd64'
p518
ass(S'image'
p519
g57
tp520
(dp521
S'suggests'
p522
S'fdutils'
p523
ss(S'image'
p524
g32
tp525
(dp526
S'configs'
p527
(lp528
S's390x/config'
p529
asS'bootloaders'
p530
(lp531
S's390-tools'
p532
ass(S'relations'
p533
g32
tp534
(dp535
S'headers%gcc-4.8'
p536
S'linux-compiler-gcc-4.8-s390'
p537
ss(S'relations'
p538
g57
tp539
(dp540
S'headers%gcc-4.8'
p541
S'linux-compiler-gcc-4.8-arm'
p542
ss(S'image'
p543
g491
tp544
(dp545
S'suggests'
p546
S'palo'
p547
ss(S'image'
p548
g308
tp549
(dp550
S'suggests'
p551
S'mkvmlinuz'
p552
sS'configs'
p553
(lp554
S'powerpc/config'
p555
aS'powerpcspe/config.powerpcspe'
p556
ass(S'relations'
p557
g491
tp558
(dp559
S'gcc-4.8'
p560
S'gcc-4.8, binutils-hppa64, gcc-4.8-hppa64'
p561
ss(S'description'
p562
g371
NS'sparc64-smp'
p563
tp564
(dp565
S'hardware'
p566
S'multiprocessor 64-bit UltraSPARC'
p567
ss(S'build'
p568
g205
NS's390x'
p569
tp570
(dp571
S'debug-info'
p572
I01
ss(S'description'
p573
g57
NS'mv78xx0'
p574
tp575
(dp576
S'hardware'
p577
S'Marvell 78xx0'
p578
sS'hardware-long'
p579
S'Marvell DB-78xx0-BP Development Board'
p580
ss(S'image'
p581
g57
NS'iop32x'
p582
tp583
(dp584
S'check-size'
p585
S'1441784'
p586
sS'configs'
p587
(lp588
S'armel/config-reduced'
p589
aS'armel/config-tiny'
p590
aS'armel/config.iop32x'
p591
ass(S'description'
p592
g23
NS'5kc-malta'
p593
tp594
(dp595
S'hardware'
p596
S'MIPS Malta (64-bit)'
p597
sS'hardware-long'
p598
S'MIPS Malta boards (64-bit)'
p599
ss(g110
g491
g112
tp600
(dp601
g115
I01
sg116
(lp602
S'parisc'
p603
aS'parisc64-smp'
p604
ass(S'image'
p605
g23
NS'5kc-malta'
p606
tp607
(dp608
S'configs'
p609
(lp610
S'mips/config.5kc-malta'
p611
ass(S'image'
p612
g57
NS'ixp4xx'
p613
tp614
(dp615
S'check-size'
p616
S'1441760'
p617
sS'configs'
p618
(lp619
S'armel/config-reduced'
p620
aS'armel/config-tiny'
p621
aS'armel/config.ixp4xx'
p622
ass(S'description'
p623
g87
NS'r5k-ip32'
p624
tp625
(dp626
S'hardware'
p627
S'SGI IP32'
p628
sS'hardware-long'
p629
S'SGI IP32 systems (O2)'
p630
ss(S'base'
p631
g120
tp632
(dp633
S'kernel-arch'
p634
S'sparc'
p635
sg142
(lp636
g112
ass(S'base'
p637
g205
tp638
(dp639
S'kernel-arch'
p640
S's390'
p641
sg142
(lp642
g112
ass(S'description'
p643
g87
NS'sb1a-bcm91480b'
p644
tp645
(dp646
S'hardware'
p647
S'BCM91480B'
p648
sS'hardware-long'
p649
S'Broadcom BCM91480B systems (aka BigSur)'
p650
ss(S'description'
p651
g57
NS'kirkwood'
p652
tp653
(dp654
S'hardware'
p655
S'Marvell Kirkwood'
p656
sS'hardware-long'
p657
S'Marvell Kirkwood based systems (SheevaPlug, QNAP TS-119/TS-219, etc)'
p658
ss(S'description'
p659
g23
NS'r5k-cobalt'
p660
tp661
(dp662
S'hardware'
p663
S'Cobalt'
p664
sS'hardware-long'
p665
S'Cobalt systems (Qube, RaQ, Qube2, RaQ2)'
p666
ss(S'image'
p667
g111
tp668
(dp669
S'suggests'
p670
S'mkvmlinuz'
p671
sS'configs'
p672
(lp673
S'powerpc/config'
p674
ass(S'image'
p675
g87
tp676
(dp677
S'initramfs'
p678
I00
ss(S'image'
p679
g66
tp680
(dp681
S'configs'
p682
(lp683
sS'bootloaders'
p684
(lp685
S'grub-pc'
p686
aS'extlinux'
p687
aS'lilo'
p688
ass(g110
g371
g112
tp689
(dp690
g115
I01
sg116
(lp691
S'sparc64'
p692
aS'sparc64-smp'
p693
ass(S'base'
p694
g491
NS'parisc64-smp'
p695
tp696
(dp697
S'override-host-type'
p698
S'hppa64-linux-gnu'
p699
sS'cflags'
p700
S'-fno-cse-follow-jumps'
p701
ss(g110
g87
g112
tp702
(dp703
g115
I01
sg116
(lp704
S'r4k-ip22'
p705
aS'r5k-ip32'
p706
aS'sb1-bcm91250a'
p707
aS'sb1a-bcm91480b'
p708
aS'4kc-malta'
p709
aS'5kc-malta'
p710
aS'octeon'
p711
ass(S'description'
p712
g66
g233
S'686-pae'
p713
tp714
(dp715
S'parts'
p716
(lp717
S'xen'
p718
ass(g110
g48
g112
tp719
(dp720
g115
I01
sg116
(lp721
S'itanium'
p722
aS'mckinley'
p723
ass(S'base'
p724
g111
tp725
(dp726
S'kernel-arch'
p727
S'powerpc'
p728
sg142
(lp729
g112
ass(S'description'
p730
g66
NS'486'
p731
tp732
(dp733
S'hardware'
p734
S'older PCs'
p735
sS'parts'
p736
(lp737
S'up'
p738
asS'hardware-long'
p739
S'PCs with a single processor not supporting PAE'
p740
ss(S'image'
p741
g120
NS'sparc64-smp'
p742
tp743
(dp744
S'configs'
p745
(lp746
S'sparc/config.sparc64-smp'
p747
ass(S'description'
p748
g277
NS'sh7751r'
p749
tp750
(dp751
S'hardware'
p752
S'sh7751r'
p753
sS'hardware-long'
p754
S'Renesas SH7751R R2D plus board'
p755
ss(g110
g277
g112
tp756
(dp757
g115
I01
sg116
(lp758
S'sh7751r'
p759
aS'sh7785lcr'
p760
ass(S'description'
p761
g57
NS'versatile'
p762
tp763
(dp764
S'hardware'
p765
S'Versatile'
p766
sS'hardware-long'
p767
S'Versatile systems (PB, AB, Qemu)'
p768
ss(S'description'
p769
g371
NS'sparc64'
p770
tp771
(dp772
S'hardware'
p773
S'uniprocessor 64-bit UltraSPARC'
p774
ss(S'base'
p775
S'x32'
p776
tp777
(dp778
S'kernel-arch'
p779
S'x86'
p780
sS'featuresets'
p781
(lp782
ss(S'image'
p783
g346
tp784
(dp785
S'suggests'
p786
S'vmelilo, fdutils'
p787
ss(S'image'
p788
g23
NS'sb1a-bcm91480b'
p789
tp790
(dp791
S'configs'
p792
(lp793
S'mips/config.sb1a-bcm91480b'
p794
ass(S'build'
p795
g57
NS'kirkwood'
p796
tp797
(dp798
S'image-file'
p799
S'arch/arm/boot/zImage'
p800
ss(S'description'
p801
g187
NS'powerpc-smp'
p802
tp803
(dp804
S'hardware'
p805
S'multiprocessor 32-bit PowerPC'
p806
ss(S'base'
p807
g128
tp808
(dp809
S'kernel-arch'
p810
S'arm'
p811
sg142
(lp812
g112
ass(S'build'
p813
g32
NS's390x'
p814
tp815
(dp816
S'debug-info'
p817
I01
ss(S'description'
p818
g277
NS'sh7785lcr'
p819
tp820
(dp821
S'hardware'
p822
S'sh7785lcr'
p823
sS'hardware-long'
p824
S'Renesas SH7785 reference board'
p825
ss(S'image'
p826
g277
tp827
(dp828
S'suggests'
p829
S'fdutils'
p830
ss(S'base'
p831
g491
tp832
(dp833
S'kernel-arch'
p834
S'parisc'
p835
sg142
(lp836
g112
ass(S'base'
p837
g277
tp838
(dp839
S'kernel-arch'
p840
S'sh'
p841
sg142
(lp842
g112
asS'compiler'
p843
S'gcc-4.7'
p844
ss(S'image'
p845
g57
NS'kirkwood'
p846
tp847
(dp848
S'check-size'
p849
S'2097080'
p850
sS'recommends'
p851
S'uboot-mkimage'
p852
ss(S'image'
p853
g371
NS'sparc32'
p854
tp855
(dp856
S'image-postproc'
p857
S'sparc32-image-postproc'
p858
ss(S'image'
p859
g371
tp860
(dp861
S'suggests'
p862
S'silo, fdutils'
p863
ss(S'description'
p864
tp865
(dp866
S'part-long-up'
p867
S'This kernel is not suitable for SMP (multi-processor,\nmulti-core or hyper-threaded) systems.'
p868
sS'part-long-xen'
p869
S'This kernel also runs on a Xen hypervisor.\nIt supports both privileged (dom0) and unprivileged (domU) operation.'
p870
ss(S'base'
p871
NS'rt'
p872
tp873
(dp874
S'enabled'
p875
I01
ss(S'relations'
p876
g128
tp877
(dp878
S'headers%gcc-4.8'
p879
S'linux-compiler-gcc-4.8-arm'
p880
ss(S'description'
p881
g137
NS'alpha-smp'
p882
tp883
(dp884
S'hardware'
p885
S'Alpha SMP'
p886
sS'hardware-long'
p887
S'DEC Alpha SMP systems with extended kernel start address (Wildfire, Titan, Marvel)'
p888
ss(S'description'
p889
g23
NS'sb1-bcm91250a'
p890
tp891
(dp892
S'hardware'
p893
S'BCM91250A'
p894
sS'hardware-long'
p895
S'Broadcom BCM91250A systems (aka SWARM)'
p896
ss(S'image'
p897
g120
tp898
(dp899
S'suggests'
p900
S'silo, fdutils'
p901
sS'configs'
p902
(lp903
S'sparc/config'
p904
ass(S'image'
p905
g66
NS'amd64'
p906
tp907
(dp908
S'configs'
p909
(lp910
S'kernelarch-x86/config-arch-64'
p911
asS'recommends'
p912
S'libc6-i686'
p913
ss(S'relations'
p914
g205
tp915
(dp916
S'headers%gcc-4.8'
p917
S'linux-compiler-gcc-4.8-s390'
p918
ss(S'base'
p919
g187
tp920
(dp921
S'kernel-arch'
p922
S'powerpc'
p923
sg142
(lp924
g112
ass(S'description'
p925
g137
NS'alpha-generic'
p926
tp927
(dp928
S'hardware'
p929
S'Alpha'
p930
sS'hardware-long'
p931
S'DEC Alpha systems with extended kernel start address (Wildfire, Titan, Marvel)'
p932
ss(S'build'
p933
g128
NS'armmp'
p934
tp935
(dp936
S'image-file'
p937
S'arch/arm/boot/zImage'
p938
ss(S'build'
p939
g277
NS'sh7785lcr'
p940
tp941
(dp942
S'image-file'
p943
S'arch/sh/boot/zImage'
p944
ss(S'description'
p945
g87
NS'sb1-bcm91250a'
p946
tp947
(dp948
S'hardware'
p949
S'BCM91250A'
p950
sS'hardware-long'
p951
S'Broadcom BCM91250A systems (aka SWARM)'
p952
ss(S'image'
p953
g57
NS'orion5x'
p954
tp955
(dp956
S'check-size'
p957
S'1572792'
p958
sS'configs'
p959
(lp960
S'armel/config-reduced'
p961
aS'armel/config.orion5x'
p962
asS'recommends'
p963
S'uboot-mkimage'
p964
ss(S'description'
p965
g371
NS'sparc32'
p966
tp967
(dp968
S'hardware'
p969
S'uniprocessor sparc32 (sun4m)'
p970
ss(S'description'
p971
g128
NS'armmp-lpae'
p972
tp973
(dp974
S'hardware'
p975
S'ARMv7 multiplatform compatible SoCs supporting LPAE'
p976
sS'hardware-long'
p977
S'ARMv7 multiplatform kernel supporting LPAE'
p978
ss(S'build'
p979
g128
NS'armmp-lpae'
p980
tp981
(dp982
S'image-file'
p983
S'arch/arm/boot/zImage'
p984
ss(S'image'
p985
g128
tp986
(dp987
S'suggests'
p988
S'fdutils'
p989
sS'configs'
p990
(lp991
S'armel/config'
p992
aS'armhf/config'
p993
ass(S'abi'
p994
tp995
(dp996
S'abiname'
p997
S'1'
p998
sS'ignore-changes'
p999
(lp1000
S'module:drivers/target/*'
p1001
aS'module:drivers/scsi/qla2xxx/*'
p1002
aS'sysctl_tcp_dma_copybreak'
p1003
ass(g110
g308
g112
tp1004
(dp1005
g115
I01
sg116
(lp1006
S'powerpcspe'
p1007
ass(S'build'
p1008
g57
NS'orion5x'
p1009
tp1010
(dp1011
S'image-file'
p1012
S'arch/arm/boot/zImage'
p1013
ss(g110
g346
g112
tp1014
(dp1015
g115
I01
sg116
(lp1016
S'm68k'
p1017
ass(S'build'
p1018
g57
NS'iop32x'
p1019
tp1020
(dp1021
S'image-file'
p1022
S'arch/arm/boot/zImage'
p1023
ss(S'description'
p1024
g187
NS'powerpc64'
p1025
tp1026
(dp1027
S'hardware'
p1028
S'64-bit PowerPC'
p1029
ss(S'base'
p1030
tp1031
(dp1032
S'arches'
p1033
(lp1034
S'alpha'
p1035
aS'amd64'
p1036
aS'arm64'
p1037
aS'armel'
p1038
aS'armhf'
p1039
aS'hppa'
p1040
aS'i386'
p1041
aS'ia64'
p1042
aS'm68k'
p1043
aS'mips'
p1044
aS'mipsel'
p1045
aS'powerpc'
p1046
aS'powerpcspe'
p1047
aS'ppc64'
p1048
aS's390'
p1049
aS's390x'
p1050
aS'sh4'
p1051
aS'sparc'
p1052
aS'sparc64'
p1053
aS'x32'
p1054
asS'featuresets'
p1055
(lp1056
S'none'
p1057
aS'rt'
p1058
asS'compiler'
p1059
S'gcc-4.8'
p1060
ss(S'description'
p1061
g87
NS'4kc-malta'
p1062
tp1063
(dp1064
S'hardware'
p1065
S'MIPS Malta'
p1066
sS'hardware-long'
p1067
S'MIPS Malta boards'
p1068
ss(g110
g187
g112
tp1069
(dp1070
g115
I01
sg116
(lp1071
S'powerpc'
p1072
aS'powerpc-smp'
p1073
aS'powerpc64'
p1074
ass(S'base'
p1075
g346
tp1076
(dp1077
S'kernel-arch'
p1078
S'm68k'
p1079
sg142
(lp1080
g112
asS'cflags'
p1081
S'-ffreestanding'
p1082
sS'compiler'
p1083
S'gcc-4.8'
p1084
ss(S'image'
p1085
tp1086
(dp1087
S'initramfs-generators'
p1088
(lp1089
S'initramfs-tools'
p1090
aS'initramfs-fallback'
p1091
asS'type'
p1092
S'plain'
p1093
ss(S'description'
p1094
g137
NS'alpha-legacy'
p1095
tp1096
(dp1097
S'hardware'
p1098
S'Alpha Legacy'
p1099
sS'hardware-long'
p1100
S'DEC Alpha systems with legacy kernel start address'
p1101
ss(S'abi'
p1102
NS'rt'
p1103
tp1104
(dp1105
S'ignore-changes'
p1106
(lp1107
S'*'
p1108
ass(S'description'
p1109
g23
NS'4kc-malta'
p1110
tp1111
(dp1112
S'hardware'
p1113
S'MIPS Malta'
p1114
sS'hardware-long'
p1115
S'MIPS Malta boards'
p1116
ss(g110
g120
g112
tp1117
(dp1118
g115
I01
sg116
(lp1119
S'sparc64'
p1120
aS'sparc64-smp'
p1121
ass(S'description'
p1122
g5
NS'amd64'
p1123
tp1124
(dp1125
S'hardware'
p1126
S'64-bit PCs'
p1127
sS'hardware-long'
p1128
S'PCs with AMD64, Intel 64 or VIA Nano processors'
p1129
ss(S'description'
p1130
g111
NS'powerpc64'
p1131
tp1132
(dp1133
S'hardware'
p1134
S'64-bit PowerPC'
p1135
ss(S'description'
p1136
g491
NS'parisc64-smp'
p1137
tp1138
(dp1139
S'hardware'
p1140
S'multiprocessor 64-bit PA-RISC'
p1141
sS'hardware-long'
p1142
S'HP PA-RISC 64-bit SMP systems with support for more than 4 GB RAM'
p1143
ss(S'description'
p1144
g87
NS'r4k-ip22'
p1145
tp1146
(dp1147
S'hardware'
p1148
S'SGI IP22'
p1149
sS'hardware-long'
p1150
S'SGI IP22 systems (Indy, Indigo2)'
p1151
ss(S'description'
p1152
g23
NS'sb1a-bcm91480b'
p1153
tp1154
(dp1155
S'hardware'
p1156
S'BCM91480B'
p1157
sS'hardware-long'
p1158
S'Broadcom BCM91480B systems (aka BigSur)'
p1159
ss(S'image'
p1160
g205
tp1161
(dp1162
S'bootloaders'
p1163
(lp1164
S's390-tools'
p1165
ass(g110
g137
g112
tp1166
(dp1167
g115
I01
sg116
(lp1168
S'alpha-generic'
p1169
aS'alpha-smp'
p1170
aS'alpha-legacy'
p1171
ass(S'description'
p1172
Ng1103
tp1173
(dp1174
S'part-long-rt'
p1175
S'This kernel includes the PREEMPT_RT realtime patch set.'
p1176
sS'parts'
p1177
(lp1178
S'rt'
p1179
asS'part-short-rt'
p1180
S'PREEMPT_RT'
p1181
ss(S'description'
p1182
g48
NS'itanium'
p1183
tp1184
(dp1185
S'hardware'
p1186
S'Itanium'
p1187
sstp1188
Rp1189
.