cdebian_linux.config
ConfigCore
p0
(tRp1
(Vabi
p2
tp3
(dp4
Vabiname
p5
V3
p6
sVignore-changes
p7
(lp8
V__cpuhp_*
p9
aVbpf_analyzer
p10
aVcxl_*
p11
aVdax_flush
p12
aVieee80211_nullfunc_get
p13
aVinet_add_protocol
p14
aVinet_del_protocol
p15
aViommu_device_*
p16
aVmm_iommu_*
p17
aVmv_mbus_*
p18
aVperf_*
p19
aVregister_cxl_calls
p20
aVregister_key_type
p21
aVunregister_cxl_calls
p22
aV*_hw_breakpoint
p23
aVmodule:drivers/crypto/ccp/*
p24
aVmodule:drivers/hv/*
p25
aVmodule:drivers/gpu/drm/sun4i/*
p26
aVmodule:drivers/iio/**
p27
aVmodule:drivers/misc/cxl/*
p28
aVmodule:drivers/mtd/nand/*
p29
aVmodule:drivers/net/ethernet/**
p30
aVmodule:drivers/net/wireless/**
p31
aVmodule:drivers/nvdimm/*
p32
aVmodule:drivers/nvme/**
p33
aVmodule:drivers/power/supply/bq27xxx_battery
p34
aVmodule:drivers/scsi/cxgbi/*
p35
aVmodule:drivers/scsi/libiscs*
p36
aVmodule:drivers/scsi/qla2xxx/qla2xxx
p37
aVmodule:drivers/scsi/ufs/*
p38
aVmodule:drivers/target/**
p39
aVmodule:drivers/usb/chipidea/**
p40
aVmodule:drivers/usb/gadget/**
p41
aVmodule:drivers/usb/host/**
p42
aVmodule:drivers/usb/musb/**
p43
aVmodule:fs/nfs/**
p44
aVmodule:net/ceph/libceph
p45
aVmodule:net/l2tp/**
p46
aVmodule:net/rxrpc/rxrpc
p47
aVmodule:net/sctp/**
p48
aVmodule:sound/core/seq/**
p49
aVmodule:sound/firewire/snd-firewire-lib
p50
aVmodule:sound/pci/hda/*
p51
aVbtree_*
p52
aVvisitor*
p53
aVcan_rx_register
p54
aVip6_xmit
p55
aVmodule:net/dccp/dccp
p56
aVmodule:net/rds/rds
p57
aVdevfreq_*
p58
aVdevm_devfreq_*
p59
aVupdate_devfreq
p60
aVmodule:drivers/infiniband/**
p61
aVacpi_ec_add_query_handler
p62
aVacpi_ec_remove_query_handler
p63
aVfirst_ec
p64
aVdebugfs_create_automount
p65
aVmodule:drivers/iio/imu/inv_mpu6050/*
p66
aVdrm_crtc_accurate_vblank_count
p67
aVacpi_nfit_desc_init
p68
aVacpi_nfit_init
p69
aVloop_register_transfer
p70
aVxen_xlate_*
p71
aVnf_nat_masquerade_ipv4_register_notifier
p72
aVnf_nat_masquerade_ipv6_register_notifier
p73
aVdfltcc_*
p74
aVmodule:drivers/scsi/hisi_sas/*
p75
aV__gfn_*
p76
aV__kvmhv_*
p77
aV__kvm_*
p78
aV__xive_vm_h_*
p79
aVgfn_*
p80
aVh_ipi_redirect
p81
aVhalt_poll_ns*
p82
aVkvm_*
p83
aVkvmhv_*
p84
aVkvmppc_*
p85
aVmark_page_dirty
p86
aVvcpu_*
p87
aVmodule:arch/powerpc/kvm/*
p88
aVmodule:arch/s390/kvm/*
p89
aVmodule:arch/x86/kvm/*
p90
ass(Vbase
p91
tp92
(dp93
Varches
p94
(lp95
Valpha
p96
aVamd64
p97
aVarm64
p98
aVarm64ilp32
p99
aVarmel
p100
aVarmhf
p101
aVhppa
p102
aVi386
p103
aVia64
p104
aVm68k
p105
aVmips
p106
aVmips64
p107
aVmips64el
p108
aVmips64r6
p109
aVmips64r6el
p110
aVmipsel
p111
aVmipsn32
p112
aVmipsn32el
p113
aVmipsn32r6
p114
aVmipsn32r6el
p115
aVmipsr6
p116
aVmipsr6el
p117
aVpowerpc
p118
aVppc64
p119
aVppc64el
p120
aVriscv64
p121
aVs390
p122
aVs390x
p123
aVsh3
p124
aVsh4
p125
aVsparc
p126
aVsparc64
p127
aVx32
p128
asVcompiler
p129
Vgcc-10
p130
sVfeaturesets
p131
(lp132
Vnone
p133
aVrt
p134
ass(Vbuild
p135
tp136
(dp137
Vdebug-info
p138
I01
sVsigned-code
p139
I00
ss(Vbase
p140
NVrt
p141
tp142
(dp143
Venabled
p144
I01
ss(Vdescription
p145
tp146
(dp147
Vpart-long-up
p148
VThis kernel is not suitable for SMP (multi-processor,\u000amulti-core or hyper-threaded) systems.
p149
ss(Vimage
p150
tp151
(dp152
Vinitramfs-generators
p153
(lp154
Vinitramfs-tools
p155
aVinitramfs-fallback
p156
asVbreaks
p157
(lp158
Vwireless-regdb (<< 2019.06.03-1~)
p159
asVrecommends
p160
(lp161
Vapparmor
p162
ass(Vrelations
p163
tp164
(dp165
Vgcc-10
p166
Vgcc-10 <!stage1 !cross !pkg.linux.nokernel>, gcc-10-@gnu-type-package@ <!stage1 cross !pkg.linux.nokernel>
p167
sVinitramfs-fallback
p168
Vlinux-initramfs-tool
p169
sVinitramfs-tools
p170
Vinitramfs-tools (>= 0.120+deb8u2)
p171
ss(Vbase
p172
Valpha
p173
tp174
(dp175
Vdefault-flavour
p176
Valpha-smp
p177
sVkernel-arch
p178
Valpha
p179
sVfeaturesets
p180
(lp181
Vnone
p182
ass(Vbuild
p183
g173
tp184
(dp185
Vimage-file
p186
Varch/alpha/boot/vmlinux.gz
p187
ss(Vimage
p188
g173
tp189
(dp190
Vsuggests
p191
(lp192
Vaboot
p193
aVfdutils
p194
asVinstall-stem
p195
Vvmlinuz
p196
ss(Vdescription
p197
g173
NValpha-generic
p198
tp199
(dp200
Vhardware
p201
VAlpha
p202
sVhardware-long
p203
VDEC Alpha systems with extended kernel start address (Wildfire, Titan, Marvel)
p204
ss(Vdescription
p205
g173
NValpha-smp
p206
tp207
(dp208
Vhardware
p209
VAlpha SMP
p210
sVhardware-long
p211
VDEC Alpha SMP systems with extended kernel start address (Wildfire, Titan, Marvel)
p212
ss(Vbase
p213
g173
g182
tp214
(dp215
Vflavours
p216
(lp217
Valpha-generic
p218
aValpha-smp
p219
asVimplicit-flavour
p220
I01
ss(Vbase
p221
Vamd64
p222
tp223
(dp224
Vfeaturesets
p225
(lp226
Vnone
p227
aVrt
p228
asVkernel-arch
p229
Vx86
p230
ss(Vbuild
p231
g222
tp232
(dp233
Vimage-file
p234
Varch/x86/boot/bzImage
p235
sVsigned-code
p236
I01
sVvdso
p237
I01
ss(Vimage
p238
g222
tp239
(dp240
Vbootloaders
p241
(lp242
Vgrub-pc
p243
aVgrub-efi-amd64
p244
aVextlinux
p245
asVinstall-stem
p246
Vvmlinuz
p247
sVbreaks
p248
(lp249
Vxserver-xorg-input-vmmouse (<< 1:13.0.99)
p250
ass(Vrelations
p251
g222
tp252
(dp253
Vheaders%gcc-10
p254
Vlinux-compiler-gcc-10-x86
p255
ss(Vdescription
p256
g222
NVamd64
p257
tp258
(dp259
Vhardware
p260
V64-bit PCs
p261
sVhardware-long
p262
VPCs with AMD64, Intel 64 or VIA Nano processors
p263
ss(Vdescription
p264
g222
NVcloud-amd64
p265
tp266
(dp267
Vhardware
p268
Vx86-64 cloud
p269
sVhardware-long
p270
Vcloud platforms including Amazon EC2, Microsoft Azure, and Google Compute Engine
p271
ss(Vbase
p272
g222
Vnone
p273
tp274
(dp275
Vflavours
p276
(lp277
Vamd64
p278
aVcloud-amd64
p279
asVdefault-flavour
p280
Vamd64
p281
ss(Vimage
p282
g222
g273
Vcloud-amd64
p283
tp284
(dp285
Vconfigs
p286
(lp287
Vconfig.cloud
p288
aVamd64/config.cloud-amd64
p289
ass(Vbase
p290
g222
Vrt
p291
tp292
(dp293
Vflavours
p294
(lp295
Vamd64
p296
ass(Vbase
p297
Varm64
p298
tp299
(dp300
Vcross-compile-compat
p301
Varm-linux-gnueabihf-
p302
sVkernel-arch
p303
Varm64
p304
sVfeaturesets
p305
(lp306
Vnone
p307
aVrt
p308
ass(Vbuild
p309
g298
tp310
(dp311
Vimage-file
p312
Varch/arm64/boot/Image
p313
sVsigned-code
p314
I01
sVvdso
p315
I01
ss(Vimage
p316
g298
tp317
(dp318
Vinstall-stem
p319
Vvmlinuz
p320
sVbreaks
p321
(lp322
Vlibmozjs185-1.0
p323
aVlibmozjs-24-0 (<< 24.2.0-5.1~)
p324
ass(Vdescription
p325
g298
NVarm64
p326
tp327
(dp328
Vhardware
p329
V64-bit ARMv8 machines
p330
ss(Vdescription
p331
g298
NVcloud-arm64
p332
tp333
(dp334
Vhardware
p335
Varm64 cloud
p336
sVhardware-long
p337
Vcloud platforms supporting arm64 virtual machines
p338
ss(Vimage
p339
g298
NVarm64
p340
tp341
(dp342
s(Vrelations
p343
g298
tp344
(dp345
Vgcc-10
p346
Vgcc-10 <!stage1 !cross !pkg.linux.nokernel>, gcc-10-aarch64-linux-gnu <!stage1 cross !pkg.linux.nokernel>, gcc-arm-linux-gnueabihf <!stage1 !pkg.linux.nokernel>
p347
sVheaders%gcc-10
p348
Vgcc-10
p349
ss(Vbase
p350
g298
Vnone
p351
tp352
(dp353
Vflavours
p354
(lp355
Varm64
p356
aVcloud-arm64
p357
asVdefault-flavour
p358
Varm64
p359
ss(Vimage
p360
g298
g351
Vcloud-arm64
p361
tp362
(dp363
Vconfigs
p364
(lp365
Vconfig.cloud
p366
aVarm64/config.cloud-arm64
p367
ass(Vbase
p368
g298
Vrt
p369
tp370
(dp371
Vflavours
p372
(lp373
Varm64
p374
ass(Vbase
p375
Varm64ilp32
p376
tp377
(dp378
Vkernel-arch
p379
Varm64
p380
sVfeaturesets
p381
(lp382
ss(Vbase
p383
Varmel
p384
tp385
(dp386
Vkernel-arch
p387
Varm
p388
sg180
(lp389
g182
ass(Vbuild
p390
g384
tp391
(dp392
Vimage-file
p393
Varch/arm/boot/zImage
p394
sVuncompressed-image-file
p395
Varch/arm/boot/Image
p396
ss(Vimage
p397
g384
tp398
(dp399
Vinstall-stem
p400
Vvmlinuz
p401
ss(Vrelations
p402
g384
tp403
(dp404
Vheaders%gcc-10
p405
Vlinux-compiler-gcc-10-arm
p406
ss(Vdescription
p407
g384
NVmarvell
p408
tp409
(dp410
Vhardware
p411
VMarvell Kirkwood/Orion
p412
sVhardware-long
p413
VMarvell Kirkwood and Orion based systems (https://wiki.debian.org/ArmEabiPort#Supported_hardware)
p414
ss(Vdescription
p415
g384
NVrpi
p416
tp417
(dp418
Vhardware
p419
VRaspberry Pi and Pi Zero
p420
sVhardware-long
p421
VRaspberry Pi, Raspberry Pi Zero based systems
p422
ss(Vimage
p423
g384
NVmarvell
p424
tp425
(dp426
Vrecommends
p427
(lp428
Vu-boot-tools
p429
asVcheck-size
p430
I2729712
sVcheck-size-with-dtb
p431
I01
sVbreaks
p432
(lp433
Vflash-kernel (<< 3.57~)
p434
ass(g213
g384
g182
tp435
(dp436
g216
(lp437
Vmarvell
p438
aVrpi
p439
asg220
I01
ss(Vbase
p440
Varmhf
p441
tp442
(dp443
Vfeaturesets
p444
(lp445
sVkernel-arch
p446
Varm
p447
ss(Vbase
p448
Vhppa
p449
tp450
(dp451
Vdefault-flavour
p452
Vparisc
p453
sVkernel-arch
p454
Vparisc
p455
sg180
(lp456
g182
ass(Vbuild
p457
g449
tp458
(dp459
Vimage-file
p460
Varch/parisc/boot/bzImage
p461
sVdebug-info
p462
I00
ss(Vimage
p463
g449
tp464
(dp465
Vsuggests
p466
(lp467
Vpalo
p468
asVinstall-stem
p469
Vvmlinuz
p470
ss(Vdescription
p471
g449
NVparisc
p472
tp473
(dp474
Vhardware
p475
V32-bit PA-RISC
p476
sVhardware-long
p477
VHP PA-RISC 32-bit systems with max 4 GB RAM
p478
ss(Vbase
p479
g449
NVparisc64
p480
tp481
(dp482
Vcflags
p483
V-fno-cse-follow-jumps
p484
sVoverride-host-type
p485
Vhppa64-linux-gnu
p486
ss(Vdescription
p487
g449
NVparisc64
p488
tp489
(dp490
Vhardware
p491
V64-bit PA-RISC
p492
sVhardware-long
p493
VHP PA-RISC 64-bit systems with support for more than 4 GB RAM
p494
ss(Vrelations
p495
g449
tp496
(dp497
Vgcc-10
p498
Vgcc-10 <!stage1 !cross !pkg.linux.nokernel>, gcc-10-hppa-linux-gnu <!stage1 cross !pkg.linux.nokernel>, binutils-hppa64-linux-gnu <!stage1 !pkg.linux.nokernel>, gcc-10-hppa64-linux-gnu <!stage1 !pkg.linux.nokernel>
p499
ss(g213
g449
g182
tp500
(dp501
g216
(lp502
Vparisc
p503
aVparisc64
p504
asg220
I01
ss(Vbase
p505
Vi386
p506
tp507
(dp508
Vfeaturesets
p509
(lp510
Vnone
p511
aVrt
p512
asVkernel-arch
p513
Vx86
p514
ss(Vbuild
p515
g506
tp516
(dp517
Vimage-file
p518
Varch/x86/boot/bzImage
p519
sVsigned-code
p520
I01
sVvdso
p521
I01
ss(Vdescription
p522
g506
tp523
(dp524
Vpart-long-pae
p525
VThis kernel requires PAE (Physical Address Extension).\u000aThis feature is supported by the Intel Pentium Pro/II/III/4/4M/D, Xeon,\u000aCore and Atom; AMD Geode NX, Athlon (K7), Duron, Opteron, Sempron,\u000aTurion or Phenom; Transmeta Efficeon; VIA C7; and some other processors.
p526
ss(Vimage
p527
g506
tp528
(dp529
Vbootloaders
p530
(lp531
Vgrub-pc
p532
aVgrub-efi-ia32
p533
aVextlinux
p534
asVinstall-stem
p535
Vvmlinuz
p536
sVbreaks
p537
(lp538
Vxserver-xorg-input-vmmouse (<< 1:13.0.99)
p539
ass(Vrelations
p540
g506
tp541
(dp542
Vheaders%gcc-10
p543
Vlinux-compiler-gcc-10-x86
p544
ss(Vdescription
p545
g506
NV686
p546
tp547
(dp548
Vhardware
p549
Volder PCs
p550
sVhardware-long
p551
VPCs with one or more processors not supporting PAE
p552
ss(Vdescription
p553
g506
NV686-pae
p554
tp555
(dp556
Vhardware
p557
Vmodern PCs
p558
sVhardware-long
p559
VPCs with one or more processors supporting PAE
p560
sVparts
p561
(lp562
Vpae
p563
ass(Vbase
p564
g506
Vnone
p565
tp566
(dp567
Vflavours
p568
(lp569
V686
p570
aV686-pae
p571
asVdefault-flavour
p572
V686-pae
p573
ss(Vbase
p574
g506
Vrt
p575
tp576
(dp577
Vflavours
p578
(lp579
V686-pae
p580
ass(Vbase
p581
Via64
p582
tp583
(dp584
Vdefault-flavour
p585
Vitanium
p586
sVkernel-arch
p587
Via64
p588
sg180
(lp589
g182
ass(Vbuild
p590
g582
tp591
(dp592
Vimage-file
p593
Vvmlinux.gz
p594
ss(Vimage
p595
g582
tp596
(dp597
Vbootloaders
p598
(lp599
Vgrub-efi-ia64
p600
asVinstall-stem
p601
Vvmlinuz
p602
ss(Vdescription
p603
g582
NVitanium
p604
tp605
(dp606
Vhardware
p607
VItanium (Merced)
p608
sVhardware-long
p609
Vsystems with original Itanium (Merced) processors
p610
ss(Vdescription
p611
g582
NVmckinley
p612
tp613
(dp614
Vhardware
p615
VItanium 2+
p616
sVhardware-long
p617
Vsystems with Itanium 2 or 9300/9500/9700-series processors
p618
ss(g213
g582
g182
tp619
(dp620
g216
(lp621
Vitanium
p622
aVmckinley
p623
asg220
I01
ss(Vbase
p624
Vm68k
p625
tp626
(dp627
Vcflags
p628
V-ffreestanding
p629
sVdefault-flavour
p630
Vm68k
p631
sVkernel-arch
p632
Vm68k
p633
sg180
(lp634
g182
ass(Vbuild
p635
g625
tp636
(dp637
Vimage-file
p638
Vvmlinux
p639
ss(Vimage
p640
g625
tp641
(dp642
Vsuggests
p643
(lp644
Vvmelilo
p645
aVfdutils
p646
asVinstall-stem
p647
Vvmlinux
p648
ss(Vdescription
p649
g625
NVm68k
p650
tp651
(dp652
Vhardware
p653
VMotorola MC68020+ family
p654
ss(g213
g625
g182
tp655
(dp656
g216
(lp657
Vm68k
p658
asg220
I01
ss(Vbase
p659
Vmips
p660
tp661
(dp662
Vkernel-arch
p663
Vmips
p664
sg180
(lp665
g182
ass(Vbuild
p666
g660
tp667
(dp668
Vimage-file
p669
Vvmlinuz
p670
ss(Vimage
p671
g660
tp672
(dp673
Vinstall-stem
p674
Vvmlinuz
p675
ss(Vdescription
p676
g660
NV4kc-malta
p677
tp678
(dp679
Vhardware
p680
VMIPS Malta
p681
sVhardware-long
p682
VMIPS Malta boards
p683
ss(Vimage
p684
g660
NV4kc-malta
p685
tp686
(dp687
Vconfigs
p688
(lp689
Vkernelarch-mips/config.malta
p690
aVkernelarch-mips/config.mips32r2
p691
ass(Vdescription
p692
g660
NV5kc-malta
p693
tp694
(dp695
Vhardware
p696
VMIPS Malta (64-bit)
p697
sVhardware-long
p698
VMIPS Malta boards (64-bit)
p699
ss(Vimage
p700
g660
NV5kc-malta
p701
tp702
(dp703
Vconfigs
p704
(lp705
Vkernelarch-mips/config.malta
p706
aVkernelarch-mips/config.mips64r2
p707
ass(Vdescription
p708
g660
NVocteon
p709
tp710
(dp711
Vhardware
p712
VOcteon
p713
sVhardware-long
p714
VCavium Networks Octeon
p715
ss(Vbuild
p716
g660
NVocteon
p717
tp718
(dp719
Vimage-file
p720
Vvmlinux
p721
ss(Vimage
p722
g660
NVocteon
p723
tp724
(dp725
Vinstall-stem
p726
Vvmlinux
p727
sVconfigs
p728
(lp729
Vkernelarch-mips/config.octeon
p730
ass(g213
g660
g182
tp731
(dp732
g216
(lp733
V4kc-malta
p734
aV5kc-malta
p735
aVocteon
p736
asg220
I01
ss(Vbase
p737
Vmips64
p738
tp739
(dp740
Vkernel-arch
p741
Vmips
p742
sg180
(lp743
g182
ass(Vbuild
p744
g738
tp745
(dp746
Vimage-file
p747
Vvmlinuz
p748
ss(Vimage
p749
g738
tp750
(dp751
Vinstall-stem
p752
Vvmlinuz
p753
ss(Vdescription
p754
g738
NV5kc-malta
p755
tp756
(dp757
Vhardware
p758
VMIPS Malta
p759
sVhardware-long
p760
VMIPS Malta boards
p761
ss(Vimage
p762
g738
NV5kc-malta
p763
tp764
(dp765
Vconfigs
p766
(lp767
Vkernelarch-mips/config.malta
p768
aVkernelarch-mips/config.mips64r2
p769
ass(Vdescription
p770
g738
NVocteon
p771
tp772
(dp773
Vhardware
p774
VOcteon
p775
sVhardware-long
p776
VCavium Networks Octeon
p777
ss(Vbuild
p778
g738
NVocteon
p779
tp780
(dp781
Vimage-file
p782
Vvmlinux
p783
ss(Vimage
p784
g738
NVocteon
p785
tp786
(dp787
Vinstall-stem
p788
Vvmlinux
p789
sVconfigs
p790
(lp791
Vkernelarch-mips/config.octeon
p792
ass(g213
g738
g182
tp793
(dp794
g216
(lp795
V5kc-malta
p796
aVocteon
p797
asg220
I01
ss(Vbase
p798
Vmips64el
p799
tp800
(dp801
Vkernel-arch
p802
Vmips
p803
sg180
(lp804
g182
ass(Vbuild
p805
g799
tp806
(dp807
Vimage-file
p808
Vvmlinuz
p809
ss(Vimage
p810
g799
tp811
(dp812
Vinstall-stem
p813
Vvmlinuz
p814
ss(Vdescription
p815
g799
NV5kc-malta
p816
tp817
(dp818
Vhardware
p819
VMIPS Malta
p820
sVhardware-long
p821
VMIPS Malta boards
p822
ss(Vimage
p823
g799
NV5kc-malta
p824
tp825
(dp826
Vconfigs
p827
(lp828
Vkernelarch-mips/config.malta
p829
aVkernelarch-mips/config.mips64r2
p830
ass(Vdescription
p831
g799
NVloongson-3
p832
tp833
(dp834
Vhardware
p835
VLoongson 3A/3B
p836
sVhardware-long
p837
VLoongson 3A or 3B based systems (e.g. from Loongson or Lemote)
p838
ss(Vimage
p839
g799
NVloongson-3
p840
tp841
(dp842
Vconfigs
p843
(lp844
Vkernelarch-mips/config.loongson-3
p845
ass(Vdescription
p846
g799
NVocteon
p847
tp848
(dp849
Vhardware
p850
VOcteon
p851
sVhardware-long
p852
VCavium Networks Octeon
p853
ss(Vbuild
p854
g799
NVocteon
p855
tp856
(dp857
Vimage-file
p858
Vvmlinux
p859
ss(Vimage
p860
g799
NVocteon
p861
tp862
(dp863
Vinstall-stem
p864
Vvmlinux
p865
sVconfigs
p866
(lp867
Vkernelarch-mips/config.octeon
p868
ass(g213
g799
g182
tp869
(dp870
g216
(lp871
V5kc-malta
p872
aVloongson-3
p873
aVocteon
p874
asg220
I01
ss(Vbase
p875
Vmips64r6
p876
tp877
(dp878
Vdefault-flavour
p879
Vmips64r6
p880
sVkernel-arch
p881
Vmips
p882
sg180
(lp883
g182
ass(Vbuild
p884
g876
tp885
(dp886
Vimage-file
p887
Vvmlinux
p888
ss(Vimage
p889
g876
tp890
(dp891
Vinstall-stem
p892
Vvmlinux
p893
ss(Vdescription
p894
g876
NVmips64r6
p895
tp896
(dp897
Vhardware
p898
VMIPS R6 (64 bit, big endian)
p899
sVhardware-long
p900
VMIPS R6 (64 bit, big endian)
p901
ss(Vimage
p902
g876
NVmips64r6
p903
tp904
(dp905
Vconfigs
p906
(lp907
Vkernelarch-mips/config.boston
p908
aVkernelarch-mips/config.mips64r6
p909
ass(g213
g876
g182
tp910
(dp911
g216
(lp912
Vmips64r6
p913
asg220
I01
ss(Vbase
p914
Vmips64r6el
p915
tp916
(dp917
Vdefault-flavour
p918
Vmips64r6el
p919
sVkernel-arch
p920
Vmips
p921
sg180
(lp922
g182
ass(Vbuild
p923
g915
tp924
(dp925
Vimage-file
p926
Vvmlinux
p927
ss(Vimage
p928
g915
tp929
(dp930
Vinstall-stem
p931
Vvmlinux
p932
ss(Vdescription
p933
g915
NVmips64r6el
p934
tp935
(dp936
Vhardware
p937
VMIPS R6 (64 bit, little endian)
p938
sVhardware-long
p939
VMIPS R6 (64 bit, little endian)
p940
ss(Vimage
p941
g915
NVmips64r6el
p942
tp943
(dp944
Vconfigs
p945
(lp946
Vkernelarch-mips/config.boston
p947
aVkernelarch-mips/config.mips64r6
p948
ass(g213
g915
g182
tp949
(dp950
g216
(lp951
Vmips64r6el
p952
asg220
I01
ss(Vbase
p953
Vmipsel
p954
tp955
(dp956
Vkernel-arch
p957
Vmips
p958
sg180
(lp959
g182
ass(Vbuild
p960
g954
tp961
(dp962
Vimage-file
p963
Vvmlinuz
p964
ss(Vimage
p965
g954
tp966
(dp967
Vinstall-stem
p968
Vvmlinuz
p969
ss(Vdescription
p970
g954
NV4kc-malta
p971
tp972
(dp973
Vhardware
p974
VMIPS Malta
p975
sVhardware-long
p976
VMIPS Malta boards
p977
ss(Vimage
p978
g954
NV4kc-malta
p979
tp980
(dp981
Vconfigs
p982
(lp983
Vkernelarch-mips/config.malta
p984
aVkernelarch-mips/config.mips32r2
p985
ass(Vdescription
p986
g954
NV5kc-malta
p987
tp988
(dp989
Vhardware
p990
VMIPS Malta (64-bit)
p991
sVhardware-long
p992
VMIPS Malta boards (64-bit)
p993
ss(Vimage
p994
g954
NV5kc-malta
p995
tp996
(dp997
Vconfigs
p998
(lp999
Vkernelarch-mips/config.malta
p1000
aVkernelarch-mips/config.mips64r2
p1001
ass(Vdescription
p1002
g954
NVloongson-3
p1003
tp1004
(dp1005
Vhardware
p1006
VLoongson 3A/3B
p1007
sVhardware-long
p1008
VLoongson 3A or 3B based systems (e.g. from Loongson or Lemote)
p1009
ss(Vimage
p1010
g954
NVloongson-3
p1011
tp1012
(dp1013
Vconfigs
p1014
(lp1015
Vkernelarch-mips/config.loongson-3
p1016
ass(Vdescription
p1017
g954
NVocteon
p1018
tp1019
(dp1020
Vhardware
p1021
VOcteon
p1022
sVhardware-long
p1023
VCavium Networks Octeon
p1024
ss(Vbuild
p1025
g954
NVocteon
p1026
tp1027
(dp1028
Vimage-file
p1029
Vvmlinux
p1030
ss(Vimage
p1031
g954
NVocteon
p1032
tp1033
(dp1034
Vinstall-stem
p1035
Vvmlinux
p1036
sVconfigs
p1037
(lp1038
Vkernelarch-mips/config.octeon
p1039
ass(g213
g954
g182
tp1040
(dp1041
g216
(lp1042
V4kc-malta
p1043
aV5kc-malta
p1044
aVloongson-3
p1045
aVocteon
p1046
asg220
I01
ss(Vbase
p1047
Vmipsn32
p1048
tp1049
(dp1050
Vkernel-arch
p1051
Vmips
p1052
sVfeaturesets
p1053
(lp1054
ss(Vbase
p1055
Vmipsn32el
p1056
tp1057
(dp1058
Vkernel-arch
p1059
Vmips
p1060
sVfeaturesets
p1061
(lp1062
ss(Vbase
p1063
Vmipsn32r6
p1064
tp1065
(dp1066
Vkernel-arch
p1067
Vmips
p1068
sVfeaturesets
p1069
(lp1070
ss(Vbase
p1071
Vmipsn32r6el
p1072
tp1073
(dp1074
Vkernel-arch
p1075
Vmips
p1076
sVfeaturesets
p1077
(lp1078
ss(Vbase
p1079
Vmipsr6
p1080
tp1081
(dp1082
Vdefault-flavour
p1083
Vmips32r6
p1084
sVkernel-arch
p1085
Vmips
p1086
sg180
(lp1087
g182
ass(Vbuild
p1088
g1080
tp1089
(dp1090
Vimage-file
p1091
Vvmlinux
p1092
ss(Vimage
p1093
g1080
tp1094
(dp1095
Vinstall-stem
p1096
Vvmlinux
p1097
ss(Vdescription
p1098
g1080
NVmips32r6
p1099
tp1100
(dp1101
Vhardware
p1102
VMIPS R6 (32 bit, big endian)
p1103
sVhardware-long
p1104
VMIPS R6 (32 bit, big endian)
p1105
ss(Vimage
p1106
g1080
NVmips32r6
p1107
tp1108
(dp1109
Vconfigs
p1110
(lp1111
Vkernelarch-mips/config.boston
p1112
aVkernelarch-mips/config.mips32r6
p1113
ass(Vdescription
p1114
g1080
NVmips64r6
p1115
tp1116
(dp1117
Vhardware
p1118
VMIPS R6 (64 bit, big endian)
p1119
sVhardware-long
p1120
VMIPS R6 (64 bit, big endian)
p1121
ss(Vimage
p1122
g1080
NVmips64r6
p1123
tp1124
(dp1125
Vconfigs
p1126
(lp1127
Vkernelarch-mips/config.boston
p1128
aVkernelarch-mips/config.mips64r6
p1129
ass(g213
g1080
g182
tp1130
(dp1131
g216
(lp1132
Vmips32r6
p1133
aVmips64r6
p1134
asg220
I01
ss(Vbase
p1135
Vmipsr6el
p1136
tp1137
(dp1138
Vdefault-flavour
p1139
Vmips32r6el
p1140
sVkernel-arch
p1141
Vmips
p1142
sg180
(lp1143
g182
ass(Vbuild
p1144
g1136
tp1145
(dp1146
Vimage-file
p1147
Vvmlinux
p1148
ss(Vimage
p1149
g1136
tp1150
(dp1151
Vinstall-stem
p1152
Vvmlinux
p1153
ss(Vdescription
p1154
g1136
NVmips32r6el
p1155
tp1156
(dp1157
Vhardware
p1158
VMIPS R6 (32 bit, little endian)
p1159
sVhardware-long
p1160
VMIPS R6 (32 bit, little endian)
p1161
ss(Vimage
p1162
g1136
NVmips32r6el
p1163
tp1164
(dp1165
Vconfigs
p1166
(lp1167
Vkernelarch-mips/config.boston
p1168
aVkernelarch-mips/config.mips32r6
p1169
ass(Vdescription
p1170
g1136
NVmips64r6el
p1171
tp1172
(dp1173
Vhardware
p1174
VMIPS R6 (64 bit, little endian)
p1175
sVhardware-long
p1176
VMIPS R6 (64 bit, little endian)
p1177
ss(Vimage
p1178
g1136
NVmips64r6el
p1179
tp1180
(dp1181
Vconfigs
p1182
(lp1183
Vkernelarch-mips/config.boston
p1184
aVkernelarch-mips/config.mips64r6
p1185
ass(g213
g1136
g182
tp1186
(dp1187
g216
(lp1188
Vmips32r6el
p1189
aVmips64r6el
p1190
asg220
I01
ss(Vbase
p1191
Vpowerpc
p1192
tp1193
(dp1194
Vkernel-arch
p1195
Vpowerpc
p1196
sg180
(lp1197
g182
ass(Vbuild
p1198
g1192
tp1199
(dp1200
Vimage-file
p1201
Vvmlinux
p1202
sVvdso
p1203
I01
ss(Vimage
p1204
g1192
tp1205
(dp1206
Vconfigs
p1207
(lp1208
sVbootloaders
p1209
(lp1210
Vgrub-ieee1275
p1211
asVsuggests
p1212
(lp1213
Vmkvmlinuz
p1214
asVinstall-stem
p1215
Vvmlinux
p1216
ss(Vdescription
p1217
g1192
NVpowerpc
p1218
tp1219
(dp1220
Vhardware
p1221
Vuniprocessor 32-bit PowerPC
p1222
ss(Vdescription
p1223
g1192
NVpowerpc-smp
p1224
tp1225
(dp1226
Vhardware
p1227
Vmultiprocessor 32-bit PowerPC
p1228
ss(Vimage
p1229
g1192
NVpowerpc-smp
p1230
tp1231
(dp1232
Vconfigs
p1233
(lp1234
Vpowerpc/config.powerpc
p1235
aVpowerpc/config.powerpc-smp
p1236
ass(Vdescription
p1237
g1192
NVpowerpc64
p1238
tp1239
(dp1240
Vhardware
p1241
V64-bit PowerPC
p1242
ss(Vimage
p1243
g1192
NVpowerpc64
p1244
tp1245
(dp1246
Vconfigs
p1247
(lp1248
Vkernelarch-powerpc/config-arch-64
p1249
aVkernelarch-powerpc/config-arch-64-be
p1250
ass(g213
g1192
g182
tp1251
(dp1252
g216
(lp1253
Vpowerpc
p1254
aVpowerpc-smp
p1255
aVpowerpc64
p1256
asg220
I01
ss(Vbase
p1257
Vppc64
p1258
tp1259
(dp1260
Vdefault-flavour
p1261
Vpowerpc64
p1262
sVkernel-arch
p1263
Vpowerpc
p1264
sg180
(lp1265
g182
ass(Vbuild
p1266
g1258
tp1267
(dp1268
Vimage-file
p1269
Vvmlinux
p1270
sVvdso
p1271
I01
ss(Vimage
p1272
g1258
tp1273
(dp1274
Vconfigs
p1275
(lp1276
sVbootloaders
p1277
(lp1278
Vgrub-ieee1275
p1279
asVsuggests
p1280
(lp1281
Vmkvmlinuz
p1282
asVinstall-stem
p1283
Vvmlinux
p1284
ss(Vdescription
p1285
g1258
NVpowerpc64
p1286
tp1287
(dp1288
Vhardware
p1289
V64-bit PowerPC
p1290
ss(Vimage
p1291
g1258
NVpowerpc64
p1292
tp1293
(dp1294
Vconfigs
p1295
(lp1296
Vkernelarch-powerpc/config-arch-64
p1297
aVkernelarch-powerpc/config-arch-64-be
p1298
ass(g213
g1258
g182
tp1299
(dp1300
g216
(lp1301
Vpowerpc64
p1302
asg220
I01
ss(Vbase
p1303
Vppc64el
p1304
tp1305
(dp1306
Vdefault-flavour
p1307
Vpowerpc64le
p1308
sVkernel-arch
p1309
Vpowerpc
p1310
sg180
(lp1311
g182
ass(Vbuild
p1312
g1304
tp1313
(dp1314
Vimage-file
p1315
Vvmlinux
p1316
sVvdso
p1317
I01
ss(Vimage
p1318
g1304
tp1319
(dp1320
Vconfigs
p1321
(lp1322
sVbootloaders
p1323
(lp1324
Vgrub-ieee1275
p1325
asVsuggests
p1326
(lp1327
Vmkvmlinuz
p1328
asVinstall-stem
p1329
Vvmlinux
p1330
ss(Vdescription
p1331
g1304
NVpowerpc64le
p1332
tp1333
(dp1334
Vhardware
p1335
VLittle-endian 64-bit PowerPC
p1336
ss(Vimage
p1337
g1304
NVpowerpc64le
p1338
tp1339
(dp1340
Vconfigs
p1341
(lp1342
Vkernelarch-powerpc/config-arch-64
p1343
aVkernelarch-powerpc/config-arch-64-le
p1344
ass(g213
g1304
g182
tp1345
(dp1346
g216
(lp1347
Vpowerpc64le
p1348
asg220
I01
ss(Vbase
p1349
Vriscv64
p1350
tp1351
(dp1352
Vkernel-arch
p1353
Vriscv
p1354
sVfeaturesets
p1355
(lp1356
Vnone
p1357
ass(Vbuild
p1358
g1350
tp1359
(dp1360
Vimage-file
p1361
Varch/riscv/boot/Image
p1362
sVvdso
p1363
I01
ss(Vimage
p1364
g1350
tp1365
(dp1366
Vinstall-stem
p1367
Vvmlinux
p1368
ss(Vdescription
p1369
g1350
NVriscv64
p1370
tp1371
(dp1372
Vhardware
p1373
V64-bit RISC-V platforms
p1374
sVhardware-long
p1375
V64-bit RISC-V platforms
p1376
ss(Vbase
p1377
g1350
Vnone
p1378
tp1379
(dp1380
Vflavours
p1381
(lp1382
Vriscv64
p1383
asVdefault-flavour
p1384
Vriscv64
p1385
ss(Vbase
p1386
Vs390
p1387
tp1388
(dp1389
Vkernel-arch
p1390
Vs390
p1391
sVfeaturesets
p1392
(lp1393
ss(Vbase
p1394
Vs390x
p1395
tp1396
(dp1397
Vdefault-flavour
p1398
Vs390x
p1399
sVkernel-arch
p1400
Vs390
p1401
sg180
(lp1402
g182
ass(Vbuild
p1403
g1395
tp1404
(dp1405
Vimage-file
p1406
Varch/s390/boot/bzImage
p1407
sVvdso
p1408
I01
ss(Vimage
p1409
g1395
tp1410
(dp1411
Vbootloaders
p1412
(lp1413
Vs390-tools
p1414
asVinstall-stem
p1415
Vvmlinuz
p1416
ss(Vrelations
p1417
g1395
tp1418
(dp1419
Vheaders%gcc-10
p1420
Vlinux-compiler-gcc-10-s390
p1421
ss(Vdescription
p1422
g1395
NVs390x
p1423
tp1424
(dp1425
Vhardware
p1426
VIBM zSeries
p1427
ss(g213
g1395
g182
tp1428
(dp1429
g216
(lp1430
Vs390x
p1431
asg220
I01
ss(Vbase
p1432
Vsh3
p1433
tp1434
(dp1435
Vkernel-arch
p1436
Vsh
p1437
sVfeaturesets
p1438
(lp1439
ss(Vbase
p1440
Vsh4
p1441
tp1442
(dp1443
Vkernel-arch
p1444
Vsh
p1445
sg180
(lp1446
g182
ass(Vbuild
p1447
g1441
tp1448
(dp1449
Vimage-file
p1450
Varch/sh/boot/zImage
p1451
ss(Vimage
p1452
g1441
tp1453
(dp1454
Vinstall-stem
p1455
Vvmlinuz
p1456
ss(Vdescription
p1457
g1441
NVsh7751r
p1458
tp1459
(dp1460
Vhardware
p1461
Vsh7751r
p1462
sVhardware-long
p1463
VRenesas SH7751R R2D plus board
p1464
ss(Vdescription
p1465
g1441
NVsh7785lcr
p1466
tp1467
(dp1468
Vhardware
p1469
Vsh7785lcr
p1470
sVhardware-long
p1471
VRenesas SH7785 reference board
p1472
ss(Vimage
p1473
g1441
NVsh7785lcr
p1474
tp1475
(dp1476
Vrecommends
p1477
(lp1478
Vu-boot-tools
p1479
asVcheck-size
p1480
I4194304
ss(g213
g1441
g182
tp1481
(dp1482
g216
(lp1483
Vsh7751r
p1484
aVsh7785lcr
p1485
asg220
I01
ss(Vbase
p1486
Vsparc
p1487
tp1488
(dp1489
Vkernel-arch
p1490
Vsparc
p1491
sVfeaturesets
p1492
(lp1493
ss(Vbase
p1494
Vsparc64
p1495
tp1496
(dp1497
Vdefault-flavour
p1498
Vsparc64-smp
p1499
sVkernel-arch
p1500
Vsparc
p1501
sg180
(lp1502
g182
ass(Vbuild
p1503
g1495
tp1504
(dp1505
Vimage-file
p1506
Vvmlinux
p1507
ss(Vimage
p1508
g1495
tp1509
(dp1510
Vconfigs
p1511
(lp1512
sVbootloaders
p1513
(lp1514
Vgrub-ieee1275
p1515
asVsuggests
p1516
(lp1517
Vfdutils
p1518
asVinstall-stem
p1519
Vvmlinux
p1520
ss(Vdescription
p1521
g1495
NVsparc64
p1522
tp1523
(dp1524
Vhardware
p1525
Vuniprocessor 64-bit UltraSPARC
p1526
ss(Vimage
p1527
g1495
NVsparc64
p1528
tp1529
(dp1530
Vconfigs
p1531
(lp1532
Vkernelarch-sparc/config-up
p1533
ass(Vdescription
p1534
g1495
NVsparc64-smp
p1535
tp1536
(dp1537
Vhardware
p1538
Vmultiprocessor 64-bit UltraSPARC
p1539
ss(Vimage
p1540
g1495
NVsparc64-smp
p1541
tp1542
(dp1543
Vconfigs
p1544
(lp1545
Vkernelarch-sparc/config-smp
p1546
ass(g213
g1495
g182
tp1547
(dp1548
g216
(lp1549
Vsparc64
p1550
aVsparc64-smp
p1551
asg220
I01
ss(Vbase
p1552
Vx32
p1553
tp1554
(dp1555
Vkernel-arch
p1556
Vx86
p1557
sVfeaturesets
p1558
(lp1559
ss(Vabi
p1560
NVrt
p1561
tp1562
(dp1563
Vignore-changes
p1564
(lp1565
V*
p1566
ass(Vdescription
p1567
Ng1561
tp1568
(dp1569
Vpart-long-rt
p1570
VThis kernel includes the PREEMPT_RT realtime patch set.
p1571
sVpart-short-rt
p1572
VPREEMPT_RT
p1573
sVparts
p1574
(lp1575
Vrt
p1576
ass(Vversion
p1577
tp1578
(dp1579
Vsource
p1580
V5.10.12-1+rpi1
p1581
sVupstream
p1582
V5.10
p1583
sVabiname_base
p1584
V5.10.0
p1585
sVabiname
p1586
V5.10.0-3
p1587
ss.