cdebian_linux.config
ConfigCore
p0
(tRp1
(Vbase
p2
tp3
(dp4
Varches
p5
(lp6
Valpha
p7
aVamd64
p8
aVarm64
p9
aVarm64ilp32
p10
aVarmel
p11
aVarmhf
p12
aVhppa
p13
aVi386
p14
aVm68k
p15
aVmips
p16
aVmips64
p17
aVmips64el
p18
aVmips64r6
p19
aVmips64r6el
p20
aVmipsel
p21
aVmipsn32
p22
aVmipsn32el
p23
aVmipsn32r6
p24
aVmipsn32r6el
p25
aVmipsr6
p26
aVmipsr6el
p27
aVpowerpc
p28
aVpowerpcspe
p29
aVppc64
p30
aVppc64el
p31
aVs390
p32
aVs390x
p33
aVsh3
p34
aVsh4
p35
aVsparc
p36
aVsparc64
p37
aVtilegx
p38
aVx32
p39
asVfeaturesets
p40
(lp41
Vnone
p42
aVrt
p43
asVcompiler
p44
Vgcc-7
p45
ss(Vbuild
p46
tp47
(dp48
Vsigned-modules
p49
I00
sVdebug-info
p50
I01
ss(Vbase
p51
NVrt
p52
tp53
(dp54
Venabled
p55
I00
ss(Vdescription
p56
tp57
(dp58
Vpart-long-up
p59
VThis kernel is not suitable for SMP (multi-processor,\u000amulti-core or hyper-threaded) systems.
p60
ss(Vrelations
p61
tp62
(dp63
Vinitramfs-tools
p64
Vinitramfs-tools (>= 0.120+deb8u2)
p65
sVgcc-7
p66
Vgcc-7 <!stage1 !cross>, gcc-7-@gnu-type-package@ <!stage1 cross>
p67
sVinitramfs-fallback
p68
Vlinux-initramfs-tool
p69
ss(Vimage
p70
tp71
(dp72
Vinitramfs-generators
p73
(lp74
Vinitramfs-tools
p75
aVinitramfs-fallback
p76
asVrecommends
p77
Vapparmor
p78
ss(Vabi
p79
tp80
(dp81
Vabiname
p82
V2
p83
sVignore-changes
p84
(lp85
V__cpuhp_*
p86
aV__xive_vm_h_*
p87
aVbpf_analyzer
p88
aVcxl_*
p89
aVdax_flush
p90
aVieee80211_nullfunc_get
p91
aVinet_add_protocol
p92
aVinet_del_protocol
p93
aViommu_device_*
p94
aVkvm_async_pf_task_wait
p95
aVkvmppc_*
p96
aVmm_iommu_*
p97
aVmv_mbus_*
p98
aVperf_*
p99
aVregister_cxl_calls
p100
aVregister_key_type
p101
aVunregister_cxl_calls
p102
aV*_hw_breakpoint
p103
aVmodule:arch/x86/kvm/*
p104
aVmodule:drivers/crypto/ccp/*
p105
aVmodule:drivers/hv/*
p106
aVmodule:drivers/iio/common/hid-sensors/*
p107
aVmodule:drivers/iio/common/st_sensors/**
p108
aVmodule:drivers/mtd/nand/*
p109
aVmodule:drivers/net/wireless/**
p110
aVmodule:drivers/nvdimm/*
p111
aVmodule:drivers/power/supply/bq27xxx_battery
p112
aVmodule:drivers/scsi/cxgbi/*
p113
aVmodule:drivers/scsi/libiscs*
p114
aVmodule:drivers/scsi/qla2xxx/qla2xxx
p115
aVmodule:drivers/scsi/ufs/*
p116
aVmodule:drivers/target/**
p117
aVmodule:drivers/usb/chipidea/**
p118
aVmodule:drivers/usb/gadget/**
p119
aVmodule:drivers/usb/host/**
p120
aVmodule:drivers/usb/musb/**
p121
aVmodule:fs/nfs/**
p122
aVmodule:net/ceph/libceph
p123
aVmodule:net/l2tp/**
p124
aVmodule:net/rxrpc/rxrpc
p125
aVmodule:sound/core/seq/**
p126
aVmodule:sound/firewire/snd-firewire-lib
p127
aVbtree_*
p128
aVvisitor*
p129
aVcan_rx_register
p130
aVip6_xmit
p131
aVmodule:net/dccp/dccp
p132
aVmodule:net/rds/rds
p133
aVdevfreq_*
p134
aVdevm_devfreq_*
p135
aVupdate_devfreq
p136
aVmodule:drivers/infiniband/**
p137
aVacpi_ec_add_query_handler
p138
aVacpi_ec_remove_query_handler
p139
aVfirst_ec
p140
aVdebugfs_create_automount
p141
aVmodule:drivers/iio/imu/inv_mpu6050/*
p142
ass(Vbase
p143
Valpha
p144
tp145
(dp146
Vfeaturesets
p147
(lp148
Vnone
p149
asVkernel-arch
p150
Valpha
p151
ss(Vdescription
p152
g144
NValpha-smp
p153
tp154
(dp155
Vhardware
p156
VAlpha SMP
p157
sVhardware-long
p158
VDEC Alpha SMP systems with extended kernel start address (Wildfire, Titan, Marvel)
p159
ss(Vbuild
p160
g144
tp161
(dp162
Vsigned-modules
p163
I00
sVimage-file
p164
Varch/alpha/boot/vmlinux.gz
p165
ss(Vdescription
p166
g144
NValpha-generic
p167
tp168
(dp169
Vhardware
p170
VAlpha
p171
sVhardware-long
p172
VDEC Alpha systems with extended kernel start address (Wildfire, Titan, Marvel)
p173
ss(Vimage
p174
g144
tp175
(dp176
Vsuggests
p177
Vaboot, fdutils
p178
sVinstall-stem
p179
Vvmlinuz
p180
ss(Vbase
p181
g144
g149
tp182
(dp183
Vflavours
p184
(lp185
Valpha-generic
p186
aValpha-smp
p187
asVimplicit-flavour
p188
I01
ss(Vbase
p189
Vamd64
p190
tp191
(dp192
Vfeaturesets
p193
(lp194
Vnone
p195
aVrt
p196
asVkernel-arch
p197
Vx86
p198
ss(Vbuild
p199
g190
tp200
(dp201
Vvdso
p202
I01
sVimage-file
p203
Varch/x86/boot/bzImage
p204
sVdebug-info
p205
I01
ss(Vdescription
p206
g190
NVamd64
p207
tp208
(dp209
Vhardware
p210
V64-bit PCs
p211
sVhardware-long
p212
VPCs with AMD64, Intel 64 or VIA Nano processors
p213
ss(Vrelations
p214
g190
tp215
(dp216
Vgcc-7
p217
Vgcc-7 (>= 7.2.0-20~) <!stage1 !cross>, gcc-7-x86-64-linux-gnu (>= 7.2.0-20~) <!stage1 cross>
p218
sVheaders%gcc-7
p219
Vlinux-compiler-gcc-7-x86 (>= 4.14.17-1~)
p220
ss(Vdescription
p221
g190
NVcloud-amd64
p222
tp223
(dp224
Vhardware
p225
Vx86-64 cloud
p226
sVhardware-long
p227
VAmazon EC2, Google Compute Engine and Microsoft Azure cloud platforms
p228
ss(Vimage
p229
g190
tp230
(dp231
Vbreaks
p232
Vxserver-xorg-input-vmmouse (<< 1:13.0.99)
p233
sVinstall-stem
p234
Vvmlinuz
p235
sVbootloaders
p236
(lp237
Vgrub-pc
p238
aVgrub-efi-amd64
p239
aVextlinux
p240
ass(Vbase
p241
g190
Vnone
p242
tp243
(dp244
Vflavours
p245
(lp246
Vamd64
p247
aVcloud-amd64
p248
ass(Vbase
p249
g190
Vrt
p250
tp251
(dp252
Vflavours
p253
(lp254
Vamd64
p255
ass(Vbase
p256
Varm64
p257
tp258
(dp259
Vfeaturesets
p260
(lp261
Vnone
p262
asVkernel-arch
p263
Varm64
p264
ss(Vdescription
p265
g257
NVarm64
p266
tp267
(dp268
Vhardware
p269
V64-bit ARMv8 machines
p270
ss(Vbuild
p271
g257
tp272
(dp273
Vvdso
p274
I01
sVimage-file
p275
Varch/arm64/boot/Image
p276
sVdebug-info
p277
I01
ss(Vimage
p278
g257
NVarm64
p279
tp280
(dp281
s(Vimage
p282
g257
tp283
(dp284
Vbreaks
p285
Vlibmozjs185-1.0, libmozjs-24-0 (<< 24.2.0-5.1~)
p286
sVinstall-stem
p287
Vvmlinuz
p288
ss(Vbase
p289
g257
Vnone
p290
tp291
(dp292
Vflavours
p293
(lp294
Varm64
p295
ass(Vbase
p296
Varm64ilp32
p297
tp298
(dp299
Vfeaturesets
p300
(lp301
sVkernel-arch
p302
Varm64
p303
ss(Vbase
p304
Varmel
p305
tp306
(dp307
Vflavours
p308
(lp309
sVfeaturesets
p310
(lp311
sVkernel-arch
p312
Varm
p313
ss(Vbuild
p314
g305
tp315
(dp316
Vsigned-modules
p317
I00
sVimage-file
p318
Varch/arm/boot/zImage
p319
sVuncompressed-image-file
p320
Varch/arm/boot/Image
p321
ss(Vimage
p322
g305
NVmarvell
p323
tp324
(dp325
Vrecommends
p326
Vu-boot-tools
p327
sVbreaks
p328
Vflash-kernel (<< 3.57~)
p329
sVcheck-size-with-dtb
p330
I01
sVcheck-size
p331
L2097080L
sVcheck-uncompressed-size
p332
L7340032L
ss(Vdescription
p333
g305
NVmarvell
p334
tp335
(dp336
Vhardware
p337
VMarvell Kirkwood/Orion
p338
sVhardware-long
p339
VMarvell Kirkwood based systems (SheevaPlug, QNAP TS-119/TS-219, etc)\u000aand Orion 5181, 5182 and 5281 based systems (QNAP TS-109/TS-209, etc)
p340
ss(Vrelations
p341
g305
tp342
(dp343
Vheaders%gcc-7
p344
Vlinux-compiler-gcc-7-arm
p345
ss(Vimage
p346
g305
tp347
(dp348
Vinstall-stem
p349
Vvmlinuz
p350
ss(Vbase
p351
Varmhf
p352
tp353
(dp354
Vfeaturesets
p355
(lp356
sVkernel-arch
p357
Varm
p358
ss(Vbase
p359
Vhppa
p360
tp361
(dp362
g147
(lp363
g149
asVkernel-arch
p364
Vparisc
p365
ss(Vbuild
p366
g360
tp367
(dp368
Vsigned-modules
p369
I00
sVimage-file
p370
Vvmlinux
p371
ss(Vdescription
p372
g360
NVparisc64-smp
p373
tp374
(dp375
Vhardware
p376
Vmultiprocessor 64-bit PA-RISC
p377
sVhardware-long
p378
VHP PA-RISC 64-bit SMP systems with support for more than 4 GB RAM
p379
ss(Vbase
p380
g360
NVparisc64-smp
p381
tp382
(dp383
Vcflags
p384
V-fno-cse-follow-jumps
p385
sVoverride-host-type
p386
Vhppa64-linux-gnu
p387
ss(Vrelations
p388
g360
tp389
(dp390
Vgcc-7
p391
Vgcc-7 <!stage1 !cross>, binutils-hppa64-linux-gnu <!stage1 !cross>, gcc-7-hppa64-linux-gnu <!stage1 !cross>, gcc-7-hppa-linux-gnu <!stage1 cross>, binutils-hppa64-linux-gnu <!stage1 cross>, gcc-7-hppa64-linux-gnu <!stage1 cross>
p392
ss(Vdescription
p393
g360
NVparisc
p394
tp395
(dp396
Vhardware
p397
V32-bit PA-RISC
p398
sVhardware-long
p399
VHP PA-RISC 32-bit systems with max 4 GB RAM
p400
ss(Vimage
p401
g360
tp402
(dp403
Vsuggests
p404
Vpalo
p405
sVinstall-stem
p406
Vvmlinux
p407
ss(g181
g360
g149
tp408
(dp409
g184
(lp410
Vparisc
p411
aVparisc64-smp
p412
asg188
I01
ss(Vbase
p413
Vi386
p414
tp415
(dp416
Vfeaturesets
p417
(lp418
Vnone
p419
aVrt
p420
asVkernel-arch
p421
Vx86
p422
ss(Vbuild
p423
g414
tp424
(dp425
Vvdso
p426
I01
sVimage-file
p427
Varch/x86/boot/bzImage
p428
ss(Vdescription
p429
g414
NV686-pae
p430
tp431
(dp432
Vhardware
p433
Vmodern PCs
p434
sVhardware-long
p435
VPCs with one or more processors supporting PAE
p436
sVparts
p437
(lp438
Vpae
p439
ass(Vdescription
p440
g414
tp441
(dp442
Vpart-long-pae
p443
VThis kernel requires PAE (Physical Address Extension).\u000aThis feature is supported by the Intel Pentium Pro/II/III/4/4M/D, Xeon,\u000aCore and Atom; AMD Geode NX, Athlon (K7), Duron, Opteron, Sempron,\u000aTurion or Phenom; Transmeta Efficeon; VIA C7; and some other processors.
p444
ss(Vbuild
p445
g414
NV686-pae
p446
tp447
(dp448
Vdebug-info
p449
I01
ss(Vdescription
p450
g414
NV686
p451
tp452
(dp453
Vhardware
p454
Volder PCs
p455
sVhardware-long
p456
VPCs with one or more processors not supporting PAE
p457
ss(Vrelations
p458
g414
tp459
(dp460
Vgcc-7
p461
Vgcc-7 (>= 7.2.0-20~) <!stage1 !cross>, gcc-7-i686-linux-gnu (>= 7.2.0-20~) <!stage1 cross>
p462
sVheaders%gcc-7
p463
Vlinux-compiler-gcc-7-x86 (>= 4.14.17-1~)
p464
ss(Vimage
p465
g414
tp466
(dp467
Vbreaks
p468
Vxserver-xorg-input-vmmouse (<< 1:13.0.99)
p469
sVinstall-stem
p470
Vvmlinuz
p471
sVbootloaders
p472
(lp473
Vgrub-pc
p474
aVextlinux
p475
ass(Vbase
p476
g414
Vnone
p477
tp478
(dp479
Vflavours
p480
(lp481
V686
p482
aV686-pae
p483
ass(Vbase
p484
g414
Vrt
p485
tp486
(dp487
Vflavours
p488
(lp489
V686-pae
p490
ass(Vbase
p491
Vm68k
p492
tp493
(dp494
Vcflags
p495
V-ffreestanding
p496
sg147
(lp497
g149
asVkernel-arch
p498
Vm68k
p499
ss(Vbuild
p500
g492
tp501
(dp502
Vsigned-modules
p503
I00
sVimage-file
p504
Vvmlinux
p505
ss(Vdescription
p506
g492
NVm68k
p507
tp508
(dp509
Vhardware
p510
VMotorola MC68020+ family
p511
ss(Vimage
p512
g492
tp513
(dp514
Vsuggests
p515
Vvmelilo, fdutils
p516
sVinstall-stem
p517
Vvmlinux
p518
ss(g181
g492
g149
tp519
(dp520
g184
(lp521
Vm68k
p522
asg188
I01
ss(Vbase
p523
Vmips
p524
tp525
(dp526
g147
(lp527
g149
asVkernel-arch
p528
Vmips
p529
ss(Vbuild
p530
g524
tp531
(dp532
Vsigned-modules
p533
I00
sVimage-file
p534
Vvmlinux
p535
ss(Vimage
p536
g524
NV4kc-malta
p537
tp538
(dp539
Vconfigs
p540
(lp541
Vkernelarch-mips/config.malta
p542
aVkernelarch-mips/config.mips32r2
p543
ass(Vimage
p544
g524
NV5kc-malta
p545
tp546
(dp547
Vconfigs
p548
(lp549
Vkernelarch-mips/config.malta
p550
aVkernelarch-mips/config.mips64r2
p551
ass(Vdescription
p552
g524
NVocteon
p553
tp554
(dp555
Vhardware
p556
VOcteon
p557
sVhardware-long
p558
VCavium Networks Octeon
p559
ss(Vimage
p560
g524
NVocteon
p561
tp562
(dp563
Vconfigs
p564
(lp565
Vkernelarch-mips/config.octeon
p566
ass(Vimage
p567
g524
tp568
(dp569
Vinstall-stem
p570
Vvmlinux
p571
ss(Vdescription
p572
g524
NV5kc-malta
p573
tp574
(dp575
Vhardware
p576
VMIPS Malta (64-bit)
p577
sVhardware-long
p578
VMIPS Malta boards (64-bit)
p579
ss(Vdescription
p580
g524
NV4kc-malta
p581
tp582
(dp583
Vhardware
p584
VMIPS Malta
p585
sVhardware-long
p586
VMIPS Malta boards
p587
ss(g181
g524
g149
tp588
(dp589
g184
(lp590
V4kc-malta
p591
aV5kc-malta
p592
aVocteon
p593
asg188
I01
ss(Vbase
p594
Vmips64
p595
tp596
(dp597
g147
(lp598
g149
asVkernel-arch
p599
Vmips
p600
ss(Vbuild
p601
g595
tp602
(dp603
Vsigned-modules
p604
I00
sVimage-file
p605
Vvmlinux
p606
ss(Vimage
p607
g595
NV5kc-malta
p608
tp609
(dp610
Vconfigs
p611
(lp612
Vkernelarch-mips/config.malta
p613
aVkernelarch-mips/config.mips64r2
p614
ass(Vdescription
p615
g595
NVocteon
p616
tp617
(dp618
Vhardware
p619
VOcteon
p620
sVhardware-long
p621
VCavium Networks Octeon
p622
ss(Vimage
p623
g595
tp624
(dp625
Vinstall-stem
p626
Vvmlinux
p627
ss(Vdescription
p628
g595
NV5kc-malta
p629
tp630
(dp631
Vhardware
p632
VMIPS Malta
p633
sVhardware-long
p634
VMIPS Malta boards
p635
ss(Vimage
p636
g595
NVocteon
p637
tp638
(dp639
Vconfigs
p640
(lp641
Vkernelarch-mips/config.octeon
p642
ass(g181
g595
g149
tp643
(dp644
g184
(lp645
V5kc-malta
p646
aVocteon
p647
asg188
I01
ss(Vbase
p648
Vmips64el
p649
tp650
(dp651
g147
(lp652
g149
asVkernel-arch
p653
Vmips
p654
ss(Vimage
p655
g649
NVloongson-3
p656
tp657
(dp658
Vconfigs
p659
(lp660
Vkernelarch-mips/config.loongson-3
p661
ass(Vbuild
p662
g649
tp663
(dp664
Vsigned-modules
p665
I00
sVimage-file
p666
Vvmlinux
p667
ss(Vimage
p668
g649
NV5kc-malta
p669
tp670
(dp671
Vconfigs
p672
(lp673
Vkernelarch-mips/config.malta
p674
aVkernelarch-mips/config.mips64r2
p675
ass(Vdescription
p676
g649
NVocteon
p677
tp678
(dp679
Vhardware
p680
VOcteon
p681
sVhardware-long
p682
VCavium Networks Octeon
p683
ss(Vdescription
p684
g649
NVloongson-3
p685
tp686
(dp687
Vhardware
p688
VLoongson 3A/3B
p689
sVhardware-long
p690
VLoongson 3A or 3B based systems (e.g. from Loongson or Lemote)
p691
ss(Vimage
p692
g649
tp693
(dp694
Vinstall-stem
p695
Vvmlinux
p696
ss(Vdescription
p697
g649
NV5kc-malta
p698
tp699
(dp700
Vhardware
p701
VMIPS Malta
p702
sVhardware-long
p703
VMIPS Malta boards
p704
ss(Vimage
p705
g649
NVocteon
p706
tp707
(dp708
Vconfigs
p709
(lp710
Vkernelarch-mips/config.octeon
p711
ass(g181
g649
g149
tp712
(dp713
g184
(lp714
V5kc-malta
p715
aVloongson-3
p716
aVocteon
p717
asg188
I01
ss(Vbase
p718
Vmips64r6
p719
tp720
(dp721
g147
(lp722
g149
asVkernel-arch
p723
Vmips
p724
ss(Vbuild
p725
g719
tp726
(dp727
Vsigned-modules
p728
I00
sVimage-file
p729
Vvmlinux
p730
ss(Vimage
p731
g719
tp732
(dp733
Vinstall-stem
p734
Vvmlinux
p735
ss(Vimage
p736
g719
NVmips64r6
p737
tp738
(dp739
Vconfigs
p740
(lp741
Vkernelarch-mips/config.malta
p742
aVkernelarch-mips/config.mips64r6
p743
ass(Vdescription
p744
g719
NVmips64r6
p745
tp746
(dp747
Vhardware
p748
VMIPS R6 (64 bit, big endian)
p749
sVhardware-long
p750
VMIPS R6 (64 bit, big endian)
p751
ss(g181
g719
g149
tp752
(dp753
g184
(lp754
Vmips64r6
p755
asg188
I01
ss(Vbase
p756
Vmips64r6el
p757
tp758
(dp759
g147
(lp760
g149
asVkernel-arch
p761
Vmips
p762
ss(Vimage
p763
g757
NVmips64r6el
p764
tp765
(dp766
Vconfigs
p767
(lp768
Vkernelarch-mips/config.malta
p769
aVkernelarch-mips/config.mips64r6
p770
ass(Vbuild
p771
g757
tp772
(dp773
Vsigned-modules
p774
I00
sVimage-file
p775
Vvmlinux
p776
ss(Vdescription
p777
g757
NVmips64r6el
p778
tp779
(dp780
Vhardware
p781
VMIPS R6 (64 bit, little endian)
p782
sVhardware-long
p783
VMIPS R6 (64 bit, little endian)
p784
ss(Vimage
p785
g757
tp786
(dp787
Vinstall-stem
p788
Vvmlinux
p789
ss(g181
g757
g149
tp790
(dp791
g184
(lp792
Vmips64r6el
p793
asg188
I01
ss(Vbase
p794
Vmipsel
p795
tp796
(dp797
g147
(lp798
g149
asVkernel-arch
p799
Vmips
p800
ss(Vimage
p801
g795
NVloongson-3
p802
tp803
(dp804
Vconfigs
p805
(lp806
Vkernelarch-mips/config.loongson-3
p807
ass(Vbuild
p808
g795
tp809
(dp810
Vsigned-modules
p811
I00
sVimage-file
p812
Vvmlinux
p813
ss(Vimage
p814
g795
NV4kc-malta
p815
tp816
(dp817
Vconfigs
p818
(lp819
Vkernelarch-mips/config.malta
p820
aVkernelarch-mips/config.mips32r2
p821
ass(Vimage
p822
g795
NV5kc-malta
p823
tp824
(dp825
Vconfigs
p826
(lp827
Vkernelarch-mips/config.malta
p828
aVkernelarch-mips/config.mips64r2
p829
ass(Vdescription
p830
g795
NVocteon
p831
tp832
(dp833
Vhardware
p834
VOcteon
p835
sVhardware-long
p836
VCavium Networks Octeon
p837
ss(Vdescription
p838
g795
NVloongson-3
p839
tp840
(dp841
Vhardware
p842
VLoongson 3A/3B
p843
sVhardware-long
p844
VLoongson 3A or 3B based systems (e.g. from Loongson or Lemote)
p845
ss(Vimage
p846
g795
NVocteon
p847
tp848
(dp849
Vconfigs
p850
(lp851
Vkernelarch-mips/config.octeon
p852
ass(Vimage
p853
g795
tp854
(dp855
Vinstall-stem
p856
Vvmlinux
p857
ss(Vdescription
p858
g795
NV5kc-malta
p859
tp860
(dp861
Vhardware
p862
VMIPS Malta (64-bit)
p863
sVhardware-long
p864
VMIPS Malta boards (64-bit)
p865
ss(Vdescription
p866
g795
NV4kc-malta
p867
tp868
(dp869
Vhardware
p870
VMIPS Malta
p871
sVhardware-long
p872
VMIPS Malta boards
p873
ss(g181
g795
g149
tp874
(dp875
g184
(lp876
V4kc-malta
p877
aV5kc-malta
p878
aVloongson-3
p879
aVocteon
p880
asg188
I01
ss(Vbase
p881
Vmipsn32
p882
tp883
(dp884
Vfeaturesets
p885
(lp886
sVkernel-arch
p887
Vmips
p888
ss(Vbase
p889
Vmipsn32el
p890
tp891
(dp892
Vfeaturesets
p893
(lp894
sVkernel-arch
p895
Vmips
p896
ss(Vbase
p897
Vmipsn32r6
p898
tp899
(dp900
Vfeaturesets
p901
(lp902
sVkernel-arch
p903
Vmips
p904
ss(Vbase
p905
Vmipsn32r6el
p906
tp907
(dp908
Vfeaturesets
p909
(lp910
sVkernel-arch
p911
Vmips
p912
ss(Vbase
p913
Vmipsr6
p914
tp915
(dp916
g147
(lp917
g149
asVkernel-arch
p918
Vmips
p919
ss(Vbuild
p920
g914
tp921
(dp922
Vsigned-modules
p923
I00
sVimage-file
p924
Vvmlinux
p925
ss(Vdescription
p926
g914
NVmips32r6
p927
tp928
(dp929
Vhardware
p930
VMIPS R6 (32 bit, big endian)
p931
sVhardware-long
p932
VMIPS R6 (32 bit, big endian)
p933
ss(Vdescription
p934
g914
NVmips64r6
p935
tp936
(dp937
Vhardware
p938
VMIPS R6 (64 bit, big endian)
p939
sVhardware-long
p940
VMIPS R6 (64 bit, big endian)
p941
ss(Vimage
p942
g914
NVmips64r6
p943
tp944
(dp945
Vconfigs
p946
(lp947
Vkernelarch-mips/config.malta
p948
aVkernelarch-mips/config.mips64r6
p949
ass(Vimage
p950
g914
tp951
(dp952
Vinstall-stem
p953
Vvmlinux
p954
ss(Vimage
p955
g914
NVmips32r6
p956
tp957
(dp958
Vconfigs
p959
(lp960
Vkernelarch-mips/config.malta
p961
aVkernelarch-mips/config.mips32r6
p962
ass(g181
g914
g149
tp963
(dp964
g184
(lp965
Vmips32r6
p966
aVmips64r6
p967
asg188
I01
ss(Vbase
p968
Vmipsr6el
p969
tp970
(dp971
g147
(lp972
g149
asVkernel-arch
p973
Vmips
p974
ss(Vimage
p975
g969
NVmips32r6el
p976
tp977
(dp978
Vconfigs
p979
(lp980
Vkernelarch-mips/config.malta
p981
aVkernelarch-mips/config.mips32r6
p982
ass(Vdescription
p983
g969
NVmips64r6el
p984
tp985
(dp986
Vhardware
p987
VMIPS R6 (64 bit, little endian)
p988
sVhardware-long
p989
VMIPS R6 (64 bit, little endian)
p990
ss(Vdescription
p991
g969
NVmips32r6el
p992
tp993
(dp994
Vhardware
p995
VMIPS R6 (32 bit, little endian)
p996
sVhardware-long
p997
VMIPS R6 (32 bit, little endian)
p998
ss(Vimage
p999
g969
NVmips64r6el
p1000
tp1001
(dp1002
Vconfigs
p1003
(lp1004
Vkernelarch-mips/config.malta
p1005
aVkernelarch-mips/config.mips64r6
p1006
ass(Vbuild
p1007
g969
tp1008
(dp1009
Vsigned-modules
p1010
I00
sVimage-file
p1011
Vvmlinux
p1012
ss(Vimage
p1013
g969
tp1014
(dp1015
Vinstall-stem
p1016
Vvmlinux
p1017
ss(g181
g969
g149
tp1018
(dp1019
g184
(lp1020
Vmips32r6el
p1021
aVmips64r6el
p1022
asg188
I01
ss(Vbase
p1023
Vpowerpc
p1024
tp1025
(dp1026
g147
(lp1027
g149
asVkernel-arch
p1028
Vpowerpc
p1029
ss(Vdescription
p1030
g1024
NVpowerpc64
p1031
tp1032
(dp1033
Vhardware
p1034
V64-bit PowerPC
p1035
ss(Vbuild
p1036
g1024
tp1037
(dp1038
Vvdso
p1039
I01
sVimage-file
p1040
Vvmlinux
p1041
ss(Vimage
p1042
g1024
NVpowerpc-smp
p1043
tp1044
(dp1045
Vconfigs
p1046
(lp1047
Vpowerpc/config.powerpc
p1048
aVpowerpc/config.powerpc-smp
p1049
ass(Vdescription
p1050
g1024
NVpowerpc
p1051
tp1052
(dp1053
Vhardware
p1054
Vuniprocessor 32-bit PowerPC
p1055
ss(Vimage
p1056
g1024
NVpowerpc64
p1057
tp1058
(dp1059
Vconfigs
p1060
(lp1061
Vkernelarch-powerpc/config-arch-64
p1062
aVkernelarch-powerpc/config-arch-64-be
p1063
ass(Vdescription
p1064
g1024
NVpowerpc-smp
p1065
tp1066
(dp1067
Vhardware
p1068
Vmultiprocessor 32-bit PowerPC
p1069
ss(Vimage
p1070
g1024
tp1071
(dp1072
Vsuggests
p1073
Vmkvmlinuz
p1074
sVinstall-stem
p1075
Vvmlinux
p1076
sVconfigs
p1077
(lp1078
ss(g181
g1024
g149
tp1079
(dp1080
g184
(lp1081
Vpowerpc
p1082
aVpowerpc-smp
p1083
aVpowerpc64
p1084
asg188
I01
ss(Vbase
p1085
Vpowerpcspe
p1086
tp1087
(dp1088
g147
(lp1089
g149
asVkernel-arch
p1090
Vpowerpc
p1091
ss(Vbuild
p1092
g1086
tp1093
(dp1094
Vsigned-modules
p1095
I00
sVimage-file
p1096
Vvmlinux
p1097
sVvdso
p1098
I01
ss(Vimage
p1099
g1086
tp1100
(dp1101
Vsuggests
p1102
Vmkvmlinuz
p1103
sVinstall-stem
p1104
Vvmlinux
p1105
ss(Vdescription
p1106
g1086
tp1107
(dp1108
Vhardware
p1109
V32-bit PowerPC with SPE (instead of AltiVec) with SMP support
p1110
ss(g181
g1086
g149
tp1111
(dp1112
g184
(lp1113
Vpowerpcspe
p1114
asg188
I01
ss(Vbase
p1115
Vppc64
p1116
tp1117
(dp1118
g147
(lp1119
g149
asVkernel-arch
p1120
Vpowerpc
p1121
ss(Vdescription
p1122
g1116
NVpowerpc64
p1123
tp1124
(dp1125
Vhardware
p1126
V64-bit PowerPC
p1127
ss(Vbuild
p1128
g1116
tp1129
(dp1130
Vsigned-modules
p1131
I00
sVimage-file
p1132
Vvmlinux
p1133
sVvdso
p1134
I01
ss(Vimage
p1135
g1116
NVpowerpc64
p1136
tp1137
(dp1138
Vconfigs
p1139
(lp1140
Vkernelarch-powerpc/config-arch-64
p1141
aVkernelarch-powerpc/config-arch-64-be
p1142
ass(Vimage
p1143
g1116
tp1144
(dp1145
Vsuggests
p1146
Vmkvmlinuz
p1147
sVinstall-stem
p1148
Vvmlinux
p1149
sVconfigs
p1150
(lp1151
ss(g181
g1116
g149
tp1152
(dp1153
g184
(lp1154
Vpowerpc64
p1155
asg188
I01
ss(Vbase
p1156
Vppc64el
p1157
tp1158
(dp1159
g147
(lp1160
g149
asVkernel-arch
p1161
Vpowerpc
p1162
ss(Vdescription
p1163
g1157
NVpowerpc64le
p1164
tp1165
(dp1166
Vhardware
p1167
VLittle-endian 64-bit PowerPC
p1168
ss(Vbuild
p1169
g1157
tp1170
(dp1171
Vvdso
p1172
I01
sVimage-file
p1173
Vvmlinux
p1174
ss(Vimage
p1175
g1157
tp1176
(dp1177
Vsuggests
p1178
Vmkvmlinuz
p1179
sVinstall-stem
p1180
Vvmlinux
p1181
sVconfigs
p1182
(lp1183
ss(Vimage
p1184
g1157
NVpowerpc64le
p1185
tp1186
(dp1187
Vconfigs
p1188
(lp1189
Vkernelarch-powerpc/config-arch-64
p1190
aVkernelarch-powerpc/config-arch-64-le
p1191
ass(g181
g1157
g149
tp1192
(dp1193
g184
(lp1194
Vpowerpc64le
p1195
asg188
I01
ss(Vbase
p1196
Vs390
p1197
tp1198
(dp1199
Vfeaturesets
p1200
(lp1201
sVkernel-arch
p1202
Vs390
p1203
ss(Vbase
p1204
Vs390x
p1205
tp1206
(dp1207
g147
(lp1208
g149
asVkernel-arch
p1209
Vs390
p1210
ss(Vdescription
p1211
g1205
NVs390x
p1212
tp1213
(dp1214
Vhardware
p1215
VIBM zSeries
p1216
ss(Vbuild
p1217
g1205
tp1218
(dp1219
Vvdso
p1220
I01
sVimage-file
p1221
Varch/s390/boot/image
p1222
ss(Vbuild
p1223
g1205
NVs390x
p1224
tp1225
(dp1226
Vdebug-info
p1227
I01
ss(Vrelations
p1228
g1205
tp1229
(dp1230
Vheaders%gcc-7
p1231
Vlinux-compiler-gcc-7-s390
p1232
ss(Vimage
p1233
g1205
tp1234
(dp1235
Vinstall-stem
p1236
Vvmlinuz
p1237
sVbootloaders
p1238
(lp1239
Vs390-tools
p1240
ass(g181
g1205
g149
tp1241
(dp1242
g184
(lp1243
Vs390x
p1244
asg188
I01
ss(Vbase
p1245
Vsh3
p1246
tp1247
(dp1248
Vfeaturesets
p1249
(lp1250
sVkernel-arch
p1251
Vsh
p1252
ss(Vbase
p1253
Vsh4
p1254
tp1255
(dp1256
g147
(lp1257
g149
asVkernel-arch
p1258
Vsh
p1259
ss(Vbuild
p1260
g1254
tp1261
(dp1262
Vsigned-modules
p1263
I00
sVimage-file
p1264
Varch/sh/boot/zImage
p1265
ss(Vdescription
p1266
g1254
NVsh7751r
p1267
tp1268
(dp1269
Vhardware
p1270
Vsh7751r
p1271
sVhardware-long
p1272
VRenesas SH7751R R2D plus board
p1273
ss(Vdescription
p1274
g1254
NVsh7785lcr
p1275
tp1276
(dp1277
Vhardware
p1278
Vsh7785lcr
p1279
sVhardware-long
p1280
VRenesas SH7785 reference board
p1281
ss(Vimage
p1282
g1254
tp1283
(dp1284
Vinstall-stem
p1285
Vvmlinuz
p1286
ss(Vimage
p1287
g1254
NVsh7785lcr
p1288
tp1289
(dp1290
Vrecommends
p1291
Vu-boot-tools
p1292
sVcheck-size
p1293
L4194304L
ss(g181
g1254
g149
tp1294
(dp1295
g184
(lp1296
Vsh7751r
p1297
aVsh7785lcr
p1298
asg188
I01
ss(Vbase
p1299
Vsparc
p1300
tp1301
(dp1302
Vfeaturesets
p1303
(lp1304
sVkernel-arch
p1305
Vsparc
p1306
ss(Vbase
p1307
Vsparc64
p1308
tp1309
(dp1310
g147
(lp1311
g149
asVkernel-arch
p1312
Vsparc
p1313
ss(Vbuild
p1314
g1308
tp1315
(dp1316
Vsigned-modules
p1317
I00
sVimage-file
p1318
Varch/sparc/boot/zImage
p1319
ss(Vimage
p1320
g1308
NVsparc64
p1321
tp1322
(dp1323
Vconfigs
p1324
(lp1325
Vkernelarch-sparc/config-up
p1326
ass(Vimage
p1327
g1308
NVsparc64-smp
p1328
tp1329
(dp1330
Vconfigs
p1331
(lp1332
Vkernelarch-sparc/config-smp
p1333
ass(Vimage
p1334
g1308
tp1335
(dp1336
Vsuggests
p1337
Vsilo, fdutils
p1338
sVinstall-stem
p1339
Vvmlinuz
p1340
sVconfigs
p1341
(lp1342
ss(Vdescription
p1343
g1308
NVsparc64-smp
p1344
tp1345
(dp1346
Vhardware
p1347
Vmultiprocessor 64-bit UltraSPARC
p1348
ss(Vdescription
p1349
g1308
NVsparc64
p1350
tp1351
(dp1352
Vhardware
p1353
Vuniprocessor 64-bit UltraSPARC
p1354
ss(g181
g1308
g149
tp1355
(dp1356
g184
(lp1357
Vsparc64
p1358
aVsparc64-smp
p1359
asg188
I01
ss(Vbase
p1360
Vtilegx
p1361
tp1362
(dp1363
Vfeaturesets
p1364
(lp1365
sVkernel-arch
p1366
Vtile
p1367
ss(Vbase
p1368
Vx32
p1369
tp1370
(dp1371
Vfeaturesets
p1372
(lp1373
sVkernel-arch
p1374
Vx86
p1375
ss(Vdescription
p1376
NVrt
p1377
tp1378
(dp1379
Vparts
p1380
(lp1381
Vrt
p1382
asVpart-long-rt
p1383
VThis kernel includes the PREEMPT_RT realtime patch set.
p1384
sVpart-short-rt
p1385
VPREEMPT_RT
p1386
ss(Vabi
p1387
Ng1377
tp1388
(dp1389
Vignore-changes
p1390
(lp1391
V*
p1392
ass(Vversion
p1393
tp1394
(dp1395
Vupstream
p1396
V4.15
p1397
sVsource
p1398
V4.15.11-1+rpi1
p1399
sVabiname
p1400
V4.15.0-2
p1401
sVabiname_base
p1402
V4.15.0
p1403
ss.