cdebian_linux.config
ConfigCore
p0
(tRp1
(Vabi
p2
tp3
(dp4
Vabiname
p5
V8
p6
sVignore-changes
p7
(lp8
V__cpuhp_*
p9
aV__udp_gso_segment
p10
aVbpf_analyzer
p11
aVcxl_*
p12
aVdax_flush
p13
aVieee80211_nullfunc_get
p14
aVinet_add_protocol
p15
aVinet_del_protocol
p16
aViommu_device_*
p17
aVmm_iommu_*
p18
aVmv_mbus_*
p19
aVperf_*
p20
aVregister_cxl_calls
p21
aVregister_key_type
p22
aVunregister_cxl_calls
p23
aV*_hw_breakpoint
p24
aVmodule:drivers/crypto/ccp/*
p25
aVmodule:drivers/hv/*
p26
aVmodule:drivers/gpu/drm/sun4i/*
p27
aVmodule:drivers/iio/**
p28
aVmodule:drivers/misc/cxl/*
p29
aVmodule:drivers/misc/lis3lv02d/*
p30
aVmodule:drivers/mtd/nand/*
p31
aVmodule:drivers/net/ethernet/**
p32
aVmodule:drivers/net/wireless/**
p33
aVmodule:drivers/nvdimm/*
p34
aVmodule:drivers/nvme/**
p35
aVmodule:drivers/power/supply/bq27xxx_battery
p36
aVmodule:drivers/scsi/cxgbi/*
p37
aVmodule:drivers/scsi/libiscs*
p38
aVmodule:drivers/scsi/qla2xxx/qla2xxx
p39
aVmodule:drivers/scsi/ufs/*
p40
aVmodule:drivers/target/**
p41
aVmodule:drivers/usb/chipidea/**
p42
aVmodule:drivers/usb/gadget/**
p43
aVmodule:drivers/usb/host/**
p44
aVmodule:drivers/usb/musb/**
p45
aVmodule:fs/nfs/**
p46
aVmodule:net/ceph/libceph
p47
aVmodule:net/l2tp/**
p48
aVmodule:net/openvswitch/**
p49
aVmodule:net/rxrpc/rxrpc
p50
aVmodule:net/sctp/**
p51
aVmodule:sound/core/seq/**
p52
aVmodule:sound/firewire/snd-firewire-lib
p53
aVmodule:sound/pci/hda/*
p54
aVbtree_*
p55
aVvisitor*
p56
aVcan_rx_register
p57
aVip6_xmit
p58
aVmodule:net/dccp/dccp
p59
aVmodule:net/rds/rds
p60
aVdevfreq_*
p61
aVdevm_devfreq_*
p62
aVupdate_devfreq
p63
aVmodule:drivers/infiniband/**
p64
aVacpi_ec_add_query_handler
p65
aVacpi_ec_remove_query_handler
p66
aVfirst_ec
p67
aVdebugfs_create_automount
p68
aVmodule:drivers/iio/imu/inv_mpu6050/*
p69
aVdrm_crtc_accurate_vblank_count
p70
aVacpi_nfit_desc_init
p71
aVacpi_nfit_init
p72
aVloop_register_transfer
p73
aVxen_xlate_*
p74
aVnf_nat_masquerade_ipv4_register_notifier
p75
aVnf_nat_masquerade_ipv6_register_notifier
p76
aVdfltcc_*
p77
aVmodule:drivers/scsi/hisi_sas/*
p78
aV__gfn_*
p79
aV__kvmhv_*
p80
aV__kvm_*
p81
aV__xive_vm_h_*
p82
aVgfn_*
p83
aVh_ipi_redirect
p84
aVhalt_poll_ns*
p85
aVkvm_*
p86
aVkvmhv_*
p87
aVkvmppc_*
p88
aVmark_page_dirty
p89
aVvcpu_*
p90
aVmodule:arch/powerpc/kvm/*
p91
aVmodule:arch/s390/kvm/*
p92
aVmodule:arch/x86/kvm/*
p93
aVuv_info
p94
aVxhci_init_driver
p95
ass(Vbase
p96
tp97
(dp98
Varches
p99
(lp100
Valpha
p101
aVamd64
p102
aVarm64
p103
aVarm64ilp32
p104
aVarmel
p105
aVarmhf
p106
aVhppa
p107
aVi386
p108
aVia64
p109
aVm68k
p110
aVmips
p111
aVmips64
p112
aVmips64el
p113
aVmips64r6
p114
aVmips64r6el
p115
aVmipsel
p116
aVmipsn32
p117
aVmipsn32el
p118
aVmipsn32r6
p119
aVmipsn32r6el
p120
aVmipsr6
p121
aVmipsr6el
p122
aVpowerpc
p123
aVppc64
p124
aVppc64el
p125
aVriscv64
p126
aVs390
p127
aVs390x
p128
aVsh3
p129
aVsh4
p130
aVsparc
p131
aVsparc64
p132
aVx32
p133
asVcompiler
p134
Vgcc-10
p135
sVfeaturesets
p136
(lp137
Vnone
p138
aVrt
p139
ass(Vbuild
p140
tp141
(dp142
Vdebug-info
p143
I01
sVsigned-code
p144
I00
ss(Vbase
p145
NVrt
p146
tp147
(dp148
Venabled
p149
I01
ss(Vdescription
p150
tp151
(dp152
Vpart-long-up
p153
VThis kernel is not suitable for SMP (multi-processor,\u000amulti-core or hyper-threaded) systems.
p154
ss(Vimage
p155
tp156
(dp157
Vinitramfs-generators
p158
(lp159
Vinitramfs-tools
p160
aVinitramfs-fallback
p161
asVbreaks
p162
(lp163
Vfwupdate (<< 12-7)
p164
aVwireless-regdb (<< 2019.06.03-1~)
p165
asVrecommends
p166
(lp167
Vapparmor
p168
ass(Vrelations
p169
tp170
(dp171
Vgcc-10
p172
Vgcc-10 <!stage1 !cross !pkg.linux.nokernel>, gcc-10-@gnu-type-package@ <!stage1 cross !pkg.linux.nokernel>
p173
sVinitramfs-fallback
p174
Vlinux-initramfs-tool
p175
sVinitramfs-tools
p176
Vinitramfs-tools (>= 0.120+deb8u2)
p177
ss(Vbase
p178
Valpha
p179
tp180
(dp181
Vdefault-flavour
p182
Valpha-smp
p183
sVkernel-arch
p184
Valpha
p185
sVfeaturesets
p186
(lp187
Vnone
p188
ass(Vbuild
p189
g179
tp190
(dp191
Vimage-file
p192
Varch/alpha/boot/vmlinux.gz
p193
ss(Vimage
p194
g179
tp195
(dp196
Vsuggests
p197
(lp198
Vaboot
p199
aVfdutils
p200
asVinstall-stem
p201
Vvmlinuz
p202
ss(Vdescription
p203
g179
NValpha-generic
p204
tp205
(dp206
Vhardware
p207
VAlpha
p208
sVhardware-long
p209
VDEC Alpha systems with extended kernel start address (Wildfire, Titan, Marvel)
p210
ss(Vdescription
p211
g179
NValpha-smp
p212
tp213
(dp214
Vhardware
p215
VAlpha SMP
p216
sVhardware-long
p217
VDEC Alpha SMP systems with extended kernel start address (Wildfire, Titan, Marvel)
p218
ss(Vbase
p219
g179
g188
tp220
(dp221
Vflavours
p222
(lp223
Valpha-generic
p224
aValpha-smp
p225
asVimplicit-flavour
p226
I01
ss(Vbase
p227
Vamd64
p228
tp229
(dp230
Vfeaturesets
p231
(lp232
Vnone
p233
aVrt
p234
asVkernel-arch
p235
Vx86
p236
ss(Vbuild
p237
g228
tp238
(dp239
Vimage-file
p240
Varch/x86/boot/bzImage
p241
sVsigned-code
p242
I01
sVvdso
p243
I01
ss(Vimage
p244
g228
tp245
(dp246
Vbootloaders
p247
(lp248
Vgrub-pc
p249
aVgrub-efi-amd64
p250
aVextlinux
p251
asVinstall-stem
p252
Vvmlinuz
p253
sVbreaks
p254
(lp255
Vxserver-xorg-input-vmmouse (<< 1:13.0.99)
p256
ass(Vrelations
p257
g228
tp258
(dp259
Vheaders%gcc-10
p260
Vlinux-compiler-gcc-10-x86
p261
ss(Vdescription
p262
g228
NVamd64
p263
tp264
(dp265
Vhardware
p266
V64-bit PCs
p267
sVhardware-long
p268
VPCs with AMD64, Intel 64 or VIA Nano processors
p269
ss(Vdescription
p270
g228
NVcloud-amd64
p271
tp272
(dp273
Vhardware
p274
Vx86-64 cloud
p275
sVhardware-long
p276
Vcloud platforms including Amazon EC2, Microsoft Azure, and Google Compute Engine
p277
ss(Vbase
p278
g228
Vnone
p279
tp280
(dp281
Vflavours
p282
(lp283
Vamd64
p284
aVcloud-amd64
p285
asVdefault-flavour
p286
Vamd64
p287
ss(Vimage
p288
g228
g279
Vcloud-amd64
p289
tp290
(dp291
Vconfigs
p292
(lp293
Vconfig.cloud
p294
aVamd64/config.cloud-amd64
p295
ass(Vbase
p296
g228
Vrt
p297
tp298
(dp299
Vflavours
p300
(lp301
Vamd64
p302
ass(Vbase
p303
Varm64
p304
tp305
(dp306
Vcross-compile-compat
p307
Varm-linux-gnueabihf-
p308
sVkernel-arch
p309
Varm64
p310
sVfeaturesets
p311
(lp312
Vnone
p313
aVrt
p314
ass(Vbuild
p315
g304
tp316
(dp317
Vimage-file
p318
Varch/arm64/boot/Image
p319
sVsigned-code
p320
I01
sVvdso
p321
I01
ss(Vimage
p322
g304
tp323
(dp324
Vinstall-stem
p325
Vvmlinuz
p326
sVbreaks
p327
(lp328
Vlibmozjs185-1.0
p329
aVlibmozjs-24-0 (<< 24.2.0-5.1~)
p330
ass(Vdescription
p331
g304
NVarm64
p332
tp333
(dp334
Vhardware
p335
V64-bit ARMv8 machines
p336
ss(Vdescription
p337
g304
NVcloud-arm64
p338
tp339
(dp340
Vhardware
p341
Varm64 cloud
p342
sVhardware-long
p343
Vcloud platforms supporting arm64 virtual machines
p344
ss(Vimage
p345
g304
NVarm64
p346
tp347
(dp348
s(Vrelations
p349
g304
tp350
(dp351
Vgcc-10
p352
Vgcc-10 <!stage1 !cross !pkg.linux.nokernel>, gcc-10-aarch64-linux-gnu <!stage1 cross !pkg.linux.nokernel>, gcc-arm-linux-gnueabihf <!stage1 !pkg.linux.nokernel>
p353
sVheaders%gcc-10
p354
Vgcc-10
p355
ss(Vbase
p356
g304
Vnone
p357
tp358
(dp359
Vflavours
p360
(lp361
Varm64
p362
aVcloud-arm64
p363
asVdefault-flavour
p364
Varm64
p365
ss(Vimage
p366
g304
g357
Vcloud-arm64
p367
tp368
(dp369
Vconfigs
p370
(lp371
Vconfig.cloud
p372
aVarm64/config.cloud-arm64
p373
ass(Vbase
p374
g304
Vrt
p375
tp376
(dp377
Vflavours
p378
(lp379
Varm64
p380
ass(Vbase
p381
Varm64ilp32
p382
tp383
(dp384
Vkernel-arch
p385
Varm64
p386
sVfeaturesets
p387
(lp388
ss(Vbase
p389
Varmel
p390
tp391
(dp392
Vkernel-arch
p393
Varm
p394
sg186
(lp395
g188
ass(Vbuild
p396
g390
tp397
(dp398
Vimage-file
p399
Varch/arm/boot/zImage
p400
sVuncompressed-image-file
p401
Varch/arm/boot/Image
p402
ss(Vimage
p403
g390
tp404
(dp405
Vinstall-stem
p406
Vvmlinuz
p407
ss(Vrelations
p408
g390
tp409
(dp410
Vheaders%gcc-10
p411
Vlinux-compiler-gcc-10-arm
p412
ss(Vdescription
p413
g390
NVmarvell
p414
tp415
(dp416
Vhardware
p417
VMarvell Kirkwood/Orion
p418
sVhardware-long
p419
VMarvell Kirkwood and Orion based systems (https://wiki.debian.org/ArmEabiPort#Supported_hardware)
p420
ss(Vdescription
p421
g390
NVrpi
p422
tp423
(dp424
Vhardware
p425
VRaspberry Pi and Pi Zero
p426
sVhardware-long
p427
VRaspberry Pi, Raspberry Pi Zero based systems
p428
ss(Vimage
p429
g390
NVmarvell
p430
tp431
(dp432
Vrecommends
p433
(lp434
Vu-boot-tools
p435
asVcheck-size
p436
I2729712
sVcheck-size-with-dtb
p437
I01
sVbreaks
p438
(lp439
Vflash-kernel (<< 3.57~)
p440
ass(g219
g390
g188
tp441
(dp442
g222
(lp443
Vmarvell
p444
aVrpi
p445
asg226
I01
ss(Vbase
p446
Varmhf
p447
tp448
(dp449
Vfeaturesets
p450
(lp451
sVkernel-arch
p452
Varm
p453
ss(Vbase
p454
Vhppa
p455
tp456
(dp457
Vdefault-flavour
p458
Vparisc
p459
sVkernel-arch
p460
Vparisc
p461
sg186
(lp462
g188
ass(Vbuild
p463
g455
tp464
(dp465
Vimage-file
p466
Varch/parisc/boot/bzImage
p467
sVdebug-info
p468
I00
ss(Vimage
p469
g455
tp470
(dp471
Vsuggests
p472
(lp473
Vpalo
p474
asVinstall-stem
p475
Vvmlinuz
p476
ss(Vdescription
p477
g455
NVparisc
p478
tp479
(dp480
Vhardware
p481
V32-bit PA-RISC
p482
sVhardware-long
p483
VHP PA-RISC 32-bit systems with max 4 GB RAM
p484
ss(Vbase
p485
g455
NVparisc64
p486
tp487
(dp488
Vcflags
p489
V-fno-cse-follow-jumps
p490
sVoverride-host-type
p491
Vhppa64-linux-gnu
p492
ss(Vdescription
p493
g455
NVparisc64
p494
tp495
(dp496
Vhardware
p497
V64-bit PA-RISC
p498
sVhardware-long
p499
VHP PA-RISC 64-bit systems with support for more than 4 GB RAM
p500
ss(Vrelations
p501
g455
tp502
(dp503
Vgcc-10
p504
Vgcc-10 <!stage1 !cross !pkg.linux.nokernel>, gcc-10-hppa-linux-gnu <!stage1 cross !pkg.linux.nokernel>, binutils-hppa64-linux-gnu <!stage1 !pkg.linux.nokernel>, gcc-10-hppa64-linux-gnu <!stage1 !pkg.linux.nokernel>
p505
ss(g219
g455
g188
tp506
(dp507
g222
(lp508
Vparisc
p509
aVparisc64
p510
asg226
I01
ss(Vbase
p511
Vi386
p512
tp513
(dp514
Vfeaturesets
p515
(lp516
Vnone
p517
aVrt
p518
asVkernel-arch
p519
Vx86
p520
ss(Vbuild
p521
g512
tp522
(dp523
Vimage-file
p524
Varch/x86/boot/bzImage
p525
sVsigned-code
p526
I01
sVvdso
p527
I01
ss(Vdescription
p528
g512
tp529
(dp530
Vpart-long-pae
p531
VThis kernel requires PAE (Physical Address Extension).\u000aThis feature is supported by the Intel Pentium Pro/II/III/4/4M/D, Xeon,\u000aCore and Atom; AMD Geode NX, Athlon (K7), Duron, Opteron, Sempron,\u000aTurion or Phenom; Transmeta Efficeon; VIA C7; and some other processors.
p532
ss(Vimage
p533
g512
tp534
(dp535
Vbootloaders
p536
(lp537
Vgrub-pc
p538
aVgrub-efi-ia32
p539
aVextlinux
p540
asVinstall-stem
p541
Vvmlinuz
p542
sVbreaks
p543
(lp544
Vxserver-xorg-input-vmmouse (<< 1:13.0.99)
p545
ass(Vrelations
p546
g512
tp547
(dp548
Vheaders%gcc-10
p549
Vlinux-compiler-gcc-10-x86
p550
ss(Vdescription
p551
g512
NV686
p552
tp553
(dp554
Vhardware
p555
Volder PCs
p556
sVhardware-long
p557
VPCs with one or more processors not supporting PAE
p558
ss(Vdescription
p559
g512
NV686-pae
p560
tp561
(dp562
Vhardware
p563
Vmodern PCs
p564
sVhardware-long
p565
VPCs with one or more processors supporting PAE
p566
sVparts
p567
(lp568
Vpae
p569
ass(Vbase
p570
g512
Vnone
p571
tp572
(dp573
Vflavours
p574
(lp575
V686
p576
aV686-pae
p577
asVdefault-flavour
p578
V686-pae
p579
ss(Vbase
p580
g512
Vrt
p581
tp582
(dp583
Vflavours
p584
(lp585
V686-pae
p586
ass(Vbase
p587
Via64
p588
tp589
(dp590
Vdefault-flavour
p591
Vitanium
p592
sVkernel-arch
p593
Via64
p594
sg186
(lp595
g188
ass(Vbuild
p596
g588
tp597
(dp598
Vimage-file
p599
Vvmlinux.gz
p600
ss(Vimage
p601
g588
tp602
(dp603
Vbootloaders
p604
(lp605
Vgrub-efi-ia64
p606
asVinstall-stem
p607
Vvmlinuz
p608
ss(Vdescription
p609
g588
NVitanium
p610
tp611
(dp612
Vhardware
p613
VItanium (Merced)
p614
sVhardware-long
p615
Vsystems with original Itanium (Merced) processors
p616
ss(Vdescription
p617
g588
NVmckinley
p618
tp619
(dp620
Vhardware
p621
VItanium 2+
p622
sVhardware-long
p623
Vsystems with Itanium 2 or 9300/9500/9700-series processors
p624
ss(g219
g588
g188
tp625
(dp626
g222
(lp627
Vitanium
p628
aVmckinley
p629
asg226
I01
ss(Vbase
p630
Vm68k
p631
tp632
(dp633
Vcflags
p634
V-ffreestanding
p635
sVdefault-flavour
p636
Vm68k
p637
sVkernel-arch
p638
Vm68k
p639
sg186
(lp640
g188
ass(Vbuild
p641
g631
tp642
(dp643
Vimage-file
p644
Vvmlinux
p645
ss(Vimage
p646
g631
tp647
(dp648
Vsuggests
p649
(lp650
Vvmelilo
p651
aVfdutils
p652
asVinstall-stem
p653
Vvmlinux
p654
ss(Vdescription
p655
g631
NVm68k
p656
tp657
(dp658
Vhardware
p659
VMotorola MC68020+ family
p660
ss(g219
g631
g188
tp661
(dp662
g222
(lp663
Vm68k
p664
asg226
I01
ss(Vbase
p665
Vmips
p666
tp667
(dp668
Vkernel-arch
p669
Vmips
p670
sg186
(lp671
g188
ass(Vbuild
p672
g666
tp673
(dp674
Vimage-file
p675
Vvmlinuz
p676
ss(Vimage
p677
g666
tp678
(dp679
Vinstall-stem
p680
Vvmlinuz
p681
ss(Vdescription
p682
g666
NV4kc-malta
p683
tp684
(dp685
Vhardware
p686
VMIPS Malta
p687
sVhardware-long
p688
VMIPS Malta boards
p689
ss(Vimage
p690
g666
NV4kc-malta
p691
tp692
(dp693
Vconfigs
p694
(lp695
Vkernelarch-mips/config.malta
p696
aVkernelarch-mips/config.mips32r2
p697
ass(Vdescription
p698
g666
NV5kc-malta
p699
tp700
(dp701
Vhardware
p702
VMIPS Malta (64-bit)
p703
sVhardware-long
p704
VMIPS Malta boards (64-bit)
p705
ss(Vimage
p706
g666
NV5kc-malta
p707
tp708
(dp709
Vconfigs
p710
(lp711
Vkernelarch-mips/config.malta
p712
aVkernelarch-mips/config.mips64r2
p713
ass(Vdescription
p714
g666
NVocteon
p715
tp716
(dp717
Vhardware
p718
VOcteon
p719
sVhardware-long
p720
VCavium Networks Octeon
p721
ss(Vbuild
p722
g666
NVocteon
p723
tp724
(dp725
Vimage-file
p726
Vvmlinux
p727
ss(Vimage
p728
g666
NVocteon
p729
tp730
(dp731
Vinstall-stem
p732
Vvmlinux
p733
sVconfigs
p734
(lp735
Vkernelarch-mips/config.octeon
p736
ass(g219
g666
g188
tp737
(dp738
g222
(lp739
V4kc-malta
p740
aV5kc-malta
p741
aVocteon
p742
asg226
I01
ss(Vbase
p743
Vmips64
p744
tp745
(dp746
Vkernel-arch
p747
Vmips
p748
sg186
(lp749
g188
ass(Vbuild
p750
g744
tp751
(dp752
Vimage-file
p753
Vvmlinuz
p754
ss(Vimage
p755
g744
tp756
(dp757
Vinstall-stem
p758
Vvmlinuz
p759
ss(Vdescription
p760
g744
NV5kc-malta
p761
tp762
(dp763
Vhardware
p764
VMIPS Malta
p765
sVhardware-long
p766
VMIPS Malta boards
p767
ss(Vimage
p768
g744
NV5kc-malta
p769
tp770
(dp771
Vconfigs
p772
(lp773
Vkernelarch-mips/config.malta
p774
aVkernelarch-mips/config.mips64r2
p775
ass(Vdescription
p776
g744
NVocteon
p777
tp778
(dp779
Vhardware
p780
VOcteon
p781
sVhardware-long
p782
VCavium Networks Octeon
p783
ss(Vbuild
p784
g744
NVocteon
p785
tp786
(dp787
Vimage-file
p788
Vvmlinux
p789
ss(Vimage
p790
g744
NVocteon
p791
tp792
(dp793
Vinstall-stem
p794
Vvmlinux
p795
sVconfigs
p796
(lp797
Vkernelarch-mips/config.octeon
p798
ass(g219
g744
g188
tp799
(dp800
g222
(lp801
V5kc-malta
p802
aVocteon
p803
asg226
I01
ss(Vbase
p804
Vmips64el
p805
tp806
(dp807
Vkernel-arch
p808
Vmips
p809
sg186
(lp810
g188
ass(Vbuild
p811
g805
tp812
(dp813
Vimage-file
p814
Vvmlinuz
p815
ss(Vimage
p816
g805
tp817
(dp818
Vinstall-stem
p819
Vvmlinuz
p820
ss(Vdescription
p821
g805
NV5kc-malta
p822
tp823
(dp824
Vhardware
p825
VMIPS Malta
p826
sVhardware-long
p827
VMIPS Malta boards
p828
ss(Vimage
p829
g805
NV5kc-malta
p830
tp831
(dp832
Vconfigs
p833
(lp834
Vkernelarch-mips/config.malta
p835
aVkernelarch-mips/config.mips64r2
p836
ass(Vdescription
p837
g805
NVloongson-3
p838
tp839
(dp840
Vhardware
p841
VLoongson 3A/3B
p842
sVhardware-long
p843
VLoongson 3A or 3B based systems (e.g. from Loongson or Lemote)
p844
ss(Vimage
p845
g805
NVloongson-3
p846
tp847
(dp848
Vconfigs
p849
(lp850
Vkernelarch-mips/config.loongson-3
p851
ass(Vdescription
p852
g805
NVocteon
p853
tp854
(dp855
Vhardware
p856
VOcteon
p857
sVhardware-long
p858
VCavium Networks Octeon
p859
ss(Vbuild
p860
g805
NVocteon
p861
tp862
(dp863
Vimage-file
p864
Vvmlinux
p865
ss(Vimage
p866
g805
NVocteon
p867
tp868
(dp869
Vinstall-stem
p870
Vvmlinux
p871
sVconfigs
p872
(lp873
Vkernelarch-mips/config.octeon
p874
ass(g219
g805
g188
tp875
(dp876
g222
(lp877
V5kc-malta
p878
aVloongson-3
p879
aVocteon
p880
asg226
I01
ss(Vbase
p881
Vmips64r6
p882
tp883
(dp884
Vdefault-flavour
p885
Vmips64r6
p886
sVkernel-arch
p887
Vmips
p888
sg186
(lp889
g188
ass(Vbuild
p890
g882
tp891
(dp892
Vimage-file
p893
Vvmlinux
p894
ss(Vimage
p895
g882
tp896
(dp897
Vinstall-stem
p898
Vvmlinux
p899
ss(Vdescription
p900
g882
NVmips64r6
p901
tp902
(dp903
Vhardware
p904
VMIPS R6 (64 bit, big endian)
p905
sVhardware-long
p906
VMIPS R6 (64 bit, big endian)
p907
ss(Vimage
p908
g882
NVmips64r6
p909
tp910
(dp911
Vconfigs
p912
(lp913
Vkernelarch-mips/config.boston
p914
aVkernelarch-mips/config.mips64r6
p915
ass(g219
g882
g188
tp916
(dp917
g222
(lp918
Vmips64r6
p919
asg226
I01
ss(Vbase
p920
Vmips64r6el
p921
tp922
(dp923
Vdefault-flavour
p924
Vmips64r6el
p925
sVkernel-arch
p926
Vmips
p927
sg186
(lp928
g188
ass(Vbuild
p929
g921
tp930
(dp931
Vimage-file
p932
Vvmlinux
p933
ss(Vimage
p934
g921
tp935
(dp936
Vinstall-stem
p937
Vvmlinux
p938
ss(Vdescription
p939
g921
NVmips64r6el
p940
tp941
(dp942
Vhardware
p943
VMIPS R6 (64 bit, little endian)
p944
sVhardware-long
p945
VMIPS R6 (64 bit, little endian)
p946
ss(Vimage
p947
g921
NVmips64r6el
p948
tp949
(dp950
Vconfigs
p951
(lp952
Vkernelarch-mips/config.boston
p953
aVkernelarch-mips/config.mips64r6
p954
ass(g219
g921
g188
tp955
(dp956
g222
(lp957
Vmips64r6el
p958
asg226
I01
ss(Vbase
p959
Vmipsel
p960
tp961
(dp962
Vkernel-arch
p963
Vmips
p964
sg186
(lp965
g188
ass(Vbuild
p966
g960
tp967
(dp968
Vimage-file
p969
Vvmlinuz
p970
ss(Vimage
p971
g960
tp972
(dp973
Vinstall-stem
p974
Vvmlinuz
p975
ss(Vdescription
p976
g960
NV4kc-malta
p977
tp978
(dp979
Vhardware
p980
VMIPS Malta
p981
sVhardware-long
p982
VMIPS Malta boards
p983
ss(Vimage
p984
g960
NV4kc-malta
p985
tp986
(dp987
Vconfigs
p988
(lp989
Vkernelarch-mips/config.malta
p990
aVkernelarch-mips/config.mips32r2
p991
ass(Vdescription
p992
g960
NV5kc-malta
p993
tp994
(dp995
Vhardware
p996
VMIPS Malta (64-bit)
p997
sVhardware-long
p998
VMIPS Malta boards (64-bit)
p999
ss(Vimage
p1000
g960
NV5kc-malta
p1001
tp1002
(dp1003
Vconfigs
p1004
(lp1005
Vkernelarch-mips/config.malta
p1006
aVkernelarch-mips/config.mips64r2
p1007
ass(Vdescription
p1008
g960
NVloongson-3
p1009
tp1010
(dp1011
Vhardware
p1012
VLoongson 3A/3B
p1013
sVhardware-long
p1014
VLoongson 3A or 3B based systems (e.g. from Loongson or Lemote)
p1015
ss(Vimage
p1016
g960
NVloongson-3
p1017
tp1018
(dp1019
Vconfigs
p1020
(lp1021
Vkernelarch-mips/config.loongson-3
p1022
ass(Vdescription
p1023
g960
NVocteon
p1024
tp1025
(dp1026
Vhardware
p1027
VOcteon
p1028
sVhardware-long
p1029
VCavium Networks Octeon
p1030
ss(Vbuild
p1031
g960
NVocteon
p1032
tp1033
(dp1034
Vimage-file
p1035
Vvmlinux
p1036
ss(Vimage
p1037
g960
NVocteon
p1038
tp1039
(dp1040
Vinstall-stem
p1041
Vvmlinux
p1042
sVconfigs
p1043
(lp1044
Vkernelarch-mips/config.octeon
p1045
ass(g219
g960
g188
tp1046
(dp1047
g222
(lp1048
V4kc-malta
p1049
aV5kc-malta
p1050
aVloongson-3
p1051
aVocteon
p1052
asg226
I01
ss(Vbase
p1053
Vmipsn32
p1054
tp1055
(dp1056
Vkernel-arch
p1057
Vmips
p1058
sVfeaturesets
p1059
(lp1060
ss(Vbase
p1061
Vmipsn32el
p1062
tp1063
(dp1064
Vkernel-arch
p1065
Vmips
p1066
sVfeaturesets
p1067
(lp1068
ss(Vbase
p1069
Vmipsn32r6
p1070
tp1071
(dp1072
Vkernel-arch
p1073
Vmips
p1074
sVfeaturesets
p1075
(lp1076
ss(Vbase
p1077
Vmipsn32r6el
p1078
tp1079
(dp1080
Vkernel-arch
p1081
Vmips
p1082
sVfeaturesets
p1083
(lp1084
ss(Vbase
p1085
Vmipsr6
p1086
tp1087
(dp1088
Vdefault-flavour
p1089
Vmips32r6
p1090
sVkernel-arch
p1091
Vmips
p1092
sg186
(lp1093
g188
ass(Vbuild
p1094
g1086
tp1095
(dp1096
Vimage-file
p1097
Vvmlinux
p1098
ss(Vimage
p1099
g1086
tp1100
(dp1101
Vinstall-stem
p1102
Vvmlinux
p1103
ss(Vdescription
p1104
g1086
NVmips32r6
p1105
tp1106
(dp1107
Vhardware
p1108
VMIPS R6 (32 bit, big endian)
p1109
sVhardware-long
p1110
VMIPS R6 (32 bit, big endian)
p1111
ss(Vimage
p1112
g1086
NVmips32r6
p1113
tp1114
(dp1115
Vconfigs
p1116
(lp1117
Vkernelarch-mips/config.boston
p1118
aVkernelarch-mips/config.mips32r6
p1119
ass(Vdescription
p1120
g1086
NVmips64r6
p1121
tp1122
(dp1123
Vhardware
p1124
VMIPS R6 (64 bit, big endian)
p1125
sVhardware-long
p1126
VMIPS R6 (64 bit, big endian)
p1127
ss(Vimage
p1128
g1086
NVmips64r6
p1129
tp1130
(dp1131
Vconfigs
p1132
(lp1133
Vkernelarch-mips/config.boston
p1134
aVkernelarch-mips/config.mips64r6
p1135
ass(g219
g1086
g188
tp1136
(dp1137
g222
(lp1138
Vmips32r6
p1139
aVmips64r6
p1140
asg226
I01
ss(Vbase
p1141
Vmipsr6el
p1142
tp1143
(dp1144
Vdefault-flavour
p1145
Vmips32r6el
p1146
sVkernel-arch
p1147
Vmips
p1148
sg186
(lp1149
g188
ass(Vbuild
p1150
g1142
tp1151
(dp1152
Vimage-file
p1153
Vvmlinux
p1154
ss(Vimage
p1155
g1142
tp1156
(dp1157
Vinstall-stem
p1158
Vvmlinux
p1159
ss(Vdescription
p1160
g1142
NVmips32r6el
p1161
tp1162
(dp1163
Vhardware
p1164
VMIPS R6 (32 bit, little endian)
p1165
sVhardware-long
p1166
VMIPS R6 (32 bit, little endian)
p1167
ss(Vimage
p1168
g1142
NVmips32r6el
p1169
tp1170
(dp1171
Vconfigs
p1172
(lp1173
Vkernelarch-mips/config.boston
p1174
aVkernelarch-mips/config.mips32r6
p1175
ass(Vdescription
p1176
g1142
NVmips64r6el
p1177
tp1178
(dp1179
Vhardware
p1180
VMIPS R6 (64 bit, little endian)
p1181
sVhardware-long
p1182
VMIPS R6 (64 bit, little endian)
p1183
ss(Vimage
p1184
g1142
NVmips64r6el
p1185
tp1186
(dp1187
Vconfigs
p1188
(lp1189
Vkernelarch-mips/config.boston
p1190
aVkernelarch-mips/config.mips64r6
p1191
ass(g219
g1142
g188
tp1192
(dp1193
g222
(lp1194
Vmips32r6el
p1195
aVmips64r6el
p1196
asg226
I01
ss(Vbase
p1197
Vpowerpc
p1198
tp1199
(dp1200
Vkernel-arch
p1201
Vpowerpc
p1202
sg186
(lp1203
g188
ass(Vbuild
p1204
g1198
tp1205
(dp1206
Vimage-file
p1207
Vvmlinux
p1208
sVvdso
p1209
I01
ss(Vimage
p1210
g1198
tp1211
(dp1212
Vconfigs
p1213
(lp1214
sVbootloaders
p1215
(lp1216
Vgrub-ieee1275
p1217
asVsuggests
p1218
(lp1219
Vmkvmlinuz
p1220
asVinstall-stem
p1221
Vvmlinux
p1222
ss(Vdescription
p1223
g1198
NVpowerpc
p1224
tp1225
(dp1226
Vhardware
p1227
Vuniprocessor 32-bit PowerPC
p1228
ss(Vdescription
p1229
g1198
NVpowerpc-smp
p1230
tp1231
(dp1232
Vhardware
p1233
Vmultiprocessor 32-bit PowerPC
p1234
ss(Vimage
p1235
g1198
NVpowerpc-smp
p1236
tp1237
(dp1238
Vconfigs
p1239
(lp1240
Vpowerpc/config.powerpc
p1241
aVpowerpc/config.powerpc-smp
p1242
ass(Vdescription
p1243
g1198
NVpowerpc64
p1244
tp1245
(dp1246
Vhardware
p1247
V64-bit PowerPC
p1248
ss(Vimage
p1249
g1198
NVpowerpc64
p1250
tp1251
(dp1252
Vconfigs
p1253
(lp1254
Vkernelarch-powerpc/config-arch-64
p1255
aVkernelarch-powerpc/config-arch-64-be
p1256
ass(g219
g1198
g188
tp1257
(dp1258
g222
(lp1259
Vpowerpc
p1260
aVpowerpc-smp
p1261
aVpowerpc64
p1262
asg226
I01
ss(Vbase
p1263
Vppc64
p1264
tp1265
(dp1266
Vdefault-flavour
p1267
Vpowerpc64
p1268
sVkernel-arch
p1269
Vpowerpc
p1270
sg186
(lp1271
g188
ass(Vbuild
p1272
g1264
tp1273
(dp1274
Vimage-file
p1275
Vvmlinux
p1276
sVvdso
p1277
I01
ss(Vimage
p1278
g1264
tp1279
(dp1280
Vconfigs
p1281
(lp1282
sVbootloaders
p1283
(lp1284
Vgrub-ieee1275
p1285
asVsuggests
p1286
(lp1287
Vmkvmlinuz
p1288
asVinstall-stem
p1289
Vvmlinux
p1290
ss(Vdescription
p1291
g1264
NVpowerpc64
p1292
tp1293
(dp1294
Vhardware
p1295
V64-bit PowerPC
p1296
ss(Vimage
p1297
g1264
NVpowerpc64
p1298
tp1299
(dp1300
Vconfigs
p1301
(lp1302
Vkernelarch-powerpc/config-arch-64
p1303
aVkernelarch-powerpc/config-arch-64-be
p1304
ass(g219
g1264
g188
tp1305
(dp1306
g222
(lp1307
Vpowerpc64
p1308
asg226
I01
ss(Vbase
p1309
Vppc64el
p1310
tp1311
(dp1312
Vdefault-flavour
p1313
Vpowerpc64le
p1314
sVkernel-arch
p1315
Vpowerpc
p1316
sg186
(lp1317
g188
ass(Vbuild
p1318
g1310
tp1319
(dp1320
Vimage-file
p1321
Vvmlinux
p1322
sVvdso
p1323
I01
ss(Vimage
p1324
g1310
tp1325
(dp1326
Vconfigs
p1327
(lp1328
sVbootloaders
p1329
(lp1330
Vgrub-ieee1275
p1331
asVsuggests
p1332
(lp1333
Vmkvmlinuz
p1334
asVinstall-stem
p1335
Vvmlinux
p1336
ss(Vdescription
p1337
g1310
NVpowerpc64le
p1338
tp1339
(dp1340
Vhardware
p1341
VLittle-endian 64-bit PowerPC
p1342
ss(Vimage
p1343
g1310
NVpowerpc64le
p1344
tp1345
(dp1346
Vconfigs
p1347
(lp1348
Vkernelarch-powerpc/config-arch-64
p1349
aVkernelarch-powerpc/config-arch-64-le
p1350
ass(g219
g1310
g188
tp1351
(dp1352
g222
(lp1353
Vpowerpc64le
p1354
asg226
I01
ss(Vbase
p1355
Vriscv64
p1356
tp1357
(dp1358
Vkernel-arch
p1359
Vriscv
p1360
sVfeaturesets
p1361
(lp1362
Vnone
p1363
ass(Vbuild
p1364
g1356
tp1365
(dp1366
Vimage-file
p1367
Varch/riscv/boot/Image
p1368
sVvdso
p1369
I01
ss(Vimage
p1370
g1356
tp1371
(dp1372
Vinstall-stem
p1373
Vvmlinux
p1374
ss(Vdescription
p1375
g1356
NVriscv64
p1376
tp1377
(dp1378
Vhardware
p1379
V64-bit RISC-V platforms
p1380
sVhardware-long
p1381
V64-bit RISC-V platforms
p1382
ss(Vbase
p1383
g1356
Vnone
p1384
tp1385
(dp1386
Vflavours
p1387
(lp1388
Vriscv64
p1389
asVdefault-flavour
p1390
Vriscv64
p1391
ss(Vbase
p1392
Vs390
p1393
tp1394
(dp1395
Vkernel-arch
p1396
Vs390
p1397
sVfeaturesets
p1398
(lp1399
ss(Vbase
p1400
Vs390x
p1401
tp1402
(dp1403
Vdefault-flavour
p1404
Vs390x
p1405
sVkernel-arch
p1406
Vs390
p1407
sg186
(lp1408
g188
ass(Vbuild
p1409
g1401
tp1410
(dp1411
Vimage-file
p1412
Varch/s390/boot/bzImage
p1413
sVvdso
p1414
I01
ss(Vimage
p1415
g1401
tp1416
(dp1417
Vbootloaders
p1418
(lp1419
Vs390-tools
p1420
asVinstall-stem
p1421
Vvmlinuz
p1422
ss(Vrelations
p1423
g1401
tp1424
(dp1425
Vheaders%gcc-10
p1426
Vlinux-compiler-gcc-10-s390
p1427
ss(Vdescription
p1428
g1401
NVs390x
p1429
tp1430
(dp1431
Vhardware
p1432
VIBM zSeries
p1433
ss(g219
g1401
g188
tp1434
(dp1435
g222
(lp1436
Vs390x
p1437
asg226
I01
ss(Vbase
p1438
Vsh3
p1439
tp1440
(dp1441
Vkernel-arch
p1442
Vsh
p1443
sVfeaturesets
p1444
(lp1445
ss(Vbase
p1446
Vsh4
p1447
tp1448
(dp1449
Vkernel-arch
p1450
Vsh
p1451
sg186
(lp1452
g188
ass(Vbuild
p1453
g1447
tp1454
(dp1455
Vimage-file
p1456
Varch/sh/boot/zImage
p1457
ss(Vimage
p1458
g1447
tp1459
(dp1460
Vinstall-stem
p1461
Vvmlinuz
p1462
ss(Vdescription
p1463
g1447
NVsh7751r
p1464
tp1465
(dp1466
Vhardware
p1467
Vsh7751r
p1468
sVhardware-long
p1469
VRenesas SH7751R R2D plus board
p1470
ss(Vdescription
p1471
g1447
NVsh7785lcr
p1472
tp1473
(dp1474
Vhardware
p1475
Vsh7785lcr
p1476
sVhardware-long
p1477
VRenesas SH7785 reference board
p1478
ss(Vimage
p1479
g1447
NVsh7785lcr
p1480
tp1481
(dp1482
Vrecommends
p1483
(lp1484
Vu-boot-tools
p1485
asVcheck-size
p1486
I4194304
ss(g219
g1447
g188
tp1487
(dp1488
g222
(lp1489
Vsh7751r
p1490
aVsh7785lcr
p1491
asg226
I01
ss(Vbase
p1492
Vsparc
p1493
tp1494
(dp1495
Vkernel-arch
p1496
Vsparc
p1497
sVfeaturesets
p1498
(lp1499
ss(Vbase
p1500
Vsparc64
p1501
tp1502
(dp1503
Vdefault-flavour
p1504
Vsparc64-smp
p1505
sVkernel-arch
p1506
Vsparc
p1507
sg186
(lp1508
g188
ass(Vbuild
p1509
g1501
tp1510
(dp1511
Vimage-file
p1512
Vvmlinux
p1513
ss(Vimage
p1514
g1501
tp1515
(dp1516
Vconfigs
p1517
(lp1518
sVbootloaders
p1519
(lp1520
Vgrub-ieee1275
p1521
asVsuggests
p1522
(lp1523
Vfdutils
p1524
asVinstall-stem
p1525
Vvmlinux
p1526
ss(Vdescription
p1527
g1501
NVsparc64
p1528
tp1529
(dp1530
Vhardware
p1531
Vuniprocessor 64-bit UltraSPARC
p1532
ss(Vimage
p1533
g1501
NVsparc64
p1534
tp1535
(dp1536
Vconfigs
p1537
(lp1538
Vkernelarch-sparc/config-up
p1539
ass(Vdescription
p1540
g1501
NVsparc64-smp
p1541
tp1542
(dp1543
Vhardware
p1544
Vmultiprocessor 64-bit UltraSPARC
p1545
ss(Vimage
p1546
g1501
NVsparc64-smp
p1547
tp1548
(dp1549
Vconfigs
p1550
(lp1551
Vkernelarch-sparc/config-smp
p1552
ass(g219
g1501
g188
tp1553
(dp1554
g222
(lp1555
Vsparc64
p1556
aVsparc64-smp
p1557
asg226
I01
ss(Vbase
p1558
Vx32
p1559
tp1560
(dp1561
Vkernel-arch
p1562
Vx86
p1563
sVfeaturesets
p1564
(lp1565
ss(Vabi
p1566
NVrt
p1567
tp1568
(dp1569
Vignore-changes
p1570
(lp1571
V*
p1572
ass(Vdescription
p1573
Ng1567
tp1574
(dp1575
Vpart-long-rt
p1576
VThis kernel includes the PREEMPT_RT realtime patch set.
p1577
sVpart-short-rt
p1578
VPREEMPT_RT
p1579
sVparts
p1580
(lp1581
Vrt
p1582
ass(Vversion
p1583
tp1584
(dp1585
Vsource
p1586
V5.10.46-3+rpi1
p1587
sVupstream
p1588
V5.10
p1589
sVabiname_base
p1590
V5.10.0
p1591
sVabiname
p1592
V5.10.0-8
p1593
ss.