cdebian_linux.config
ConfigCore
p0
(tRp1
(Vbase
p2
tp3
(dp4
Varches
p5
(lp6
Valpha
p7
aVamd64
p8
aVarm64
p9
aVarmel
p10
aVarmhf
p11
aVhppa
p12
aVi386
p13
aVm68k
p14
aVmips
p15
aVmipsel
p16
aVmipsn32
p17
aVmipsn32el
p18
aVmips64
p19
aVmips64el
p20
aVpowerpc
p21
aVpowerpcspe
p22
aVppc64
p23
aVppc64el
p24
aVs390
p25
aVs390x
p26
aVsh3
p27
aVsh4
p28
aVsparc
p29
aVsparc64
p30
aVtilegx
p31
aVx32
p32
asVfeaturesets
p33
(lp34
Vnone
p35
aVrt
p36
asVcompiler
p37
Vgcc-6
p38
ss(Vbuild
p39
tp40
(dp41
Vsigned-modules
p42
I00
sVdebug-info
p43
I01
ss(Vbase
p44
NVrt
p45
tp46
(dp47
Venabled
p48
I01
ss(Vdescription
p49
tp50
(dp51
Vpart-long-up
p52
VThis kernel is not suitable for SMP (multi-processor,\u000amulti-core or hyper-threaded) systems.
p53
sVpart-long-xen
p54
VThis kernel also runs on a Xen hypervisor.\u000aIt supports both privileged (dom0) and unprivileged (domU) operation.
p55
ss(Vrelations
p56
tp57
(dp58
Vinitramfs-tools
p59
Vinitramfs-tools (>= 0.120+deb8u2)
p60
sVgcc-6
p61
Vgcc-6 <!stage1 !cross>, gcc-6-@gnu-type-package@ <!stage1 cross>
p62
sVinitramfs-fallback
p63
Vlinux-initramfs-tool
p64
ss(Vimage
p65
tp66
(dp67
Vinitramfs-generators
p68
(lp69
Vinitramfs-tools
p70
aVinitramfs-fallback
p71
ass(Vabi
p72
tp73
(dp74
Vabiname
p75
V18
p76
sVignore-changes
p77
(lp78
V__cpuhp_*
p79
aVbpf_analyzer
p80
aVcpu_tlbstate
p81
aVcxl_*
p82
aVinet6_register_icmp_sender
p83
aVinet6_unregister_icmp_sender
p84
aVinet_frag_*
p85
aVinet_frags_*
p86
aVinjectm
p87
aVip6_expire_frag_queue
p88
aVip6_frag_*
p89
aVmce_*
p90
aVmm_iommu_*
p91
aVmv_mbus_*
p92
aVpsched_ratecfg_precompute
p93
aVregister_cxl_calls
p94
aVregister_key_type
p95
aVshash_no_setkey
p96
aVtpm_*
p97
aVtpmm_chip_alloc
p98
aVunregister_cxl_calls
p99
aVzs_*
p100
aVmodule:drivers/block/loop
p101
aVmodule:drivers/crypto/ccp/*
p102
aVmodule:drivers/crypto/qat/*
p103
aVmodule:drivers/edac/edac_mce_amd
p104
aVmodule:drivers/hv/*
p105
aVmodule:drivers/iio/common/hid-sensors/*
p106
aVmodule:drivers/iio/common/st_sensors/**
p107
aVmodule:drivers/media/usb/dvb-usb/**
p108
aVmodule:drivers/media/usb/gspca/**
p109
aVmodule:drivers/misc/**
p110
aVmodule:drivers/net/ethernet/**
p111
aVmodule:drivers/net/tun
p112
aVmodule:drivers/net/usb/**
p113
aVmodule:drivers/net/wireless/**
p114
aVmodule:drivers/nfc/**
p115
aVmodule:drivers/nvdimm/*
p116
aVmodule:drivers/nvme/**
p117
aVmodule:drivers/power/supply/bq27xxx_battery
p118
aVmodule:drivers/s390/net/qeth
p119
aVmodule:drivers/s390/net/qeth*
p120
aVmodule:drivers/scsi/cxgbi/*
p121
aVmodule:drivers/scsi/esp_scsi
p122
aVmodule:drivers/scsi/libiscs*
p123
aVmodule:drivers/scsi/qla2xxx/qla2xxx
p124
aVmodule:drivers/scsi/ufs/*
p125
aVmodule:drivers/staging/**
p126
aVmodule:drivers/target/**
p127
aVmodule:drivers/usb/chipidea/**
p128
aVmodule:drivers/usb/gadget/**
p129
aVmodule:drivers/usb/host/**
p130
aVmodule:drivers/usb/musb/**
p131
aVmodule:drivers/usb/usbip/**
p132
aVmodule:drivers/vhost/vhost
p133
aVmodule:fs/crypto/fscrypto
p134
aVmodule:fs/nfs/nfs
p135
aVmodule:net/ceph/libceph
p136
aVmodule:net/netfilter/nft_reject
p137
aVmodule:net/nfc/hci/hci
p138
aVmodule:net/l2tp/**
p139
aVmodule:net/sctp/*
p140
aVmodule:net/vmw_vsock/*
p141
aVmodule:sound/firewire/snd-firewire-lib
p142
aVmodule:sound/pci/hda/*
p143
aVbtree_*
p144
aVvisitor*
p145
aVcan_rx_register
p146
aVip6_xmit
p147
aVmodule:net/dccp/dccp
p148
aVmodule:net/rds/rds
p149
aVxprt_register_transport
p150
aVxprt_unregister_transport
p151
aVdevfreq_*
p152
aVdevm_devfreq_*
p153
aVupdate_devfreq
p154
aVmodule:drivers/infiniband/**
p155
aVacpi_ec_add_query_handler
p156
aVacpi_ec_remove_query_handler
p157
aVfirst_ec
p158
aVdebugfs_create_automount
p159
aV__gfn_*
p160
aV__kvm_*
p161
aVgfn_*
p162
aVkvm_*
p163
aVmark_page_dirty
p164
aVvcpu_*
p165
aVmodule:arch/powerpc/kvm/*
p166
aVmodule:arch/s390/kvm/*
p167
aVmodule:arch/x86/kvm/*
p168
aV*_evtchn_*
p169
aV*_xen_*
p170
aV*_xenballooned_*
p171
aV*_xenbus_*
p172
aV*_xenstore_*
p173
aVgnttab_*
p174
aVHYPERVISOR_*
p175
aVx86_hyper_xen
p176
aVxen_*
p177
aVxenbus_*
p178
aVreturn_address
p179
aVbr_netfilter_enable
p180
ass(Vbase
p181
Valpha
p182
tp183
(dp184
Vfeaturesets
p185
(lp186
Vnone
p187
asVkernel-arch
p188
Valpha
p189
ss(Vdescription
p190
g182
NValpha-smp
p191
tp192
(dp193
Vhardware
p194
VAlpha SMP
p195
sVhardware-long
p196
VDEC Alpha SMP systems with extended kernel start address (Wildfire, Titan, Marvel)
p197
ss(Vbuild
p198
g182
tp199
(dp200
Vsigned-modules
p201
I00
sVimage-file
p202
Varch/alpha/boot/vmlinux.gz
p203
ss(Vdescription
p204
g182
NValpha-generic
p205
tp206
(dp207
Vhardware
p208
VAlpha
p209
sVhardware-long
p210
VDEC Alpha systems with extended kernel start address (Wildfire, Titan, Marvel)
p211
ss(Vimage
p212
g182
tp213
(dp214
Vsuggests
p215
Vaboot, fdutils
p216
sVinstall-stem
p217
Vvmlinuz
p218
ss(Vbase
p219
g182
g187
tp220
(dp221
Vflavours
p222
(lp223
Valpha-generic
p224
aValpha-smp
p225
asVimplicit-flavour
p226
I01
ss(Vbase
p227
Vamd64
p228
tp229
(dp230
Vfeaturesets
p231
(lp232
Vnone
p233
aVrt
p234
asVkernel-arch
p235
Vx86
p236
ss(Vdescription
p237
g228
NVamd64
p238
tp239
(dp240
Vhardware
p241
V64-bit PCs
p242
sVhardware-long
p243
VPCs with AMD64, Intel 64 or VIA Nano processors
p244
ss(Vbuild
p245
g228
tp246
(dp247
Vvdso
p248
I01
sVimage-file
p249
Varch/x86/boot/bzImage
p250
sVdebug-info
p251
I01
ss(Vrelations
p252
g228
tp253
(dp254
Vheaders%gcc-6
p255
Vlinux-compiler-gcc-6-x86 (>= 4.9.82-1+deb9u1~)
p256
sVgcc-6
p257
Vgcc-6 (>= 6.3.0-18+deb9u1~) <!stage1 !cross>, gcc-6-@gnu-type-package@ (>= 6.3.0-18+deb9u1~) <!stage1 cross>
p258
ss(Vimage
p259
g228
tp260
(dp261
Vbreaks
p262
Vxserver-xorg-input-vmmouse (<< 1:13.0.99), qemu-system-x86 (<< 1:2.5+dfsg-1)
p263
sVinstall-stem
p264
Vvmlinuz
p265
sVbootloaders
p266
(lp267
Vgrub-pc
p268
aVgrub-efi-amd64
p269
aVextlinux
p270
ass(Vbase
p271
g228
Vnone
p272
tp273
(dp274
Vflavours
p275
(lp276
Vamd64
p277
ass(Vdescription
p278
g228
g272
Vamd64
p279
tp280
(dp281
Vparts
p282
(lp283
Vxen
p284
ass(Vbase
p285
g228
Vrt
p286
tp287
(dp288
Vflavours
p289
(lp290
Vamd64
p291
ass(Vbase
p292
Varm64
p293
tp294
(dp295
Vfeaturesets
p296
(lp297
Vnone
p298
asVkernel-arch
p299
Varm64
p300
ss(Vdescription
p301
g293
NVarm64
p302
tp303
(dp304
Vhardware
p305
V64-bit ARMv8 machines
p306
ss(Vbuild
p307
g293
tp308
(dp309
Vvdso
p310
I01
sVimage-file
p311
Varch/arm64/boot/Image
p312
sVdebug-info
p313
I01
ss(Vimage
p314
g293
NVarm64
p315
tp316
(dp317
s(Vimage
p318
g293
tp319
(dp320
Vbreaks
p321
Vlibmozjs185-1.0, libmozjs-24-0 (<< 24.2.0-5.1~)
p322
sVinstall-stem
p323
Vvmlinuz
p324
ss(Vbase
p325
g293
Vnone
p326
tp327
(dp328
Vflavours
p329
(lp330
Varm64
p331
ass(Vbase
p332
Varmel
p333
tp334
(dp335
g185
(lp336
g187
asVkernel-arch
p337
Varm
p338
ss(Vbuild
p339
g333
tp340
(dp341
Vsigned-modules
p342
I00
sVimage-file
p343
Varch/arm/boot/zImage
p344
ss(Vimage
p345
g333
NVmarvell
p346
tp347
(dp348
Vrecommends
p349
Vu-boot-tools
p350
sVbreaks
p351
Vflash-kernel (<< 3.57~)
p352
sVcheck-size-with-dtb
p353
I01
sVcheck-size
p354
L2097080L
ss(Vdescription
p355
g333
NVmarvell
p356
tp357
(dp358
Vhardware
p359
VMarvell Kirkwood/Orion
p360
sVhardware-long
p361
VMarvell Kirkwood based systems (SheevaPlug, QNAP TS-119/TS-219, etc)\u000aand Orion 5181, 5182 and 5281 based systems (QNAP TS-109/TS-209, etc)
p362
ss(Vrelations
p363
g333
tp364
(dp365
Vheaders%gcc-6
p366
Vlinux-compiler-gcc-6-arm
p367
ss(Vimage
p368
g333
tp369
(dp370
Vinstall-stem
p371
Vvmlinuz
p372
ss(g219
g333
g187
tp373
(dp374
g222
(lp375
Vmarvell
p376
asg226
I01
ss(Vbase
p377
Varmhf
p378
tp379
(dp380
g185
(lp381
g187
asVkernel-arch
p382
Varm
p383
ss(Vdescription
p384
g378
NVarmmp
p385
tp386
(dp387
Vhardware
p388
VARMv7 multiplatform compatible SoCs
p389
sVhardware-long
p390
VARMv7 multiplatform kernel. See\u000ahttps://wiki.debian.org/DebianKernel/ARMMP for details of supported\u000aplatforms
p391
ss(Vbuild
p392
g378
tp393
(dp394
Vvdso
p395
I01
sVimage-file
p396
Varch/arm/boot/zImage
p397
ss(Vdescription
p398
g378
NVarmmp-lpae
p399
tp400
(dp401
Vhardware
p402
VARMv7 multiplatform compatible SoCs supporting LPAE
p403
sVhardware-long
p404
VARMv7 multiplatform kernel supporting LPAE. See\u000ahttps://wiki.debian.org/DebianKernel/ARMMP for details of supported\u000aplatforms.
p405
ss(Vrelations
p406
g378
tp407
(dp408
Vheaders%gcc-6
p409
Vlinux-compiler-gcc-6-arm
p410
ss(Vimage
p411
g378
tp412
(dp413
Vinstall-stem
p414
Vvmlinuz
p415
ss(g219
g378
g187
tp416
(dp417
g222
(lp418
Varmmp
p419
aVarmmp-lpae
p420
asg226
I01
ss(Vbase
p421
Vhppa
p422
tp423
(dp424
g185
(lp425
g187
asVkernel-arch
p426
Vparisc
p427
ss(Vbuild
p428
g422
tp429
(dp430
Vsigned-modules
p431
I00
sVimage-file
p432
Vvmlinux
p433
ss(Vdescription
p434
g422
NVparisc64-smp
p435
tp436
(dp437
Vhardware
p438
Vmultiprocessor 64-bit PA-RISC
p439
sVhardware-long
p440
VHP PA-RISC 64-bit SMP systems with support for more than 4 GB RAM
p441
ss(Vbase
p442
g422
NVparisc64-smp
p443
tp444
(dp445
Vcflags
p446
V-fno-cse-follow-jumps
p447
sVoverride-host-type
p448
Vhppa64-linux-gnu
p449
ss(Vrelations
p450
g422
tp451
(dp452
Vgcc-6
p453
Vgcc-6 <!stage1 !cross>, binutils-hppa64-linux-gnu <!stage1 !cross>, gcc-6-hppa64-linux-gnu <!stage1 !cross>, gcc-6-hppa-linux-gnu <!stage1 cross>, binutils-hppa64-linux-gnu <!stage1 cross>, gcc-6-hppa64-linux-gnu <!stage1 cross>
p454
ss(Vdescription
p455
g422
NVparisc
p456
tp457
(dp458
Vhardware
p459
V32-bit PA-RISC
p460
sVhardware-long
p461
VHP PA-RISC 32-bit systems with max 4 GB RAM
p462
ss(Vimage
p463
g422
tp464
(dp465
Vsuggests
p466
Vpalo
p467
sVinstall-stem
p468
Vvmlinux
p469
ss(g219
g422
g187
tp470
(dp471
g222
(lp472
Vparisc
p473
aVparisc64-smp
p474
asg226
I01
ss(Vbase
p475
Vi386
p476
tp477
(dp478
Vfeaturesets
p479
(lp480
Vnone
p481
aVrt
p482
asVkernel-arch
p483
Vx86
p484
ss(Vbuild
p485
g476
tp486
(dp487
Vvdso
p488
I01
sVimage-file
p489
Varch/x86/boot/bzImage
p490
ss(Vdescription
p491
g476
NV686-pae
p492
tp493
(dp494
Vhardware
p495
Vmodern PCs
p496
sVhardware-long
p497
VPCs with one or more processors supporting PAE
p498
sVparts
p499
(lp500
Vpae
p501
ass(Vdescription
p502
g476
tp503
(dp504
Vpart-long-pae
p505
VThis kernel requires PAE (Physical Address Extension).\u000aThis feature is supported by the Intel Pentium Pro/II/III/4/4M/D, Xeon,\u000aCore and Atom; AMD Geode NX, Athlon (K7), Duron, Opteron, Sempron,\u000aTurion or Phenom; Transmeta Efficeon; VIA C7; and some other processors.
p506
ss(Vbuild
p507
g476
NV686-pae
p508
tp509
(dp510
Vdebug-info
p511
I01
ss(Vdescription
p512
g476
NV686
p513
tp514
(dp515
Vhardware
p516
Volder PCs
p517
sVhardware-long
p518
VPCs with one or more processors not supporting PAE
p519
ss(Vrelations
p520
g476
tp521
(dp522
Vheaders%gcc-6
p523
Vlinux-compiler-gcc-6-x86 (>= 4.9.82-1+deb9u1~)
p524
sVgcc-6
p525
Vgcc-6 (>= 6.3.0-18+deb9u1~) <!stage1 !cross>, gcc-6-@gnu-type-package@ (>= 6.3.0-18+deb9u1~) <!stage1 cross>
p526
ss(Vimage
p527
g476
tp528
(dp529
Vbreaks
p530
Vxserver-xorg-input-vmmouse (<< 1:13.0.99), qemu-system-x86 (<< 1:2.5+dfsg-1)
p531
sVinstall-stem
p532
Vvmlinuz
p533
sVbootloaders
p534
(lp535
Vgrub-pc
p536
aVextlinux
p537
ass(Vbase
p538
g476
Vnone
p539
tp540
(dp541
Vflavours
p542
(lp543
V686
p544
aV686-pae
p545
ass(Vdescription
p546
g476
g539
V686-pae
p547
tp548
(dp549
Vparts
p550
(lp551
Vxen
p552
ass(Vbase
p553
g476
Vrt
p554
tp555
(dp556
Vflavours
p557
(lp558
V686-pae
p559
ass(Vbase
p560
Vm68k
p561
tp562
(dp563
Vcflags
p564
V-ffreestanding
p565
sg185
(lp566
g187
asVkernel-arch
p567
Vm68k
p568
ss(Vbuild
p569
g561
tp570
(dp571
Vsigned-modules
p572
I00
sVimage-file
p573
Vvmlinux.gz
p574
ss(Vdescription
p575
g561
NVm68k
p576
tp577
(dp578
Vhardware
p579
VMotorola MC68020+ family
p580
ss(Vimage
p581
g561
tp582
(dp583
Vsuggests
p584
Vvmelilo, fdutils
p585
sVinstall-stem
p586
Vvmlinuz
p587
ss(g219
g561
g187
tp588
(dp589
g222
(lp590
Vm68k
p591
asg226
I01
ss(Vbase
p592
Vmips
p593
tp594
(dp595
g185
(lp596
g187
asVkernel-arch
p597
Vmips
p598
ss(Vbuild
p599
g593
tp600
(dp601
Vsigned-modules
p602
I00
sVimage-file
p603
Vvmlinux
p604
ss(Vimage
p605
g593
NV4kc-malta
p606
tp607
(dp608
Vconfigs
p609
(lp610
Vkernelarch-mips/config.malta
p611
aVkernelarch-mips/config.mips32r2
p612
ass(Vimage
p613
g593
NV5kc-malta
p614
tp615
(dp616
Vconfigs
p617
(lp618
Vkernelarch-mips/config.malta
p619
aVkernelarch-mips/config.mips64r2
p620
ass(Vdescription
p621
g593
NVocteon
p622
tp623
(dp624
Vhardware
p625
VOcteon
p626
sVhardware-long
p627
VCavium Networks Octeon
p628
ss(Vimage
p629
g593
NVocteon
p630
tp631
(dp632
Vconfigs
p633
(lp634
Vkernelarch-mips/config.octeon
p635
ass(Vimage
p636
g593
tp637
(dp638
Vinstall-stem
p639
Vvmlinux
p640
ss(Vdescription
p641
g593
NV5kc-malta
p642
tp643
(dp644
Vhardware
p645
VMIPS Malta (64-bit)
p646
sVhardware-long
p647
VMIPS Malta boards (64-bit)
p648
ss(Vdescription
p649
g593
NV4kc-malta
p650
tp651
(dp652
Vhardware
p653
VMIPS Malta
p654
sVhardware-long
p655
VMIPS Malta boards
p656
ss(g219
g593
g187
tp657
(dp658
g222
(lp659
V4kc-malta
p660
aV5kc-malta
p661
aVocteon
p662
asg226
I01
ss(Vbase
p663
Vmipsel
p664
tp665
(dp666
g185
(lp667
g187
asVkernel-arch
p668
Vmips
p669
ss(Vimage
p670
g664
NVloongson-3
p671
tp672
(dp673
Vconfigs
p674
(lp675
Vkernelarch-mips/config.loongson-3
p676
ass(Vbuild
p677
g664
tp678
(dp679
Vsigned-modules
p680
I00
sVimage-file
p681
Vvmlinux
p682
ss(Vimage
p683
g664
NV4kc-malta
p684
tp685
(dp686
Vconfigs
p687
(lp688
Vkernelarch-mips/config.malta
p689
aVkernelarch-mips/config.mips32r2
p690
ass(Vimage
p691
g664
NV5kc-malta
p692
tp693
(dp694
Vconfigs
p695
(lp696
Vkernelarch-mips/config.malta
p697
aVkernelarch-mips/config.mips64r2
p698
ass(Vdescription
p699
g664
NVocteon
p700
tp701
(dp702
Vhardware
p703
VOcteon
p704
sVhardware-long
p705
VCavium Networks Octeon
p706
ss(Vdescription
p707
g664
NVloongson-3
p708
tp709
(dp710
Vhardware
p711
VLoongson 3A/3B
p712
sVhardware-long
p713
VLoongson 3A or 3B based systems (e.g. from Loongson or Lemote)
p714
ss(Vimage
p715
g664
NVocteon
p716
tp717
(dp718
Vconfigs
p719
(lp720
Vkernelarch-mips/config.octeon
p721
ass(Vimage
p722
g664
tp723
(dp724
Vinstall-stem
p725
Vvmlinux
p726
ss(Vdescription
p727
g664
NV5kc-malta
p728
tp729
(dp730
Vhardware
p731
VMIPS Malta (64-bit)
p732
sVhardware-long
p733
VMIPS Malta boards (64-bit)
p734
ss(Vdescription
p735
g664
NV4kc-malta
p736
tp737
(dp738
Vhardware
p739
VMIPS Malta
p740
sVhardware-long
p741
VMIPS Malta boards
p742
ss(g219
g664
g187
tp743
(dp744
g222
(lp745
V4kc-malta
p746
aV5kc-malta
p747
aVloongson-3
p748
aVocteon
p749
asg226
I01
ss(Vbase
p750
Vmipsn32
p751
tp752
(dp753
Vfeaturesets
p754
(lp755
sVkernel-arch
p756
Vmips
p757
ss(Vbase
p758
Vmipsn32el
p759
tp760
(dp761
Vfeaturesets
p762
(lp763
sVkernel-arch
p764
Vmips
p765
ss(Vbase
p766
Vmips64
p767
tp768
(dp769
g185
(lp770
g187
asVkernel-arch
p771
Vmips
p772
ss(Vbuild
p773
g767
tp774
(dp775
Vsigned-modules
p776
I00
sVimage-file
p777
Vvmlinux
p778
ss(Vimage
p779
g767
NV5kc-malta
p780
tp781
(dp782
Vconfigs
p783
(lp784
Vkernelarch-mips/config.malta
p785
aVkernelarch-mips/config.mips64r2
p786
ass(Vdescription
p787
g767
NVocteon
p788
tp789
(dp790
Vhardware
p791
VOcteon
p792
sVhardware-long
p793
VCavium Networks Octeon
p794
ss(Vimage
p795
g767
tp796
(dp797
Vinstall-stem
p798
Vvmlinux
p799
ss(Vdescription
p800
g767
NV5kc-malta
p801
tp802
(dp803
Vhardware
p804
VMIPS Malta
p805
sVhardware-long
p806
VMIPS Malta boards
p807
ss(Vimage
p808
g767
NVocteon
p809
tp810
(dp811
Vconfigs
p812
(lp813
Vkernelarch-mips/config.octeon
p814
ass(g219
g767
g187
tp815
(dp816
g222
(lp817
V5kc-malta
p818
aVocteon
p819
asg226
I01
ss(Vbase
p820
Vmips64el
p821
tp822
(dp823
g185
(lp824
g187
asVkernel-arch
p825
Vmips
p826
ss(Vimage
p827
g821
NVloongson-3
p828
tp829
(dp830
Vconfigs
p831
(lp832
Vkernelarch-mips/config.loongson-3
p833
ass(Vbuild
p834
g821
tp835
(dp836
Vsigned-modules
p837
I00
sVimage-file
p838
Vvmlinux
p839
ss(Vimage
p840
g821
NV5kc-malta
p841
tp842
(dp843
Vconfigs
p844
(lp845
Vkernelarch-mips/config.malta
p846
aVkernelarch-mips/config.mips64r2
p847
ass(Vdescription
p848
g821
NVocteon
p849
tp850
(dp851
Vhardware
p852
VOcteon
p853
sVhardware-long
p854
VCavium Networks Octeon
p855
ss(Vdescription
p856
g821
NVloongson-3
p857
tp858
(dp859
Vhardware
p860
VLoongson 3A/3B
p861
sVhardware-long
p862
VLoongson 3A or 3B based systems (e.g. from Loongson or Lemote)
p863
ss(Vimage
p864
g821
tp865
(dp866
Vinstall-stem
p867
Vvmlinux
p868
ss(Vdescription
p869
g821
NV5kc-malta
p870
tp871
(dp872
Vhardware
p873
VMIPS Malta
p874
sVhardware-long
p875
VMIPS Malta boards
p876
ss(Vimage
p877
g821
NVocteon
p878
tp879
(dp880
Vconfigs
p881
(lp882
Vkernelarch-mips/config.octeon
p883
ass(g219
g821
g187
tp884
(dp885
g222
(lp886
V5kc-malta
p887
aVloongson-3
p888
aVocteon
p889
asg226
I01
ss(Vbase
p890
Vpowerpc
p891
tp892
(dp893
g185
(lp894
g187
asVkernel-arch
p895
Vpowerpc
p896
ss(Vdescription
p897
g891
NVpowerpc64
p898
tp899
(dp900
Vhardware
p901
V64-bit PowerPC
p902
ss(Vbuild
p903
g891
tp904
(dp905
Vvdso
p906
I01
sVimage-file
p907
Vvmlinux
p908
ss(Vimage
p909
g891
NVpowerpc-smp
p910
tp911
(dp912
Vconfigs
p913
(lp914
Vpowerpc/config.powerpc
p915
aVpowerpc/config.powerpc-smp
p916
ass(Vdescription
p917
g891
NVpowerpc
p918
tp919
(dp920
Vhardware
p921
Vuniprocessor 32-bit PowerPC
p922
ss(Vimage
p923
g891
NVpowerpc64
p924
tp925
(dp926
Vconfigs
p927
(lp928
Vkernelarch-powerpc/config-arch-64
p929
aVkernelarch-powerpc/config-arch-64-be
p930
ass(Vdescription
p931
g891
NVpowerpc-smp
p932
tp933
(dp934
Vhardware
p935
Vmultiprocessor 32-bit PowerPC
p936
ss(Vimage
p937
g891
tp938
(dp939
Vsuggests
p940
Vmkvmlinuz
p941
sVinstall-stem
p942
Vvmlinux
p943
sVconfigs
p944
(lp945
ss(g219
g891
g187
tp946
(dp947
g222
(lp948
Vpowerpc
p949
aVpowerpc-smp
p950
aVpowerpc64
p951
asg226
I01
ss(Vbase
p952
Vpowerpcspe
p953
tp954
(dp955
g185
(lp956
g187
asVkernel-arch
p957
Vpowerpc
p958
ss(Vbuild
p959
g953
tp960
(dp961
Vsigned-modules
p962
I00
sVimage-file
p963
Vvmlinux
p964
sVvdso
p965
I01
ss(Vimage
p966
g953
tp967
(dp968
Vsuggests
p969
Vmkvmlinuz
p970
sVinstall-stem
p971
Vvmlinux
p972
ss(Vdescription
p973
g953
tp974
(dp975
Vhardware
p976
V32-bit PowerPC with SPE (instead of AltiVec) with SMP support
p977
ss(g219
g953
g187
tp978
(dp979
g222
(lp980
Vpowerpcspe
p981
asg226
I01
ss(Vbase
p982
Vppc64
p983
tp984
(dp985
g185
(lp986
g187
asVkernel-arch
p987
Vpowerpc
p988
ss(Vdescription
p989
g983
NVpowerpc64
p990
tp991
(dp992
Vhardware
p993
V64-bit PowerPC
p994
ss(Vbuild
p995
g983
tp996
(dp997
Vsigned-modules
p998
I00
sVimage-file
p999
Vvmlinux
p1000
sVvdso
p1001
I01
ss(Vimage
p1002
g983
NVpowerpc64
p1003
tp1004
(dp1005
Vconfigs
p1006
(lp1007
Vkernelarch-powerpc/config-arch-64
p1008
aVkernelarch-powerpc/config-arch-64-be
p1009
ass(Vimage
p1010
g983
tp1011
(dp1012
Vsuggests
p1013
Vmkvmlinuz
p1014
sVinstall-stem
p1015
Vvmlinux
p1016
sVconfigs
p1017
(lp1018
ss(g219
g983
g187
tp1019
(dp1020
g222
(lp1021
Vpowerpc64
p1022
asg226
I01
ss(Vbase
p1023
Vppc64el
p1024
tp1025
(dp1026
g185
(lp1027
g187
asVkernel-arch
p1028
Vpowerpc
p1029
ss(Vdescription
p1030
g1024
NVpowerpc64le
p1031
tp1032
(dp1033
Vhardware
p1034
VLittle-endian 64-bit PowerPC
p1035
ss(Vbuild
p1036
g1024
tp1037
(dp1038
Vvdso
p1039
I01
sVimage-file
p1040
Vvmlinux
p1041
ss(Vimage
p1042
g1024
tp1043
(dp1044
Vsuggests
p1045
Vmkvmlinuz
p1046
sVinstall-stem
p1047
Vvmlinux
p1048
sVconfigs
p1049
(lp1050
ss(Vimage
p1051
g1024
NVpowerpc64le
p1052
tp1053
(dp1054
Vconfigs
p1055
(lp1056
Vkernelarch-powerpc/config-arch-64
p1057
aVkernelarch-powerpc/config-arch-64-le
p1058
ass(g219
g1024
g187
tp1059
(dp1060
g222
(lp1061
Vpowerpc64le
p1062
asg226
I01
ss(Vbase
p1063
Vs390
p1064
tp1065
(dp1066
Vfeaturesets
p1067
(lp1068
sVkernel-arch
p1069
Vs390
p1070
ss(Vbase
p1071
Vs390x
p1072
tp1073
(dp1074
g185
(lp1075
g187
asVkernel-arch
p1076
Vs390
p1077
ss(Vdescription
p1078
g1072
NVs390x
p1079
tp1080
(dp1081
Vhardware
p1082
VIBM zSeries
p1083
ss(Vbuild
p1084
g1072
tp1085
(dp1086
Vvdso
p1087
I01
sVimage-file
p1088
Varch/s390/boot/image
p1089
ss(Vbuild
p1090
g1072
NVs390x
p1091
tp1092
(dp1093
Vdebug-info
p1094
I01
ss(Vrelations
p1095
g1072
tp1096
(dp1097
Vheaders%gcc-6
p1098
Vlinux-compiler-gcc-6-s390
p1099
ss(Vimage
p1100
g1072
tp1101
(dp1102
Vinstall-stem
p1103
Vvmlinuz
p1104
sVbootloaders
p1105
(lp1106
Vs390-tools
p1107
ass(g219
g1072
g187
tp1108
(dp1109
g222
(lp1110
Vs390x
p1111
asg226
I01
ss(Vbase
p1112
Vsh3
p1113
tp1114
(dp1115
Vfeaturesets
p1116
(lp1117
sVkernel-arch
p1118
Vsh
p1119
ss(Vbase
p1120
Vsh4
p1121
tp1122
(dp1123
g185
(lp1124
g187
asVkernel-arch
p1125
Vsh
p1126
ss(Vbuild
p1127
g1121
tp1128
(dp1129
Vsigned-modules
p1130
I00
sVimage-file
p1131
Varch/sh/boot/zImage
p1132
ss(Vdescription
p1133
g1121
NVsh7751r
p1134
tp1135
(dp1136
Vhardware
p1137
Vsh7751r
p1138
sVhardware-long
p1139
VRenesas SH7751R R2D plus board
p1140
ss(Vdescription
p1141
g1121
NVsh7785lcr
p1142
tp1143
(dp1144
Vhardware
p1145
Vsh7785lcr
p1146
sVhardware-long
p1147
VRenesas SH7785 reference board
p1148
ss(Vimage
p1149
g1121
tp1150
(dp1151
Vinstall-stem
p1152
Vvmlinuz
p1153
ss(Vimage
p1154
g1121
NVsh7785lcr
p1155
tp1156
(dp1157
Vrecommends
p1158
Vu-boot-tools
p1159
sVcheck-size
p1160
L4194304L
ss(g219
g1121
g187
tp1161
(dp1162
g222
(lp1163
Vsh7751r
p1164
aVsh7785lcr
p1165
asg226
I01
ss(Vbase
p1166
Vsparc
p1167
tp1168
(dp1169
Vfeaturesets
p1170
(lp1171
sVkernel-arch
p1172
Vsparc
p1173
ss(Vbase
p1174
Vsparc64
p1175
tp1176
(dp1177
g185
(lp1178
g187
asVkernel-arch
p1179
Vsparc
p1180
ss(Vbuild
p1181
g1175
tp1182
(dp1183
Vsigned-modules
p1184
I00
sVimage-file
p1185
Varch/sparc/boot/zImage
p1186
ss(Vimage
p1187
g1175
NVsparc64
p1188
tp1189
(dp1190
Vconfigs
p1191
(lp1192
Vkernelarch-sparc/config-up
p1193
ass(Vimage
p1194
g1175
NVsparc64-smp
p1195
tp1196
(dp1197
Vconfigs
p1198
(lp1199
Vkernelarch-sparc/config-smp
p1200
ass(Vimage
p1201
g1175
tp1202
(dp1203
Vsuggests
p1204
Vsilo, fdutils
p1205
sVinstall-stem
p1206
Vvmlinuz
p1207
sVconfigs
p1208
(lp1209
ss(Vdescription
p1210
g1175
NVsparc64-smp
p1211
tp1212
(dp1213
Vhardware
p1214
Vmultiprocessor 64-bit UltraSPARC
p1215
ss(Vdescription
p1216
g1175
NVsparc64
p1217
tp1218
(dp1219
Vhardware
p1220
Vuniprocessor 64-bit UltraSPARC
p1221
ss(g219
g1175
g187
tp1222
(dp1223
g222
(lp1224
Vsparc64
p1225
aVsparc64-smp
p1226
asg226
I01
ss(Vbase
p1227
Vtilegx
p1228
tp1229
(dp1230
Vfeaturesets
p1231
(lp1232
sVkernel-arch
p1233
Vtile
p1234
ss(Vbase
p1235
Vx32
p1236
tp1237
(dp1238
Vfeaturesets
p1239
(lp1240
sVkernel-arch
p1241
Vx86
p1242
ss(Vdescription
p1243
NVrt
p1244
tp1245
(dp1246
Vparts
p1247
(lp1248
Vrt
p1249
asVpart-long-rt
p1250
VThis kernel includes the PREEMPT_RT realtime patch set.
p1251
sVpart-short-rt
p1252
VPREEMPT_RT
p1253
ss(Vabi
p1254
Ng1244
tp1255
(dp1256
Vignore-changes
p1257
(lp1258
V*
p1259
ass(Vversion
p1260
tp1261
(dp1262
Vupstream
p1263
V4.9
p1264
sVsource
p1265
V4.9.303-1
p1266
sVabiname
p1267
V4.9.0-18
p1268
sVabiname_base
p1269
V4.9.0
p1270
ss.