cdebian_linux.config
ConfigCore
p0
(tRp1
(Vabi
p2
tp3
(dp4
Vabiname
p5
V6
p6
sVignore-changes
p7
(lp8
V__cpuhp_*
p9
aV__udp_gso_segment
p10
aVbpf_analyzer
p11
aVcxl_*
p12
aVdax_flush
p13
aVieee80211_nullfunc_get
p14
aVinet_add_protocol
p15
aVinet_del_protocol
p16
aViommu_device_*
p17
aVmm_iommu_*
p18
aVmv_mbus_*
p19
aVperf_*
p20
aVregister_cxl_calls
p21
aVregister_key_type
p22
aVunregister_cxl_calls
p23
aV*_hw_breakpoint
p24
aVmodule:drivers/crypto/ccp/*
p25
aVmodule:drivers/hv/*
p26
aVmodule:drivers/gpu/drm/sun4i/*
p27
aVmodule:drivers/iio/**
p28
aVmodule:drivers/misc/cxl/*
p29
aVmodule:drivers/mtd/nand/*
p30
aVmodule:drivers/net/ethernet/**
p31
aVmodule:drivers/net/wireless/**
p32
aVmodule:drivers/nvdimm/*
p33
aVmodule:drivers/nvme/**
p34
aVmodule:drivers/power/supply/bq27xxx_battery
p35
aVmodule:drivers/scsi/cxgbi/*
p36
aVmodule:drivers/scsi/libiscs*
p37
aVmodule:drivers/scsi/qla2xxx/qla2xxx
p38
aVmodule:drivers/scsi/ufs/*
p39
aVmodule:drivers/target/**
p40
aVmodule:drivers/usb/chipidea/**
p41
aVmodule:drivers/usb/gadget/**
p42
aVmodule:drivers/usb/host/**
p43
aVmodule:drivers/usb/musb/**
p44
aVmodule:fs/nfs/**
p45
aVmodule:net/ceph/libceph
p46
aVmodule:net/l2tp/**
p47
aVmodule:net/rxrpc/rxrpc
p48
aVmodule:net/sctp/**
p49
aVmodule:sound/core/seq/**
p50
aVmodule:sound/firewire/snd-firewire-lib
p51
aVmodule:sound/pci/hda/*
p52
aVbtree_*
p53
aVvisitor*
p54
aVcan_rx_register
p55
aVip6_xmit
p56
aVmodule:net/dccp/dccp
p57
aVmodule:net/rds/rds
p58
aVdevfreq_*
p59
aVdevm_devfreq_*
p60
aVupdate_devfreq
p61
aVmodule:drivers/infiniband/**
p62
aVacpi_ec_add_query_handler
p63
aVacpi_ec_remove_query_handler
p64
aVfirst_ec
p65
aVdebugfs_create_automount
p66
aVmodule:drivers/iio/imu/inv_mpu6050/*
p67
aVdrm_crtc_accurate_vblank_count
p68
aVacpi_nfit_desc_init
p69
aVacpi_nfit_init
p70
aVloop_register_transfer
p71
aVxen_xlate_*
p72
aVnf_nat_masquerade_ipv4_register_notifier
p73
aVnf_nat_masquerade_ipv6_register_notifier
p74
aVdfltcc_*
p75
aVmodule:drivers/scsi/hisi_sas/*
p76
aV__gfn_*
p77
aV__kvmhv_*
p78
aV__kvm_*
p79
aV__xive_vm_h_*
p80
aVgfn_*
p81
aVh_ipi_redirect
p82
aVhalt_poll_ns*
p83
aVkvm_*
p84
aVkvmhv_*
p85
aVkvmppc_*
p86
aVmark_page_dirty
p87
aVvcpu_*
p88
aVmodule:arch/powerpc/kvm/*
p89
aVmodule:arch/s390/kvm/*
p90
aVmodule:arch/x86/kvm/*
p91
aVuv_info
p92
aVxhci_init_driver
p93
ass(Vbase
p94
tp95
(dp96
Varches
p97
(lp98
Valpha
p99
aVamd64
p100
aVarm64
p101
aVarm64ilp32
p102
aVarmel
p103
aVarmhf
p104
aVhppa
p105
aVi386
p106
aVia64
p107
aVm68k
p108
aVmips
p109
aVmips64
p110
aVmips64el
p111
aVmips64r6
p112
aVmips64r6el
p113
aVmipsel
p114
aVmipsn32
p115
aVmipsn32el
p116
aVmipsn32r6
p117
aVmipsn32r6el
p118
aVmipsr6
p119
aVmipsr6el
p120
aVpowerpc
p121
aVppc64
p122
aVppc64el
p123
aVriscv64
p124
aVs390
p125
aVs390x
p126
aVsh3
p127
aVsh4
p128
aVsparc
p129
aVsparc64
p130
aVx32
p131
asVcompiler
p132
Vgcc-10
p133
sVfeaturesets
p134
(lp135
Vnone
p136
aVrt
p137
ass(Vbuild
p138
tp139
(dp140
Vdebug-info
p141
I01
sVsigned-code
p142
I00
ss(Vbase
p143
NVrt
p144
tp145
(dp146
Venabled
p147
I01
ss(Vdescription
p148
tp149
(dp150
Vpart-long-up
p151
VThis kernel is not suitable for SMP (multi-processor,\u000amulti-core or hyper-threaded) systems.
p152
ss(Vimage
p153
tp154
(dp155
Vinitramfs-generators
p156
(lp157
Vinitramfs-tools
p158
aVinitramfs-fallback
p159
asVbreaks
p160
(lp161
Vfwupdate (<< 12-7)
p162
aVwireless-regdb (<< 2019.06.03-1~)
p163
asVrecommends
p164
(lp165
Vapparmor
p166
ass(Vrelations
p167
tp168
(dp169
Vgcc-10
p170
Vgcc-10 <!stage1 !cross !pkg.linux.nokernel>, gcc-10-@gnu-type-package@ <!stage1 cross !pkg.linux.nokernel>
p171
sVinitramfs-fallback
p172
Vlinux-initramfs-tool
p173
sVinitramfs-tools
p174
Vinitramfs-tools (>= 0.120+deb8u2)
p175
ss(Vbase
p176
Valpha
p177
tp178
(dp179
Vdefault-flavour
p180
Valpha-smp
p181
sVkernel-arch
p182
Valpha
p183
sVfeaturesets
p184
(lp185
Vnone
p186
ass(Vbuild
p187
g177
tp188
(dp189
Vimage-file
p190
Varch/alpha/boot/vmlinux.gz
p191
ss(Vimage
p192
g177
tp193
(dp194
Vsuggests
p195
(lp196
Vaboot
p197
aVfdutils
p198
asVinstall-stem
p199
Vvmlinuz
p200
ss(Vdescription
p201
g177
NValpha-generic
p202
tp203
(dp204
Vhardware
p205
VAlpha
p206
sVhardware-long
p207
VDEC Alpha systems with extended kernel start address (Wildfire, Titan, Marvel)
p208
ss(Vdescription
p209
g177
NValpha-smp
p210
tp211
(dp212
Vhardware
p213
VAlpha SMP
p214
sVhardware-long
p215
VDEC Alpha SMP systems with extended kernel start address (Wildfire, Titan, Marvel)
p216
ss(Vbase
p217
g177
g186
tp218
(dp219
Vflavours
p220
(lp221
Valpha-generic
p222
aValpha-smp
p223
asVimplicit-flavour
p224
I01
ss(Vbase
p225
Vamd64
p226
tp227
(dp228
Vfeaturesets
p229
(lp230
Vnone
p231
aVrt
p232
asVkernel-arch
p233
Vx86
p234
ss(Vbuild
p235
g226
tp236
(dp237
Vimage-file
p238
Varch/x86/boot/bzImage
p239
sVsigned-code
p240
I01
sVvdso
p241
I01
ss(Vimage
p242
g226
tp243
(dp244
Vbootloaders
p245
(lp246
Vgrub-pc
p247
aVgrub-efi-amd64
p248
aVextlinux
p249
asVinstall-stem
p250
Vvmlinuz
p251
sVbreaks
p252
(lp253
Vxserver-xorg-input-vmmouse (<< 1:13.0.99)
p254
ass(Vrelations
p255
g226
tp256
(dp257
Vheaders%gcc-10
p258
Vlinux-compiler-gcc-10-x86
p259
ss(Vdescription
p260
g226
NVamd64
p261
tp262
(dp263
Vhardware
p264
V64-bit PCs
p265
sVhardware-long
p266
VPCs with AMD64, Intel 64 or VIA Nano processors
p267
ss(Vdescription
p268
g226
NVcloud-amd64
p269
tp270
(dp271
Vhardware
p272
Vx86-64 cloud
p273
sVhardware-long
p274
Vcloud platforms including Amazon EC2, Microsoft Azure, and Google Compute Engine
p275
ss(Vbase
p276
g226
Vnone
p277
tp278
(dp279
Vflavours
p280
(lp281
Vamd64
p282
aVcloud-amd64
p283
asVdefault-flavour
p284
Vamd64
p285
ss(Vimage
p286
g226
g277
Vcloud-amd64
p287
tp288
(dp289
Vconfigs
p290
(lp291
Vconfig.cloud
p292
aVamd64/config.cloud-amd64
p293
ass(Vbase
p294
g226
Vrt
p295
tp296
(dp297
Vflavours
p298
(lp299
Vamd64
p300
ass(Vbase
p301
Varm64
p302
tp303
(dp304
Vcross-compile-compat
p305
Varm-linux-gnueabihf-
p306
sVkernel-arch
p307
Varm64
p308
sVfeaturesets
p309
(lp310
Vnone
p311
aVrt
p312
ass(Vbuild
p313
g302
tp314
(dp315
Vimage-file
p316
Varch/arm64/boot/Image
p317
sVsigned-code
p318
I01
sVvdso
p319
I01
ss(Vimage
p320
g302
tp321
(dp322
Vinstall-stem
p323
Vvmlinuz
p324
sVbreaks
p325
(lp326
Vlibmozjs185-1.0
p327
aVlibmozjs-24-0 (<< 24.2.0-5.1~)
p328
ass(Vdescription
p329
g302
NVarm64
p330
tp331
(dp332
Vhardware
p333
V64-bit ARMv8 machines
p334
ss(Vdescription
p335
g302
NVcloud-arm64
p336
tp337
(dp338
Vhardware
p339
Varm64 cloud
p340
sVhardware-long
p341
Vcloud platforms supporting arm64 virtual machines
p342
ss(Vimage
p343
g302
NVarm64
p344
tp345
(dp346
s(Vrelations
p347
g302
tp348
(dp349
Vgcc-10
p350
Vgcc-10 <!stage1 !cross !pkg.linux.nokernel>, gcc-10-aarch64-linux-gnu <!stage1 cross !pkg.linux.nokernel>, gcc-arm-linux-gnueabihf <!stage1 !pkg.linux.nokernel>
p351
sVheaders%gcc-10
p352
Vgcc-10
p353
ss(Vbase
p354
g302
Vnone
p355
tp356
(dp357
Vflavours
p358
(lp359
Varm64
p360
aVcloud-arm64
p361
asVdefault-flavour
p362
Varm64
p363
ss(Vimage
p364
g302
g355
Vcloud-arm64
p365
tp366
(dp367
Vconfigs
p368
(lp369
Vconfig.cloud
p370
aVarm64/config.cloud-arm64
p371
ass(Vbase
p372
g302
Vrt
p373
tp374
(dp375
Vflavours
p376
(lp377
Varm64
p378
ass(Vbase
p379
Varm64ilp32
p380
tp381
(dp382
Vkernel-arch
p383
Varm64
p384
sVfeaturesets
p385
(lp386
ss(Vbase
p387
Varmel
p388
tp389
(dp390
Vkernel-arch
p391
Varm
p392
sg184
(lp393
g186
ass(Vbuild
p394
g388
tp395
(dp396
Vimage-file
p397
Varch/arm/boot/zImage
p398
sVuncompressed-image-file
p399
Varch/arm/boot/Image
p400
ss(Vimage
p401
g388
tp402
(dp403
Vinstall-stem
p404
Vvmlinuz
p405
ss(Vrelations
p406
g388
tp407
(dp408
Vheaders%gcc-10
p409
Vlinux-compiler-gcc-10-arm
p410
ss(Vdescription
p411
g388
NVmarvell
p412
tp413
(dp414
Vhardware
p415
VMarvell Kirkwood/Orion
p416
sVhardware-long
p417
VMarvell Kirkwood and Orion based systems (https://wiki.debian.org/ArmEabiPort#Supported_hardware)
p418
ss(Vdescription
p419
g388
NVrpi
p420
tp421
(dp422
Vhardware
p423
VRaspberry Pi and Pi Zero
p424
sVhardware-long
p425
VRaspberry Pi, Raspberry Pi Zero based systems
p426
ss(Vimage
p427
g388
NVmarvell
p428
tp429
(dp430
Vrecommends
p431
(lp432
Vu-boot-tools
p433
asVcheck-size
p434
I2729712
sVcheck-size-with-dtb
p435
I01
sVbreaks
p436
(lp437
Vflash-kernel (<< 3.57~)
p438
ass(g217
g388
g186
tp439
(dp440
g220
(lp441
Vmarvell
p442
aVrpi
p443
asg224
I01
ss(Vbase
p444
Varmhf
p445
tp446
(dp447
Vfeaturesets
p448
(lp449
sVkernel-arch
p450
Varm
p451
ss(Vbase
p452
Vhppa
p453
tp454
(dp455
Vdefault-flavour
p456
Vparisc
p457
sVkernel-arch
p458
Vparisc
p459
sg184
(lp460
g186
ass(Vbuild
p461
g453
tp462
(dp463
Vimage-file
p464
Varch/parisc/boot/bzImage
p465
sVdebug-info
p466
I00
ss(Vimage
p467
g453
tp468
(dp469
Vsuggests
p470
(lp471
Vpalo
p472
asVinstall-stem
p473
Vvmlinuz
p474
ss(Vdescription
p475
g453
NVparisc
p476
tp477
(dp478
Vhardware
p479
V32-bit PA-RISC
p480
sVhardware-long
p481
VHP PA-RISC 32-bit systems with max 4 GB RAM
p482
ss(Vbase
p483
g453
NVparisc64
p484
tp485
(dp486
Vcflags
p487
V-fno-cse-follow-jumps
p488
sVoverride-host-type
p489
Vhppa64-linux-gnu
p490
ss(Vdescription
p491
g453
NVparisc64
p492
tp493
(dp494
Vhardware
p495
V64-bit PA-RISC
p496
sVhardware-long
p497
VHP PA-RISC 64-bit systems with support for more than 4 GB RAM
p498
ss(Vrelations
p499
g453
tp500
(dp501
Vgcc-10
p502
Vgcc-10 <!stage1 !cross !pkg.linux.nokernel>, gcc-10-hppa-linux-gnu <!stage1 cross !pkg.linux.nokernel>, binutils-hppa64-linux-gnu <!stage1 !pkg.linux.nokernel>, gcc-10-hppa64-linux-gnu <!stage1 !pkg.linux.nokernel>
p503
ss(g217
g453
g186
tp504
(dp505
g220
(lp506
Vparisc
p507
aVparisc64
p508
asg224
I01
ss(Vbase
p509
Vi386
p510
tp511
(dp512
Vfeaturesets
p513
(lp514
Vnone
p515
aVrt
p516
asVkernel-arch
p517
Vx86
p518
ss(Vbuild
p519
g510
tp520
(dp521
Vimage-file
p522
Varch/x86/boot/bzImage
p523
sVsigned-code
p524
I01
sVvdso
p525
I01
ss(Vdescription
p526
g510
tp527
(dp528
Vpart-long-pae
p529
VThis kernel requires PAE (Physical Address Extension).\u000aThis feature is supported by the Intel Pentium Pro/II/III/4/4M/D, Xeon,\u000aCore and Atom; AMD Geode NX, Athlon (K7), Duron, Opteron, Sempron,\u000aTurion or Phenom; Transmeta Efficeon; VIA C7; and some other processors.
p530
ss(Vimage
p531
g510
tp532
(dp533
Vbootloaders
p534
(lp535
Vgrub-pc
p536
aVgrub-efi-ia32
p537
aVextlinux
p538
asVinstall-stem
p539
Vvmlinuz
p540
sVbreaks
p541
(lp542
Vxserver-xorg-input-vmmouse (<< 1:13.0.99)
p543
ass(Vrelations
p544
g510
tp545
(dp546
Vheaders%gcc-10
p547
Vlinux-compiler-gcc-10-x86
p548
ss(Vdescription
p549
g510
NV686
p550
tp551
(dp552
Vhardware
p553
Volder PCs
p554
sVhardware-long
p555
VPCs with one or more processors not supporting PAE
p556
ss(Vdescription
p557
g510
NV686-pae
p558
tp559
(dp560
Vhardware
p561
Vmodern PCs
p562
sVhardware-long
p563
VPCs with one or more processors supporting PAE
p564
sVparts
p565
(lp566
Vpae
p567
ass(Vbase
p568
g510
Vnone
p569
tp570
(dp571
Vflavours
p572
(lp573
V686
p574
aV686-pae
p575
asVdefault-flavour
p576
V686-pae
p577
ss(Vbase
p578
g510
Vrt
p579
tp580
(dp581
Vflavours
p582
(lp583
V686-pae
p584
ass(Vbase
p585
Via64
p586
tp587
(dp588
Vdefault-flavour
p589
Vitanium
p590
sVkernel-arch
p591
Via64
p592
sg184
(lp593
g186
ass(Vbuild
p594
g586
tp595
(dp596
Vimage-file
p597
Vvmlinux.gz
p598
ss(Vimage
p599
g586
tp600
(dp601
Vbootloaders
p602
(lp603
Vgrub-efi-ia64
p604
asVinstall-stem
p605
Vvmlinuz
p606
ss(Vdescription
p607
g586
NVitanium
p608
tp609
(dp610
Vhardware
p611
VItanium (Merced)
p612
sVhardware-long
p613
Vsystems with original Itanium (Merced) processors
p614
ss(Vdescription
p615
g586
NVmckinley
p616
tp617
(dp618
Vhardware
p619
VItanium 2+
p620
sVhardware-long
p621
Vsystems with Itanium 2 or 9300/9500/9700-series processors
p622
ss(g217
g586
g186
tp623
(dp624
g220
(lp625
Vitanium
p626
aVmckinley
p627
asg224
I01
ss(Vbase
p628
Vm68k
p629
tp630
(dp631
Vcflags
p632
V-ffreestanding
p633
sVdefault-flavour
p634
Vm68k
p635
sVkernel-arch
p636
Vm68k
p637
sg184
(lp638
g186
ass(Vbuild
p639
g629
tp640
(dp641
Vimage-file
p642
Vvmlinux
p643
ss(Vimage
p644
g629
tp645
(dp646
Vsuggests
p647
(lp648
Vvmelilo
p649
aVfdutils
p650
asVinstall-stem
p651
Vvmlinux
p652
ss(Vdescription
p653
g629
NVm68k
p654
tp655
(dp656
Vhardware
p657
VMotorola MC68020+ family
p658
ss(g217
g629
g186
tp659
(dp660
g220
(lp661
Vm68k
p662
asg224
I01
ss(Vbase
p663
Vmips
p664
tp665
(dp666
Vkernel-arch
p667
Vmips
p668
sg184
(lp669
g186
ass(Vbuild
p670
g664
tp671
(dp672
Vimage-file
p673
Vvmlinuz
p674
ss(Vimage
p675
g664
tp676
(dp677
Vinstall-stem
p678
Vvmlinuz
p679
ss(Vdescription
p680
g664
NV4kc-malta
p681
tp682
(dp683
Vhardware
p684
VMIPS Malta
p685
sVhardware-long
p686
VMIPS Malta boards
p687
ss(Vimage
p688
g664
NV4kc-malta
p689
tp690
(dp691
Vconfigs
p692
(lp693
Vkernelarch-mips/config.malta
p694
aVkernelarch-mips/config.mips32r2
p695
ass(Vdescription
p696
g664
NV5kc-malta
p697
tp698
(dp699
Vhardware
p700
VMIPS Malta (64-bit)
p701
sVhardware-long
p702
VMIPS Malta boards (64-bit)
p703
ss(Vimage
p704
g664
NV5kc-malta
p705
tp706
(dp707
Vconfigs
p708
(lp709
Vkernelarch-mips/config.malta
p710
aVkernelarch-mips/config.mips64r2
p711
ass(Vdescription
p712
g664
NVocteon
p713
tp714
(dp715
Vhardware
p716
VOcteon
p717
sVhardware-long
p718
VCavium Networks Octeon
p719
ss(Vbuild
p720
g664
NVocteon
p721
tp722
(dp723
Vimage-file
p724
Vvmlinux
p725
ss(Vimage
p726
g664
NVocteon
p727
tp728
(dp729
Vinstall-stem
p730
Vvmlinux
p731
sVconfigs
p732
(lp733
Vkernelarch-mips/config.octeon
p734
ass(g217
g664
g186
tp735
(dp736
g220
(lp737
V4kc-malta
p738
aV5kc-malta
p739
aVocteon
p740
asg224
I01
ss(Vbase
p741
Vmips64
p742
tp743
(dp744
Vkernel-arch
p745
Vmips
p746
sg184
(lp747
g186
ass(Vbuild
p748
g742
tp749
(dp750
Vimage-file
p751
Vvmlinuz
p752
ss(Vimage
p753
g742
tp754
(dp755
Vinstall-stem
p756
Vvmlinuz
p757
ss(Vdescription
p758
g742
NV5kc-malta
p759
tp760
(dp761
Vhardware
p762
VMIPS Malta
p763
sVhardware-long
p764
VMIPS Malta boards
p765
ss(Vimage
p766
g742
NV5kc-malta
p767
tp768
(dp769
Vconfigs
p770
(lp771
Vkernelarch-mips/config.malta
p772
aVkernelarch-mips/config.mips64r2
p773
ass(Vdescription
p774
g742
NVocteon
p775
tp776
(dp777
Vhardware
p778
VOcteon
p779
sVhardware-long
p780
VCavium Networks Octeon
p781
ss(Vbuild
p782
g742
NVocteon
p783
tp784
(dp785
Vimage-file
p786
Vvmlinux
p787
ss(Vimage
p788
g742
NVocteon
p789
tp790
(dp791
Vinstall-stem
p792
Vvmlinux
p793
sVconfigs
p794
(lp795
Vkernelarch-mips/config.octeon
p796
ass(g217
g742
g186
tp797
(dp798
g220
(lp799
V5kc-malta
p800
aVocteon
p801
asg224
I01
ss(Vbase
p802
Vmips64el
p803
tp804
(dp805
Vkernel-arch
p806
Vmips
p807
sg184
(lp808
g186
ass(Vbuild
p809
g803
tp810
(dp811
Vimage-file
p812
Vvmlinuz
p813
ss(Vimage
p814
g803
tp815
(dp816
Vinstall-stem
p817
Vvmlinuz
p818
ss(Vdescription
p819
g803
NV5kc-malta
p820
tp821
(dp822
Vhardware
p823
VMIPS Malta
p824
sVhardware-long
p825
VMIPS Malta boards
p826
ss(Vimage
p827
g803
NV5kc-malta
p828
tp829
(dp830
Vconfigs
p831
(lp832
Vkernelarch-mips/config.malta
p833
aVkernelarch-mips/config.mips64r2
p834
ass(Vdescription
p835
g803
NVloongson-3
p836
tp837
(dp838
Vhardware
p839
VLoongson 3A/3B
p840
sVhardware-long
p841
VLoongson 3A or 3B based systems (e.g. from Loongson or Lemote)
p842
ss(Vimage
p843
g803
NVloongson-3
p844
tp845
(dp846
Vconfigs
p847
(lp848
Vkernelarch-mips/config.loongson-3
p849
ass(Vdescription
p850
g803
NVocteon
p851
tp852
(dp853
Vhardware
p854
VOcteon
p855
sVhardware-long
p856
VCavium Networks Octeon
p857
ss(Vbuild
p858
g803
NVocteon
p859
tp860
(dp861
Vimage-file
p862
Vvmlinux
p863
ss(Vimage
p864
g803
NVocteon
p865
tp866
(dp867
Vinstall-stem
p868
Vvmlinux
p869
sVconfigs
p870
(lp871
Vkernelarch-mips/config.octeon
p872
ass(g217
g803
g186
tp873
(dp874
g220
(lp875
V5kc-malta
p876
aVloongson-3
p877
aVocteon
p878
asg224
I01
ss(Vbase
p879
Vmips64r6
p880
tp881
(dp882
Vdefault-flavour
p883
Vmips64r6
p884
sVkernel-arch
p885
Vmips
p886
sg184
(lp887
g186
ass(Vbuild
p888
g880
tp889
(dp890
Vimage-file
p891
Vvmlinux
p892
ss(Vimage
p893
g880
tp894
(dp895
Vinstall-stem
p896
Vvmlinux
p897
ss(Vdescription
p898
g880
NVmips64r6
p899
tp900
(dp901
Vhardware
p902
VMIPS R6 (64 bit, big endian)
p903
sVhardware-long
p904
VMIPS R6 (64 bit, big endian)
p905
ss(Vimage
p906
g880
NVmips64r6
p907
tp908
(dp909
Vconfigs
p910
(lp911
Vkernelarch-mips/config.boston
p912
aVkernelarch-mips/config.mips64r6
p913
ass(g217
g880
g186
tp914
(dp915
g220
(lp916
Vmips64r6
p917
asg224
I01
ss(Vbase
p918
Vmips64r6el
p919
tp920
(dp921
Vdefault-flavour
p922
Vmips64r6el
p923
sVkernel-arch
p924
Vmips
p925
sg184
(lp926
g186
ass(Vbuild
p927
g919
tp928
(dp929
Vimage-file
p930
Vvmlinux
p931
ss(Vimage
p932
g919
tp933
(dp934
Vinstall-stem
p935
Vvmlinux
p936
ss(Vdescription
p937
g919
NVmips64r6el
p938
tp939
(dp940
Vhardware
p941
VMIPS R6 (64 bit, little endian)
p942
sVhardware-long
p943
VMIPS R6 (64 bit, little endian)
p944
ss(Vimage
p945
g919
NVmips64r6el
p946
tp947
(dp948
Vconfigs
p949
(lp950
Vkernelarch-mips/config.boston
p951
aVkernelarch-mips/config.mips64r6
p952
ass(g217
g919
g186
tp953
(dp954
g220
(lp955
Vmips64r6el
p956
asg224
I01
ss(Vbase
p957
Vmipsel
p958
tp959
(dp960
Vkernel-arch
p961
Vmips
p962
sg184
(lp963
g186
ass(Vbuild
p964
g958
tp965
(dp966
Vimage-file
p967
Vvmlinuz
p968
ss(Vimage
p969
g958
tp970
(dp971
Vinstall-stem
p972
Vvmlinuz
p973
ss(Vdescription
p974
g958
NV4kc-malta
p975
tp976
(dp977
Vhardware
p978
VMIPS Malta
p979
sVhardware-long
p980
VMIPS Malta boards
p981
ss(Vimage
p982
g958
NV4kc-malta
p983
tp984
(dp985
Vconfigs
p986
(lp987
Vkernelarch-mips/config.malta
p988
aVkernelarch-mips/config.mips32r2
p989
ass(Vdescription
p990
g958
NV5kc-malta
p991
tp992
(dp993
Vhardware
p994
VMIPS Malta (64-bit)
p995
sVhardware-long
p996
VMIPS Malta boards (64-bit)
p997
ss(Vimage
p998
g958
NV5kc-malta
p999
tp1000
(dp1001
Vconfigs
p1002
(lp1003
Vkernelarch-mips/config.malta
p1004
aVkernelarch-mips/config.mips64r2
p1005
ass(Vdescription
p1006
g958
NVloongson-3
p1007
tp1008
(dp1009
Vhardware
p1010
VLoongson 3A/3B
p1011
sVhardware-long
p1012
VLoongson 3A or 3B based systems (e.g. from Loongson or Lemote)
p1013
ss(Vimage
p1014
g958
NVloongson-3
p1015
tp1016
(dp1017
Vconfigs
p1018
(lp1019
Vkernelarch-mips/config.loongson-3
p1020
ass(Vdescription
p1021
g958
NVocteon
p1022
tp1023
(dp1024
Vhardware
p1025
VOcteon
p1026
sVhardware-long
p1027
VCavium Networks Octeon
p1028
ss(Vbuild
p1029
g958
NVocteon
p1030
tp1031
(dp1032
Vimage-file
p1033
Vvmlinux
p1034
ss(Vimage
p1035
g958
NVocteon
p1036
tp1037
(dp1038
Vinstall-stem
p1039
Vvmlinux
p1040
sVconfigs
p1041
(lp1042
Vkernelarch-mips/config.octeon
p1043
ass(g217
g958
g186
tp1044
(dp1045
g220
(lp1046
V4kc-malta
p1047
aV5kc-malta
p1048
aVloongson-3
p1049
aVocteon
p1050
asg224
I01
ss(Vbase
p1051
Vmipsn32
p1052
tp1053
(dp1054
Vkernel-arch
p1055
Vmips
p1056
sVfeaturesets
p1057
(lp1058
ss(Vbase
p1059
Vmipsn32el
p1060
tp1061
(dp1062
Vkernel-arch
p1063
Vmips
p1064
sVfeaturesets
p1065
(lp1066
ss(Vbase
p1067
Vmipsn32r6
p1068
tp1069
(dp1070
Vkernel-arch
p1071
Vmips
p1072
sVfeaturesets
p1073
(lp1074
ss(Vbase
p1075
Vmipsn32r6el
p1076
tp1077
(dp1078
Vkernel-arch
p1079
Vmips
p1080
sVfeaturesets
p1081
(lp1082
ss(Vbase
p1083
Vmipsr6
p1084
tp1085
(dp1086
Vdefault-flavour
p1087
Vmips32r6
p1088
sVkernel-arch
p1089
Vmips
p1090
sg184
(lp1091
g186
ass(Vbuild
p1092
g1084
tp1093
(dp1094
Vimage-file
p1095
Vvmlinux
p1096
ss(Vimage
p1097
g1084
tp1098
(dp1099
Vinstall-stem
p1100
Vvmlinux
p1101
ss(Vdescription
p1102
g1084
NVmips32r6
p1103
tp1104
(dp1105
Vhardware
p1106
VMIPS R6 (32 bit, big endian)
p1107
sVhardware-long
p1108
VMIPS R6 (32 bit, big endian)
p1109
ss(Vimage
p1110
g1084
NVmips32r6
p1111
tp1112
(dp1113
Vconfigs
p1114
(lp1115
Vkernelarch-mips/config.boston
p1116
aVkernelarch-mips/config.mips32r6
p1117
ass(Vdescription
p1118
g1084
NVmips64r6
p1119
tp1120
(dp1121
Vhardware
p1122
VMIPS R6 (64 bit, big endian)
p1123
sVhardware-long
p1124
VMIPS R6 (64 bit, big endian)
p1125
ss(Vimage
p1126
g1084
NVmips64r6
p1127
tp1128
(dp1129
Vconfigs
p1130
(lp1131
Vkernelarch-mips/config.boston
p1132
aVkernelarch-mips/config.mips64r6
p1133
ass(g217
g1084
g186
tp1134
(dp1135
g220
(lp1136
Vmips32r6
p1137
aVmips64r6
p1138
asg224
I01
ss(Vbase
p1139
Vmipsr6el
p1140
tp1141
(dp1142
Vdefault-flavour
p1143
Vmips32r6el
p1144
sVkernel-arch
p1145
Vmips
p1146
sg184
(lp1147
g186
ass(Vbuild
p1148
g1140
tp1149
(dp1150
Vimage-file
p1151
Vvmlinux
p1152
ss(Vimage
p1153
g1140
tp1154
(dp1155
Vinstall-stem
p1156
Vvmlinux
p1157
ss(Vdescription
p1158
g1140
NVmips32r6el
p1159
tp1160
(dp1161
Vhardware
p1162
VMIPS R6 (32 bit, little endian)
p1163
sVhardware-long
p1164
VMIPS R6 (32 bit, little endian)
p1165
ss(Vimage
p1166
g1140
NVmips32r6el
p1167
tp1168
(dp1169
Vconfigs
p1170
(lp1171
Vkernelarch-mips/config.boston
p1172
aVkernelarch-mips/config.mips32r6
p1173
ass(Vdescription
p1174
g1140
NVmips64r6el
p1175
tp1176
(dp1177
Vhardware
p1178
VMIPS R6 (64 bit, little endian)
p1179
sVhardware-long
p1180
VMIPS R6 (64 bit, little endian)
p1181
ss(Vimage
p1182
g1140
NVmips64r6el
p1183
tp1184
(dp1185
Vconfigs
p1186
(lp1187
Vkernelarch-mips/config.boston
p1188
aVkernelarch-mips/config.mips64r6
p1189
ass(g217
g1140
g186
tp1190
(dp1191
g220
(lp1192
Vmips32r6el
p1193
aVmips64r6el
p1194
asg224
I01
ss(Vbase
p1195
Vpowerpc
p1196
tp1197
(dp1198
Vkernel-arch
p1199
Vpowerpc
p1200
sg184
(lp1201
g186
ass(Vbuild
p1202
g1196
tp1203
(dp1204
Vimage-file
p1205
Vvmlinux
p1206
sVvdso
p1207
I01
ss(Vimage
p1208
g1196
tp1209
(dp1210
Vconfigs
p1211
(lp1212
sVbootloaders
p1213
(lp1214
Vgrub-ieee1275
p1215
asVsuggests
p1216
(lp1217
Vmkvmlinuz
p1218
asVinstall-stem
p1219
Vvmlinux
p1220
ss(Vdescription
p1221
g1196
NVpowerpc
p1222
tp1223
(dp1224
Vhardware
p1225
Vuniprocessor 32-bit PowerPC
p1226
ss(Vdescription
p1227
g1196
NVpowerpc-smp
p1228
tp1229
(dp1230
Vhardware
p1231
Vmultiprocessor 32-bit PowerPC
p1232
ss(Vimage
p1233
g1196
NVpowerpc-smp
p1234
tp1235
(dp1236
Vconfigs
p1237
(lp1238
Vpowerpc/config.powerpc
p1239
aVpowerpc/config.powerpc-smp
p1240
ass(Vdescription
p1241
g1196
NVpowerpc64
p1242
tp1243
(dp1244
Vhardware
p1245
V64-bit PowerPC
p1246
ss(Vimage
p1247
g1196
NVpowerpc64
p1248
tp1249
(dp1250
Vconfigs
p1251
(lp1252
Vkernelarch-powerpc/config-arch-64
p1253
aVkernelarch-powerpc/config-arch-64-be
p1254
ass(g217
g1196
g186
tp1255
(dp1256
g220
(lp1257
Vpowerpc
p1258
aVpowerpc-smp
p1259
aVpowerpc64
p1260
asg224
I01
ss(Vbase
p1261
Vppc64
p1262
tp1263
(dp1264
Vdefault-flavour
p1265
Vpowerpc64
p1266
sVkernel-arch
p1267
Vpowerpc
p1268
sg184
(lp1269
g186
ass(Vbuild
p1270
g1262
tp1271
(dp1272
Vimage-file
p1273
Vvmlinux
p1274
sVvdso
p1275
I01
ss(Vimage
p1276
g1262
tp1277
(dp1278
Vconfigs
p1279
(lp1280
sVbootloaders
p1281
(lp1282
Vgrub-ieee1275
p1283
asVsuggests
p1284
(lp1285
Vmkvmlinuz
p1286
asVinstall-stem
p1287
Vvmlinux
p1288
ss(Vdescription
p1289
g1262
NVpowerpc64
p1290
tp1291
(dp1292
Vhardware
p1293
V64-bit PowerPC
p1294
ss(Vimage
p1295
g1262
NVpowerpc64
p1296
tp1297
(dp1298
Vconfigs
p1299
(lp1300
Vkernelarch-powerpc/config-arch-64
p1301
aVkernelarch-powerpc/config-arch-64-be
p1302
ass(g217
g1262
g186
tp1303
(dp1304
g220
(lp1305
Vpowerpc64
p1306
asg224
I01
ss(Vbase
p1307
Vppc64el
p1308
tp1309
(dp1310
Vdefault-flavour
p1311
Vpowerpc64le
p1312
sVkernel-arch
p1313
Vpowerpc
p1314
sg184
(lp1315
g186
ass(Vbuild
p1316
g1308
tp1317
(dp1318
Vimage-file
p1319
Vvmlinux
p1320
sVvdso
p1321
I01
ss(Vimage
p1322
g1308
tp1323
(dp1324
Vconfigs
p1325
(lp1326
sVbootloaders
p1327
(lp1328
Vgrub-ieee1275
p1329
asVsuggests
p1330
(lp1331
Vmkvmlinuz
p1332
asVinstall-stem
p1333
Vvmlinux
p1334
ss(Vdescription
p1335
g1308
NVpowerpc64le
p1336
tp1337
(dp1338
Vhardware
p1339
VLittle-endian 64-bit PowerPC
p1340
ss(Vimage
p1341
g1308
NVpowerpc64le
p1342
tp1343
(dp1344
Vconfigs
p1345
(lp1346
Vkernelarch-powerpc/config-arch-64
p1347
aVkernelarch-powerpc/config-arch-64-le
p1348
ass(g217
g1308
g186
tp1349
(dp1350
g220
(lp1351
Vpowerpc64le
p1352
asg224
I01
ss(Vbase
p1353
Vriscv64
p1354
tp1355
(dp1356
Vkernel-arch
p1357
Vriscv
p1358
sVfeaturesets
p1359
(lp1360
Vnone
p1361
ass(Vbuild
p1362
g1354
tp1363
(dp1364
Vimage-file
p1365
Varch/riscv/boot/Image
p1366
sVvdso
p1367
I01
ss(Vimage
p1368
g1354
tp1369
(dp1370
Vinstall-stem
p1371
Vvmlinux
p1372
ss(Vdescription
p1373
g1354
NVriscv64
p1374
tp1375
(dp1376
Vhardware
p1377
V64-bit RISC-V platforms
p1378
sVhardware-long
p1379
V64-bit RISC-V platforms
p1380
ss(Vbase
p1381
g1354
Vnone
p1382
tp1383
(dp1384
Vflavours
p1385
(lp1386
Vriscv64
p1387
asVdefault-flavour
p1388
Vriscv64
p1389
ss(Vbase
p1390
Vs390
p1391
tp1392
(dp1393
Vkernel-arch
p1394
Vs390
p1395
sVfeaturesets
p1396
(lp1397
ss(Vbase
p1398
Vs390x
p1399
tp1400
(dp1401
Vdefault-flavour
p1402
Vs390x
p1403
sVkernel-arch
p1404
Vs390
p1405
sg184
(lp1406
g186
ass(Vbuild
p1407
g1399
tp1408
(dp1409
Vimage-file
p1410
Varch/s390/boot/bzImage
p1411
sVvdso
p1412
I01
ss(Vimage
p1413
g1399
tp1414
(dp1415
Vbootloaders
p1416
(lp1417
Vs390-tools
p1418
asVinstall-stem
p1419
Vvmlinuz
p1420
ss(Vrelations
p1421
g1399
tp1422
(dp1423
Vheaders%gcc-10
p1424
Vlinux-compiler-gcc-10-s390
p1425
ss(Vdescription
p1426
g1399
NVs390x
p1427
tp1428
(dp1429
Vhardware
p1430
VIBM zSeries
p1431
ss(g217
g1399
g186
tp1432
(dp1433
g220
(lp1434
Vs390x
p1435
asg224
I01
ss(Vbase
p1436
Vsh3
p1437
tp1438
(dp1439
Vkernel-arch
p1440
Vsh
p1441
sVfeaturesets
p1442
(lp1443
ss(Vbase
p1444
Vsh4
p1445
tp1446
(dp1447
Vkernel-arch
p1448
Vsh
p1449
sg184
(lp1450
g186
ass(Vbuild
p1451
g1445
tp1452
(dp1453
Vimage-file
p1454
Varch/sh/boot/zImage
p1455
ss(Vimage
p1456
g1445
tp1457
(dp1458
Vinstall-stem
p1459
Vvmlinuz
p1460
ss(Vdescription
p1461
g1445
NVsh7751r
p1462
tp1463
(dp1464
Vhardware
p1465
Vsh7751r
p1466
sVhardware-long
p1467
VRenesas SH7751R R2D plus board
p1468
ss(Vdescription
p1469
g1445
NVsh7785lcr
p1470
tp1471
(dp1472
Vhardware
p1473
Vsh7785lcr
p1474
sVhardware-long
p1475
VRenesas SH7785 reference board
p1476
ss(Vimage
p1477
g1445
NVsh7785lcr
p1478
tp1479
(dp1480
Vrecommends
p1481
(lp1482
Vu-boot-tools
p1483
asVcheck-size
p1484
I4194304
ss(g217
g1445
g186
tp1485
(dp1486
g220
(lp1487
Vsh7751r
p1488
aVsh7785lcr
p1489
asg224
I01
ss(Vbase
p1490
Vsparc
p1491
tp1492
(dp1493
Vkernel-arch
p1494
Vsparc
p1495
sVfeaturesets
p1496
(lp1497
ss(Vbase
p1498
Vsparc64
p1499
tp1500
(dp1501
Vdefault-flavour
p1502
Vsparc64-smp
p1503
sVkernel-arch
p1504
Vsparc
p1505
sg184
(lp1506
g186
ass(Vbuild
p1507
g1499
tp1508
(dp1509
Vimage-file
p1510
Vvmlinux
p1511
ss(Vimage
p1512
g1499
tp1513
(dp1514
Vconfigs
p1515
(lp1516
sVbootloaders
p1517
(lp1518
Vgrub-ieee1275
p1519
asVsuggests
p1520
(lp1521
Vfdutils
p1522
asVinstall-stem
p1523
Vvmlinux
p1524
ss(Vdescription
p1525
g1499
NVsparc64
p1526
tp1527
(dp1528
Vhardware
p1529
Vuniprocessor 64-bit UltraSPARC
p1530
ss(Vimage
p1531
g1499
NVsparc64
p1532
tp1533
(dp1534
Vconfigs
p1535
(lp1536
Vkernelarch-sparc/config-up
p1537
ass(Vdescription
p1538
g1499
NVsparc64-smp
p1539
tp1540
(dp1541
Vhardware
p1542
Vmultiprocessor 64-bit UltraSPARC
p1543
ss(Vimage
p1544
g1499
NVsparc64-smp
p1545
tp1546
(dp1547
Vconfigs
p1548
(lp1549
Vkernelarch-sparc/config-smp
p1550
ass(g217
g1499
g186
tp1551
(dp1552
g220
(lp1553
Vsparc64
p1554
aVsparc64-smp
p1555
asg224
I01
ss(Vbase
p1556
Vx32
p1557
tp1558
(dp1559
Vkernel-arch
p1560
Vx86
p1561
sVfeaturesets
p1562
(lp1563
ss(Vabi
p1564
NVrt
p1565
tp1566
(dp1567
Vignore-changes
p1568
(lp1569
V*
p1570
ass(Vdescription
p1571
Ng1565
tp1572
(dp1573
Vpart-long-rt
p1574
VThis kernel includes the PREEMPT_RT realtime patch set.
p1575
sVpart-short-rt
p1576
VPREEMPT_RT
p1577
sVparts
p1578
(lp1579
Vrt
p1580
ass(Vversion
p1581
tp1582
(dp1583
Vsource
p1584
V5.10.28-1+rpi1
p1585
sVupstream
p1586
V5.10
p1587
sVabiname_base
p1588
V5.10.0
p1589
sVabiname
p1590
V5.10.0-6
p1591
ss.