cdebian_linux.config
ConfigCore
p0
(tRp1
(Vabi
p2
tp3
(dp4
Vabiname
p5
V3
p6
sVignore-changes
p7
(lp8
V__cpuhp_*
p9
aV__udp_gso_segment
p10
aVbpf_analyzer
p11
aVbpf_offload_dev_create
p12
aVbpf_verifier_log_write
p13
aVcxl_*
p14
aVdax_flush
p15
aVieee80211_nullfunc_get
p16
aVinet_add_protocol
p17
aVinet_del_protocol
p18
aViommu_device_*
p19
aVmm_iommu_*
p20
aVmv_mbus_*
p21
aVperf_*
p22
aVregister_cxl_calls
p23
aVregister_key_type
p24
aVunregister_cxl_calls
p25
aV*_hw_breakpoint
p26
aVmodule:drivers/crypto/ccp/*
p27
aVmodule:drivers/hv/*
p28
aVmodule:drivers/gpu/drm/sun4i/*
p29
aVmodule:drivers/iio/**
p30
aVmodule:drivers/misc/cxl/*
p31
aVmodule:drivers/misc/lis3lv02d/*
p32
aVmodule:drivers/mtd/nand/*
p33
aVmodule:drivers/net/ethernet/**
p34
aVmodule:drivers/net/wireless/**
p35
aVmodule:drivers/nvdimm/*
p36
aVmodule:drivers/nvme/**
p37
aVmodule:drivers/power/supply/bq27xxx_battery
p38
aVmodule:drivers/scsi/cxgbi/*
p39
aVmodule:drivers/scsi/libiscs*
p40
aVmodule:drivers/scsi/qla2xxx/qla2xxx
p41
aVmodule:drivers/scsi/ufs/*
p42
aVmodule:drivers/target/**
p43
aVmodule:drivers/usb/chipidea/**
p44
aVmodule:drivers/usb/gadget/**
p45
aVmodule:drivers/usb/host/**
p46
aVmodule:drivers/usb/musb/**
p47
aVmodule:fs/nfs/**
p48
aVmodule:net/ceph/libceph
p49
aVmodule:net/l2tp/**
p50
aVmodule:net/openvswitch/**
p51
aVmodule:net/rxrpc/rxrpc
p52
aVmodule:net/sctp/**
p53
aVmodule:sound/core/seq/**
p54
aVmodule:sound/firewire/snd-firewire-lib
p55
aVmodule:sound/pci/hda/*
p56
aVbtree_*
p57
aVvisitor*
p58
aVcan_rx_register
p59
aVip6_xmit
p60
aVmodule:net/dccp/dccp
p61
aVmodule:net/rds/rds
p62
aVdevfreq_*
p63
aVdevm_devfreq_*
p64
aVupdate_devfreq
p65
aVmodule:drivers/infiniband/**
p66
aVacpi_ec_add_query_handler
p67
aVacpi_ec_remove_query_handler
p68
aVfirst_ec
p69
aVdebugfs_create_automount
p70
aVmodule:drivers/iio/imu/inv_mpu6050/*
p71
aVdrm_crtc_accurate_vblank_count
p72
aVacpi_nfit_desc_init
p73
aVacpi_nfit_init
p74
aVloop_register_transfer
p75
aVxen_xlate_*
p76
aVnf_nat_masquerade_ipv4_register_notifier
p77
aVnf_nat_masquerade_ipv6_register_notifier
p78
aVdfltcc_*
p79
aVmodule:drivers/scsi/hisi_sas/*
p80
aV__gfn_*
p81
aV__kvmhv_*
p82
aV__kvm_*
p83
aV__xive_vm_h_*
p84
aVgfn_*
p85
aVh_ipi_redirect
p86
aVhalt_poll_ns*
p87
aVkvm_*
p88
aVkvmhv_*
p89
aVkvmppc_*
p90
aVmark_page_dirty
p91
aVvcpu_*
p92
aVmodule:arch/powerpc/kvm/*
p93
aVmodule:arch/s390/kvm/*
p94
aVmodule:arch/x86/kvm/*
p95
aVuv_info
p96
aVxhci_init_driver
p97
ass(Vbase
p98
tp99
(dp100
Varches
p101
(lp102
Valpha
p103
aVamd64
p104
aVarm64
p105
aVarm64ilp32
p106
aVarmel
p107
aVarmhf
p108
aVhppa
p109
aVi386
p110
aVia64
p111
aVm68k
p112
aVmips
p113
aVmips64
p114
aVmips64el
p115
aVmips64r6
p116
aVmips64r6el
p117
aVmipsel
p118
aVmipsn32
p119
aVmipsn32el
p120
aVmipsn32r6
p121
aVmipsn32r6el
p122
aVmipsr6
p123
aVmipsr6el
p124
aVpowerpc
p125
aVppc64
p126
aVppc64el
p127
aVriscv64
p128
aVs390
p129
aVs390x
p130
aVsh3
p131
aVsh4
p132
aVsparc
p133
aVsparc64
p134
aVx32
p135
asVcompiler
p136
Vgcc-11
p137
sVfeaturesets
p138
(lp139
Vnone
p140
aVrt
p141
ass(Vbuild
p142
tp143
(dp144
Vdebug-info
p145
I01
sVsigned-code
p146
I00
sVtrusted-certs
p147
Vdebian/certs/debian-uefi-certs.pem
p148
ss(Vbase
p149
NVrt
p150
tp151
(dp152
Venabled
p153
I01
ss(Vdescription
p154
tp155
(dp156
Vpart-long-up
p157
VThis kernel is not suitable for SMP (multi-processor,\u000amulti-core or hyper-threaded) systems.
p158
ss(Vimage
p159
tp160
(dp161
Vinitramfs-generators
p162
(lp163
Vinitramfs-tools
p164
aVinitramfs-fallback
p165
asVbreaks
p166
(lp167
Vfwupdate (<< 12-7)
p168
aVwireless-regdb (<< 2019.06.03-1~)
p169
asVrecommends
p170
(lp171
Vapparmor
p172
ass(Vrelations
p173
tp174
(dp175
Vgcc-11
p176
Vgcc-11 <!stage1 !cross !pkg.linux.nokernel>, gcc-11-@gnu-type-package@ <!stage1 cross !pkg.linux.nokernel>
p177
sVinitramfs-fallback
p178
Vlinux-initramfs-tool
p179
sVinitramfs-tools
p180
Vinitramfs-tools (>= 0.120+deb8u2)
p181
ss(Vbase
p182
Valpha
p183
tp184
(dp185
Vdefault-flavour
p186
Valpha-smp
p187
sVkernel-arch
p188
Valpha
p189
sVfeaturesets
p190
(lp191
Vnone
p192
ass(Vbuild
p193
g183
tp194
(dp195
Vimage-file
p196
Varch/alpha/boot/vmlinux.gz
p197
ss(Vimage
p198
g183
tp199
(dp200
Vsuggests
p201
(lp202
Vaboot
p203
aVfdutils
p204
asVinstall-stem
p205
Vvmlinuz
p206
ss(Vdescription
p207
g183
NValpha-generic
p208
tp209
(dp210
Vhardware
p211
VAlpha
p212
sVhardware-long
p213
VDEC Alpha systems with extended kernel start address (Wildfire, Titan, Marvel)
p214
ss(Vdescription
p215
g183
NValpha-smp
p216
tp217
(dp218
Vhardware
p219
VAlpha SMP
p220
sVhardware-long
p221
VDEC Alpha SMP systems with extended kernel start address (Wildfire, Titan, Marvel)
p222
ss(Vbase
p223
g183
g192
tp224
(dp225
Vflavours
p226
(lp227
Valpha-generic
p228
aValpha-smp
p229
asVimplicit-flavour
p230
I01
ss(Vbase
p231
Vamd64
p232
tp233
(dp234
Vfeaturesets
p235
(lp236
Vnone
p237
aVrt
p238
asVkernel-arch
p239
Vx86
p240
ss(Vbuild
p241
g232
tp242
(dp243
Vimage-file
p244
Varch/x86/boot/bzImage
p245
sVsigned-code
p246
I01
sVvdso
p247
I01
ss(Vimage
p248
g232
tp249
(dp250
Vbootloaders
p251
(lp252
Vgrub-pc
p253
aVgrub-efi-amd64
p254
aVextlinux
p255
asVinstall-stem
p256
Vvmlinuz
p257
sVbreaks
p258
(lp259
Vxserver-xorg-input-vmmouse (<< 1:13.0.99)
p260
ass(Vrelations
p261
g232
tp262
(dp263
Vheaders%gcc-11
p264
Vlinux-compiler-gcc-11-x86
p265
ss(Vdescription
p266
g232
NVamd64
p267
tp268
(dp269
Vhardware
p270
V64-bit PCs
p271
sVhardware-long
p272
VPCs with AMD64, Intel 64 or VIA Nano processors
p273
ss(Vdescription
p274
g232
NVcloud-amd64
p275
tp276
(dp277
Vhardware
p278
Vx86-64 cloud
p279
sVhardware-long
p280
Vcloud platforms including Amazon EC2, Microsoft Azure, and Google Compute Engine
p281
ss(Vbase
p282
g232
Vnone
p283
tp284
(dp285
Vflavours
p286
(lp287
Vamd64
p288
aVcloud-amd64
p289
asVdefault-flavour
p290
Vamd64
p291
ss(Vimage
p292
g232
g283
Vcloud-amd64
p293
tp294
(dp295
Vconfigs
p296
(lp297
Vconfig.cloud
p298
aVamd64/config.cloud-amd64
p299
ass(Vbase
p300
g232
Vrt
p301
tp302
(dp303
Vflavours
p304
(lp305
Vamd64
p306
ass(Vbase
p307
Varm64
p308
tp309
(dp310
Vcross-compile-compat
p311
Varm-linux-gnueabihf-
p312
sVkernel-arch
p313
Varm64
p314
sVfeaturesets
p315
(lp316
Vnone
p317
aVrt
p318
ass(Vbuild
p319
g308
tp320
(dp321
Vimage-file
p322
Varch/arm64/boot/Image
p323
sVsigned-code
p324
I01
sVvdso
p325
I01
ss(Vimage
p326
g308
tp327
(dp328
Vinstall-stem
p329
Vvmlinuz
p330
sVbreaks
p331
(lp332
Vlibmozjs185-1.0
p333
aVlibmozjs-24-0 (<< 24.2.0-5.1~)
p334
ass(Vdescription
p335
g308
NVarm64
p336
tp337
(dp338
Vhardware
p339
V64-bit ARMv8 machines
p340
ss(Vdescription
p341
g308
NVcloud-arm64
p342
tp343
(dp344
Vhardware
p345
Varm64 cloud
p346
sVhardware-long
p347
Vcloud platforms supporting arm64 virtual machines
p348
ss(Vimage
p349
g308
NVarm64
p350
tp351
(dp352
s(Vrelations
p353
g308
tp354
(dp355
Vgcc-11
p356
Vgcc-11 <!stage1 !cross !pkg.linux.nokernel>, gcc-11-aarch64-linux-gnu <!stage1 cross !pkg.linux.nokernel>, gcc-arm-linux-gnueabihf <!stage1 !pkg.linux.nokernel>
p357
sVheaders%gcc-11
p358
Vgcc-11
p359
ss(Vbase
p360
g308
Vnone
p361
tp362
(dp363
Vflavours
p364
(lp365
Varm64
p366
aVcloud-arm64
p367
asVdefault-flavour
p368
Varm64
p369
ss(Vimage
p370
g308
g361
Vcloud-arm64
p371
tp372
(dp373
Vconfigs
p374
(lp375
Vconfig.cloud
p376
aVarm64/config.cloud-arm64
p377
ass(Vbase
p378
g308
Vrt
p379
tp380
(dp381
Vflavours
p382
(lp383
Varm64
p384
ass(Vbase
p385
Varm64ilp32
p386
tp387
(dp388
Vkernel-arch
p389
Varm64
p390
sVfeaturesets
p391
(lp392
ss(Vbase
p393
Varmel
p394
tp395
(dp396
Vkernel-arch
p397
Varm
p398
sg190
(lp399
g192
ass(Vbuild
p400
g394
tp401
(dp402
Vimage-file
p403
Varch/arm/boot/zImage
p404
sVuncompressed-image-file
p405
Varch/arm/boot/Image
p406
ss(Vimage
p407
g394
tp408
(dp409
Vinstall-stem
p410
Vvmlinuz
p411
ss(Vrelations
p412
g394
tp413
(dp414
Vheaders%gcc-11
p415
Vlinux-compiler-gcc-11-arm
p416
ss(Vdescription
p417
g394
NVmarvell
p418
tp419
(dp420
Vhardware
p421
VMarvell Kirkwood/Orion
p422
sVhardware-long
p423
VMarvell Kirkwood and Orion based systems (https://wiki.debian.org/ArmEabiPort#Supported_hardware)
p424
ss(Vdescription
p425
g394
NVrpi
p426
tp427
(dp428
Vhardware
p429
VRaspberry Pi Zero, Zero W and 1
p430
sVhardware-long
p431
VRaspberry Pi Zero, Zero W and 1 based systems
p432
ss(Vimage
p433
g394
NVmarvell
p434
tp435
(dp436
Vrecommends
p437
(lp438
Vu-boot-tools
p439
asVcheck-size
p440
I2729712
sVcheck-size-with-dtb
p441
I01
sVbreaks
p442
(lp443
Vflash-kernel (<< 3.57~)
p444
ass(g223
g394
g192
tp445
(dp446
g226
(lp447
Vmarvell
p448
aVrpi
p449
asg230
I01
ss(Vbase
p450
Varmhf
p451
tp452
(dp453
Vfeaturesets
p454
(lp455
sVkernel-arch
p456
Varm
p457
ss(Vbase
p458
Vhppa
p459
tp460
(dp461
Vdefault-flavour
p462
Vparisc
p463
sVkernel-arch
p464
Vparisc
p465
sg190
(lp466
g192
ass(Vbuild
p467
g459
tp468
(dp469
Vimage-file
p470
Varch/parisc/boot/bzImage
p471
sVdebug-info
p472
I00
ss(Vimage
p473
g459
tp474
(dp475
Vsuggests
p476
(lp477
Vpalo
p478
asVinstall-stem
p479
Vvmlinuz
p480
ss(Vdescription
p481
g459
NVparisc
p482
tp483
(dp484
Vhardware
p485
V32-bit PA-RISC
p486
sVhardware-long
p487
VHP PA-RISC 32-bit systems with max 4 GB RAM
p488
ss(Vbase
p489
g459
NVparisc64
p490
tp491
(dp492
Vcflags
p493
V-fno-cse-follow-jumps
p494
sVoverride-host-type
p495
Vhppa64-linux-gnu
p496
ss(Vdescription
p497
g459
NVparisc64
p498
tp499
(dp500
Vhardware
p501
V64-bit PA-RISC
p502
sVhardware-long
p503
VHP PA-RISC 64-bit systems with support for more than 4 GB RAM
p504
ss(Vrelations
p505
g459
tp506
(dp507
Vgcc-11
p508
Vgcc-11 <!stage1 !cross !pkg.linux.nokernel>, gcc-11-hppa-linux-gnu <!stage1 cross !pkg.linux.nokernel>, binutils-hppa64-linux-gnu <!stage1 !pkg.linux.nokernel>, gcc-11-hppa64-linux-gnu <!stage1 !pkg.linux.nokernel>
p509
ss(g223
g459
g192
tp510
(dp511
g226
(lp512
Vparisc
p513
aVparisc64
p514
asg230
I01
ss(Vbase
p515
Vi386
p516
tp517
(dp518
Vfeaturesets
p519
(lp520
Vnone
p521
aVrt
p522
asVkernel-arch
p523
Vx86
p524
ss(Vbuild
p525
g516
tp526
(dp527
Vimage-file
p528
Varch/x86/boot/bzImage
p529
sVsigned-code
p530
I01
sVvdso
p531
I01
ss(Vdescription
p532
g516
tp533
(dp534
Vpart-long-pae
p535
VThis kernel requires PAE (Physical Address Extension).\u000aThis feature is supported by the Intel Pentium Pro/II/III/4/4M/D, Xeon,\u000aCore and Atom; AMD Geode NX, Athlon (K7), Duron, Opteron, Sempron,\u000aTurion or Phenom; Transmeta Efficeon; VIA C7; and some other processors.
p536
ss(Vimage
p537
g516
tp538
(dp539
Vbootloaders
p540
(lp541
Vgrub-pc
p542
aVgrub-efi-ia32
p543
aVextlinux
p544
asVinstall-stem
p545
Vvmlinuz
p546
sVbreaks
p547
(lp548
Vxserver-xorg-input-vmmouse (<< 1:13.0.99)
p549
ass(Vrelations
p550
g516
tp551
(dp552
Vheaders%gcc-11
p553
Vlinux-compiler-gcc-11-x86
p554
ss(Vdescription
p555
g516
NV686
p556
tp557
(dp558
Vhardware
p559
Volder PCs
p560
sVhardware-long
p561
VPCs with one or more processors not supporting PAE
p562
ss(Vdescription
p563
g516
NV686-pae
p564
tp565
(dp566
Vhardware
p567
Vmodern PCs
p568
sVhardware-long
p569
VPCs with one or more processors supporting PAE
p570
sVparts
p571
(lp572
Vpae
p573
ass(Vbase
p574
g516
Vnone
p575
tp576
(dp577
Vflavours
p578
(lp579
V686
p580
aV686-pae
p581
asVdefault-flavour
p582
V686-pae
p583
ss(Vbase
p584
g516
Vrt
p585
tp586
(dp587
Vflavours
p588
(lp589
V686-pae
p590
ass(Vbase
p591
Via64
p592
tp593
(dp594
Vdefault-flavour
p595
Vitanium
p596
sVkernel-arch
p597
Via64
p598
sg190
(lp599
g192
ass(Vbuild
p600
g592
tp601
(dp602
Vimage-file
p603
Vvmlinux.gz
p604
ss(Vimage
p605
g592
tp606
(dp607
Vbootloaders
p608
(lp609
Vgrub-efi-ia64
p610
asVinstall-stem
p611
Vvmlinuz
p612
ss(Vdescription
p613
g592
NVitanium
p614
tp615
(dp616
Vhardware
p617
VItanium (Merced)
p618
sVhardware-long
p619
Vsystems with original Itanium (Merced) processors
p620
ss(Vdescription
p621
g592
NVmckinley
p622
tp623
(dp624
Vhardware
p625
VItanium 2+
p626
sVhardware-long
p627
Vsystems with Itanium 2 or 9300/9500/9700-series processors
p628
ss(g223
g592
g192
tp629
(dp630
g226
(lp631
Vitanium
p632
aVmckinley
p633
asg230
I01
ss(Vbase
p634
Vm68k
p635
tp636
(dp637
Vcflags
p638
V-ffreestanding
p639
sVdefault-flavour
p640
Vm68k
p641
sVkernel-arch
p642
Vm68k
p643
sg190
(lp644
g192
ass(Vbuild
p645
g635
tp646
(dp647
Vimage-file
p648
Vvmlinux
p649
ss(Vimage
p650
g635
tp651
(dp652
Vsuggests
p653
(lp654
Vvmelilo
p655
aVfdutils
p656
asVinstall-stem
p657
Vvmlinux
p658
ss(Vdescription
p659
g635
NVm68k
p660
tp661
(dp662
Vhardware
p663
VMotorola MC68020+ family
p664
ss(g223
g635
g192
tp665
(dp666
g226
(lp667
Vm68k
p668
asg230
I01
ss(Vbase
p669
Vmips
p670
tp671
(dp672
Vkernel-arch
p673
Vmips
p674
sg190
(lp675
g192
ass(Vbuild
p676
g670
tp677
(dp678
Vimage-file
p679
Vvmlinuz
p680
ss(Vimage
p681
g670
tp682
(dp683
Vinstall-stem
p684
Vvmlinuz
p685
ss(Vdescription
p686
g670
NV4kc-malta
p687
tp688
(dp689
Vhardware
p690
VMIPS Malta
p691
sVhardware-long
p692
VMIPS Malta boards
p693
ss(Vimage
p694
g670
NV4kc-malta
p695
tp696
(dp697
Vconfigs
p698
(lp699
Vkernelarch-mips/config.malta
p700
aVkernelarch-mips/config.mips32r2
p701
ass(Vdescription
p702
g670
NV5kc-malta
p703
tp704
(dp705
Vhardware
p706
VMIPS Malta (64-bit)
p707
sVhardware-long
p708
VMIPS Malta boards (64-bit)
p709
ss(Vimage
p710
g670
NV5kc-malta
p711
tp712
(dp713
Vconfigs
p714
(lp715
Vkernelarch-mips/config.malta
p716
aVkernelarch-mips/config.mips64r2
p717
ass(Vdescription
p718
g670
NVocteon
p719
tp720
(dp721
Vhardware
p722
VOcteon
p723
sVhardware-long
p724
VCavium Networks Octeon
p725
ss(Vbuild
p726
g670
NVocteon
p727
tp728
(dp729
Vimage-file
p730
Vvmlinux
p731
ss(Vimage
p732
g670
NVocteon
p733
tp734
(dp735
Vinstall-stem
p736
Vvmlinux
p737
sVconfigs
p738
(lp739
Vkernelarch-mips/config.octeon
p740
ass(g223
g670
g192
tp741
(dp742
g226
(lp743
V4kc-malta
p744
aV5kc-malta
p745
aVocteon
p746
asg230
I01
ss(Vbase
p747
Vmips64
p748
tp749
(dp750
Vkernel-arch
p751
Vmips
p752
sg190
(lp753
g192
ass(Vbuild
p754
g748
tp755
(dp756
Vimage-file
p757
Vvmlinuz
p758
ss(Vimage
p759
g748
tp760
(dp761
Vinstall-stem
p762
Vvmlinuz
p763
ss(Vdescription
p764
g748
NV5kc-malta
p765
tp766
(dp767
Vhardware
p768
VMIPS Malta
p769
sVhardware-long
p770
VMIPS Malta boards
p771
ss(Vimage
p772
g748
NV5kc-malta
p773
tp774
(dp775
Vconfigs
p776
(lp777
Vkernelarch-mips/config.malta
p778
aVkernelarch-mips/config.mips64r2
p779
ass(Vdescription
p780
g748
NVocteon
p781
tp782
(dp783
Vhardware
p784
VOcteon
p785
sVhardware-long
p786
VCavium Networks Octeon
p787
ss(Vbuild
p788
g748
NVocteon
p789
tp790
(dp791
Vimage-file
p792
Vvmlinux
p793
ss(Vimage
p794
g748
NVocteon
p795
tp796
(dp797
Vinstall-stem
p798
Vvmlinux
p799
sVconfigs
p800
(lp801
Vkernelarch-mips/config.octeon
p802
ass(g223
g748
g192
tp803
(dp804
g226
(lp805
V5kc-malta
p806
aVocteon
p807
asg230
I01
ss(Vbase
p808
Vmips64el
p809
tp810
(dp811
Vkernel-arch
p812
Vmips
p813
sg190
(lp814
g192
ass(Vbuild
p815
g809
tp816
(dp817
Vimage-file
p818
Vvmlinuz
p819
ss(Vimage
p820
g809
tp821
(dp822
Vinstall-stem
p823
Vvmlinuz
p824
ss(Vdescription
p825
g809
NV5kc-malta
p826
tp827
(dp828
Vhardware
p829
VMIPS Malta
p830
sVhardware-long
p831
VMIPS Malta boards
p832
ss(Vimage
p833
g809
NV5kc-malta
p834
tp835
(dp836
Vconfigs
p837
(lp838
Vkernelarch-mips/config.malta
p839
aVkernelarch-mips/config.mips64r2
p840
ass(Vdescription
p841
g809
NVloongson-3
p842
tp843
(dp844
Vhardware
p845
VLoongson 3A/3B
p846
sVhardware-long
p847
VLoongson 3A or 3B based systems (e.g. from Loongson or Lemote)
p848
ss(Vimage
p849
g809
NVloongson-3
p850
tp851
(dp852
Vrecommends
p853
(lp854
Vpmon-update
p855
asVconfigs
p856
(lp857
Vkernelarch-mips/config.loongson-3
p858
ass(Vdescription
p859
g809
NVocteon
p860
tp861
(dp862
Vhardware
p863
VOcteon
p864
sVhardware-long
p865
VCavium Networks Octeon
p866
ss(Vbuild
p867
g809
NVocteon
p868
tp869
(dp870
Vimage-file
p871
Vvmlinux
p872
ss(Vimage
p873
g809
NVocteon
p874
tp875
(dp876
Vinstall-stem
p877
Vvmlinux
p878
sVconfigs
p879
(lp880
Vkernelarch-mips/config.octeon
p881
ass(g223
g809
g192
tp882
(dp883
g226
(lp884
V5kc-malta
p885
aVloongson-3
p886
aVocteon
p887
asg230
I01
ss(Vbase
p888
Vmips64r6
p889
tp890
(dp891
Vdefault-flavour
p892
Vmips64r6
p893
sVkernel-arch
p894
Vmips
p895
sg190
(lp896
g192
ass(Vbuild
p897
g889
tp898
(dp899
Vimage-file
p900
Vvmlinux
p901
ss(Vimage
p902
g889
tp903
(dp904
Vinstall-stem
p905
Vvmlinux
p906
ss(Vdescription
p907
g889
NVmips64r6
p908
tp909
(dp910
Vhardware
p911
VMIPS R6 (64 bit, big endian)
p912
sVhardware-long
p913
VMIPS R6 (64 bit, big endian)
p914
ss(Vimage
p915
g889
NVmips64r6
p916
tp917
(dp918
Vconfigs
p919
(lp920
Vkernelarch-mips/config.boston
p921
aVkernelarch-mips/config.mips64r6
p922
ass(g223
g889
g192
tp923
(dp924
g226
(lp925
Vmips64r6
p926
asg230
I01
ss(Vbase
p927
Vmips64r6el
p928
tp929
(dp930
Vdefault-flavour
p931
Vmips64r6el
p932
sVkernel-arch
p933
Vmips
p934
sg190
(lp935
g192
ass(Vbuild
p936
g928
tp937
(dp938
Vimage-file
p939
Vvmlinux
p940
ss(Vimage
p941
g928
tp942
(dp943
Vinstall-stem
p944
Vvmlinux
p945
ss(Vdescription
p946
g928
NVmips64r6el
p947
tp948
(dp949
Vhardware
p950
VMIPS R6 (64 bit, little endian)
p951
sVhardware-long
p952
VMIPS R6 (64 bit, little endian)
p953
ss(Vimage
p954
g928
NVmips64r6el
p955
tp956
(dp957
Vconfigs
p958
(lp959
Vkernelarch-mips/config.boston
p960
aVkernelarch-mips/config.mips64r6
p961
ass(g223
g928
g192
tp962
(dp963
g226
(lp964
Vmips64r6el
p965
asg230
I01
ss(Vbase
p966
Vmipsel
p967
tp968
(dp969
Vkernel-arch
p970
Vmips
p971
sg190
(lp972
g192
ass(Vbuild
p973
g967
tp974
(dp975
Vimage-file
p976
Vvmlinuz
p977
ss(Vimage
p978
g967
tp979
(dp980
Vinstall-stem
p981
Vvmlinuz
p982
ss(Vdescription
p983
g967
NV4kc-malta
p984
tp985
(dp986
Vhardware
p987
VMIPS Malta
p988
sVhardware-long
p989
VMIPS Malta boards
p990
ss(Vimage
p991
g967
NV4kc-malta
p992
tp993
(dp994
Vconfigs
p995
(lp996
Vkernelarch-mips/config.malta
p997
aVkernelarch-mips/config.mips32r2
p998
ass(Vdescription
p999
g967
NV5kc-malta
p1000
tp1001
(dp1002
Vhardware
p1003
VMIPS Malta (64-bit)
p1004
sVhardware-long
p1005
VMIPS Malta boards (64-bit)
p1006
ss(Vimage
p1007
g967
NV5kc-malta
p1008
tp1009
(dp1010
Vconfigs
p1011
(lp1012
Vkernelarch-mips/config.malta
p1013
aVkernelarch-mips/config.mips64r2
p1014
ass(Vdescription
p1015
g967
NVloongson-3
p1016
tp1017
(dp1018
Vhardware
p1019
VLoongson 3A/3B
p1020
sVhardware-long
p1021
VLoongson 3A or 3B based systems (e.g. from Loongson or Lemote)
p1022
ss(Vimage
p1023
g967
NVloongson-3
p1024
tp1025
(dp1026
Vrecommends
p1027
(lp1028
Vpmon-update
p1029
asVconfigs
p1030
(lp1031
Vkernelarch-mips/config.loongson-3
p1032
ass(Vdescription
p1033
g967
NVocteon
p1034
tp1035
(dp1036
Vhardware
p1037
VOcteon
p1038
sVhardware-long
p1039
VCavium Networks Octeon
p1040
ss(Vbuild
p1041
g967
NVocteon
p1042
tp1043
(dp1044
Vimage-file
p1045
Vvmlinux
p1046
ss(Vimage
p1047
g967
NVocteon
p1048
tp1049
(dp1050
Vinstall-stem
p1051
Vvmlinux
p1052
sVconfigs
p1053
(lp1054
Vkernelarch-mips/config.octeon
p1055
ass(g223
g967
g192
tp1056
(dp1057
g226
(lp1058
V4kc-malta
p1059
aV5kc-malta
p1060
aVloongson-3
p1061
aVocteon
p1062
asg230
I01
ss(Vbase
p1063
Vmipsn32
p1064
tp1065
(dp1066
Vkernel-arch
p1067
Vmips
p1068
sVfeaturesets
p1069
(lp1070
ss(Vbase
p1071
Vmipsn32el
p1072
tp1073
(dp1074
Vkernel-arch
p1075
Vmips
p1076
sVfeaturesets
p1077
(lp1078
ss(Vbase
p1079
Vmipsn32r6
p1080
tp1081
(dp1082
Vkernel-arch
p1083
Vmips
p1084
sVfeaturesets
p1085
(lp1086
ss(Vbase
p1087
Vmipsn32r6el
p1088
tp1089
(dp1090
Vkernel-arch
p1091
Vmips
p1092
sVfeaturesets
p1093
(lp1094
ss(Vbase
p1095
Vmipsr6
p1096
tp1097
(dp1098
Vdefault-flavour
p1099
Vmips32r6
p1100
sVkernel-arch
p1101
Vmips
p1102
sg190
(lp1103
g192
ass(Vbuild
p1104
g1096
tp1105
(dp1106
Vimage-file
p1107
Vvmlinux
p1108
ss(Vimage
p1109
g1096
tp1110
(dp1111
Vinstall-stem
p1112
Vvmlinux
p1113
ss(Vdescription
p1114
g1096
NVmips32r6
p1115
tp1116
(dp1117
Vhardware
p1118
VMIPS R6 (32 bit, big endian)
p1119
sVhardware-long
p1120
VMIPS R6 (32 bit, big endian)
p1121
ss(Vimage
p1122
g1096
NVmips32r6
p1123
tp1124
(dp1125
Vconfigs
p1126
(lp1127
Vkernelarch-mips/config.boston
p1128
aVkernelarch-mips/config.mips32r6
p1129
ass(Vdescription
p1130
g1096
NVmips64r6
p1131
tp1132
(dp1133
Vhardware
p1134
VMIPS R6 (64 bit, big endian)
p1135
sVhardware-long
p1136
VMIPS R6 (64 bit, big endian)
p1137
ss(Vimage
p1138
g1096
NVmips64r6
p1139
tp1140
(dp1141
Vconfigs
p1142
(lp1143
Vkernelarch-mips/config.boston
p1144
aVkernelarch-mips/config.mips64r6
p1145
ass(g223
g1096
g192
tp1146
(dp1147
g226
(lp1148
Vmips32r6
p1149
aVmips64r6
p1150
asg230
I01
ss(Vbase
p1151
Vmipsr6el
p1152
tp1153
(dp1154
Vdefault-flavour
p1155
Vmips32r6el
p1156
sVkernel-arch
p1157
Vmips
p1158
sg190
(lp1159
g192
ass(Vbuild
p1160
g1152
tp1161
(dp1162
Vimage-file
p1163
Vvmlinux
p1164
ss(Vimage
p1165
g1152
tp1166
(dp1167
Vinstall-stem
p1168
Vvmlinux
p1169
ss(Vdescription
p1170
g1152
NVmips32r6el
p1171
tp1172
(dp1173
Vhardware
p1174
VMIPS R6 (32 bit, little endian)
p1175
sVhardware-long
p1176
VMIPS R6 (32 bit, little endian)
p1177
ss(Vimage
p1178
g1152
NVmips32r6el
p1179
tp1180
(dp1181
Vconfigs
p1182
(lp1183
Vkernelarch-mips/config.boston
p1184
aVkernelarch-mips/config.mips32r6
p1185
ass(Vdescription
p1186
g1152
NVmips64r6el
p1187
tp1188
(dp1189
Vhardware
p1190
VMIPS R6 (64 bit, little endian)
p1191
sVhardware-long
p1192
VMIPS R6 (64 bit, little endian)
p1193
ss(Vimage
p1194
g1152
NVmips64r6el
p1195
tp1196
(dp1197
Vconfigs
p1198
(lp1199
Vkernelarch-mips/config.boston
p1200
aVkernelarch-mips/config.mips64r6
p1201
ass(g223
g1152
g192
tp1202
(dp1203
g226
(lp1204
Vmips32r6el
p1205
aVmips64r6el
p1206
asg230
I01
ss(Vbase
p1207
Vpowerpc
p1208
tp1209
(dp1210
Vkernel-arch
p1211
Vpowerpc
p1212
sg190
(lp1213
g192
ass(Vbuild
p1214
g1208
tp1215
(dp1216
Vimage-file
p1217
Vvmlinux
p1218
ss(Vimage
p1219
g1208
tp1220
(dp1221
Vconfigs
p1222
(lp1223
sVbootloaders
p1224
(lp1225
Vgrub-ieee1275
p1226
asVsuggests
p1227
(lp1228
Vmkvmlinuz
p1229
asVinstall-stem
p1230
Vvmlinux
p1231
ss(Vdescription
p1232
g1208
NVpowerpc
p1233
tp1234
(dp1235
Vhardware
p1236
Vuniprocessor 32-bit PowerPC
p1237
ss(Vdescription
p1238
g1208
NVpowerpc-smp
p1239
tp1240
(dp1241
Vhardware
p1242
Vmultiprocessor 32-bit PowerPC
p1243
ss(Vimage
p1244
g1208
NVpowerpc-smp
p1245
tp1246
(dp1247
Vconfigs
p1248
(lp1249
Vpowerpc/config.powerpc
p1250
aVpowerpc/config.powerpc-smp
p1251
ass(Vdescription
p1252
g1208
NVpowerpc64
p1253
tp1254
(dp1255
Vhardware
p1256
V64-bit PowerPC
p1257
ss(Vimage
p1258
g1208
NVpowerpc64
p1259
tp1260
(dp1261
Vconfigs
p1262
(lp1263
Vkernelarch-powerpc/config-arch-64
p1264
aVkernelarch-powerpc/config-arch-64-be
p1265
ass(g223
g1208
g192
tp1266
(dp1267
g226
(lp1268
Vpowerpc
p1269
aVpowerpc-smp
p1270
aVpowerpc64
p1271
asg230
I01
ss(Vbase
p1272
Vppc64
p1273
tp1274
(dp1275
Vdefault-flavour
p1276
Vpowerpc64
p1277
sVkernel-arch
p1278
Vpowerpc
p1279
sg190
(lp1280
g192
ass(Vbuild
p1281
g1273
tp1282
(dp1283
Vimage-file
p1284
Vvmlinux
p1285
ss(Vimage
p1286
g1273
tp1287
(dp1288
Vconfigs
p1289
(lp1290
sVbootloaders
p1291
(lp1292
Vgrub-ieee1275
p1293
asVsuggests
p1294
(lp1295
Vmkvmlinuz
p1296
asVinstall-stem
p1297
Vvmlinux
p1298
ss(Vdescription
p1299
g1273
NVpowerpc64
p1300
tp1301
(dp1302
Vhardware
p1303
V64-bit PowerPC
p1304
ss(Vimage
p1305
g1273
NVpowerpc64
p1306
tp1307
(dp1308
Vconfigs
p1309
(lp1310
Vkernelarch-powerpc/config-arch-64
p1311
aVkernelarch-powerpc/config-arch-64-be
p1312
ass(g223
g1273
g192
tp1313
(dp1314
g226
(lp1315
Vpowerpc64
p1316
asg230
I01
ss(Vbase
p1317
Vppc64el
p1318
tp1319
(dp1320
Vdefault-flavour
p1321
Vpowerpc64le
p1322
sVkernel-arch
p1323
Vpowerpc
p1324
sg190
(lp1325
g192
ass(Vbuild
p1326
g1318
tp1327
(dp1328
Vimage-file
p1329
Vvmlinux
p1330
ss(Vimage
p1331
g1318
tp1332
(dp1333
Vconfigs
p1334
(lp1335
sVbootloaders
p1336
(lp1337
Vgrub-ieee1275
p1338
asVsuggests
p1339
(lp1340
Vmkvmlinuz
p1341
asVinstall-stem
p1342
Vvmlinux
p1343
ss(Vdescription
p1344
g1318
NVpowerpc64le
p1345
tp1346
(dp1347
Vhardware
p1348
VLittle-endian 64-bit PowerPC
p1349
ss(Vimage
p1350
g1318
NVpowerpc64le
p1351
tp1352
(dp1353
Vconfigs
p1354
(lp1355
Vkernelarch-powerpc/config-arch-64
p1356
aVkernelarch-powerpc/config-arch-64-le
p1357
ass(g223
g1318
g192
tp1358
(dp1359
g226
(lp1360
Vpowerpc64le
p1361
asg230
I01
ss(Vbase
p1362
Vriscv64
p1363
tp1364
(dp1365
Vkernel-arch
p1366
Vriscv
p1367
sVfeaturesets
p1368
(lp1369
Vnone
p1370
ass(Vbuild
p1371
g1363
tp1372
(dp1373
Vimage-file
p1374
Varch/riscv/boot/Image
p1375
sVvdso
p1376
I01
ss(Vimage
p1377
g1363
tp1378
(dp1379
Vinstall-stem
p1380
Vvmlinux
p1381
ss(Vdescription
p1382
g1363
NVriscv64
p1383
tp1384
(dp1385
Vhardware
p1386
V64-bit RISC-V platforms
p1387
sVhardware-long
p1388
V64-bit RISC-V platforms
p1389
ss(Vbase
p1390
g1363
Vnone
p1391
tp1392
(dp1393
Vflavours
p1394
(lp1395
Vriscv64
p1396
asVdefault-flavour
p1397
Vriscv64
p1398
ss(Vbase
p1399
Vs390
p1400
tp1401
(dp1402
Vkernel-arch
p1403
Vs390
p1404
sVfeaturesets
p1405
(lp1406
ss(Vbase
p1407
Vs390x
p1408
tp1409
(dp1410
Vdefault-flavour
p1411
Vs390x
p1412
sVkernel-arch
p1413
Vs390
p1414
sg190
(lp1415
g192
ass(Vbuild
p1416
g1408
tp1417
(dp1418
Vimage-file
p1419
Varch/s390/boot/bzImage
p1420
sVvdso
p1421
I01
ss(Vimage
p1422
g1408
tp1423
(dp1424
Vbootloaders
p1425
(lp1426
Vs390-tools
p1427
asVinstall-stem
p1428
Vvmlinuz
p1429
ss(Vrelations
p1430
g1408
tp1431
(dp1432
Vheaders%gcc-11
p1433
Vlinux-compiler-gcc-11-s390
p1434
ss(Vdescription
p1435
g1408
NVs390x
p1436
tp1437
(dp1438
Vhardware
p1439
VIBM zSeries
p1440
ss(g223
g1408
g192
tp1441
(dp1442
g226
(lp1443
Vs390x
p1444
asg230
I01
ss(Vbase
p1445
Vsh3
p1446
tp1447
(dp1448
Vkernel-arch
p1449
Vsh
p1450
sVfeaturesets
p1451
(lp1452
ss(Vbase
p1453
Vsh4
p1454
tp1455
(dp1456
Vkernel-arch
p1457
Vsh
p1458
sg190
(lp1459
g192
ass(Vbuild
p1460
g1454
tp1461
(dp1462
Vimage-file
p1463
Varch/sh/boot/zImage
p1464
ss(Vimage
p1465
g1454
tp1466
(dp1467
Vinstall-stem
p1468
Vvmlinuz
p1469
ss(Vdescription
p1470
g1454
NVsh7751r
p1471
tp1472
(dp1473
Vhardware
p1474
Vsh7751r
p1475
sVhardware-long
p1476
VRenesas SH7751R R2D plus board
p1477
ss(Vdescription
p1478
g1454
NVsh7785lcr
p1479
tp1480
(dp1481
Vhardware
p1482
Vsh7785lcr
p1483
sVhardware-long
p1484
VRenesas SH7785 reference board
p1485
ss(Vimage
p1486
g1454
NVsh7785lcr
p1487
tp1488
(dp1489
Vrecommends
p1490
(lp1491
Vu-boot-tools
p1492
asVcheck-size
p1493
I4194304
ss(g223
g1454
g192
tp1494
(dp1495
g226
(lp1496
Vsh7751r
p1497
aVsh7785lcr
p1498
asg230
I01
ss(Vbase
p1499
Vsparc
p1500
tp1501
(dp1502
Vkernel-arch
p1503
Vsparc
p1504
sVfeaturesets
p1505
(lp1506
ss(Vbase
p1507
Vsparc64
p1508
tp1509
(dp1510
Vdefault-flavour
p1511
Vsparc64-smp
p1512
sVkernel-arch
p1513
Vsparc
p1514
sg190
(lp1515
g192
ass(Vbuild
p1516
g1508
tp1517
(dp1518
Vimage-file
p1519
Vvmlinux
p1520
ss(Vimage
p1521
g1508
tp1522
(dp1523
Vconfigs
p1524
(lp1525
sVbootloaders
p1526
(lp1527
Vgrub-ieee1275
p1528
asVsuggests
p1529
(lp1530
Vfdutils
p1531
asVinstall-stem
p1532
Vvmlinux
p1533
ss(Vdescription
p1534
g1508
NVsparc64
p1535
tp1536
(dp1537
Vhardware
p1538
Vuniprocessor 64-bit UltraSPARC
p1539
ss(Vimage
p1540
g1508
NVsparc64
p1541
tp1542
(dp1543
Vconfigs
p1544
(lp1545
Vkernelarch-sparc/config-up
p1546
ass(Vdescription
p1547
g1508
NVsparc64-smp
p1548
tp1549
(dp1550
Vhardware
p1551
Vmultiprocessor 64-bit UltraSPARC
p1552
ss(Vimage
p1553
g1508
NVsparc64-smp
p1554
tp1555
(dp1556
Vconfigs
p1557
(lp1558
Vkernelarch-sparc/config-smp
p1559
ass(g223
g1508
g192
tp1560
(dp1561
g226
(lp1562
Vsparc64
p1563
aVsparc64-smp
p1564
asg230
I01
ss(Vbase
p1565
Vx32
p1566
tp1567
(dp1568
Vkernel-arch
p1569
Vx86
p1570
sVfeaturesets
p1571
(lp1572
ss(Vabi
p1573
NVrt
p1574
tp1575
(dp1576
Vignore-changes
p1577
(lp1578
V*
p1579
ass(Vdescription
p1580
Ng1574
tp1581
(dp1582
Vpart-long-rt
p1583
VThis kernel includes the PREEMPT_RT realtime patch set.
p1584
sVpart-short-rt
p1585
VPREEMPT_RT
p1586
sVparts
p1587
(lp1588
Vrt
p1589
ass(Vversion
p1590
tp1591
(dp1592
Vsource
p1593
V5.15.15-2+rpi1
p1594
sVupstream
p1595
V5.15
p1596
sVabiname_base
p1597
V5.15.0
p1598
sVabiname
p1599
V5.15.0-3
p1600
ss.