ccopy_reg
_reconstructor
p0
(cdebian_linux.config
ConfigCore
p1
c__builtin__
dict
p2
(dp3
(S'image'
p4
S'amd64'
p5
tp6
(dp7
S'install-stem'
p8
S'vmlinuz'
p9
sS'configs'
p10
(lp11
sS'bootloaders'
p12
(lp13
S'grub-pc'
p14
aS'grub-efi'
p15
aS'extlinux'
p16
ass(S'base'
p17
NS'rt'
p18
tp19
(dp20
S'enabled'
p21
I00
ss(S'base'
p22
g5
S'none'
p23
tp24
(dp25
S'flavours'
p26
(lp27
S'amd64'
p28
ass(S'image'
p29
S'powerpcspe'
p30
tp31
(dp32
S'suggests'
p33
S'mkvmlinuz'
p34
sS'install-stem'
p35
S'vmlinux'
p36
ss(S'description'
p37
S'sh4'
p38
NS'sh7751r'
p39
tp40
(dp41
S'hardware'
p42
S'sh7751r'
p43
sS'hardware-long'
p44
S'Renesas SH7751R R2D plus board'
p45
ss(S'build'
p46
S'armel'
p47
tp48
(dp49
S'image-file'
p50
S'arch/arm/boot/zImage'
p51
ss(S'image'
p52
S'ia64'
p53
tp54
(dp55
S'suggests'
p56
S'fdutils'
p57
sS'bootloaders'
p58
(lp59
S'elilo'
p60
asS'install-stem'
p61
S'vmlinuz'
p62
ss(S'image'
p63
g5
NS'amd64'
p64
tp65
(dp66
S'configs'
p67
(lp68
S'kernelarch-x86/config-arch-64'
p69
ass(S'description'
p70
g53
NS'itanium'
p71
tp72
(dp73
S'hardware'
p74
S'Itanium'
p75
ss(S'description'
p76
S'alpha'
p77
NS'alpha-legacy'
p78
tp79
(dp80
S'hardware'
p81
S'Alpha Legacy'
p82
sS'hardware-long'
p83
S'DEC Alpha systems with legacy kernel start address'
p84
ss(S'version'
p85
tp86
(dp87
S'abiname'
p88
S'3.16.0-4'
p89
sS'source'
p90
V3.16.7-ckt4-1+rpi1
p91
sS'abiname_base'
p92
S'3.16.0'
p93
sS'upstream'
p94
S'3.16'
p95
ss(S'description'
p96
g5
g23
S'amd64'
p97
tp98
(dp99
S'parts'
p100
(lp101
S'xen'
p102
ass(S'image'
p103
S'mips64el'
p104
NS'loongson-3'
p105
tp106
(dp107
S'configs'
p108
(lp109
S'kernelarch-mips/config.loongson-3'
p110
ass(S'image'
p111
S'mips64'
p112
NS'sb1-bcm91250a'
p113
tp114
(dp115
S'configs'
p116
(lp117
S'kernelarch-mips/config.sb1-bcm91250a'
p118
ass(S'image'
p119
g112
NS'octeon'
p120
tp121
(dp122
S'configs'
p123
(lp124
S'kernelarch-mips/config.octeon'
p125
ass(S'description'
p126
g104
NS'sb1-bcm91250a'
p127
tp128
(dp129
S'hardware'
p130
S'BCM91250A'
p131
sS'hardware-long'
p132
S'Broadcom BCM91250A systems (aka SWARM)'
p133
ss(S'image'
p134
S'mipsel'
p135
NS'4kc-malta'
p136
tp137
(dp138
S'configs'
p139
(lp140
S'kernelarch-mips/config.4kc-malta'
p141
ass(S'description'
p142
S'sparc64'
p143
NS'sparc64'
p144
tp145
(dp146
S'hardware'
p147
S'uniprocessor 64-bit UltraSPARC'
p148
ss(S'image'
p149
S'mips'
p150
NS'r4k-ip22'
p151
tp152
(dp153
S'configs'
p154
(lp155
S'kernelarch-mips/config.r4k-ip22'
p156
ass(S'base'
p157
g77
tp158
(dp159
S'kernel-arch'
p160
S'alpha'
p161
sS'featuresets'
p162
(lp163
S'none'
p164
ass(S'image'
p165
g104
NS'5kc-malta'
p166
tp167
(dp168
S'configs'
p169
(lp170
S'kernelarch-mips/config.5kc-malta'
p171
ass(S'base'
p172
S'armhf'
p173
g164
tp174
(dp175
S'implicit-flavour'
p176
I01
sS'flavours'
p177
(lp178
S'rpi'
p179
ass(S'image'
p180
S'ppc64'
p181
NS'powerpc64'
p182
tp183
(dp184
S'configs'
p185
(lp186
S'kernelarch-powerpc/config-arch-64'
p187
aS'kernelarch-powerpc/config-arch-64-be'
p188
ass(S'base'
p189
g173
tp190
(dp191
S'kernel-arch'
p192
S'arm'
p193
sg162
(lp194
g164
ass(S'base'
p195
S'hppa'
p196
NS'parisc64-smp'
p197
tp198
(dp199
S'override-host-type'
p200
S'hppa64-linux-gnu'
p201
sS'cflags'
p202
S'-fno-cse-follow-jumps'
p203
ss(S'base'
p204
S'i386'
p205
S'rt'
p206
tp207
(dp208
S'flavours'
p209
(lp210
S'686-pae'
p211
ass(S'abi'
p212
NS'rt'
p213
tp214
(dp215
S'ignore-changes'
p216
(lp217
S'*'
p218
ass(S'description'
p219
g150
NS'sb1-bcm91250a'
p220
tp221
(dp222
S'hardware'
p223
S'BCM91250A'
p224
sS'hardware-long'
p225
S'Broadcom BCM91250A systems (aka SWARM)'
p226
ss(S'image'
p227
S'ppc64el'
p228
tp229
(dp230
S'suggests'
p231
S'mkvmlinuz'
p232
sS'configs'
p233
(lp234
sS'install-stem'
p235
S'vmlinux'
p236
ss(S'description'
p237
g150
NS'octeon'
p238
tp239
(dp240
S'hardware'
p241
S'Octeon'
p242
sS'hardware-long'
p243
S'Cavium Networks Octeon'
p244
ss(S'description'
p245
g77
NS'alpha-generic'
p246
tp247
(dp248
S'hardware'
p249
S'Alpha'
p250
sS'hardware-long'
p251
S'DEC Alpha systems with extended kernel start address (Wildfire, Titan, Marvel)'
p252
ss(S'relations'
p253
g205
tp254
(dp255
S'headers%gcc-4.8'
p256
S'linux-compiler-gcc-4.8-x86'
p257
ss(S'base'
p258
g205
tp259
(dp260
S'kernel-arch'
p261
S'x86'
p262
sS'featuresets'
p263
(lp264
S'none'
p265
aS'rt'
p266
ass(S'image'
p267
S'powerpc'
p268
tp269
(dp270
S'suggests'
p271
S'mkvmlinuz'
p272
sS'configs'
p273
(lp274
sS'install-stem'
p275
S'vmlinux'
p276
ss(S'base'
p277
g5
S'rt'
p278
tp279
(dp280
S'flavours'
p281
(lp282
S'amd64'
p283
ass(S'description'
p284
S'm68k'
p285
NS'm68k'
p286
tp287
(dp288
S'hardware'
p289
S'Motorola MC68020+ family'
p290
ss(S'build'
p291
g181
tp292
(dp293
S'image-file'
p294
S'vmlinux'
p295
ss(S'description'
p296
g205
S'none'
p297
S'amd64'
p298
tp299
(dp300
S'parts'
p301
(lp302
S'xen'
p303
ass(S'base'
p304
S'arm64'
p305
tp306
(dp307
S'kernel-arch'
p308
S'arm64'
p309
sS'featuresets'
p310
(lp311
S'none'
p312
ass(S'description'
p313
g47
NS'kirkwood'
p314
tp315
(dp316
S'hardware'
p317
S'Marvell Kirkwood'
p318
sS'hardware-long'
p319
S'Marvell Kirkwood based systems (SheevaPlug, QNAP TS-119/TS-219, etc)'
p320
ss(S'base'
p321
g135
tp322
(dp323
S'kernel-arch'
p324
S'mips'
p325
sg162
(lp326
g164
ass(S'image'
p327
g268
NS'powerpc64'
p328
tp329
(dp330
S'configs'
p331
(lp332
S'kernelarch-powerpc/config-arch-64'
p333
aS'kernelarch-powerpc/config-arch-64-be'
p334
ass(S'image'
p335
S's390'
p336
NS's390x'
p337
tp338
(dp339
S'configs'
p340
(lp341
S'kernelarch-s390/config-arch-64'
p342
ass(S'base'
p343
g196
tp344
(dp345
S'kernel-arch'
p346
S'parisc'
p347
sg162
(lp348
g164
ass(S'build'
p349
S's390x'
p350
NS's390x'
p351
tp352
(dp353
S'debug-info'
p354
I01
ss(S'description'
p355
g112
NS'octeon'
p356
tp357
(dp358
S'hardware'
p359
S'Octeon'
p360
sS'hardware-long'
p361
S'Cavium Networks Octeon'
p362
ss(S'description'
p363
g104
NS'5kc-malta'
p364
tp365
(dp366
S'hardware'
p367
S'MIPS Malta'
p368
sS'hardware-long'
p369
S'MIPS Malta boards'
p370
ss(g172
g135
g164
tp371
(dp372
g176
I01
sg177
(lp373
S'sb1-bcm91250a'
p374
aS'4kc-malta'
p375
aS'5kc-malta'
p376
aS'loongson-2e'
p377
aS'loongson-2f'
p378
aS'loongson-3'
p379
ass(S'image'
p380
g305
NS'arm64'
p381
tp382
(dp383
s(S'image'
p384
g112
NS'5kc-malta'
p385
tp386
(dp387
S'configs'
p388
(lp389
S'kernelarch-mips/config.5kc-malta'
p390
ass(S'description'
p391
g30
tp392
(dp393
S'hardware'
p394
S'32-bit PowerPC with SPE (instead of AltiVec) with SMP support'
p395
ss(S'image'
p396
g205
NS'686-pae'
p397
tp398
(dp399
S'configs'
p400
(lp401
S'kernelarch-x86/config-arch-32'
p402
aS'i386/config.686-pae'
p403
asS'recommends'
p404
S'libc6-i686'
p405
ss(S'description'
p406
g205
NS'586'
p407
tp408
(dp409
S'hardware'
p410
S'older PCs'
p411
sS'parts'
p412
(lp413
S'up'
p414
asS'hardware-long'
p415
S'PCs with a single processor not supporting PAE'
p416
ss(S'description'
p417
g205
NS'686-pae'
p418
tp419
(dp420
S'hardware'
p421
S'modern PCs'
p422
sS'parts'
p423
(lp424
S'pae'
p425
asS'hardware-long'
p426
S'PCs with one or more processors supporting PAE'
p427
ss(S'description'
p428
g143
NS'sparc64-smp'
p429
tp430
(dp431
S'hardware'
p432
S'multiprocessor 64-bit UltraSPARC'
p433
ss(S'description'
p434
S'sparc'
p435
NS'sparc64'
p436
tp437
(dp438
S'hardware'
p439
S'uniprocessor 64-bit UltraSPARC'
p440
ss(S'base'
p441
g38
tp442
(dp443
S'kernel-arch'
p444
S'sh'
p445
sg162
(lp446
g164
ass(S'build'
p447
g30
tp448
(dp449
S'image-file'
p450
S'vmlinux'
p451
ss(S'description'
p452
g336
NS's390x'
p453
tp454
(dp455
S'hardware'
p456
S'IBM zSeries'
p457
ss(g172
g38
g164
tp458
(dp459
g176
I01
sg177
(lp460
S'sh7751r'
p461
aS'sh7785lcr'
p462
ass(S'description'
p463
g173
NS'rpi'
p464
tp465
(dp466
S'hardware'
p467
S'RaspberryPI'
p468
sS'hardware-long'
p469
S'Raspberry PI'
p470
ss(S'image'
p471
g77
tp472
(dp473
S'suggests'
p474
S'aboot, fdutils'
p475
sS'install-stem'
p476
S'vmlinuz'
p477
ss(S'image'
p478
g173
NS'armmp-lpae'
p479
tp480
(dp481
S'configs'
p482
(lp483
S'armhf/config.armmp'
p484
aS'armhf/config.lpae'
p485
ass(S'description'
p486
g112
NS'5kc-malta'
p487
tp488
(dp489
S'hardware'
p490
S'MIPS Malta'
p491
sS'hardware-long'
p492
S'MIPS Malta boards'
p493
ss(S'base'
p494
g47
tp495
(dp496
S'kernel-arch'
p497
S'arm'
p498
sg162
(lp499
g164
ass(S'description'
p500
g150
NS'4kc-malta'
p501
tp502
(dp503
S'hardware'
p504
S'MIPS Malta'
p505
sS'hardware-long'
p506
S'MIPS Malta boards'
p507
ss(S'build'
p508
g173
tp509
(dp510
S'image-file'
p511
S'arch/arm/boot/zImage'
p512
ss(S'base'
p513
g435
tp514
(dp515
S'kernel-arch'
p516
S'sparc'
p517
sg162
(lp518
g164
ass(S'base'
p519
g30
tp520
(dp521
S'kernel-arch'
p522
S'powerpc'
p523
sg162
(lp524
g164
ass(S'image'
p525
g47
NS'kirkwood'
p526
tp527
(dp528
S'check-size'
p529
S'2097080'
p530
sS'recommends'
p531
S'uboot-mkimage'
p532
ss(S'description'
p533
g268
NS'powerpc'
p534
tp535
(dp536
S'hardware'
p537
S'uniprocessor 32-bit PowerPC'
p538
ss(S'description'
p539
g135
NS'5kc-malta'
p540
tp541
(dp542
S'hardware'
p543
S'MIPS Malta (64-bit)'
p544
sS'hardware-long'
p545
S'MIPS Malta boards (64-bit)'
p546
ss(g172
g336
g164
tp547
(dp548
g176
I01
sg177
(lp549
S's390x'
p550
ass(S'image'
p551
g135
NS'5kc-malta'
p552
tp553
(dp554
S'configs'
p555
(lp556
S'kernelarch-mips/config.5kc-malta'
p557
ass(g172
g350
g164
tp558
(dp559
g176
I01
sg177
(lp560
S's390x'
p561
ass(S'base'
p562
g150
tp563
(dp564
S'kernel-arch'
p565
S'mips'
p566
sg162
(lp567
g164
ass(S'build'
p568
g5
tp569
(dp570
S'debug-info'
p571
I01
sS'image-file'
p572
S'arch/x86/boot/bzImage'
p573
ss(S'abi'
p574
g47
NS'kirkwood'
p575
tp576
(dp577
S'ignore-changes'
p578
(lp579
S'zs_create_pool'
p580
aS'zs_destroy_pool'
p581
aS'zs_free'
p582
aS'zs_get_total_size_bytes'
p583
aS'zs_malloc'
p584
aS'zs_map_object'
p585
aS'zs_unmap_object'
p586
aS'fips_enabled'
p587
aS'dcookie_register'
p588
aS'dcookie_unregister'
p589
aS'get_dcookie'
p590
aS'prof_on'
p591
aS'profile_event_register'
p592
aS'profile_event_unregister'
p593
aS'profile_hits'
p594
aS'ring_buffer_swap_cpu'
p595
aS'task_handoff_register'
p596
aS'task_handoff_unregister'
p597
aS'disable_kprobe'
p598
aS'enable_kprobe'
p599
aS'jprobe_return'
p600
aS'profile_hits'
p601
aS'register_jprobe'
p602
aS'register_jprobes'
p603
aS'register_kprobe'
p604
aS'register_kprobes'
p605
aS'register_kretprobe'
p606
aS'register_kretprobes'
p607
aS'unregister_jprobe'
p608
aS'unregister_jprobes'
p609
aS'unregister_kprobe'
p610
aS'unregister_kprobes'
p611
aS'unregister_kretprobe'
p612
aS'unregister_kretprobes'
p613
ass(S'image'
p614
g435
NS'sparc32'
p615
tp616
(dp617
S'image-postproc'
p618
S'sparc32-image-postproc'
p619
ss(S'image'
p620
g135
NS'loongson-3'
p621
tp622
(dp623
S'configs'
p624
(lp625
S'kernelarch-mips/config.loongson-3'
p626
ass(S'build'
p627
g435
tp628
(dp629
S'image-file'
p630
S'arch/sparc/boot/zImage'
p631
ss(S'image'
p632
g135
tp633
(dp634
S'install-stem'
p635
S'vmlinux'
p636
ss(S'build'
p637
g268
tp638
(dp639
S'image-file'
p640
S'vmlinux'
p641
ss(S'build'
p642
g305
tp643
(dp644
S'debug-info'
p645
I01
sS'image-file'
p646
S'arch/arm64/boot/Image'
p647
ss(S'description'
p648
g268
NS'powerpc-smp'
p649
tp650
(dp651
S'hardware'
p652
S'multiprocessor 32-bit PowerPC'
p653
ss(S'build'
p654
g135
tp655
(dp656
S'image-file'
p657
S'vmlinux'
p658
ss(S'base'
p659
g112
tp660
(dp661
S'kernel-arch'
p662
S'mips'
p663
sg162
(lp664
g164
ass(S'base'
p665
g5
tp666
(dp667
S'kernel-arch'
p668
S'x86'
p669
sS'featuresets'
p670
(lp671
S'none'
p672
aS'rt'
p673
ass(S'description'
p674
g5
NS'amd64'
p675
tp676
(dp677
S'hardware'
p678
S'64-bit PCs'
p679
sS'hardware-long'
p680
S'PCs with AMD64, Intel 64 or VIA Nano processors'
p681
ss(S'image'
p682
g104
NS'octeon'
p683
tp684
(dp685
S'configs'
p686
(lp687
S'kernelarch-mips/config.octeon'
p688
ass(S'description'
p689
g196
NS'parisc64-smp'
p690
tp691
(dp692
S'hardware'
p693
S'multiprocessor 64-bit PA-RISC'
p694
sS'hardware-long'
p695
S'HP PA-RISC 64-bit SMP systems with support for more than 4 GB RAM'
p696
ss(g172
g181
g164
tp697
(dp698
g176
I01
sg177
(lp699
S'powerpc64'
p700
ass(S'base'
p701
g336
tp702
(dp703
S'kernel-arch'
p704
S's390'
p705
sg162
(lp706
g164
ass(g172
g47
g164
tp707
(dp708
g176
I01
sg177
(lp709
S'ixp4xx'
p710
aS'kirkwood'
p711
aS'orion5x'
p712
aS'versatile'
p713
ass(S'image'
p714
g150
NS'5kc-malta'
p715
tp716
(dp717
S'configs'
p718
(lp719
S'kernelarch-mips/config.5kc-malta'
p720
ass(S'description'
p721
g77
NS'alpha-smp'
p722
tp723
(dp724
S'hardware'
p725
S'Alpha SMP'
p726
sS'hardware-long'
p727
S'DEC Alpha SMP systems with extended kernel start address (Wildfire, Titan, Marvel)'
p728
ss(S'base'
p729
g53
tp730
(dp731
S'kernel-arch'
p732
S'ia64'
p733
sg162
(lp734
g164
asS'compiler'
p735
S'gcc-4.6'
p736
ss(S'description'
p737
g38
NS'sh7785lcr'
p738
tp739
(dp740
S'hardware'
p741
S'sh7785lcr'
p742
sS'hardware-long'
p743
S'Renesas SH7785 reference board'
p744
ss(S'description'
p745
g205
tp746
(dp747
S'part-long-pae'
p748
S'This kernel requires PAE (Physical Address Extension).\nThis feature is supported by the Intel Pentium Pro/II/III/4/4M/D, Xeon,\nCore and Atom; AMD Geode NX, Athlon (K7), Duron, Opteron, Sempron,\nTurion or Phenom; Transmeta Efficeon; VIA C7; and some other processors.'
p749
ss(S'relations'
p750
tp751
(dp752
S'gcc-4.8'
p753
S'gcc-4.8'
p754
sS'initramfs-fallback'
p755
S'linux-initramfs-tool'
p756
sS'gcc-4.7'
p757
S'gcc-4.7'
p758
sS'gcc-4.6'
p759
S'gcc-4.6'
p760
sS'gcc-4.4'
p761
S'gcc-4.4'
p762
sS'initramfs-tools'
p763
S'initramfs-tools (>= 0.110~)'
p764
ss(S'build'
p765
g205
NS'686-pae'
p766
tp767
(dp768
S'debug-info'
p769
I01
ss(S'build'
p770
g104
tp771
(dp772
S'image-file'
p773
S'vmlinux'
p774
ss(S'xen'
p775
g5
g23
S'amd64'
p776
tp777
(dp778
S'flavours'
p779
(lp780
S'amd64'
p781
ass(S'image'
p782
g47
tp783
(dp784
S'suggests'
p785
S'fdutils'
p786
sS'configs'
p787
(lp788
S'kernelarch-arm/config'
p789
aS'armel/config'
p790
asS'install-stem'
p791
S'vmlinuz'
p792
ss(S'image'
p793
g336
tp794
(dp795
S'install-stem'
p796
S'vmlinuz'
p797
sS'configs'
p798
(lp799
sS'bootloaders'
p800
(lp801
S's390-tools'
p802
ass(S'relations'
p803
g47
tp804
(dp805
S'headers%gcc-4.8'
p806
S'linux-compiler-gcc-4.8-arm'
p807
ss(S'image'
p808
g196
tp809
(dp810
S'suggests'
p811
S'palo'
p812
sS'install-stem'
p813
S'vmlinux'
p814
ss(g172
g112
g164
tp815
(dp816
g176
I01
sg177
(lp817
S'sb1-bcm91250a'
p818
aS'5kc-malta'
p819
aS'octeon'
p820
ass(S'relations'
p821
g196
tp822
(dp823
S'gcc-4.8'
p824
S'gcc-4.8, binutils-hppa64, gcc-4.8-hppa64'
p825
ss(S'image'
p826
g150
NS'r5k-ip32'
p827
tp828
(dp829
S'configs'
p830
(lp831
S'kernelarch-mips/config.r5k-ip32'
p832
ass(S'image'
p833
g135
NS'loongson-2f'
p834
tp835
(dp836
S'configs'
p837
(lp838
S'kernelarch-mips/config.loongson-2f'
p839
asS'recommends'
p840
S'libc6-loongson2f'
p841
ss(S'description'
p842
g135
NS'loongson-2f'
p843
tp844
(dp845
S'hardware'
p846
S'Loongson 2F'
p847
sS'hardware-long'
p848
S'Lemote Loongson 2F systems'
p849
ss(S'description'
p850
g47
NS'ixp4xx'
p851
tp852
(dp853
S'hardware'
p854
S'IXP4xx'
p855
sS'hardware-long'
p856
S'IXP4xx based systems (Linksys NSLU2, etc)'
p857
ss(S'abi'
p858
g47
NS'ixp4xx'
p859
tp860
(dp861
S'ignore-changes'
p862
(lp863
S'__ring_buffer_alloc'
p864
aS'dcookie_register'
p865
aS'dcookie_unregister'
p866
aS'get_dcookie'
p867
aS'prof_on'
p868
aS'profile_event_register'
p869
aS'profile_event_unregister'
p870
aS'profile_hits'
p871
aS'ring_buffer_alloc_read_page'
p872
aS'ring_buffer_bytes_cpu'
p873
aS'ring_buffer_change_overwrite'
p874
aS'ring_buffer_commit_overrun_cpu'
p875
aS'ring_buffer_consume'
p876
aS'ring_buffer_discard_commit'
p877
aS'ring_buffer_dropped_events_cpu'
p878
aS'ring_buffer_empty'
p879
aS'ring_buffer_empty_cpu'
p880
aS'ring_buffer_entries'
p881
aS'ring_buffer_entries_cpu'
p882
aS'ring_buffer_event_data'
p883
aS'ring_buffer_event_length'
p884
aS'ring_buffer_free'
p885
aS'ring_buffer_free_read_page'
p886
aS'ring_buffer_iter_empty'
p887
aS'ring_buffer_iter_peek'
p888
aS'ring_buffer_iter_reset'
p889
aS'ring_buffer_lock_reserve'
p890
aS'ring_buffer_normalize_time_stamp'
p891
aS'ring_buffer_oldest_event_ts'
p892
aS'ring_buffer_overrun_cpu'
p893
aS'ring_buffer_overruns'
p894
aS'ring_buffer_peek'
p895
aS'ring_buffer_read'
p896
aS'ring_buffer_read_events_cpu'
p897
aS'ring_buffer_read_finish'
p898
aS'ring_buffer_read_page'
p899
aS'ring_buffer_read_prepare'
p900
aS'ring_buffer_read_prepare_sync'
p901
aS'ring_buffer_read_start'
p902
aS'ring_buffer_record_disable'
p903
aS'ring_buffer_record_disable_cpu'
p904
aS'ring_buffer_record_enable'
p905
aS'ring_buffer_record_enable_cpu'
p906
aS'ring_buffer_record_off'
p907
aS'ring_buffer_record_on'
p908
aS'ring_buffer_reset'
p909
aS'ring_buffer_reset_cpu'
p910
aS'ring_buffer_resize'
p911
aS'ring_buffer_size'
p912
aS'ring_buffer_swap_cpu'
p913
aS'ring_buffer_time_stamp'
p914
aS'ring_buffer_unlock_commit'
p915
aS'ring_buffer_write'
p916
aS'task_handoff_register'
p917
aS'task_handoff_unregister'
p918
aS'trace_clock_local'
p919
ass(S'base'
p920
g268
tp921
(dp922
S'kernel-arch'
p923
S'powerpc'
p924
sg162
(lp925
g164
ass(g172
g196
g164
tp926
(dp927
g176
I01
sg177
(lp928
S'parisc'
p929
aS'parisc64-smp'
p930
ass(S'relations'
p931
g336
tp932
(dp933
S'headers%gcc-4.8'
p934
S'linux-compiler-gcc-4.8-s390'
p935
ss(S'base'
p936
g143
tp937
(dp938
S'kernel-arch'
p939
S'sparc'
p940
sg162
(lp941
g164
ass(S'base'
p942
S'or1k'
p943
tp944
(dp945
S'kernel-arch'
p946
S'openrisc'
p947
sS'featuresets'
p948
(lp949
ss(S'image'
p950
g228
NS'powerpc64le'
p951
tp952
(dp953
S'configs'
p954
(lp955
S'kernelarch-powerpc/config-arch-64'
p956
aS'kernelarch-powerpc/config-arch-64-le'
p957
ass(S'base'
p958
g350
tp959
(dp960
S'kernel-arch'
p961
S's390'
p962
sg162
(lp963
g164
ass(S'image'
p964
g150
tp965
(dp966
S'install-stem'
p967
S'vmlinux'
p968
ss(S'image'
p969
g104
NS'sb1-bcm91250a'
p970
tp971
(dp972
S'configs'
p973
(lp974
S'kernelarch-mips/config.sb1-bcm91250a'
p975
ass(S'description'
p976
g205
NS'amd64'
p977
tp978
(dp979
S'hardware'
p980
S'64-bit PCs'
p981
sS'parts'
p982
(lp983
S'xen'
p984
asS'hardware-long'
p985
S'PCs with AMD64, Intel 64 or VIA Nano processors'
p986
ss(S'description'
p987
g150
NS'r4k-ip22'
p988
tp989
(dp990
S'hardware'
p991
S'SGI IP22'
p992
sS'hardware-long'
p993
S'SGI IP22 systems (Indy, Indigo2)'
p994
ss(S'image'
p995
g181
tp996
(dp997
S'suggests'
p998
S'mkvmlinuz'
p999
sS'configs'
p1000
(lp1001
sS'install-stem'
p1002
S'vmlinux'
p1003
ss(S'image'
p1004
g143
NS'sparc64-smp'
p1005
tp1006
(dp1007
S'configs'
p1008
(lp1009
S'kernelarch-sparc/config-smp'
p1010
ass(S'image'
p1011
g205
tp1012
(dp1013
S'install-stem'
p1014
S'vmlinuz'
p1015
sS'configs'
p1016
(lp1017
sS'bootloaders'
p1018
(lp1019
S'grub-pc'
p1020
aS'extlinux'
p1021
ass(g172
g435
g164
tp1022
(dp1023
g176
I01
sg177
(lp1024
S'sparc64'
p1025
aS'sparc64-smp'
p1026
ass(S'base'
p1027
g181
tp1028
(dp1029
S'kernel-arch'
p1030
S'powerpc'
p1031
sg162
(lp1032
g164
ass(g172
g77
g164
tp1033
(dp1034
g176
I01
sg177
(lp1035
S'alpha-generic'
p1036
aS'alpha-smp'
p1037
aS'alpha-legacy'
p1038
ass(S'description'
p1039
g205
g297
S'686-pae'
p1040
tp1041
(dp1042
S'parts'
p1043
(lp1044
S'xen'
p1045
ass(S'description'
p1046
g135
NS'loongson-3'
p1047
tp1048
(dp1049
S'hardware'
p1050
S'Loongson 3A/3B'
p1051
sS'hardware-long'
p1052
S'Loongson 3A or 3B based systems (e.g. from Loongson or Lemote)'
p1053
ss(g172
g53
g164
tp1054
(dp1055
g176
I01
sg177
(lp1056
S'itanium'
p1057
aS'mckinley'
p1058
ass(S'relations'
p1059
g268
tp1060
(dp1061
S'gcc-4.8'
p1062
S'gcc-4.8 (>= 4.8.2-21)'
p1063
ss(S'build'
p1064
g350
tp1065
(dp1066
S'image-file'
p1067
S'arch/s390/boot/image'
p1068
ss(g172
g150
g164
tp1069
(dp1070
g176
I01
sg177
(lp1071
S'r4k-ip22'
p1072
aS'r5k-ip32'
p1073
aS'sb1-bcm91250a'
p1074
aS'4kc-malta'
p1075
aS'5kc-malta'
p1076
aS'octeon'
p1077
ass(S'build'
p1078
g77
tp1079
(dp1080
S'image-file'
p1081
S'arch/alpha/boot/vmlinux.gz'
p1082
ss(S'description'
p1083
g150
NS'r5k-ip32'
p1084
tp1085
(dp1086
S'hardware'
p1087
S'SGI IP32'
p1088
sS'hardware-long'
p1089
S'SGI IP32 systems (O2)'
p1090
ss(S'image'
p1091
g112
tp1092
(dp1093
S'install-stem'
p1094
S'vmlinux'
p1095
ss(S'image'
p1096
g143
NS'sparc64'
p1097
tp1098
(dp1099
S'configs'
p1100
(lp1101
S'kernelarch-sparc/config-up'
p1102
ass(S'description'
p1103
g112
NS'sb1-bcm91250a'
p1104
tp1105
(dp1106
S'hardware'
p1107
S'BCM91250A'
p1108
sS'hardware-long'
p1109
S'Broadcom BCM91250A systems (aka SWARM)'
p1110
ss(S'description'
p1111
g47
NS'orion5x'
p1112
tp1113
(dp1114
S'hardware'
p1115
S'Marvell Orion'
p1116
sS'hardware-long'
p1117
S'Marvell Orion 5181, 5182 and 5281 based systems (QNAP TS-109/TS-209, etc)'
p1118
ss(S'base'
p1119
S'x32'
p1120
tp1121
(dp1122
S'kernel-arch'
p1123
S'x86'
p1124
sS'featuresets'
p1125
(lp1126
ss(S'build'
p1127
g38
tp1128
(dp1129
S'image-file'
p1130
S'arch/sh/boot/zImage'
p1131
ss(S'image'
p1132
g285
tp1133
(dp1134
S'suggests'
p1135
S'vmelilo, fdutils'
p1136
sS'install-stem'
p1137
S'vmlinuz'
p1138
ss(S'image'
p1139
g205
NS'amd64'
p1140
tp1141
(dp1142
S'configs'
p1143
(lp1144
S'kernelarch-x86/config-arch-64'
p1145
asS'recommends'
p1146
S'libc6-i686'
p1147
ss(S'base'
p1148
g305
S'none'
p1149
tp1150
(dp1151
S'flavours'
p1152
(lp1153
S'arm64'
p1154
ass(S'image'
p1155
g205
NS'586'
p1156
tp1157
(dp1158
S'configs'
p1159
(lp1160
S'kernelarch-x86/config-arch-32'
p1161
aS'i386/config.586'
p1162
ass(S'build'
p1163
g112
tp1164
(dp1165
S'image-file'
p1166
S'vmlinux'
p1167
ss(S'build'
p1168
g53
tp1169
(dp1170
S'image-file'
p1171
S'vmlinux.gz'
p1172
ss(S'description'
p1173
g196
NS'parisc'
p1174
tp1175
(dp1176
S'hardware'
p1177
S'32-bit PA-RISC'
p1178
sS'hardware-long'
p1179
S'HP PA-RISC 32-bit systems with max 4 GB RAM'
p1180
ss(S'description'
p1181
g268
NS'powerpc64'
p1182
tp1183
(dp1184
S'hardware'
p1185
S'64-bit PowerPC'
p1186
ss(S'image'
p1187
g38
tp1188
(dp1189
S'suggests'
p1190
S'fdutils'
p1191
sS'install-stem'
p1192
S'vmlinuz'
p1193
ss(S'image'
p1194
g150
NS'4kc-malta'
p1195
tp1196
(dp1197
S'configs'
p1198
(lp1199
S'kernelarch-mips/config.4kc-malta'
p1200
ass(S'description'
p1201
Ng213
tp1202
(dp1203
S'part-long-rt'
p1204
S'This kernel includes the PREEMPT_RT realtime patch set.'
p1205
sS'parts'
p1206
(lp1207
S'rt'
p1208
asS'part-short-rt'
p1209
S'PREEMPT_RT'
p1210
ss(S'description'
p1211
g435
NS'sparc64-smp'
p1212
tp1213
(dp1214
S'hardware'
p1215
S'multiprocessor 64-bit UltraSPARC'
p1216
ss(g172
g104
g164
tp1217
(dp1218
g176
I01
sg177
(lp1219
S'sb1-bcm91250a'
p1220
aS'5kc-malta'
p1221
aS'loongson-3'
p1222
aS'octeon'
p1223
ass(S'image'
p1224
g135
NS'sb1-bcm91250a'
p1225
tp1226
(dp1227
S'configs'
p1228
(lp1229
S'kernelarch-mips/config.sb1-bcm91250a'
p1230
ass(S'image'
p1231
g435
tp1232
(dp1233
S'suggests'
p1234
S'silo, fdutils'
p1235
sS'configs'
p1236
(lp1237
sS'install-stem'
p1238
S'vmlinuz'
p1239
ss(S'description'
p1240
tp1241
(dp1242
S'part-long-up'
p1243
S'This kernel is not suitable for SMP (multi-processor,\nmulti-core or hyper-threaded) systems.'
p1244
sS'part-long-xen'
p1245
S'This kernel also runs on a Xen hypervisor.\nIt supports both privileged (dom0) and unprivileged (domU) operation.'
p1246
ss(S'description'
p1247
g135
NS'4kc-malta'
p1248
tp1249
(dp1250
S'hardware'
p1251
S'MIPS Malta'
p1252
sS'hardware-long'
p1253
S'MIPS Malta boards'
p1254
ss(S'build'
p1255
g143
tp1256
(dp1257
S'image-file'
p1258
S'arch/sparc/boot/zImage'
p1259
ss(S'relations'
p1260
g173
tp1261
(dp1262
S'headers%gcc-4.8'
p1263
S'linux-compiler-gcc-4.8-arm'
p1264
ss(S'abi'
p1265
g47
NS'orion5x'
p1266
tp1267
(dp1268
S'ignore-changes'
p1269
(lp1270
S'__ring_buffer_alloc'
p1271
aS'dcookie_register'
p1272
aS'dcookie_unregister'
p1273
aS'get_dcookie'
p1274
aS'prof_on'
p1275
aS'profile_event_register'
p1276
aS'profile_event_unregister'
p1277
aS'profile_hits'
p1278
aS'ring_buffer_alloc_read_page'
p1279
aS'ring_buffer_bytes_cpu'
p1280
aS'ring_buffer_change_overwrite'
p1281
aS'ring_buffer_commit_overrun_cpu'
p1282
aS'ring_buffer_consume'
p1283
aS'ring_buffer_discard_commit'
p1284
aS'ring_buffer_dropped_events_cpu'
p1285
aS'ring_buffer_empty'
p1286
aS'ring_buffer_empty_cpu'
p1287
aS'ring_buffer_entries'
p1288
aS'ring_buffer_entries_cpu'
p1289
aS'ring_buffer_event_data'
p1290
aS'ring_buffer_event_length'
p1291
aS'ring_buffer_free'
p1292
aS'ring_buffer_free_read_page'
p1293
aS'ring_buffer_iter_empty'
p1294
aS'ring_buffer_iter_peek'
p1295
aS'ring_buffer_iter_reset'
p1296
aS'ring_buffer_lock_reserve'
p1297
aS'ring_buffer_normalize_time_stamp'
p1298
aS'ring_buffer_oldest_event_ts'
p1299
aS'ring_buffer_overrun_cpu'
p1300
aS'ring_buffer_overruns'
p1301
aS'ring_buffer_peek'
p1302
aS'ring_buffer_read'
p1303
aS'ring_buffer_read_events_cpu'
p1304
aS'ring_buffer_read_finish'
p1305
aS'ring_buffer_read_page'
p1306
aS'ring_buffer_read_prepare'
p1307
aS'ring_buffer_read_prepare_sync'
p1308
aS'ring_buffer_read_start'
p1309
aS'ring_buffer_record_disable'
p1310
aS'ring_buffer_record_disable_cpu'
p1311
aS'ring_buffer_record_enable'
p1312
aS'ring_buffer_record_enable_cpu'
p1313
aS'ring_buffer_record_off'
p1314
aS'ring_buffer_record_on'
p1315
aS'ring_buffer_reset'
p1316
aS'ring_buffer_reset_cpu'
p1317
aS'ring_buffer_resize'
p1318
aS'ring_buffer_size'
p1319
aS'ring_buffer_swap_cpu'
p1320
aS'ring_buffer_time_stamp'
p1321
aS'ring_buffer_unlock_commit'
p1322
aS'ring_buffer_write'
p1323
aS'task_handoff_register'
p1324
aS'task_handoff_unregister'
p1325
aS'trace_clock_local'
p1326
ass(S'description'
p1327
g350
NS's390x'
p1328
tp1329
(dp1330
S'hardware'
p1331
S'IBM zSeries'
p1332
ss(S'build'
p1333
g196
tp1334
(dp1335
S'image-file'
p1336
S'vmlinux'
p1337
ss(S'build'
p1338
g150
tp1339
(dp1340
S'image-file'
p1341
S'vmlinux'
p1342
ss(S'image'
p1343
g47
NS'orion5x'
p1344
tp1345
(dp1346
S'check-size'
p1347
S'1572792'
p1348
sS'configs'
p1349
(lp1350
S'armel/config-reduced'
p1351
aS'armel/config.orion5x'
p1352
asS'recommends'
p1353
S'uboot-mkimage'
p1354
ss(S'relations'
p1355
g350
tp1356
(dp1357
S'headers%gcc-4.8'
p1358
S'linux-compiler-gcc-4.8-s390'
p1359
ss(S'relations'
p1360
g181
tp1361
(dp1362
S'gcc-4.8'
p1363
S'gcc-4.8 (>= 4.8.2-21)'
p1364
ss(S'image'
p1365
g435
NS'sparc64-smp'
p1366
tp1367
(dp1368
S'configs'
p1369
(lp1370
S'kernelarch-sparc/config-smp'
p1371
ass(S'description'
p1372
g104
NS'loongson-3'
p1373
tp1374
(dp1375
S'hardware'
p1376
S'Loongson 3A/3B'
p1377
sS'hardware-long'
p1378
S'Loongson 3A or 3B based systems (e.g. from Loongson or Lemote)'
p1379
ss(S'build'
p1380
g336
NS's390x'
p1381
tp1382
(dp1383
S'debug-info'
p1384
I01
ss(S'description'
p1385
g173
NS'armmp-lpae'
p1386
tp1387
(dp1388
S'hardware'
p1389
S'ARMv7 multiplatform compatible SoCs supporting LPAE'
p1390
sS'hardware-long'
p1391
S'ARMv7 multiplatform kernel supporting LPAE. See\nhttps://wiki.debian.org/DebianKernel/ARMMP for details of supported\nplatforms.'
p1392
ss(S'description'
p1393
g104
NS'octeon'
p1394
tp1395
(dp1396
S'hardware'
p1397
S'Octeon'
p1398
sS'hardware-long'
p1399
S'Cavium Networks Octeon'
p1400
ss(S'build'
p1401
g336
tp1402
(dp1403
S'image-file'
p1404
S'arch/s390/boot/image'
p1405
ss(S'description'
p1406
g135
NS'loongson-2e'
p1407
tp1408
(dp1409
S'hardware'
p1410
S'Loongson 2E'
p1411
sS'hardware-long'
p1412
S'Lemote Loongson 2E systems'
p1413
ss(S'image'
p1414
g47
NS'ixp4xx'
p1415
tp1416
(dp1417
S'check-size'
p1418
S'1441760'
p1419
sS'configs'
p1420
(lp1421
S'armel/config-reduced'
p1422
aS'armel/config.ixp4xx'
p1423
ass(S'image'
p1424
g173
tp1425
(dp1426
S'suggests'
p1427
S'fdutils'
p1428
sS'configs'
p1429
(lp1430
S'kernelarch-arm/config'
p1431
aS'armhf/config'
p1432
asS'install-stem'
p1433
S'vmlinuz'
p1434
ss(S'abi'
p1435
tp1436
(dp1437
S'abiname'
p1438
S'4'
p1439
sS'ignore-changes'
p1440
(lp1441
S'module:arch/x86/kvm/kvm'
p1442
aS'module:drivers/mtd/spi-nor/spi-nor'
p1443
aS'module:drivers/net/wireless/iwlwifi/iwlwifi'
p1444
aS'__add_pages'
p1445
aS'__remove_pages'
p1446
aS'of_device_is_stdout_path'
p1447
aS'module:sound/soc/*'
p1448
aS'clk_divider_ro_ops'
p1449
aS'tick_nohz_idle_enter'
p1450
aS'tick_nohz_idle_exit'
p1451
ass(S'image'
p1452
g135
NS'loongson-2e'
p1453
tp1454
(dp1455
S'configs'
p1456
(lp1457
S'kernelarch-mips/config.loongson-2e'
p1458
ass(S'description'
p1459
g305
NS'arm64'
p1460
tp1461
(dp1462
S'hardware'
p1463
S'64-bit ARMv8 machines'
p1464
ss(g172
g30
g164
tp1465
(dp1466
g176
I01
sg177
(lp1467
S'powerpcspe'
p1468
ass(g172
g285
g164
tp1469
(dp1470
g176
I01
sg177
(lp1471
S'm68k'
p1472
ass(S'base'
p1473
g205
g297
tp1474
(dp1475
S'flavours'
p1476
(lp1477
S'586'
p1478
aS'686-pae'
p1479
aS'amd64'
p1480
ass(S'base'
p1481
tp1482
(dp1483
S'arches'
p1484
(lp1485
S'alpha'
p1486
aS'amd64'
p1487
aS'arm64'
p1488
aS'armel'
p1489
aS'armhf'
p1490
aS'hppa'
p1491
aS'i386'
p1492
aS'ia64'
p1493
aS'm68k'
p1494
aS'mips'
p1495
aS'mipsel'
p1496
aS'mips64'
p1497
aS'mips64el'
p1498
aS'or1k'
p1499
aS'powerpc'
p1500
aS'powerpcspe'
p1501
aS'ppc64'
p1502
aS'ppc64el'
p1503
aS's390'
p1504
aS's390x'
p1505
aS'sh4'
p1506
aS'sparc'
p1507
aS'sparc64'
p1508
aS'x32'
p1509
asS'featuresets'
p1510
(lp1511
S'none'
p1512
aS'rt'
p1513
asS'compiler'
p1514
S'gcc-4.8'
p1515
ss(S'build'
p1516
g173
NS'rpi'
p1517
tp1518
(dp1519
S'image-file'
p1520
S'arch/arm/boot/zImage'
p1521
ss(S'build'
p1522
g285
tp1523
(dp1524
S'image-file'
p1525
S'vmlinux.gz'
p1526
ss(S'image'
p1527
g350
NS's390x'
p1528
tp1529
(dp1530
S'configs'
p1531
(lp1532
S'kernelarch-s390/config-arch-64'
p1533
ass(S'image'
p1534
g268
NS'powerpc-smp'
p1535
tp1536
(dp1537
S'configs'
p1538
(lp1539
S'powerpc/config.powerpc'
p1540
aS'powerpc/config.powerpc-smp'
p1541
ass(g172
g268
g164
tp1542
(dp1543
g176
I01
sg177
(lp1544
S'powerpc'
p1545
aS'powerpc-smp'
p1546
aS'powerpc64'
p1547
ass(S'image'
p1548
g143
tp1549
(dp1550
S'suggests'
p1551
S'silo, fdutils'
p1552
sS'configs'
p1553
(lp1554
sS'install-stem'
p1555
S'vmlinuz'
p1556
ss(S'image'
p1557
g104
tp1558
(dp1559
S'install-stem'
p1560
S'vmlinux'
p1561
ss(S'description'
p1562
g435
NS'sparc32'
p1563
tp1564
(dp1565
S'hardware'
p1566
S'uniprocessor sparc32 (sun4m)'
p1567
ss(S'base'
p1568
g228
tp1569
(dp1570
S'kernel-arch'
p1571
S'powerpc'
p1572
sg162
(lp1573
g164
ass(S'base'
p1574
g104
tp1575
(dp1576
S'kernel-arch'
p1577
S'mips'
p1578
sg162
(lp1579
g164
ass(S'relations'
p1580
g5
tp1581
(dp1582
S'headers%gcc-4.8'
p1583
S'linux-compiler-gcc-4.8-x86'
p1584
ss(S'base'
p1585
g285
tp1586
(dp1587
S'kernel-arch'
p1588
S'm68k'
p1589
sg162
(lp1590
g164
asS'cflags'
p1591
S'-ffreestanding'
p1592
sS'compiler'
p1593
S'gcc-4.8'
p1594
ss(S'description'
p1595
g228
NS'powerpc64le'
p1596
tp1597
(dp1598
S'hardware'
p1599
S'Little-endian 64-bit PowerPC'
p1600
ss(S'image'
p1601
tp1602
(dp1603
S'initramfs-generators'
p1604
(lp1605
S'initramfs-tools'
p1606
aS'initramfs-fallback'
p1607
asS'type'
p1608
S'plain'
p1609
ss(S'description'
p1610
g173
NS'armmp'
p1611
tp1612
(dp1613
S'hardware'
p1614
S'ARMv7 multiplatform compatible SoCs'
p1615
sS'hardware-long'
p1616
S'ARMv7 multiplatform kernel. See\nhttps://wiki.debian.org/DebianKernel/ARMMP for details of supported\nplatforms'
p1617
ss(S'build'
p1618
g228
tp1619
(dp1620
S'image-file'
p1621
S'vmlinux'
p1622
ss(S'image'
p1623
g435
NS'sparc64'
p1624
tp1625
(dp1626
S'configs'
p1627
(lp1628
S'kernelarch-sparc/config-up'
p1629
ass(g172
g143
g164
tp1630
(dp1631
g176
I01
sg177
(lp1632
S'sparc64'
p1633
aS'sparc64-smp'
p1634
ass(S'description'
p1635
g150
NS'5kc-malta'
p1636
tp1637
(dp1638
S'hardware'
p1639
S'MIPS Malta (64-bit)'
p1640
sS'hardware-long'
p1641
S'MIPS Malta boards (64-bit)'
p1642
ss(S'description'
p1643
g53
NS'mckinley'
p1644
tp1645
(dp1646
S'hardware'
p1647
S'Itanium II'
p1648
ss(S'description'
p1649
g135
NS'sb1-bcm91250a'
p1650
tp1651
(dp1652
S'hardware'
p1653
S'BCM91250A'
p1654
sS'hardware-long'
p1655
S'Broadcom BCM91250A systems (aka SWARM)'
p1656
ss(S'image'
p1657
g38
NS'sh7785lcr'
p1658
tp1659
(dp1660
S'check-size'
p1661
S'4194304'
p1662
sS'recommends'
p1663
S'uboot-mkimage'
p1664
ss(S'image'
p1665
g350
tp1666
(dp1667
S'install-stem'
p1668
S'vmlinuz'
p1669
sS'configs'
p1670
(lp1671
sS'bootloaders'
p1672
(lp1673
S's390-tools'
p1674
ass(S'image'
p1675
g305
tp1676
(dp1677
S'install-stem'
p1678
S'vmlinuz'
p1679
ss(S'description'
p1680
g47
NS'versatile'
p1681
tp1682
(dp1683
S'hardware'
p1684
S'Versatile'
p1685
sS'hardware-long'
p1686
S'Versatile systems (PB, AB, Qemu)'
p1687
ss(S'image'
p1688
g150
NS'sb1-bcm91250a'
p1689
tp1690
(dp1691
S'configs'
p1692
(lp1693
S'kernelarch-mips/config.sb1-bcm91250a'
p1694
ass(S'image'
p1695
g150
NS'octeon'
p1696
tp1697
(dp1698
S'configs'
p1699
(lp1700
S'kernelarch-mips/config.octeon'
p1701
ass(S'description'
p1702
g181
NS'powerpc64'
p1703
tp1704
(dp1705
S'hardware'
p1706
S'64-bit PowerPC'
p1707
ss(S'build'
p1708
g205
tp1709
(dp1710
S'image-file'
p1711
S'arch/x86/boot/bzImage'
p1712
ss(g172
g228
g164
tp1713
(dp1714
g176
I01
sg177
(lp1715
S'powerpc64le'
p1716
asstp1717
Rp1718
.