cdebian_linux.config
ConfigCore
p0
(tRp1
(Vabi
p2
tp3
(dp4
Vabiname
p5
V4
p6
sVignore-changes
p7
(lp8
V__cpuhp_*
p9
aV__udp_gso_segment
p10
aVbpf_analyzer
p11
aVcxl_*
p12
aVdax_flush
p13
aVieee80211_nullfunc_get
p14
aVinet_add_protocol
p15
aVinet_del_protocol
p16
aViommu_device_*
p17
aVmm_iommu_*
p18
aVmv_mbus_*
p19
aVperf_*
p20
aVregister_cxl_calls
p21
aVregister_key_type
p22
aVunregister_cxl_calls
p23
aV*_hw_breakpoint
p24
aVmodule:drivers/crypto/ccp/*
p25
aVmodule:drivers/hv/*
p26
aVmodule:drivers/gpu/drm/sun4i/*
p27
aVmodule:drivers/iio/**
p28
aVmodule:drivers/misc/cxl/*
p29
aVmodule:drivers/mtd/nand/*
p30
aVmodule:drivers/net/ethernet/**
p31
aVmodule:drivers/net/wireless/**
p32
aVmodule:drivers/nvdimm/*
p33
aVmodule:drivers/nvme/**
p34
aVmodule:drivers/power/supply/bq27xxx_battery
p35
aVmodule:drivers/scsi/cxgbi/*
p36
aVmodule:drivers/scsi/libiscs*
p37
aVmodule:drivers/scsi/qla2xxx/qla2xxx
p38
aVmodule:drivers/scsi/ufs/*
p39
aVmodule:drivers/target/**
p40
aVmodule:drivers/usb/chipidea/**
p41
aVmodule:drivers/usb/gadget/**
p42
aVmodule:drivers/usb/host/**
p43
aVmodule:drivers/usb/musb/**
p44
aVmodule:fs/nfs/**
p45
aVmodule:net/ceph/libceph
p46
aVmodule:net/l2tp/**
p47
aVmodule:net/rxrpc/rxrpc
p48
aVmodule:net/sctp/**
p49
aVmodule:sound/core/seq/**
p50
aVmodule:sound/firewire/snd-firewire-lib
p51
aVmodule:sound/pci/hda/*
p52
aVbtree_*
p53
aVvisitor*
p54
aVcan_rx_register
p55
aVip6_xmit
p56
aVmodule:net/dccp/dccp
p57
aVmodule:net/rds/rds
p58
aVdevfreq_*
p59
aVdevm_devfreq_*
p60
aVupdate_devfreq
p61
aVmodule:drivers/infiniband/**
p62
aVacpi_ec_add_query_handler
p63
aVacpi_ec_remove_query_handler
p64
aVfirst_ec
p65
aVdebugfs_create_automount
p66
aVmodule:drivers/iio/imu/inv_mpu6050/*
p67
aVdrm_crtc_accurate_vblank_count
p68
aVacpi_nfit_desc_init
p69
aVacpi_nfit_init
p70
aVloop_register_transfer
p71
aVxen_xlate_*
p72
aVnf_nat_masquerade_ipv4_register_notifier
p73
aVnf_nat_masquerade_ipv6_register_notifier
p74
aVdfltcc_*
p75
aVmodule:drivers/scsi/hisi_sas/*
p76
aV__gfn_*
p77
aV__kvmhv_*
p78
aV__kvm_*
p79
aV__xive_vm_h_*
p80
aVgfn_*
p81
aVh_ipi_redirect
p82
aVhalt_poll_ns*
p83
aVkvm_*
p84
aVkvmhv_*
p85
aVkvmppc_*
p86
aVmark_page_dirty
p87
aVvcpu_*
p88
aVmodule:arch/powerpc/kvm/*
p89
aVmodule:arch/s390/kvm/*
p90
aVmodule:arch/x86/kvm/*
p91
aVuv_info
p92
aVxhci_init_driver
p93
ass(Vbase
p94
tp95
(dp96
Varches
p97
(lp98
Valpha
p99
aVamd64
p100
aVarm64
p101
aVarm64ilp32
p102
aVarmel
p103
aVarmhf
p104
aVhppa
p105
aVi386
p106
aVia64
p107
aVm68k
p108
aVmips
p109
aVmips64
p110
aVmips64el
p111
aVmips64r6
p112
aVmips64r6el
p113
aVmipsel
p114
aVmipsn32
p115
aVmipsn32el
p116
aVmipsn32r6
p117
aVmipsn32r6el
p118
aVmipsr6
p119
aVmipsr6el
p120
aVpowerpc
p121
aVppc64
p122
aVppc64el
p123
aVriscv64
p124
aVs390
p125
aVs390x
p126
aVsh3
p127
aVsh4
p128
aVsparc
p129
aVsparc64
p130
aVx32
p131
asVcompiler
p132
Vgcc-10
p133
sVfeaturesets
p134
(lp135
Vnone
p136
aVrt
p137
ass(Vbuild
p138
tp139
(dp140
Vdebug-info
p141
I01
sVsigned-code
p142
I00
ss(Vbase
p143
NVrt
p144
tp145
(dp146
Venabled
p147
I01
ss(Vdescription
p148
tp149
(dp150
Vpart-long-up
p151
VThis kernel is not suitable for SMP (multi-processor,\u000amulti-core or hyper-threaded) systems.
p152
ss(Vimage
p153
tp154
(dp155
Vinitramfs-generators
p156
(lp157
Vinitramfs-tools
p158
aVinitramfs-fallback
p159
asVbreaks
p160
(lp161
Vwireless-regdb (<< 2019.06.03-1~)
p162
asVrecommends
p163
(lp164
Vapparmor
p165
ass(Vrelations
p166
tp167
(dp168
Vgcc-10
p169
Vgcc-10 <!stage1 !cross !pkg.linux.nokernel>, gcc-10-@gnu-type-package@ <!stage1 cross !pkg.linux.nokernel>
p170
sVinitramfs-fallback
p171
Vlinux-initramfs-tool
p172
sVinitramfs-tools
p173
Vinitramfs-tools (>= 0.120+deb8u2)
p174
ss(Vbase
p175
Valpha
p176
tp177
(dp178
Vdefault-flavour
p179
Valpha-smp
p180
sVkernel-arch
p181
Valpha
p182
sVfeaturesets
p183
(lp184
Vnone
p185
ass(Vbuild
p186
g176
tp187
(dp188
Vimage-file
p189
Varch/alpha/boot/vmlinux.gz
p190
ss(Vimage
p191
g176
tp192
(dp193
Vsuggests
p194
(lp195
Vaboot
p196
aVfdutils
p197
asVinstall-stem
p198
Vvmlinuz
p199
ss(Vdescription
p200
g176
NValpha-generic
p201
tp202
(dp203
Vhardware
p204
VAlpha
p205
sVhardware-long
p206
VDEC Alpha systems with extended kernel start address (Wildfire, Titan, Marvel)
p207
ss(Vdescription
p208
g176
NValpha-smp
p209
tp210
(dp211
Vhardware
p212
VAlpha SMP
p213
sVhardware-long
p214
VDEC Alpha SMP systems with extended kernel start address (Wildfire, Titan, Marvel)
p215
ss(Vbase
p216
g176
g185
tp217
(dp218
Vflavours
p219
(lp220
Valpha-generic
p221
aValpha-smp
p222
asVimplicit-flavour
p223
I01
ss(Vbase
p224
Vamd64
p225
tp226
(dp227
Vfeaturesets
p228
(lp229
Vnone
p230
aVrt
p231
asVkernel-arch
p232
Vx86
p233
ss(Vbuild
p234
g225
tp235
(dp236
Vimage-file
p237
Varch/x86/boot/bzImage
p238
sVsigned-code
p239
I01
sVvdso
p240
I01
ss(Vimage
p241
g225
tp242
(dp243
Vbootloaders
p244
(lp245
Vgrub-pc
p246
aVgrub-efi-amd64
p247
aVextlinux
p248
asVinstall-stem
p249
Vvmlinuz
p250
sVbreaks
p251
(lp252
Vxserver-xorg-input-vmmouse (<< 1:13.0.99)
p253
ass(Vrelations
p254
g225
tp255
(dp256
Vheaders%gcc-10
p257
Vlinux-compiler-gcc-10-x86
p258
ss(Vdescription
p259
g225
NVamd64
p260
tp261
(dp262
Vhardware
p263
V64-bit PCs
p264
sVhardware-long
p265
VPCs with AMD64, Intel 64 or VIA Nano processors
p266
ss(Vdescription
p267
g225
NVcloud-amd64
p268
tp269
(dp270
Vhardware
p271
Vx86-64 cloud
p272
sVhardware-long
p273
Vcloud platforms including Amazon EC2, Microsoft Azure, and Google Compute Engine
p274
ss(Vbase
p275
g225
Vnone
p276
tp277
(dp278
Vflavours
p279
(lp280
Vamd64
p281
aVcloud-amd64
p282
asVdefault-flavour
p283
Vamd64
p284
ss(Vimage
p285
g225
g276
Vcloud-amd64
p286
tp287
(dp288
Vconfigs
p289
(lp290
Vconfig.cloud
p291
aVamd64/config.cloud-amd64
p292
ass(Vbase
p293
g225
Vrt
p294
tp295
(dp296
Vflavours
p297
(lp298
Vamd64
p299
ass(Vbase
p300
Varm64
p301
tp302
(dp303
Vcross-compile-compat
p304
Varm-linux-gnueabihf-
p305
sVkernel-arch
p306
Varm64
p307
sVfeaturesets
p308
(lp309
Vnone
p310
aVrt
p311
ass(Vbuild
p312
g301
tp313
(dp314
Vimage-file
p315
Varch/arm64/boot/Image
p316
sVsigned-code
p317
I01
sVvdso
p318
I01
ss(Vimage
p319
g301
tp320
(dp321
Vinstall-stem
p322
Vvmlinuz
p323
sVbreaks
p324
(lp325
Vlibmozjs185-1.0
p326
aVlibmozjs-24-0 (<< 24.2.0-5.1~)
p327
ass(Vdescription
p328
g301
NVarm64
p329
tp330
(dp331
Vhardware
p332
V64-bit ARMv8 machines
p333
ss(Vdescription
p334
g301
NVcloud-arm64
p335
tp336
(dp337
Vhardware
p338
Varm64 cloud
p339
sVhardware-long
p340
Vcloud platforms supporting arm64 virtual machines
p341
ss(Vimage
p342
g301
NVarm64
p343
tp344
(dp345
s(Vrelations
p346
g301
tp347
(dp348
Vgcc-10
p349
Vgcc-10 <!stage1 !cross !pkg.linux.nokernel>, gcc-10-aarch64-linux-gnu <!stage1 cross !pkg.linux.nokernel>, gcc-arm-linux-gnueabihf <!stage1 !pkg.linux.nokernel>
p350
sVheaders%gcc-10
p351
Vgcc-10
p352
ss(Vbase
p353
g301
Vnone
p354
tp355
(dp356
Vflavours
p357
(lp358
Varm64
p359
aVcloud-arm64
p360
asVdefault-flavour
p361
Varm64
p362
ss(Vimage
p363
g301
g354
Vcloud-arm64
p364
tp365
(dp366
Vconfigs
p367
(lp368
Vconfig.cloud
p369
aVarm64/config.cloud-arm64
p370
ass(Vbase
p371
g301
Vrt
p372
tp373
(dp374
Vflavours
p375
(lp376
Varm64
p377
ass(Vbase
p378
Varm64ilp32
p379
tp380
(dp381
Vkernel-arch
p382
Varm64
p383
sVfeaturesets
p384
(lp385
ss(Vbase
p386
Varmel
p387
tp388
(dp389
Vkernel-arch
p390
Varm
p391
sg183
(lp392
g185
ass(Vbuild
p393
g387
tp394
(dp395
Vimage-file
p396
Varch/arm/boot/zImage
p397
sVuncompressed-image-file
p398
Varch/arm/boot/Image
p399
ss(Vimage
p400
g387
tp401
(dp402
Vinstall-stem
p403
Vvmlinuz
p404
ss(Vrelations
p405
g387
tp406
(dp407
Vheaders%gcc-10
p408
Vlinux-compiler-gcc-10-arm
p409
ss(Vdescription
p410
g387
NVmarvell
p411
tp412
(dp413
Vhardware
p414
VMarvell Kirkwood/Orion
p415
sVhardware-long
p416
VMarvell Kirkwood and Orion based systems (https://wiki.debian.org/ArmEabiPort#Supported_hardware)
p417
ss(Vdescription
p418
g387
NVrpi
p419
tp420
(dp421
Vhardware
p422
VRaspberry Pi and Pi Zero
p423
sVhardware-long
p424
VRaspberry Pi, Raspberry Pi Zero based systems
p425
ss(Vimage
p426
g387
NVmarvell
p427
tp428
(dp429
Vrecommends
p430
(lp431
Vu-boot-tools
p432
asVcheck-size
p433
I2729712
sVcheck-size-with-dtb
p434
I01
sVbreaks
p435
(lp436
Vflash-kernel (<< 3.57~)
p437
ass(g216
g387
g185
tp438
(dp439
g219
(lp440
Vmarvell
p441
aVrpi
p442
asg223
I01
ss(Vbase
p443
Varmhf
p444
tp445
(dp446
Vfeaturesets
p447
(lp448
sVkernel-arch
p449
Varm
p450
ss(Vbase
p451
Vhppa
p452
tp453
(dp454
Vdefault-flavour
p455
Vparisc
p456
sVkernel-arch
p457
Vparisc
p458
sg183
(lp459
g185
ass(Vbuild
p460
g452
tp461
(dp462
Vimage-file
p463
Varch/parisc/boot/bzImage
p464
sVdebug-info
p465
I00
ss(Vimage
p466
g452
tp467
(dp468
Vsuggests
p469
(lp470
Vpalo
p471
asVinstall-stem
p472
Vvmlinuz
p473
ss(Vdescription
p474
g452
NVparisc
p475
tp476
(dp477
Vhardware
p478
V32-bit PA-RISC
p479
sVhardware-long
p480
VHP PA-RISC 32-bit systems with max 4 GB RAM
p481
ss(Vbase
p482
g452
NVparisc64
p483
tp484
(dp485
Vcflags
p486
V-fno-cse-follow-jumps
p487
sVoverride-host-type
p488
Vhppa64-linux-gnu
p489
ss(Vdescription
p490
g452
NVparisc64
p491
tp492
(dp493
Vhardware
p494
V64-bit PA-RISC
p495
sVhardware-long
p496
VHP PA-RISC 64-bit systems with support for more than 4 GB RAM
p497
ss(Vrelations
p498
g452
tp499
(dp500
Vgcc-10
p501
Vgcc-10 <!stage1 !cross !pkg.linux.nokernel>, gcc-10-hppa-linux-gnu <!stage1 cross !pkg.linux.nokernel>, binutils-hppa64-linux-gnu <!stage1 !pkg.linux.nokernel>, gcc-10-hppa64-linux-gnu <!stage1 !pkg.linux.nokernel>
p502
ss(g216
g452
g185
tp503
(dp504
g219
(lp505
Vparisc
p506
aVparisc64
p507
asg223
I01
ss(Vbase
p508
Vi386
p509
tp510
(dp511
Vfeaturesets
p512
(lp513
Vnone
p514
aVrt
p515
asVkernel-arch
p516
Vx86
p517
ss(Vbuild
p518
g509
tp519
(dp520
Vimage-file
p521
Varch/x86/boot/bzImage
p522
sVsigned-code
p523
I01
sVvdso
p524
I01
ss(Vdescription
p525
g509
tp526
(dp527
Vpart-long-pae
p528
VThis kernel requires PAE (Physical Address Extension).\u000aThis feature is supported by the Intel Pentium Pro/II/III/4/4M/D, Xeon,\u000aCore and Atom; AMD Geode NX, Athlon (K7), Duron, Opteron, Sempron,\u000aTurion or Phenom; Transmeta Efficeon; VIA C7; and some other processors.
p529
ss(Vimage
p530
g509
tp531
(dp532
Vbootloaders
p533
(lp534
Vgrub-pc
p535
aVgrub-efi-ia32
p536
aVextlinux
p537
asVinstall-stem
p538
Vvmlinuz
p539
sVbreaks
p540
(lp541
Vxserver-xorg-input-vmmouse (<< 1:13.0.99)
p542
ass(Vrelations
p543
g509
tp544
(dp545
Vheaders%gcc-10
p546
Vlinux-compiler-gcc-10-x86
p547
ss(Vdescription
p548
g509
NV686
p549
tp550
(dp551
Vhardware
p552
Volder PCs
p553
sVhardware-long
p554
VPCs with one or more processors not supporting PAE
p555
ss(Vdescription
p556
g509
NV686-pae
p557
tp558
(dp559
Vhardware
p560
Vmodern PCs
p561
sVhardware-long
p562
VPCs with one or more processors supporting PAE
p563
sVparts
p564
(lp565
Vpae
p566
ass(Vbase
p567
g509
Vnone
p568
tp569
(dp570
Vflavours
p571
(lp572
V686
p573
aV686-pae
p574
asVdefault-flavour
p575
V686-pae
p576
ss(Vbase
p577
g509
Vrt
p578
tp579
(dp580
Vflavours
p581
(lp582
V686-pae
p583
ass(Vbase
p584
Via64
p585
tp586
(dp587
Vdefault-flavour
p588
Vitanium
p589
sVkernel-arch
p590
Via64
p591
sg183
(lp592
g185
ass(Vbuild
p593
g585
tp594
(dp595
Vimage-file
p596
Vvmlinux.gz
p597
ss(Vimage
p598
g585
tp599
(dp600
Vbootloaders
p601
(lp602
Vgrub-efi-ia64
p603
asVinstall-stem
p604
Vvmlinuz
p605
ss(Vdescription
p606
g585
NVitanium
p607
tp608
(dp609
Vhardware
p610
VItanium (Merced)
p611
sVhardware-long
p612
Vsystems with original Itanium (Merced) processors
p613
ss(Vdescription
p614
g585
NVmckinley
p615
tp616
(dp617
Vhardware
p618
VItanium 2+
p619
sVhardware-long
p620
Vsystems with Itanium 2 or 9300/9500/9700-series processors
p621
ss(g216
g585
g185
tp622
(dp623
g219
(lp624
Vitanium
p625
aVmckinley
p626
asg223
I01
ss(Vbase
p627
Vm68k
p628
tp629
(dp630
Vcflags
p631
V-ffreestanding
p632
sVdefault-flavour
p633
Vm68k
p634
sVkernel-arch
p635
Vm68k
p636
sg183
(lp637
g185
ass(Vbuild
p638
g628
tp639
(dp640
Vimage-file
p641
Vvmlinux
p642
ss(Vimage
p643
g628
tp644
(dp645
Vsuggests
p646
(lp647
Vvmelilo
p648
aVfdutils
p649
asVinstall-stem
p650
Vvmlinux
p651
ss(Vdescription
p652
g628
NVm68k
p653
tp654
(dp655
Vhardware
p656
VMotorola MC68020+ family
p657
ss(g216
g628
g185
tp658
(dp659
g219
(lp660
Vm68k
p661
asg223
I01
ss(Vbase
p662
Vmips
p663
tp664
(dp665
Vkernel-arch
p666
Vmips
p667
sg183
(lp668
g185
ass(Vbuild
p669
g663
tp670
(dp671
Vimage-file
p672
Vvmlinuz
p673
ss(Vimage
p674
g663
tp675
(dp676
Vinstall-stem
p677
Vvmlinuz
p678
ss(Vdescription
p679
g663
NV4kc-malta
p680
tp681
(dp682
Vhardware
p683
VMIPS Malta
p684
sVhardware-long
p685
VMIPS Malta boards
p686
ss(Vimage
p687
g663
NV4kc-malta
p688
tp689
(dp690
Vconfigs
p691
(lp692
Vkernelarch-mips/config.malta
p693
aVkernelarch-mips/config.mips32r2
p694
ass(Vdescription
p695
g663
NV5kc-malta
p696
tp697
(dp698
Vhardware
p699
VMIPS Malta (64-bit)
p700
sVhardware-long
p701
VMIPS Malta boards (64-bit)
p702
ss(Vimage
p703
g663
NV5kc-malta
p704
tp705
(dp706
Vconfigs
p707
(lp708
Vkernelarch-mips/config.malta
p709
aVkernelarch-mips/config.mips64r2
p710
ass(Vdescription
p711
g663
NVocteon
p712
tp713
(dp714
Vhardware
p715
VOcteon
p716
sVhardware-long
p717
VCavium Networks Octeon
p718
ss(Vbuild
p719
g663
NVocteon
p720
tp721
(dp722
Vimage-file
p723
Vvmlinux
p724
ss(Vimage
p725
g663
NVocteon
p726
tp727
(dp728
Vinstall-stem
p729
Vvmlinux
p730
sVconfigs
p731
(lp732
Vkernelarch-mips/config.octeon
p733
ass(g216
g663
g185
tp734
(dp735
g219
(lp736
V4kc-malta
p737
aV5kc-malta
p738
aVocteon
p739
asg223
I01
ss(Vbase
p740
Vmips64
p741
tp742
(dp743
Vkernel-arch
p744
Vmips
p745
sg183
(lp746
g185
ass(Vbuild
p747
g741
tp748
(dp749
Vimage-file
p750
Vvmlinuz
p751
ss(Vimage
p752
g741
tp753
(dp754
Vinstall-stem
p755
Vvmlinuz
p756
ss(Vdescription
p757
g741
NV5kc-malta
p758
tp759
(dp760
Vhardware
p761
VMIPS Malta
p762
sVhardware-long
p763
VMIPS Malta boards
p764
ss(Vimage
p765
g741
NV5kc-malta
p766
tp767
(dp768
Vconfigs
p769
(lp770
Vkernelarch-mips/config.malta
p771
aVkernelarch-mips/config.mips64r2
p772
ass(Vdescription
p773
g741
NVocteon
p774
tp775
(dp776
Vhardware
p777
VOcteon
p778
sVhardware-long
p779
VCavium Networks Octeon
p780
ss(Vbuild
p781
g741
NVocteon
p782
tp783
(dp784
Vimage-file
p785
Vvmlinux
p786
ss(Vimage
p787
g741
NVocteon
p788
tp789
(dp790
Vinstall-stem
p791
Vvmlinux
p792
sVconfigs
p793
(lp794
Vkernelarch-mips/config.octeon
p795
ass(g216
g741
g185
tp796
(dp797
g219
(lp798
V5kc-malta
p799
aVocteon
p800
asg223
I01
ss(Vbase
p801
Vmips64el
p802
tp803
(dp804
Vkernel-arch
p805
Vmips
p806
sg183
(lp807
g185
ass(Vbuild
p808
g802
tp809
(dp810
Vimage-file
p811
Vvmlinuz
p812
ss(Vimage
p813
g802
tp814
(dp815
Vinstall-stem
p816
Vvmlinuz
p817
ss(Vdescription
p818
g802
NV5kc-malta
p819
tp820
(dp821
Vhardware
p822
VMIPS Malta
p823
sVhardware-long
p824
VMIPS Malta boards
p825
ss(Vimage
p826
g802
NV5kc-malta
p827
tp828
(dp829
Vconfigs
p830
(lp831
Vkernelarch-mips/config.malta
p832
aVkernelarch-mips/config.mips64r2
p833
ass(Vdescription
p834
g802
NVloongson-3
p835
tp836
(dp837
Vhardware
p838
VLoongson 3A/3B
p839
sVhardware-long
p840
VLoongson 3A or 3B based systems (e.g. from Loongson or Lemote)
p841
ss(Vimage
p842
g802
NVloongson-3
p843
tp844
(dp845
Vconfigs
p846
(lp847
Vkernelarch-mips/config.loongson-3
p848
ass(Vdescription
p849
g802
NVocteon
p850
tp851
(dp852
Vhardware
p853
VOcteon
p854
sVhardware-long
p855
VCavium Networks Octeon
p856
ss(Vbuild
p857
g802
NVocteon
p858
tp859
(dp860
Vimage-file
p861
Vvmlinux
p862
ss(Vimage
p863
g802
NVocteon
p864
tp865
(dp866
Vinstall-stem
p867
Vvmlinux
p868
sVconfigs
p869
(lp870
Vkernelarch-mips/config.octeon
p871
ass(g216
g802
g185
tp872
(dp873
g219
(lp874
V5kc-malta
p875
aVloongson-3
p876
aVocteon
p877
asg223
I01
ss(Vbase
p878
Vmips64r6
p879
tp880
(dp881
Vdefault-flavour
p882
Vmips64r6
p883
sVkernel-arch
p884
Vmips
p885
sg183
(lp886
g185
ass(Vbuild
p887
g879
tp888
(dp889
Vimage-file
p890
Vvmlinux
p891
ss(Vimage
p892
g879
tp893
(dp894
Vinstall-stem
p895
Vvmlinux
p896
ss(Vdescription
p897
g879
NVmips64r6
p898
tp899
(dp900
Vhardware
p901
VMIPS R6 (64 bit, big endian)
p902
sVhardware-long
p903
VMIPS R6 (64 bit, big endian)
p904
ss(Vimage
p905
g879
NVmips64r6
p906
tp907
(dp908
Vconfigs
p909
(lp910
Vkernelarch-mips/config.boston
p911
aVkernelarch-mips/config.mips64r6
p912
ass(g216
g879
g185
tp913
(dp914
g219
(lp915
Vmips64r6
p916
asg223
I01
ss(Vbase
p917
Vmips64r6el
p918
tp919
(dp920
Vdefault-flavour
p921
Vmips64r6el
p922
sVkernel-arch
p923
Vmips
p924
sg183
(lp925
g185
ass(Vbuild
p926
g918
tp927
(dp928
Vimage-file
p929
Vvmlinux
p930
ss(Vimage
p931
g918
tp932
(dp933
Vinstall-stem
p934
Vvmlinux
p935
ss(Vdescription
p936
g918
NVmips64r6el
p937
tp938
(dp939
Vhardware
p940
VMIPS R6 (64 bit, little endian)
p941
sVhardware-long
p942
VMIPS R6 (64 bit, little endian)
p943
ss(Vimage
p944
g918
NVmips64r6el
p945
tp946
(dp947
Vconfigs
p948
(lp949
Vkernelarch-mips/config.boston
p950
aVkernelarch-mips/config.mips64r6
p951
ass(g216
g918
g185
tp952
(dp953
g219
(lp954
Vmips64r6el
p955
asg223
I01
ss(Vbase
p956
Vmipsel
p957
tp958
(dp959
Vkernel-arch
p960
Vmips
p961
sg183
(lp962
g185
ass(Vbuild
p963
g957
tp964
(dp965
Vimage-file
p966
Vvmlinuz
p967
ss(Vimage
p968
g957
tp969
(dp970
Vinstall-stem
p971
Vvmlinuz
p972
ss(Vdescription
p973
g957
NV4kc-malta
p974
tp975
(dp976
Vhardware
p977
VMIPS Malta
p978
sVhardware-long
p979
VMIPS Malta boards
p980
ss(Vimage
p981
g957
NV4kc-malta
p982
tp983
(dp984
Vconfigs
p985
(lp986
Vkernelarch-mips/config.malta
p987
aVkernelarch-mips/config.mips32r2
p988
ass(Vdescription
p989
g957
NV5kc-malta
p990
tp991
(dp992
Vhardware
p993
VMIPS Malta (64-bit)
p994
sVhardware-long
p995
VMIPS Malta boards (64-bit)
p996
ss(Vimage
p997
g957
NV5kc-malta
p998
tp999
(dp1000
Vconfigs
p1001
(lp1002
Vkernelarch-mips/config.malta
p1003
aVkernelarch-mips/config.mips64r2
p1004
ass(Vdescription
p1005
g957
NVloongson-3
p1006
tp1007
(dp1008
Vhardware
p1009
VLoongson 3A/3B
p1010
sVhardware-long
p1011
VLoongson 3A or 3B based systems (e.g. from Loongson or Lemote)
p1012
ss(Vimage
p1013
g957
NVloongson-3
p1014
tp1015
(dp1016
Vconfigs
p1017
(lp1018
Vkernelarch-mips/config.loongson-3
p1019
ass(Vdescription
p1020
g957
NVocteon
p1021
tp1022
(dp1023
Vhardware
p1024
VOcteon
p1025
sVhardware-long
p1026
VCavium Networks Octeon
p1027
ss(Vbuild
p1028
g957
NVocteon
p1029
tp1030
(dp1031
Vimage-file
p1032
Vvmlinux
p1033
ss(Vimage
p1034
g957
NVocteon
p1035
tp1036
(dp1037
Vinstall-stem
p1038
Vvmlinux
p1039
sVconfigs
p1040
(lp1041
Vkernelarch-mips/config.octeon
p1042
ass(g216
g957
g185
tp1043
(dp1044
g219
(lp1045
V4kc-malta
p1046
aV5kc-malta
p1047
aVloongson-3
p1048
aVocteon
p1049
asg223
I01
ss(Vbase
p1050
Vmipsn32
p1051
tp1052
(dp1053
Vkernel-arch
p1054
Vmips
p1055
sVfeaturesets
p1056
(lp1057
ss(Vbase
p1058
Vmipsn32el
p1059
tp1060
(dp1061
Vkernel-arch
p1062
Vmips
p1063
sVfeaturesets
p1064
(lp1065
ss(Vbase
p1066
Vmipsn32r6
p1067
tp1068
(dp1069
Vkernel-arch
p1070
Vmips
p1071
sVfeaturesets
p1072
(lp1073
ss(Vbase
p1074
Vmipsn32r6el
p1075
tp1076
(dp1077
Vkernel-arch
p1078
Vmips
p1079
sVfeaturesets
p1080
(lp1081
ss(Vbase
p1082
Vmipsr6
p1083
tp1084
(dp1085
Vdefault-flavour
p1086
Vmips32r6
p1087
sVkernel-arch
p1088
Vmips
p1089
sg183
(lp1090
g185
ass(Vbuild
p1091
g1083
tp1092
(dp1093
Vimage-file
p1094
Vvmlinux
p1095
ss(Vimage
p1096
g1083
tp1097
(dp1098
Vinstall-stem
p1099
Vvmlinux
p1100
ss(Vdescription
p1101
g1083
NVmips32r6
p1102
tp1103
(dp1104
Vhardware
p1105
VMIPS R6 (32 bit, big endian)
p1106
sVhardware-long
p1107
VMIPS R6 (32 bit, big endian)
p1108
ss(Vimage
p1109
g1083
NVmips32r6
p1110
tp1111
(dp1112
Vconfigs
p1113
(lp1114
Vkernelarch-mips/config.boston
p1115
aVkernelarch-mips/config.mips32r6
p1116
ass(Vdescription
p1117
g1083
NVmips64r6
p1118
tp1119
(dp1120
Vhardware
p1121
VMIPS R6 (64 bit, big endian)
p1122
sVhardware-long
p1123
VMIPS R6 (64 bit, big endian)
p1124
ss(Vimage
p1125
g1083
NVmips64r6
p1126
tp1127
(dp1128
Vconfigs
p1129
(lp1130
Vkernelarch-mips/config.boston
p1131
aVkernelarch-mips/config.mips64r6
p1132
ass(g216
g1083
g185
tp1133
(dp1134
g219
(lp1135
Vmips32r6
p1136
aVmips64r6
p1137
asg223
I01
ss(Vbase
p1138
Vmipsr6el
p1139
tp1140
(dp1141
Vdefault-flavour
p1142
Vmips32r6el
p1143
sVkernel-arch
p1144
Vmips
p1145
sg183
(lp1146
g185
ass(Vbuild
p1147
g1139
tp1148
(dp1149
Vimage-file
p1150
Vvmlinux
p1151
ss(Vimage
p1152
g1139
tp1153
(dp1154
Vinstall-stem
p1155
Vvmlinux
p1156
ss(Vdescription
p1157
g1139
NVmips32r6el
p1158
tp1159
(dp1160
Vhardware
p1161
VMIPS R6 (32 bit, little endian)
p1162
sVhardware-long
p1163
VMIPS R6 (32 bit, little endian)
p1164
ss(Vimage
p1165
g1139
NVmips32r6el
p1166
tp1167
(dp1168
Vconfigs
p1169
(lp1170
Vkernelarch-mips/config.boston
p1171
aVkernelarch-mips/config.mips32r6
p1172
ass(Vdescription
p1173
g1139
NVmips64r6el
p1174
tp1175
(dp1176
Vhardware
p1177
VMIPS R6 (64 bit, little endian)
p1178
sVhardware-long
p1179
VMIPS R6 (64 bit, little endian)
p1180
ss(Vimage
p1181
g1139
NVmips64r6el
p1182
tp1183
(dp1184
Vconfigs
p1185
(lp1186
Vkernelarch-mips/config.boston
p1187
aVkernelarch-mips/config.mips64r6
p1188
ass(g216
g1139
g185
tp1189
(dp1190
g219
(lp1191
Vmips32r6el
p1192
aVmips64r6el
p1193
asg223
I01
ss(Vbase
p1194
Vpowerpc
p1195
tp1196
(dp1197
Vkernel-arch
p1198
Vpowerpc
p1199
sg183
(lp1200
g185
ass(Vbuild
p1201
g1195
tp1202
(dp1203
Vimage-file
p1204
Vvmlinux
p1205
sVvdso
p1206
I01
ss(Vimage
p1207
g1195
tp1208
(dp1209
Vconfigs
p1210
(lp1211
sVbootloaders
p1212
(lp1213
Vgrub-ieee1275
p1214
asVsuggests
p1215
(lp1216
Vmkvmlinuz
p1217
asVinstall-stem
p1218
Vvmlinux
p1219
ss(Vdescription
p1220
g1195
NVpowerpc
p1221
tp1222
(dp1223
Vhardware
p1224
Vuniprocessor 32-bit PowerPC
p1225
ss(Vdescription
p1226
g1195
NVpowerpc-smp
p1227
tp1228
(dp1229
Vhardware
p1230
Vmultiprocessor 32-bit PowerPC
p1231
ss(Vimage
p1232
g1195
NVpowerpc-smp
p1233
tp1234
(dp1235
Vconfigs
p1236
(lp1237
Vpowerpc/config.powerpc
p1238
aVpowerpc/config.powerpc-smp
p1239
ass(Vdescription
p1240
g1195
NVpowerpc64
p1241
tp1242
(dp1243
Vhardware
p1244
V64-bit PowerPC
p1245
ss(Vimage
p1246
g1195
NVpowerpc64
p1247
tp1248
(dp1249
Vconfigs
p1250
(lp1251
Vkernelarch-powerpc/config-arch-64
p1252
aVkernelarch-powerpc/config-arch-64-be
p1253
ass(g216
g1195
g185
tp1254
(dp1255
g219
(lp1256
Vpowerpc
p1257
aVpowerpc-smp
p1258
aVpowerpc64
p1259
asg223
I01
ss(Vbase
p1260
Vppc64
p1261
tp1262
(dp1263
Vdefault-flavour
p1264
Vpowerpc64
p1265
sVkernel-arch
p1266
Vpowerpc
p1267
sg183
(lp1268
g185
ass(Vbuild
p1269
g1261
tp1270
(dp1271
Vimage-file
p1272
Vvmlinux
p1273
sVvdso
p1274
I01
ss(Vimage
p1275
g1261
tp1276
(dp1277
Vconfigs
p1278
(lp1279
sVbootloaders
p1280
(lp1281
Vgrub-ieee1275
p1282
asVsuggests
p1283
(lp1284
Vmkvmlinuz
p1285
asVinstall-stem
p1286
Vvmlinux
p1287
ss(Vdescription
p1288
g1261
NVpowerpc64
p1289
tp1290
(dp1291
Vhardware
p1292
V64-bit PowerPC
p1293
ss(Vimage
p1294
g1261
NVpowerpc64
p1295
tp1296
(dp1297
Vconfigs
p1298
(lp1299
Vkernelarch-powerpc/config-arch-64
p1300
aVkernelarch-powerpc/config-arch-64-be
p1301
ass(g216
g1261
g185
tp1302
(dp1303
g219
(lp1304
Vpowerpc64
p1305
asg223
I01
ss(Vbase
p1306
Vppc64el
p1307
tp1308
(dp1309
Vdefault-flavour
p1310
Vpowerpc64le
p1311
sVkernel-arch
p1312
Vpowerpc
p1313
sg183
(lp1314
g185
ass(Vbuild
p1315
g1307
tp1316
(dp1317
Vimage-file
p1318
Vvmlinux
p1319
sVvdso
p1320
I01
ss(Vimage
p1321
g1307
tp1322
(dp1323
Vconfigs
p1324
(lp1325
sVbootloaders
p1326
(lp1327
Vgrub-ieee1275
p1328
asVsuggests
p1329
(lp1330
Vmkvmlinuz
p1331
asVinstall-stem
p1332
Vvmlinux
p1333
ss(Vdescription
p1334
g1307
NVpowerpc64le
p1335
tp1336
(dp1337
Vhardware
p1338
VLittle-endian 64-bit PowerPC
p1339
ss(Vimage
p1340
g1307
NVpowerpc64le
p1341
tp1342
(dp1343
Vconfigs
p1344
(lp1345
Vkernelarch-powerpc/config-arch-64
p1346
aVkernelarch-powerpc/config-arch-64-le
p1347
ass(g216
g1307
g185
tp1348
(dp1349
g219
(lp1350
Vpowerpc64le
p1351
asg223
I01
ss(Vbase
p1352
Vriscv64
p1353
tp1354
(dp1355
Vkernel-arch
p1356
Vriscv
p1357
sVfeaturesets
p1358
(lp1359
Vnone
p1360
ass(Vbuild
p1361
g1353
tp1362
(dp1363
Vimage-file
p1364
Varch/riscv/boot/Image
p1365
sVvdso
p1366
I01
ss(Vimage
p1367
g1353
tp1368
(dp1369
Vinstall-stem
p1370
Vvmlinux
p1371
ss(Vdescription
p1372
g1353
NVriscv64
p1373
tp1374
(dp1375
Vhardware
p1376
V64-bit RISC-V platforms
p1377
sVhardware-long
p1378
V64-bit RISC-V platforms
p1379
ss(Vbase
p1380
g1353
Vnone
p1381
tp1382
(dp1383
Vflavours
p1384
(lp1385
Vriscv64
p1386
asVdefault-flavour
p1387
Vriscv64
p1388
ss(Vbase
p1389
Vs390
p1390
tp1391
(dp1392
Vkernel-arch
p1393
Vs390
p1394
sVfeaturesets
p1395
(lp1396
ss(Vbase
p1397
Vs390x
p1398
tp1399
(dp1400
Vdefault-flavour
p1401
Vs390x
p1402
sVkernel-arch
p1403
Vs390
p1404
sg183
(lp1405
g185
ass(Vbuild
p1406
g1398
tp1407
(dp1408
Vimage-file
p1409
Varch/s390/boot/bzImage
p1410
sVvdso
p1411
I01
ss(Vimage
p1412
g1398
tp1413
(dp1414
Vbootloaders
p1415
(lp1416
Vs390-tools
p1417
asVinstall-stem
p1418
Vvmlinuz
p1419
ss(Vrelations
p1420
g1398
tp1421
(dp1422
Vheaders%gcc-10
p1423
Vlinux-compiler-gcc-10-s390
p1424
ss(Vdescription
p1425
g1398
NVs390x
p1426
tp1427
(dp1428
Vhardware
p1429
VIBM zSeries
p1430
ss(g216
g1398
g185
tp1431
(dp1432
g219
(lp1433
Vs390x
p1434
asg223
I01
ss(Vbase
p1435
Vsh3
p1436
tp1437
(dp1438
Vkernel-arch
p1439
Vsh
p1440
sVfeaturesets
p1441
(lp1442
ss(Vbase
p1443
Vsh4
p1444
tp1445
(dp1446
Vkernel-arch
p1447
Vsh
p1448
sg183
(lp1449
g185
ass(Vbuild
p1450
g1444
tp1451
(dp1452
Vimage-file
p1453
Varch/sh/boot/zImage
p1454
ss(Vimage
p1455
g1444
tp1456
(dp1457
Vinstall-stem
p1458
Vvmlinuz
p1459
ss(Vdescription
p1460
g1444
NVsh7751r
p1461
tp1462
(dp1463
Vhardware
p1464
Vsh7751r
p1465
sVhardware-long
p1466
VRenesas SH7751R R2D plus board
p1467
ss(Vdescription
p1468
g1444
NVsh7785lcr
p1469
tp1470
(dp1471
Vhardware
p1472
Vsh7785lcr
p1473
sVhardware-long
p1474
VRenesas SH7785 reference board
p1475
ss(Vimage
p1476
g1444
NVsh7785lcr
p1477
tp1478
(dp1479
Vrecommends
p1480
(lp1481
Vu-boot-tools
p1482
asVcheck-size
p1483
I4194304
ss(g216
g1444
g185
tp1484
(dp1485
g219
(lp1486
Vsh7751r
p1487
aVsh7785lcr
p1488
asg223
I01
ss(Vbase
p1489
Vsparc
p1490
tp1491
(dp1492
Vkernel-arch
p1493
Vsparc
p1494
sVfeaturesets
p1495
(lp1496
ss(Vbase
p1497
Vsparc64
p1498
tp1499
(dp1500
Vdefault-flavour
p1501
Vsparc64-smp
p1502
sVkernel-arch
p1503
Vsparc
p1504
sg183
(lp1505
g185
ass(Vbuild
p1506
g1498
tp1507
(dp1508
Vimage-file
p1509
Vvmlinux
p1510
ss(Vimage
p1511
g1498
tp1512
(dp1513
Vconfigs
p1514
(lp1515
sVbootloaders
p1516
(lp1517
Vgrub-ieee1275
p1518
asVsuggests
p1519
(lp1520
Vfdutils
p1521
asVinstall-stem
p1522
Vvmlinux
p1523
ss(Vdescription
p1524
g1498
NVsparc64
p1525
tp1526
(dp1527
Vhardware
p1528
Vuniprocessor 64-bit UltraSPARC
p1529
ss(Vimage
p1530
g1498
NVsparc64
p1531
tp1532
(dp1533
Vconfigs
p1534
(lp1535
Vkernelarch-sparc/config-up
p1536
ass(Vdescription
p1537
g1498
NVsparc64-smp
p1538
tp1539
(dp1540
Vhardware
p1541
Vmultiprocessor 64-bit UltraSPARC
p1542
ss(Vimage
p1543
g1498
NVsparc64-smp
p1544
tp1545
(dp1546
Vconfigs
p1547
(lp1548
Vkernelarch-sparc/config-smp
p1549
ass(g216
g1498
g185
tp1550
(dp1551
g219
(lp1552
Vsparc64
p1553
aVsparc64-smp
p1554
asg223
I01
ss(Vbase
p1555
Vx32
p1556
tp1557
(dp1558
Vkernel-arch
p1559
Vx86
p1560
sVfeaturesets
p1561
(lp1562
ss(Vabi
p1563
NVrt
p1564
tp1565
(dp1566
Vignore-changes
p1567
(lp1568
V*
p1569
ass(Vdescription
p1570
Ng1564
tp1571
(dp1572
Vpart-long-rt
p1573
VThis kernel includes the PREEMPT_RT realtime patch set.
p1574
sVpart-short-rt
p1575
VPREEMPT_RT
p1576
sVparts
p1577
(lp1578
Vrt
p1579
ass(Vversion
p1580
tp1581
(dp1582
Vsource
p1583
V5.10.19-1+rpi1
p1584
sVupstream
p1585
V5.10
p1586
sVabiname_base
p1587
V5.10.0
p1588
sVabiname
p1589
V5.10.0-4
p1590
ss.