ccopy_reg
_reconstructor
p0
(cdebian_linux.config
ConfigCore
p1
c__builtin__
dict
p2
(dp3
(S'image'
p4
S'amd64'
p5
tp6
(dp7
S'install-stem'
p8
S'vmlinuz'
p9
sS'configs'
p10
(lp11
sS'bootloaders'
p12
(lp13
S'grub-pc'
p14
aS'grub-efi'
p15
aS'extlinux'
p16
ass(S'base'
p17
S'hppa'
p18
NS'parisc64-smp'
p19
tp20
(dp21
S'override-host-type'
p22
S'hppa64-linux-gnu'
p23
sS'cflags'
p24
S'-fno-cse-follow-jumps'
p25
ss(S'base'
p26
g5
S'none'
p27
tp28
(dp29
S'flavours'
p30
(lp31
S'amd64'
p32
ass(S'description'
p33
S'armel'
p34
NS'kirkwood'
p35
tp36
(dp37
S'hardware'
p38
S'Marvell Kirkwood'
p39
sS'hardware-long'
p40
S'Marvell Kirkwood based systems (SheevaPlug, QNAP TS-119/TS-219, etc)'
p41
ss(S'image'
p42
S'mips64el'
p43
NS'5kc-malta'
p44
tp45
(dp46
S'configs'
p47
(lp48
S'kernelarch-mips/config.5kc-malta'
p49
ass(S'description'
p50
S'mips'
p51
NS'5kc-malta'
p52
tp53
(dp54
S'hardware'
p55
S'MIPS Malta (64-bit)'
p56
sS'hardware-long'
p57
S'MIPS Malta boards (64-bit)'
p58
ss(S'image'
p59
S'ia64'
p60
tp61
(dp62
S'suggests'
p63
S'fdutils'
p64
sS'bootloaders'
p65
(lp66
S'elilo'
p67
asS'install-stem'
p68
S'vmlinuz'
p69
ss(S'image'
p70
S'armhf'
p71
NS'armmp-lpae'
p72
tp73
(dp74
S'configs'
p75
(lp76
S'armhf/config.armmp'
p77
aS'armhf/config.lpae'
p78
ass(S'base'
p79
NS'rt'
p80
tp81
(dp82
S'enabled'
p83
I00
ss(S'image'
p84
S'sparc64'
p85
NS'sparc64'
p86
tp87
(dp88
S'configs'
p89
(lp90
S'kernelarch-sparc/config-up'
p91
ass(S'description'
p92
g5
g27
S'amd64'
p93
tp94
(dp95
S'parts'
p96
(lp97
S'xen'
p98
ass(S'image'
p99
g34
NS'orion5x'
p100
tp101
(dp102
S'check-size'
p103
S'1572792'
p104
sS'configs'
p105
(lp106
S'armel/config-reduced'
p107
aS'armel/config.orion5x'
p108
asS'recommends'
p109
S'u-boot-tools'
p110
ss(S'image'
p111
S'arm64'
p112
NS'arm64'
p113
tp114
(dp115
s(S'description'
p116
S'm68k'
p117
NS'm68k'
p118
tp119
(dp120
S'hardware'
p121
S'Motorola MC68020+ family'
p122
ss(S'base'
p123
S'ppc64'
p124
S'none'
p125
tp126
(dp127
S'implicit-flavour'
p128
I01
sS'flavours'
p129
(lp130
S'powerpc64'
p131
ass(S'description'
p132
S'mips64'
p133
NS'5kc-malta'
p134
tp135
(dp136
S'hardware'
p137
S'MIPS Malta'
p138
sS'hardware-long'
p139
S'MIPS Malta boards'
p140
ss(S'image'
p141
g133
NS'5kc-malta'
p142
tp143
(dp144
S'configs'
p145
(lp146
S'kernelarch-mips/config.5kc-malta'
p147
ass(S'description'
p148
S's390x'
p149
NS's390x'
p150
tp151
(dp152
S'hardware'
p153
S'IBM zSeries'
p154
ss(S'description'
p155
g34
NS'versatile'
p156
tp157
(dp158
S'hardware'
p159
S'Versatile'
p160
sS'hardware-long'
p161
S'Versatile systems (PB, AB, Qemu)'
p162
ss(g123
g71
g125
tp163
(dp164
g128
I01
sg129
(lp165
S'armmp'
p166
aS'armmp-lpae'
p167
ass(S'image'
p168
S'mipsel'
p169
NS'sb1-bcm91250a'
p170
tp171
(dp172
S'configs'
p173
(lp174
S'kernelarch-mips/config.sb1-bcm91250a'
p175
ass(S'build'
p176
g5
tp177
(dp178
S'debug-info'
p179
I01
sS'image-file'
p180
S'arch/x86/boot/bzImage'
p181
ss(S'base'
p182
S'i386'
p183
S'rt'
p184
tp185
(dp186
S'flavours'
p187
(lp188
S'686-pae'
p189
ass(S'image'
p190
g51
NS'octeon'
p191
tp192
(dp193
S'configs'
p194
(lp195
S'kernelarch-mips/config.octeon'
p196
ass(g123
g133
g125
tp197
(dp198
g128
I01
sg129
(lp199
S'sb1-bcm91250a'
p200
aS'5kc-malta'
p201
aS'octeon'
p202
ass(g123
g117
g125
tp203
(dp204
g128
I01
sg129
(lp205
S'm68k'
p206
ass(S'image'
p207
S'ppc64el'
p208
tp209
(dp210
S'suggests'
p211
S'mkvmlinuz'
p212
sS'configs'
p213
(lp214
sS'install-stem'
p215
S'vmlinux'
p216
ss(S'description'
p217
g43
NS'5kc-malta'
p218
tp219
(dp220
S'hardware'
p221
S'MIPS Malta'
p222
sS'hardware-long'
p223
S'MIPS Malta boards'
p224
ss(S'description'
p225
g124
NS'powerpc64'
p226
tp227
(dp228
S'hardware'
p229
S'64-bit PowerPC'
p230
ss(S'relations'
p231
g183
tp232
(dp233
S'headers%gcc-4.8'
p234
S'linux-compiler-gcc-4.8-x86'
p235
ss(S'image'
p236
S'powerpc'
p237
tp238
(dp239
S'suggests'
p240
S'mkvmlinuz'
p241
sS'configs'
p242
(lp243
sS'install-stem'
p244
S'vmlinux'
p245
ss(S'description'
p246
g183
NS'586'
p247
tp248
(dp249
S'hardware'
p250
S'older PCs'
p251
sS'parts'
p252
(lp253
S'up'
p254
asS'hardware-long'
p255
S'PCs with a single processor not supporting PAE'
p256
ss(S'description'
p257
g169
NS'4kc-malta'
p258
tp259
(dp260
S'hardware'
p261
S'MIPS Malta'
p262
sS'hardware-long'
p263
S'MIPS Malta boards'
p264
ss(S'base'
p265
g5
S'rt'
p266
tp267
(dp268
S'flavours'
p269
(lp270
S'amd64'
p271
ass(S'image'
p272
S'sh4'
p273
NS'sh7785lcr'
p274
tp275
(dp276
S'check-size'
p277
S'4194304'
p278
sS'recommends'
p279
S'u-boot-tools'
p280
ss(S'build'
p281
g208
tp282
(dp283
S'image-file'
p284
S'vmlinux'
p285
ss(S'build'
p286
g124
tp287
(dp288
S'image-file'
p289
S'vmlinux'
p290
ss(S'description'
p291
g34
NS'ixp4xx'
p292
tp293
(dp294
S'hardware'
p295
S'IXP4xx'
p296
sS'hardware-long'
p297
S'IXP4xx based systems (Linksys NSLU2, etc)'
p298
ss(S'description'
p299
g183
S'none'
p300
S'amd64'
p301
tp302
(dp303
S'parts'
p304
(lp305
S'xen'
p306
ass(S'base'
p307
g112
tp308
(dp309
S'kernel-arch'
p310
S'arm64'
p311
sS'featuresets'
p312
(lp313
S'none'
p314
ass(S'description'
p315
g43
NS'sb1-bcm91250a'
p316
tp317
(dp318
S'hardware'
p319
S'BCM91250A'
p320
sS'hardware-long'
p321
S'Broadcom BCM91250A systems (aka SWARM)'
p322
ss(S'base'
p323
g183
tp324
(dp325
S'kernel-arch'
p326
S'x86'
p327
sS'featuresets'
p328
(lp329
S'none'
p330
aS'rt'
p331
ass(S'base'
p332
g169
tp333
(dp334
S'kernel-arch'
p335
S'mips'
p336
sS'featuresets'
p337
(lp338
g125
ass(S'description'
p339
g112
NS'arm64'
p340
tp341
(dp342
S'hardware'
p343
S'64-bit ARMv8 machines'
p344
ss(S'relations'
p345
g5
tp346
(dp347
S'headers%gcc-4.8'
p348
S'linux-compiler-gcc-4.8-x86'
p349
ss(S'description'
p350
S'sparc'
p351
NS'sparc64'
p352
tp353
(dp354
S'hardware'
p355
S'uniprocessor 64-bit UltraSPARC'
p356
ss(S'base'
p357
g18
tp358
(dp359
S'kernel-arch'
p360
S'parisc'
p361
sg337
(lp362
g125
ass(S'build'
p363
g183
tp364
(dp365
S'image-file'
p366
S'arch/x86/boot/bzImage'
p367
ss(S'image'
p368
g183
NS'686-pae'
p369
tp370
(dp371
S'configs'
p372
(lp373
S'kernelarch-x86/config-arch-32'
p374
aS'i386/config.686-pae'
p375
asS'recommends'
p376
S'libc6-i686'
p377
ss(S'description'
p378
NS'rt'
p379
tp380
(dp381
S'part-long-rt'
p382
S'This kernel includes the PREEMPT_RT realtime patch set.'
p383
sS'parts'
p384
(lp385
S'rt'
p386
asS'part-short-rt'
p387
S'PREEMPT_RT'
p388
ss(S'relations'
p389
S's390'
p390
tp391
(dp392
S'headers%gcc-4.8'
p393
S'linux-compiler-gcc-4.8-s390'
p394
ss(S'image'
p395
g85
NS'sparc64-smp'
p396
tp397
(dp398
S'configs'
p399
(lp400
S'kernelarch-sparc/config-smp'
p401
ass(g123
g169
g125
tp402
(dp403
g128
I01
sg129
(lp404
S'sb1-bcm91250a'
p405
aS'4kc-malta'
p406
aS'5kc-malta'
p407
aS'loongson-2e'
p408
aS'loongson-2f'
p409
aS'loongson-3'
p410
ass(S'description'
p411
g273
NS'sh7751r'
p412
tp413
(dp414
S'hardware'
p415
S'sh7751r'
p416
sS'hardware-long'
p417
S'Renesas SH7751R R2D plus board'
p418
ss(S'description'
p419
S'powerpcspe'
p420
tp421
(dp422
S'hardware'
p423
S'32-bit PowerPC with SPE (instead of AltiVec) with SMP support'
p424
ss(S'relations'
p425
tp426
(dp427
S'gcc-4.8'
p428
S'gcc-4.8'
p429
sS'initramfs-fallback'
p430
S'linux-initramfs-tool'
p431
sS'gcc-4.7'
p432
S'gcc-4.7'
p433
sS'gcc-4.6'
p434
S'gcc-4.6'
p435
sS'gcc-4.4'
p436
S'gcc-4.4'
p437
sS'initramfs-tools'
p438
S'initramfs-tools (>= 0.110~)'
p439
ss(S'description'
p440
g71
NS'armmp-lpae'
p441
tp442
(dp443
S'hardware'
p444
S'ARMv7 multiplatform compatible SoCs supporting LPAE'
p445
sS'hardware-long'
p446
S'ARMv7 multiplatform kernel supporting LPAE. See\nhttps://wiki.debian.org/DebianKernel/ARMMP for details of supported\nplatforms.'
p447
ss(g123
g43
g125
tp448
(dp449
g128
I01
sg129
(lp450
S'sb1-bcm91250a'
p451
aS'5kc-malta'
p452
aS'loongson-3'
p453
aS'octeon'
p454
ass(S'image'
p455
g51
NS'4kc-malta'
p456
tp457
(dp458
S'configs'
p459
(lp460
S'kernelarch-mips/config.4kc-malta'
p461
ass(S'abi'
p462
g34
NS'kirkwood'
p463
tp464
(dp465
S'ignore-changes'
p466
(lp467
S'zs_create_pool'
p468
aS'zs_destroy_pool'
p469
aS'zs_free'
p470
aS'zs_get_total_size_bytes'
p471
aS'zs_malloc'
p472
aS'zs_map_object'
p473
aS'zs_unmap_object'
p474
aS'fips_enabled'
p475
aS'dcookie_register'
p476
aS'dcookie_unregister'
p477
aS'get_dcookie'
p478
aS'prof_on'
p479
aS'profile_event_register'
p480
aS'profile_event_unregister'
p481
aS'profile_hits'
p482
aS'ring_buffer_swap_cpu'
p483
aS'task_handoff_register'
p484
aS'task_handoff_unregister'
p485
aS'disable_kprobe'
p486
aS'enable_kprobe'
p487
aS'jprobe_return'
p488
aS'profile_hits'
p489
aS'register_jprobe'
p490
aS'register_jprobes'
p491
aS'register_kprobe'
p492
aS'register_kprobes'
p493
aS'register_kretprobe'
p494
aS'register_kretprobes'
p495
aS'unregister_jprobe'
p496
aS'unregister_jprobes'
p497
aS'unregister_kprobe'
p498
aS'unregister_kprobes'
p499
aS'unregister_kretprobe'
p500
aS'unregister_kretprobes'
p501
ass(g123
g273
g125
tp502
(dp503
g128
I01
sg129
(lp504
S'sh7751r'
p505
aS'sh7785lcr'
p506
ass(S'build'
p507
g18
tp508
(dp509
S'image-file'
p510
S'vmlinux'
p511
ss(S'description'
p512
g85
NS'sparc64'
p513
tp514
(dp515
S'hardware'
p516
S'uniprocessor 64-bit UltraSPARC'
p517
ss(S'image'
p518
g351
NS'sparc64'
p519
tp520
(dp521
S'configs'
p522
(lp523
S'kernelarch-sparc/config-up'
p524
ass(S'build'
p525
g43
tp526
(dp527
S'image-file'
p528
S'vmlinux'
p529
ss(S'image'
p530
g390
NS's390x'
p531
tp532
(dp533
S'configs'
p534
(lp535
S'kernelarch-s390/config-arch-64'
p536
ass(S'base'
p537
g34
tp538
(dp539
S'kernel-arch'
p540
S'arm'
p541
sg337
(lp542
g125
ass(S'image'
p543
g133
NS'sb1-bcm91250a'
p544
tp545
(dp546
S'configs'
p547
(lp548
S'kernelarch-mips/config.sb1-bcm91250a'
p549
ass(S'image'
p550
g43
tp551
(dp552
S'install-stem'
p553
S'vmlinux'
p554
ss(S'description'
p555
g169
NS'loongson-2f'
p556
tp557
(dp558
S'hardware'
p559
S'Loongson 2F'
p560
sS'hardware-long'
p561
S'Lemote Loongson 2F systems'
p562
ss(S'base'
p563
g351
tp564
(dp565
S'kernel-arch'
p566
S'sparc'
p567
sg337
(lp568
g125
ass(S'base'
p569
g420
tp570
(dp571
S'kernel-arch'
p572
S'powerpc'
p573
sg337
(lp574
g125
ass(S'version'
p575
tp576
(dp577
S'abiname'
p578
S'3.16.0-4'
p579
sS'source'
p580
V3.16.36-1+deb8u2
p581
sS'abiname_base'
p582
S'3.16.0'
p583
sS'upstream'
p584
S'3.16'
p585
ss(S'description'
p586
g18
NS'parisc'
p587
tp588
(dp589
S'hardware'
p590
S'32-bit PA-RISC'
p591
sS'hardware-long'
p592
S'HP PA-RISC 32-bit systems with max 4 GB RAM'
p593
ss(g123
g390
g125
tp594
(dp595
g128
I01
sg129
(lp596
S's390x'
p597
ass(S'build'
p598
g51
tp599
(dp600
S'image-file'
p601
S'vmlinux'
p602
ss(S'description'
p603
g51
NS'r5k-ip32'
p604
tp605
(dp606
S'hardware'
p607
S'SGI IP32'
p608
sS'hardware-long'
p609
S'SGI IP32 systems (O2)'
p610
ss(S'description'
p611
g133
NS'sb1-bcm91250a'
p612
tp613
(dp614
S'hardware'
p615
S'BCM91250A'
p616
sS'hardware-long'
p617
S'Broadcom BCM91250A systems (aka SWARM)'
p618
ss(g123
g149
g125
tp619
(dp620
g128
I01
sg129
(lp621
S's390x'
p622
ass(S'base'
p623
S'alpha'
p624
tp625
(dp626
S'kernel-arch'
p627
S'alpha'
p628
sg337
(lp629
g125
ass(S'description'
p630
g237
NS'powerpc64'
p631
tp632
(dp633
S'hardware'
p634
S'64-bit PowerPC'
p635
ss(S'image'
p636
g133
NS'octeon'
p637
tp638
(dp639
S'configs'
p640
(lp641
S'kernelarch-mips/config.octeon'
p642
ass(S'build'
p643
g351
tp644
(dp645
S'image-file'
p646
S'arch/sparc/boot/zImage'
p647
ss(S'image'
p648
g169
tp649
(dp650
S'install-stem'
p651
S'vmlinux'
p652
ss(S'image'
p653
g71
tp654
(dp655
S'suggests'
p656
S'fdutils'
p657
sS'configs'
p658
(lp659
S'kernelarch-arm/config'
p660
aS'armhf/config'
p661
asS'install-stem'
p662
S'vmlinuz'
p663
ss(S'build'
p664
g149
NS's390x'
p665
tp666
(dp667
S'debug-info'
p668
I01
ss(S'build'
p669
g237
tp670
(dp671
S'image-file'
p672
S'vmlinux'
p673
ss(S'build'
p674
g112
tp675
(dp676
S'debug-info'
p677
I01
sS'image-file'
p678
S'arch/arm64/boot/Image'
p679
ss(S'description'
p680
g51
NS'r4k-ip22'
p681
tp682
(dp683
S'hardware'
p684
S'SGI IP22'
p685
sS'hardware-long'
p686
S'SGI IP22 systems (Indy, Indigo2)'
p687
ss(S'build'
p688
g169
tp689
(dp690
S'image-file'
p691
S'vmlinux'
p692
ss(S'base'
p693
g133
tp694
(dp695
S'kernel-arch'
p696
S'mips'
p697
sg337
(lp698
g125
ass(S'base'
p699
g5
tp700
(dp701
S'kernel-arch'
p702
S'x86'
p703
sS'featuresets'
p704
(lp705
S'none'
p706
aS'rt'
p707
ass(S'base'
p708
g60
tp709
(dp710
S'kernel-arch'
p711
S'ia64'
p712
sg337
(lp713
g125
asS'compiler'
p714
S'gcc-4.6'
p715
ss(S'image'
p716
g43
NS'sb1-bcm91250a'
p717
tp718
(dp719
S'configs'
p720
(lp721
S'kernelarch-mips/config.sb1-bcm91250a'
p722
ass(S'base'
p723
g51
tp724
(dp725
S'kernel-arch'
p726
S'mips'
p727
sg337
(lp728
g125
ass(S'image'
p729
g43
NS'octeon'
p730
tp731
(dp732
S'configs'
p733
(lp734
S'kernelarch-mips/config.octeon'
p735
ass(S'description'
p736
g51
NS'4kc-malta'
p737
tp738
(dp739
S'hardware'
p740
S'MIPS Malta'
p741
sS'hardware-long'
p742
S'MIPS Malta boards'
p743
ss(S'description'
p744
g34
NS'orion5x'
p745
tp746
(dp747
S'hardware'
p748
S'Marvell Orion'
p749
sS'hardware-long'
p750
S'Marvell Orion 5181, 5182 and 5281 based systems (QNAP TS-109/TS-209, etc)'
p751
ss(S'base'
p752
g390
tp753
(dp754
S'kernel-arch'
p755
S's390'
p756
sg337
(lp757
g125
ass(g123
g34
g125
tp758
(dp759
g128
I01
sg129
(lp760
S'ixp4xx'
p761
aS'kirkwood'
p762
aS'orion5x'
p763
aS'versatile'
p764
ass(S'description'
p765
g237
NS'powerpc'
p766
tp767
(dp768
S'hardware'
p769
S'uniprocessor 32-bit PowerPC'
p770
ss(S'description'
p771
g85
NS'sparc64-smp'
p772
tp773
(dp774
S'hardware'
p775
S'multiprocessor 64-bit UltraSPARC'
p776
ss(S'description'
p777
g169
NS'5kc-malta'
p778
tp779
(dp780
S'hardware'
p781
S'MIPS Malta (64-bit)'
p782
sS'hardware-long'
p783
S'MIPS Malta boards (64-bit)'
p784
ss(S'description'
p785
g169
NS'loongson-3'
p786
tp787
(dp788
S'hardware'
p789
S'Loongson 3A/3B'
p790
sS'hardware-long'
p791
S'Loongson 3A or 3B based systems (e.g. from Loongson or Lemote)'
p792
ss(S'description'
p793
g351
NS'sparc64-smp'
p794
tp795
(dp796
S'hardware'
p797
S'multiprocessor 64-bit UltraSPARC'
p798
ss(S'image'
p799
g169
NS'loongson-3'
p800
tp801
(dp802
S'configs'
p803
(lp804
S'kernelarch-mips/config.loongson-3'
p805
ass(S'description'
p806
g183
tp807
(dp808
S'part-long-pae'
p809
S'This kernel requires PAE (Physical Address Extension).\nThis feature is supported by the Intel Pentium Pro/II/III/4/4M/D, Xeon,\nCore and Atom; AMD Geode NX, Athlon (K7), Duron, Opteron, Sempron,\nTurion or Phenom; Transmeta Efficeon; VIA C7; and some other processors.'
p810
ss(S'image'
p811
g237
NS'powerpc64'
p812
tp813
(dp814
S'configs'
p815
(lp816
S'kernelarch-powerpc/config-arch-64'
p817
aS'kernelarch-powerpc/config-arch-64-be'
p818
ass(S'image'
p819
g51
NS'r5k-ip32'
p820
tp821
(dp822
S'configs'
p823
(lp824
S'kernelarch-mips/config.r5k-ip32'
p825
ass(S'xen'
p826
g5
g27
S'amd64'
p827
tp828
(dp829
S'flavours'
p830
(lp831
S'amd64'
p832
ass(S'image'
p833
g34
tp834
(dp835
S'suggests'
p836
S'fdutils'
p837
sS'configs'
p838
(lp839
S'kernelarch-arm/config'
p840
aS'armel/config'
p841
asS'install-stem'
p842
S'vmlinuz'
p843
ss(S'image'
p844
g390
tp845
(dp846
S'install-stem'
p847
S'vmlinuz'
p848
sS'configs'
p849
(lp850
sS'bootloaders'
p851
(lp852
S's390-tools'
p853
ass(S'relations'
p854
g34
tp855
(dp856
S'headers%gcc-4.8'
p857
S'linux-compiler-gcc-4.8-arm'
p858
ss(S'image'
p859
g18
tp860
(dp861
S'suggests'
p862
S'palo'
p863
sS'install-stem'
p864
S'vmlinux'
p865
ss(S'image'
p866
g420
tp867
(dp868
S'suggests'
p869
S'mkvmlinuz'
p870
sS'install-stem'
p871
S'vmlinux'
p872
ss(S'relations'
p873
g18
tp874
(dp875
S'gcc-4.8'
p876
S'gcc-4.8, binutils-hppa64, gcc-4.8-hppa64'
p877
ss(S'image'
p878
g5
NS'amd64'
p879
tp880
(dp881
S'configs'
p882
(lp883
S'kernelarch-x86/config-arch-64'
p884
ass(S'description'
p885
g624
NS'alpha-generic'
p886
tp887
(dp888
S'hardware'
p889
S'Alpha'
p890
sS'hardware-long'
p891
S'DEC Alpha systems with extended kernel start address (Wildfire, Titan, Marvel)'
p892
ss(S'description'
p893
g51
NS'sb1-bcm91250a'
p894
tp895
(dp896
S'hardware'
p897
S'BCM91250A'
p898
sS'hardware-long'
p899
S'Broadcom BCM91250A systems (aka SWARM)'
p900
ss(g123
g18
g125
tp901
(dp902
g128
I01
sg129
(lp903
S'parisc'
p904
aS'parisc64-smp'
p905
ass(S'description'
p906
g624
NS'alpha-smp'
p907
tp908
(dp909
S'hardware'
p910
S'Alpha SMP'
p911
sS'hardware-long'
p912
S'DEC Alpha SMP systems with extended kernel start address (Wildfire, Titan, Marvel)'
p913
ss(S'image'
p914
g51
NS'5kc-malta'
p915
tp916
(dp917
S'configs'
p918
(lp919
S'kernelarch-mips/config.5kc-malta'
p920
ass(S'image'
p921
g624
tp922
(dp923
S'suggests'
p924
S'aboot, fdutils'
p925
sS'install-stem'
p926
S'vmlinuz'
p927
ss(S'base'
p928
g85
tp929
(dp930
S'kernel-arch'
p931
S'sparc'
p932
sg337
(lp933
g125
ass(S'description'
p934
g60
NS'itanium'
p935
tp936
(dp937
S'hardware'
p938
S'Itanium'
p939
ss(S'image'
p940
g51
NS'r4k-ip22'
p941
tp942
(dp943
S'configs'
p944
(lp945
S'kernelarch-mips/config.r4k-ip22'
p946
ass(S'image'
p947
g169
NS'5kc-malta'
p948
tp949
(dp950
S'configs'
p951
(lp952
S'kernelarch-mips/config.5kc-malta'
p953
ass(S'base'
p954
g149
tp955
(dp956
S'kernel-arch'
p957
S's390'
p958
sg337
(lp959
g125
ass(S'abi'
p960
g34
NS'orion5x'
p961
tp962
(dp963
S'ignore-changes'
p964
(lp965
S'__ring_buffer_alloc'
p966
aS'dcookie_register'
p967
aS'dcookie_unregister'
p968
aS'get_dcookie'
p969
aS'prof_on'
p970
aS'profile_event_register'
p971
aS'profile_event_unregister'
p972
aS'profile_hits'
p973
aS'ring_buffer_alloc_read_page'
p974
aS'ring_buffer_bytes_cpu'
p975
aS'ring_buffer_change_overwrite'
p976
aS'ring_buffer_commit_overrun_cpu'
p977
aS'ring_buffer_consume'
p978
aS'ring_buffer_discard_commit'
p979
aS'ring_buffer_dropped_events_cpu'
p980
aS'ring_buffer_empty'
p981
aS'ring_buffer_empty_cpu'
p982
aS'ring_buffer_entries'
p983
aS'ring_buffer_entries_cpu'
p984
aS'ring_buffer_event_data'
p985
aS'ring_buffer_event_length'
p986
aS'ring_buffer_free'
p987
aS'ring_buffer_free_read_page'
p988
aS'ring_buffer_iter_empty'
p989
aS'ring_buffer_iter_peek'
p990
aS'ring_buffer_iter_reset'
p991
aS'ring_buffer_lock_reserve'
p992
aS'ring_buffer_normalize_time_stamp'
p993
aS'ring_buffer_oldest_event_ts'
p994
aS'ring_buffer_overrun_cpu'
p995
aS'ring_buffer_overruns'
p996
aS'ring_buffer_peek'
p997
aS'ring_buffer_read'
p998
aS'ring_buffer_read_events_cpu'
p999
aS'ring_buffer_read_finish'
p1000
aS'ring_buffer_read_page'
p1001
aS'ring_buffer_read_prepare'
p1002
aS'ring_buffer_read_prepare_sync'
p1003
aS'ring_buffer_read_start'
p1004
aS'ring_buffer_record_disable'
p1005
aS'ring_buffer_record_disable_cpu'
p1006
aS'ring_buffer_record_enable'
p1007
aS'ring_buffer_record_enable_cpu'
p1008
aS'ring_buffer_record_off'
p1009
aS'ring_buffer_record_on'
p1010
aS'ring_buffer_reset'
p1011
aS'ring_buffer_reset_cpu'
p1012
aS'ring_buffer_resize'
p1013
aS'ring_buffer_size'
p1014
aS'ring_buffer_swap_cpu'
p1015
aS'ring_buffer_time_stamp'
p1016
aS'ring_buffer_unlock_commit'
p1017
aS'ring_buffer_write'
p1018
aS'task_handoff_register'
p1019
aS'task_handoff_unregister'
p1020
aS'trace_clock_local'
p1021
ass(S'description'
p1022
g60
NS'mckinley'
p1023
tp1024
(dp1025
S'hardware'
p1026
S'Itanium II'
p1027
ss(S'image'
p1028
g124
tp1029
(dp1030
S'suggests'
p1031
S'mkvmlinuz'
p1032
sS'configs'
p1033
(lp1034
sS'install-stem'
p1035
S'vmlinux'
p1036
ss(S'image'
p1037
g51
tp1038
(dp1039
S'install-stem'
p1040
S'vmlinux'
p1041
ss(S'image'
p1042
g183
tp1043
(dp1044
S'install-stem'
p1045
S'vmlinuz'
p1046
sS'configs'
p1047
(lp1048
sS'bootloaders'
p1049
(lp1050
S'grub-pc'
p1051
aS'extlinux'
p1052
ass(S'image'
p1053
g169
NS'loongson-2f'
p1054
tp1055
(dp1056
S'configs'
p1057
(lp1058
S'kernelarch-mips/config.loongson-2f'
p1059
asS'recommends'
p1060
S'libc6-loongson2f'
p1061
ss(g123
g351
g125
tp1062
(dp1063
g128
I01
sg129
(lp1064
S'sparc64'
p1065
aS'sparc64-smp'
p1066
ass(S'relations'
p1067
g237
tp1068
(dp1069
S'gcc-4.8'
p1070
S'gcc-4.8 (>= 4.8.2-21)'
p1071
ss(g123
g624
g125
tp1072
(dp1073
g128
I01
sg129
(lp1074
S'alpha-generic'
p1075
aS'alpha-smp'
p1076
ass(S'description'
p1077
g183
g300
S'686-pae'
p1078
tp1079
(dp1080
S'parts'
p1081
(lp1082
S'xen'
p1083
ass(g123
g60
g125
tp1084
(dp1085
g128
I01
sg129
(lp1086
S'itanium'
p1087
aS'mckinley'
p1088
ass(S'base'
p1089
g124
tp1090
(dp1091
S'kernel-arch'
p1092
S'powerpc'
p1093
sg337
(lp1094
g125
ass(S'image'
p1095
g183
NS'amd64'
p1096
tp1097
(dp1098
S'configs'
p1099
(lp1100
S'kernelarch-x86/config-arch-64'
p1101
asS'recommends'
p1102
S'libc6-i686'
p1103
ss(S'build'
p1104
g149
tp1105
(dp1106
S'image-file'
p1107
S'arch/s390/boot/image'
p1108
ss(S'build'
p1109
g420
tp1110
(dp1111
S'image-file'
p1112
S'vmlinux'
p1113
ss(g123
g51
g125
tp1114
(dp1115
g128
I01
sg129
(lp1116
S'r4k-ip22'
p1117
aS'r5k-ip32'
p1118
aS'sb1-bcm91250a'
p1119
aS'4kc-malta'
p1120
aS'5kc-malta'
p1121
aS'octeon'
p1122
ass(S'build'
p1123
g624
tp1124
(dp1125
S'image-file'
p1126
S'arch/alpha/boot/vmlinux.gz'
p1127
ss(S'image'
p1128
g133
tp1129
(dp1130
S'install-stem'
p1131
S'vmlinux'
p1132
ss(S'abi'
p1133
Ng379
tp1134
(dp1135
S'ignore-changes'
p1136
(lp1137
S'*'
p1138
ass(S'base'
p1139
S'x32'
p1140
tp1141
(dp1142
S'kernel-arch'
p1143
S'x86'
p1144
sS'featuresets'
p1145
(lp1146
ss(S'build'
p1147
g273
tp1148
(dp1149
S'image-file'
p1150
S'arch/sh/boot/zImage'
p1151
ss(S'image'
p1152
g117
tp1153
(dp1154
S'suggests'
p1155
S'vmelilo, fdutils'
p1156
sS'install-stem'
p1157
S'vmlinuz'
p1158
ss(S'image'
p1159
g51
NS'sb1-bcm91250a'
p1160
tp1161
(dp1162
S'configs'
p1163
(lp1164
S'kernelarch-mips/config.sb1-bcm91250a'
p1165
ass(S'base'
p1166
g112
S'none'
p1167
tp1168
(dp1169
S'flavours'
p1170
(lp1171
S'arm64'
p1172
ass(S'build'
p1173
g133
tp1174
(dp1175
S'image-file'
p1176
S'vmlinux'
p1177
ss(S'build'
p1178
g71
tp1179
(dp1180
S'image-file'
p1181
S'arch/arm/boot/zImage'
p1182
ss(S'description'
p1183
g273
NS'sh7785lcr'
p1184
tp1185
(dp1186
S'hardware'
p1187
S'sh7785lcr'
p1188
sS'hardware-long'
p1189
S'Renesas SH7785 reference board'
p1190
ss(S'build'
p1191
g60
tp1192
(dp1193
S'image-file'
p1194
S'vmlinux.gz'
p1195
ss(S'base'
p1196
g71
tp1197
(dp1198
S'kernel-arch'
p1199
S'arm'
p1200
sg337
(lp1201
g125
ass(S'image'
p1202
g273
tp1203
(dp1204
S'suggests'
p1205
S'fdutils'
p1206
sS'install-stem'
p1207
S'vmlinuz'
p1208
ss(S'build'
p1209
g390
NS's390x'
p1210
tp1211
(dp1212
S'debug-info'
p1213
I01
ss(S'relations'
p1214
g124
tp1215
(dp1216
S'gcc-4.8'
p1217
S'gcc-4.8 (>= 4.8.2-21)'
p1218
ss(S'image'
p1219
g149
NS's390x'
p1220
tp1221
(dp1222
S'configs'
p1223
(lp1224
S'kernelarch-s390/config-arch-64'
p1225
ass(S'image'
p1226
g351
tp1227
(dp1228
S'suggests'
p1229
S'silo, fdutils'
p1230
sS'configs'
p1231
(lp1232
sS'install-stem'
p1233
S'vmlinuz'
p1234
ss(S'description'
p1235
tp1236
(dp1237
S'part-long-up'
p1238
S'This kernel is not suitable for SMP (multi-processor,\nmulti-core or hyper-threaded) systems.'
p1239
sS'part-long-xen'
p1240
S'This kernel also runs on a Xen hypervisor.\nIt supports both privileged (dom0) and unprivileged (domU) operation.'
p1241
ss(S'build'
p1242
g85
tp1243
(dp1244
S'image-file'
p1245
S'arch/sparc/boot/zImage'
p1246
ss(S'relations'
p1247
g71
tp1248
(dp1249
S'headers%gcc-4.8'
p1250
S'linux-compiler-gcc-4.8-arm'
p1251
ss(S'image'
p1252
g34
NS'ixp4xx'
p1253
tp1254
(dp1255
S'check-size'
p1256
S'1441760'
p1257
sS'configs'
p1258
(lp1259
S'armel/config-reduced'
p1260
aS'armel/config.ixp4xx'
p1261
ass(S'image'
p1262
g351
NS'sparc64-smp'
p1263
tp1264
(dp1265
S'configs'
p1266
(lp1267
S'kernelarch-sparc/config-smp'
p1268
ass(S'description'
p1269
g71
NS'armmp'
p1270
tp1271
(dp1272
S'hardware'
p1273
S'ARMv7 multiplatform compatible SoCs'
p1274
sS'hardware-long'
p1275
S'ARMv7 multiplatform kernel. See\nhttps://wiki.debian.org/DebianKernel/ARMMP for details of supported\nplatforms'
p1276
ss(S'image'
p1277
g85
tp1278
(dp1279
S'suggests'
p1280
S'silo, fdutils'
p1281
sS'configs'
p1282
(lp1283
sS'install-stem'
p1284
S'vmlinuz'
p1285
ss(S'description'
p1286
g169
NS'sb1-bcm91250a'
p1287
tp1288
(dp1289
S'hardware'
p1290
S'BCM91250A'
p1291
sS'hardware-long'
p1292
S'Broadcom BCM91250A systems (aka SWARM)'
p1293
ss(S'relations'
p1294
g149
tp1295
(dp1296
S'headers%gcc-4.8'
p1297
S'linux-compiler-gcc-4.8-s390'
p1298
ss(S'description'
p1299
g18
NS'parisc64-smp'
p1300
tp1301
(dp1302
S'hardware'
p1303
S'multiprocessor 64-bit PA-RISC'
p1304
sS'hardware-long'
p1305
S'HP PA-RISC 64-bit SMP systems with support for more than 4 GB RAM'
p1306
ss(S'image'
p1307
g183
NS'586'
p1308
tp1309
(dp1310
S'configs'
p1311
(lp1312
S'kernelarch-x86/config-arch-32'
p1313
aS'i386/config.586'
p1314
ass(S'image'
p1315
g124
NS'powerpc64'
p1316
tp1317
(dp1318
S'configs'
p1319
(lp1320
S'kernelarch-powerpc/config-arch-64'
p1321
aS'kernelarch-powerpc/config-arch-64-be'
p1322
ass(S'abi'
p1323
g34
NS'ixp4xx'
p1324
tp1325
(dp1326
S'ignore-changes'
p1327
(lp1328
S'__ring_buffer_alloc'
p1329
aS'dcookie_register'
p1330
aS'dcookie_unregister'
p1331
aS'get_dcookie'
p1332
aS'prof_on'
p1333
aS'profile_event_register'
p1334
aS'profile_event_unregister'
p1335
aS'profile_hits'
p1336
aS'ring_buffer_alloc_read_page'
p1337
aS'ring_buffer_bytes_cpu'
p1338
aS'ring_buffer_change_overwrite'
p1339
aS'ring_buffer_commit_overrun_cpu'
p1340
aS'ring_buffer_consume'
p1341
aS'ring_buffer_discard_commit'
p1342
aS'ring_buffer_dropped_events_cpu'
p1343
aS'ring_buffer_empty'
p1344
aS'ring_buffer_empty_cpu'
p1345
aS'ring_buffer_entries'
p1346
aS'ring_buffer_entries_cpu'
p1347
aS'ring_buffer_event_data'
p1348
aS'ring_buffer_event_length'
p1349
aS'ring_buffer_free'
p1350
aS'ring_buffer_free_read_page'
p1351
aS'ring_buffer_iter_empty'
p1352
aS'ring_buffer_iter_peek'
p1353
aS'ring_buffer_iter_reset'
p1354
aS'ring_buffer_lock_reserve'
p1355
aS'ring_buffer_normalize_time_stamp'
p1356
aS'ring_buffer_oldest_event_ts'
p1357
aS'ring_buffer_overrun_cpu'
p1358
aS'ring_buffer_overruns'
p1359
aS'ring_buffer_peek'
p1360
aS'ring_buffer_read'
p1361
aS'ring_buffer_read_events_cpu'
p1362
aS'ring_buffer_read_finish'
p1363
aS'ring_buffer_read_page'
p1364
aS'ring_buffer_read_prepare'
p1365
aS'ring_buffer_read_prepare_sync'
p1366
aS'ring_buffer_read_start'
p1367
aS'ring_buffer_record_disable'
p1368
aS'ring_buffer_record_disable_cpu'
p1369
aS'ring_buffer_record_enable'
p1370
aS'ring_buffer_record_enable_cpu'
p1371
aS'ring_buffer_record_off'
p1372
aS'ring_buffer_record_on'
p1373
aS'ring_buffer_reset'
p1374
aS'ring_buffer_reset_cpu'
p1375
aS'ring_buffer_resize'
p1376
aS'ring_buffer_size'
p1377
aS'ring_buffer_swap_cpu'
p1378
aS'ring_buffer_time_stamp'
p1379
aS'ring_buffer_unlock_commit'
p1380
aS'ring_buffer_write'
p1381
aS'task_handoff_register'
p1382
aS'task_handoff_unregister'
p1383
aS'trace_clock_local'
p1384
ass(S'base'
p1385
g237
tp1386
(dp1387
S'kernel-arch'
p1388
S'powerpc'
p1389
sg337
(lp1390
g125
ass(S'image'
p1391
g34
NS'kirkwood'
p1392
tp1393
(dp1394
S'check-size'
p1395
S'2097080'
p1396
sS'breaks'
p1397
S'flash-kernel (<< 3.14~)'
p1398
sS'recommends'
p1399
S'u-boot-tools'
p1400
ss(S'image'
p1401
g149
tp1402
(dp1403
S'install-stem'
p1404
S'vmlinuz'
p1405
sS'configs'
p1406
(lp1407
sS'bootloaders'
p1408
(lp1409
S's390-tools'
p1410
ass(S'image'
p1411
g208
NS'powerpc64le'
p1412
tp1413
(dp1414
S'configs'
p1415
(lp1416
S'kernelarch-powerpc/config-arch-64'
p1417
aS'kernelarch-powerpc/config-arch-64-le'
p1418
ass(S'image'
p1419
g169
NS'4kc-malta'
p1420
tp1421
(dp1422
S'configs'
p1423
(lp1424
S'kernelarch-mips/config.4kc-malta'
p1425
ass(S'build'
p1426
g390
tp1427
(dp1428
S'image-file'
p1429
S'arch/s390/boot/image'
p1430
ss(S'description'
p1431
g51
NS'octeon'
p1432
tp1433
(dp1434
S'hardware'
p1435
S'Octeon'
p1436
sS'hardware-long'
p1437
S'Cavium Networks Octeon'
p1438
ss(S'base'
p1439
g183
g300
tp1440
(dp1441
S'flavours'
p1442
(lp1443
S'586'
p1444
aS'686-pae'
p1445
aS'amd64'
p1446
ass(S'abi'
p1447
tp1448
(dp1449
S'abiname'
p1450
S'4'
p1451
sS'ignore-changes'
p1452
(lp1453
S'module:arch/x86/kvm/kvm'
p1454
aS'module:drivers/md/dm-snapshot'
p1455
aS'module:drivers/misc/mei/*'
p1456
aS'module:drivers/mtd/spi-nor/spi-nor'
p1457
aS'module:drivers/net/ethernet/broadcom/bnx2x/bnx2x'
p1458
aS'module:drivers/net/wireless/**'
p1459
aS'module:drivers/scsi/qla2xxx/qla2xxx'
p1460
aS'module:drivers/target/iscsi/iscsi_target_mod'
p1461
aS'module:drivers/target/target_core_mod'
p1462
aS'module:drivers/usb/musb/*'
p1463
aS'module:net/ceph/libceph'
p1464
aS'module:sound/firewire/snd-firewire-lib'
p1465
aS'module:sound/i2c/other/snd-ak4113'
p1466
aS'module:sound/i2c/other/snd-ak4114'
p1467
aS'module:sound/pci/emu10k1/*'
p1468
aS'azx_alloc_cmd_io'
p1469
aS'azx_free_cmd_io'
p1470
aS'azx_get_response'
p1471
aS'azx_init_cmd_io'
p1472
aS'azx_send_cmd'
p1473
aS'cpuidle_*'
p1474
aS'musb_*'
p1475
aS'__add_pages'
p1476
aS'__remove_pages'
p1477
aS'nf_register_queue_handler'
p1478
aS'of_device_is_stdout_path'
p1479
aS'module:sound/soc/*'
p1480
aS'blk_rq_check_limits'
p1481
aS'clk_divider_ro_ops'
p1482
aS'tick_nohz_idle_enter'
p1483
aS'tick_nohz_idle_exit'
p1484
aS'skb_copy_and_csum_datagram_iovec'
p1485
aS'module:net/dccp/dccp'
p1486
aS'fl6_*'
p1487
aS'inet_sk_diag_fill'
p1488
aS'ip6_append_data'
p1489
aS'ip6_datagram_send_ctl'
p1490
aS'ip6_xmit'
p1491
aS'ipv6_dup_options'
p1492
aS'ipv6_fixup_options'
p1493
aS'ipv6_push_nfrag_opts'
p1494
aS'tcp_cong_avoid_ai'
p1495
aS'tcp_slow_start'
p1496
aS'__scm_destroy'
p1497
aS'__scm_send'
p1498
aS'scm_detach_fds'
p1499
aS'scm_fp_dup'
p1500
aS'af_alg_*'
p1501
aS'xt_compat_match_from_user'
p1502
aS'efivar_validate'
p1503
aS'zpci_disable_device'
p1504
aS'zpci_enable_device'
p1505
aS'zpci_stop_device'
p1506
ass(S'description'
p1507
g208
NS'powerpc64le'
p1508
tp1509
(dp1510
S'hardware'
p1511
S'Little-endian 64-bit PowerPC'
p1512
ss(g123
g420
g125
tp1513
(dp1514
g128
I01
sg129
(lp1515
S'powerpcspe'
p1516
ass(S'description'
p1517
g390
NS's390x'
p1518
tp1519
(dp1520
S'hardware'
p1521
S'IBM zSeries'
p1522
ss(S'image'
p1523
g351
NS'sparc32'
p1524
tp1525
(dp1526
S'image-postproc'
p1527
S'sparc32-image-postproc'
p1528
ss(S'description'
p1529
g43
NS'loongson-3'
p1530
tp1531
(dp1532
S'hardware'
p1533
S'Loongson 3A/3B'
p1534
sS'hardware-long'
p1535
S'Loongson 3A or 3B based systems (e.g. from Loongson or Lemote)'
p1536
ss(S'base'
p1537
tp1538
(dp1539
S'arches'
p1540
(lp1541
S'alpha'
p1542
aS'amd64'
p1543
aS'arm64'
p1544
aS'armel'
p1545
aS'armhf'
p1546
aS'hppa'
p1547
aS'i386'
p1548
aS'ia64'
p1549
aS'm68k'
p1550
aS'mips'
p1551
aS'mipsel'
p1552
aS'mips64'
p1553
aS'mips64el'
p1554
aS'or1k'
p1555
aS'powerpc'
p1556
aS'powerpcspe'
p1557
aS'ppc64'
p1558
aS'ppc64el'
p1559
aS's390'
p1560
aS's390x'
p1561
aS'sh4'
p1562
aS'sparc'
p1563
aS'sparc64'
p1564
aS'x32'
p1565
asS'featuresets'
p1566
(lp1567
S'none'
p1568
aS'rt'
p1569
asS'compiler'
p1570
S'gcc-4.8'
p1571
ss(S'build'
p1572
g117
tp1573
(dp1574
S'image-file'
p1575
S'vmlinux.gz'
p1576
ss(S'build'
p1577
g34
tp1578
(dp1579
S'image-file'
p1580
S'arch/arm/boot/zImage'
p1581
ss(g123
g237
g125
tp1582
(dp1583
g128
I01
sg129
(lp1584
S'powerpc'
p1585
aS'powerpc-smp'
p1586
aS'powerpc64'
p1587
ass(S'description'
p1588
g5
NS'amd64'
p1589
tp1590
(dp1591
S'hardware'
p1592
S'64-bit PCs'
p1593
sS'hardware-long'
p1594
S'PCs with AMD64, Intel 64 or VIA Nano processors'
p1595
ss(S'base'
p1596
g208
tp1597
(dp1598
S'kernel-arch'
p1599
S'powerpc'
p1600
sg337
(lp1601
g125
ass(S'base'
p1602
g43
tp1603
(dp1604
S'kernel-arch'
p1605
S'mips'
p1606
sg337
(lp1607
g125
ass(S'base'
p1608
g117
tp1609
(dp1610
S'kernel-arch'
p1611
S'm68k'
p1612
sg337
(lp1613
g125
asS'cflags'
p1614
S'-ffreestanding'
p1615
sS'compiler'
p1616
S'gcc-4.8'
p1617
ss(S'image'
p1618
g169
NS'loongson-2e'
p1619
tp1620
(dp1621
S'configs'
p1622
(lp1623
S'kernelarch-mips/config.loongson-2e'
p1624
ass(S'image'
p1625
tp1626
(dp1627
S'initramfs-generators'
p1628
(lp1629
S'initramfs-tools'
p1630
aS'initramfs-fallback'
p1631
asS'type'
p1632
S'plain'
p1633
ss(S'description'
p1634
g133
NS'octeon'
p1635
tp1636
(dp1637
S'hardware'
p1638
S'Octeon'
p1639
sS'hardware-long'
p1640
S'Cavium Networks Octeon'
p1641
ss(g123
g85
g125
tp1642
(dp1643
g128
I01
sg129
(lp1644
S'sparc64'
p1645
aS'sparc64-smp'
p1646
ass(S'description'
p1647
g169
NS'loongson-2e'
p1648
tp1649
(dp1650
S'hardware'
p1651
S'Loongson 2E'
p1652
sS'hardware-long'
p1653
S'Lemote Loongson 2E systems'
p1654
ss(S'description'
p1655
g43
NS'octeon'
p1656
tp1657
(dp1658
S'hardware'
p1659
S'Octeon'
p1660
sS'hardware-long'
p1661
S'Cavium Networks Octeon'
p1662
ss(S'description'
p1663
g351
NS'sparc32'
p1664
tp1665
(dp1666
S'hardware'
p1667
S'uniprocessor sparc32 (sun4m)'
p1668
ss(S'description'
p1669
g183
NS'amd64'
p1670
tp1671
(dp1672
S'hardware'
p1673
S'64-bit PCs'
p1674
sS'parts'
p1675
(lp1676
S'xen'
p1677
asS'hardware-long'
p1678
S'PCs with AMD64, Intel 64 or VIA Nano processors'
p1679
ss(S'base'
p1680
S'or1k'
p1681
tp1682
(dp1683
S'kernel-arch'
p1684
S'openrisc'
p1685
sS'featuresets'
p1686
(lp1687
ss(S'base'
p1688
g273
tp1689
(dp1690
S'kernel-arch'
p1691
S'sh'
p1692
sg337
(lp1693
g125
ass(S'description'
p1694
g183
NS'686-pae'
p1695
tp1696
(dp1697
S'hardware'
p1698
S'modern PCs'
p1699
sS'parts'
p1700
(lp1701
S'pae'
p1702
asS'hardware-long'
p1703
S'PCs with one or more processors supporting PAE'
p1704
ss(S'build'
p1705
g183
NS'686-pae'
p1706
tp1707
(dp1708
S'debug-info'
p1709
I01
ss(S'image'
p1710
g112
tp1711
(dp1712
S'install-stem'
p1713
S'vmlinuz'
p1714
ss(S'image'
p1715
g237
NS'powerpc-smp'
p1716
tp1717
(dp1718
S'configs'
p1719
(lp1720
S'powerpc/config.powerpc'
p1721
aS'powerpc/config.powerpc-smp'
p1722
ass(S'description'
p1723
g237
NS'powerpc-smp'
p1724
tp1725
(dp1726
S'hardware'
p1727
S'multiprocessor 32-bit PowerPC'
p1728
ss(g123
g208
g125
tp1729
(dp1730
g128
I01
sg129
(lp1731
S'powerpc64le'
p1732
ass(S'image'
p1733
g43
NS'loongson-3'
p1734
tp1735
(dp1736
S'configs'
p1737
(lp1738
S'kernelarch-mips/config.loongson-3'
p1739
asstp1740
Rp1741
.