cdebian_linux.config
ConfigCore
p0
(tRp1
(Vabi
p2
tp3
(dp4
Vabiname
p5
V25
p6
sVignore-changes
p7
(lp8
V__cpuhp_*
p9
aV__udp_gso_segment
p10
aVbpf_analyzer
p11
aVbpf_offload_dev_create
p12
aVbpf_verifier_log_write
p13
aVcxl_*
p14
aVdax_flush
p15
aVieee80211_nullfunc_get
p16
aVinet_add_protocol
p17
aVinet_del_protocol
p18
aViommu_device_*
p19
aVmm_iommu_*
p20
aVmv_mbus_*
p21
aVperf_*
p22
aVregister_cxl_calls
p23
aVregister_key_type
p24
aVunregister_cxl_calls
p25
aV*_hw_breakpoint
p26
aVmodule:drivers/crypto/ccp/*
p27
aVmodule:drivers/hv/*
p28
aVmodule:drivers/gpu/drm/sun4i/*
p29
aVmodule:drivers/iio/**
p30
aVmodule:drivers/misc/cxl/*
p31
aVmodule:drivers/misc/lis3lv02d/*
p32
aVmodule:drivers/mtd/nand/*
p33
aVmodule:drivers/net/ethernet/**
p34
aVmodule:drivers/net/wireless/**
p35
aVmodule:drivers/nvdimm/*
p36
aVmodule:drivers/nvme/**
p37
aVmodule:drivers/power/supply/bq27xxx_battery
p38
aVmodule:drivers/scsi/cxgbi/*
p39
aVmodule:drivers/scsi/libiscs*
p40
aVmodule:drivers/scsi/qla2xxx/qla2xxx
p41
aVmodule:drivers/scsi/ufs/*
p42
aVmodule:drivers/target/**
p43
aVmodule:drivers/usb/chipidea/**
p44
aVmodule:drivers/usb/gadget/**
p45
aVmodule:drivers/usb/host/**
p46
aVmodule:drivers/usb/musb/**
p47
aVmodule:fs/nfs/**
p48
aVmodule:net/ceph/libceph
p49
aVmodule:net/l2tp/**
p50
aVmodule:net/openvswitch/**
p51
aVmodule:net/rxrpc/rxrpc
p52
aVmodule:net/sctp/**
p53
aVmodule:sound/core/seq/**
p54
aVmodule:sound/firewire/snd-firewire-lib
p55
aVmodule:sound/pci/hda/*
p56
aVbtree_*
p57
aVvisitor*
p58
aVcan_rx_register
p59
aVip6_xmit
p60
aVmodule:net/dccp/dccp
p61
aVmodule:net/rds/rds
p62
aVdevfreq_*
p63
aVdevm_devfreq_*
p64
aVupdate_devfreq
p65
aVmodule:drivers/infiniband/**
p66
aVacpi_ec_add_query_handler
p67
aVacpi_ec_remove_query_handler
p68
aVfirst_ec
p69
aVdebugfs_create_automount
p70
aVmodule:drivers/iio/imu/inv_mpu6050/*
p71
aVdrm_crtc_accurate_vblank_count
p72
aVacpi_nfit_desc_init
p73
aVacpi_nfit_init
p74
aVloop_register_transfer
p75
aVxen_xlate_*
p76
aVnf_nat_masquerade_ipv4_register_notifier
p77
aVnf_nat_masquerade_ipv6_register_notifier
p78
aVdfltcc_*
p79
aVmodule:drivers/scsi/hisi_sas/*
p80
aV__gfn_*
p81
aV__kvmhv_*
p82
aV__kvm_*
p83
aV__xive_vm_h_*
p84
aVgfn_*
p85
aVh_ipi_redirect
p86
aVhalt_poll_ns*
p87
aVkvm_*
p88
aVkvmhv_*
p89
aVkvmppc_*
p90
aVmark_page_dirty
p91
aVvcpu_*
p92
aVmodule:arch/powerpc/kvm/*
p93
aVmodule:arch/s390/kvm/*
p94
aVmodule:arch/x86/kvm/*
p95
aVuv_info
p96
aVxhci_init_driver
p97
aVnft_parse_register
p98
ass(Vbase
p99
tp100
(dp101
Varches
p102
(lp103
Valpha
p104
aVamd64
p105
aVarm64
p106
aVarm64ilp32
p107
aVarmel
p108
aVarmhf
p109
aVhppa
p110
aVi386
p111
aVia64
p112
aVm68k
p113
aVmips
p114
aVmips64
p115
aVmips64el
p116
aVmips64r6
p117
aVmips64r6el
p118
aVmipsel
p119
aVmipsn32
p120
aVmipsn32el
p121
aVmipsn32r6
p122
aVmipsn32r6el
p123
aVmipsr6
p124
aVmipsr6el
p125
aVpowerpc
p126
aVppc64
p127
aVppc64el
p128
aVriscv64
p129
aVs390
p130
aVs390x
p131
aVsh3
p132
aVsh4
p133
aVsparc
p134
aVsparc64
p135
aVx32
p136
asVcompiler
p137
Vgcc-10
p138
sVfeaturesets
p139
(lp140
Vnone
p141
aVrt
p142
ass(Vbuild
p143
tp144
(dp145
Vdebug-info
p146
I01
sVsigned-code
p147
I00
ss(Vbase
p148
NVrt
p149
tp150
(dp151
Venabled
p152
I01
ss(Vdescription
p153
tp154
(dp155
Vpart-long-up
p156
VThis kernel is not suitable for SMP (multi-processor,\u000amulti-core or hyper-threaded) systems.
p157
ss(Vimage
p158
tp159
(dp160
Vinitramfs-generators
p161
(lp162
Vinitramfs-tools
p163
aVinitramfs-fallback
p164
asVbreaks
p165
(lp166
Vfwupdate (<< 12-7)
p167
aVwireless-regdb (<< 2019.06.03-1~)
p168
asVrecommends
p169
(lp170
Vapparmor
p171
ass(Vrelations
p172
tp173
(dp174
Vgcc-10
p175
Vgcc-10 <!stage1 !cross !pkg.linux.nokernel>, gcc-10-@gnu-type-package@ <!stage1 cross !pkg.linux.nokernel>
p176
sVinitramfs-fallback
p177
Vlinux-initramfs-tool
p178
sVinitramfs-tools
p179
Vinitramfs-tools (>= 0.120+deb8u2)
p180
ss(Vbase
p181
Valpha
p182
tp183
(dp184
Vdefault-flavour
p185
Valpha-smp
p186
sVkernel-arch
p187
Valpha
p188
sVfeaturesets
p189
(lp190
Vnone
p191
ass(Vbuild
p192
g182
tp193
(dp194
Vimage-file
p195
Varch/alpha/boot/vmlinux.gz
p196
ss(Vimage
p197
g182
tp198
(dp199
Vsuggests
p200
(lp201
Vaboot
p202
aVfdutils
p203
asVinstall-stem
p204
Vvmlinuz
p205
ss(Vdescription
p206
g182
NValpha-generic
p207
tp208
(dp209
Vhardware
p210
VAlpha
p211
sVhardware-long
p212
VDEC Alpha systems with extended kernel start address (Wildfire, Titan, Marvel)
p213
ss(Vdescription
p214
g182
NValpha-smp
p215
tp216
(dp217
Vhardware
p218
VAlpha SMP
p219
sVhardware-long
p220
VDEC Alpha SMP systems with extended kernel start address (Wildfire, Titan, Marvel)
p221
ss(Vbase
p222
g182
g191
tp223
(dp224
Vflavours
p225
(lp226
Valpha-generic
p227
aValpha-smp
p228
asVimplicit-flavour
p229
I01
ss(Vbase
p230
Vamd64
p231
tp232
(dp233
Vfeaturesets
p234
(lp235
Vnone
p236
aVrt
p237
asVkernel-arch
p238
Vx86
p239
ss(Vbuild
p240
g231
tp241
(dp242
Vimage-file
p243
Varch/x86/boot/bzImage
p244
sVsigned-code
p245
I01
sVvdso
p246
I01
ss(Vimage
p247
g231
tp248
(dp249
Vbootloaders
p250
(lp251
Vgrub-pc
p252
aVgrub-efi-amd64
p253
aVextlinux
p254
asVinstall-stem
p255
Vvmlinuz
p256
sVbreaks
p257
(lp258
Vxserver-xorg-input-vmmouse (<< 1:13.0.99)
p259
ass(Vrelations
p260
g231
tp261
(dp262
Vheaders%gcc-10
p263
Vlinux-compiler-gcc-10-x86
p264
ss(Vdescription
p265
g231
NVamd64
p266
tp267
(dp268
Vhardware
p269
V64-bit PCs
p270
sVhardware-long
p271
VPCs with AMD64, Intel 64 or VIA Nano processors
p272
ss(Vdescription
p273
g231
NVcloud-amd64
p274
tp275
(dp276
Vhardware
p277
Vx86-64 cloud
p278
sVhardware-long
p279
Vcloud platforms including Amazon EC2, Microsoft Azure, and Google Compute Engine
p280
ss(Vbase
p281
g231
Vnone
p282
tp283
(dp284
Vflavours
p285
(lp286
Vamd64
p287
aVcloud-amd64
p288
asVdefault-flavour
p289
Vamd64
p290
ss(Vimage
p291
g231
g282
Vcloud-amd64
p292
tp293
(dp294
Vconfigs
p295
(lp296
Vconfig.cloud
p297
aVamd64/config.cloud-amd64
p298
ass(Vbase
p299
g231
Vrt
p300
tp301
(dp302
Vflavours
p303
(lp304
Vamd64
p305
ass(Vbase
p306
Varm64
p307
tp308
(dp309
Vcross-compile-compat
p310
Varm-linux-gnueabihf-
p311
sVkernel-arch
p312
Varm64
p313
sVfeaturesets
p314
(lp315
Vnone
p316
aVrt
p317
ass(Vbuild
p318
g307
tp319
(dp320
Vimage-file
p321
Varch/arm64/boot/Image
p322
sVsigned-code
p323
I01
sVvdso
p324
I01
ss(Vimage
p325
g307
tp326
(dp327
Vinstall-stem
p328
Vvmlinuz
p329
sVbreaks
p330
(lp331
Vlibmozjs185-1.0
p332
aVlibmozjs-24-0 (<< 24.2.0-5.1~)
p333
ass(Vdescription
p334
g307
NVarm64
p335
tp336
(dp337
Vhardware
p338
V64-bit ARMv8 machines
p339
ss(Vdescription
p340
g307
NVcloud-arm64
p341
tp342
(dp343
Vhardware
p344
Varm64 cloud
p345
sVhardware-long
p346
Vcloud platforms supporting arm64 virtual machines
p347
ss(Vimage
p348
g307
NVarm64
p349
tp350
(dp351
s(Vrelations
p352
g307
tp353
(dp354
Vgcc-10
p355
Vgcc-10 <!stage1 !cross !pkg.linux.nokernel>, gcc-10-aarch64-linux-gnu <!stage1 cross !pkg.linux.nokernel>, gcc-arm-linux-gnueabihf <!stage1 !pkg.linux.nokernel>
p356
sVheaders%gcc-10
p357
Vgcc-10
p358
ss(Vbase
p359
g307
Vnone
p360
tp361
(dp362
Vflavours
p363
(lp364
Varm64
p365
aVcloud-arm64
p366
asVdefault-flavour
p367
Varm64
p368
ss(Vimage
p369
g307
g360
Vcloud-arm64
p370
tp371
(dp372
Vconfigs
p373
(lp374
Vconfig.cloud
p375
aVarm64/config.cloud-arm64
p376
ass(Vbase
p377
g307
Vrt
p378
tp379
(dp380
Vflavours
p381
(lp382
Varm64
p383
ass(Vbase
p384
Varm64ilp32
p385
tp386
(dp387
Vkernel-arch
p388
Varm64
p389
sVfeaturesets
p390
(lp391
ss(Vbase
p392
Varmel
p393
tp394
(dp395
Vkernel-arch
p396
Varm
p397
sg189
(lp398
g191
ass(Vbuild
p399
g393
tp400
(dp401
Vimage-file
p402
Varch/arm/boot/zImage
p403
sVuncompressed-image-file
p404
Varch/arm/boot/Image
p405
ss(Vimage
p406
g393
tp407
(dp408
Vinstall-stem
p409
Vvmlinuz
p410
ss(Vrelations
p411
g393
tp412
(dp413
Vheaders%gcc-10
p414
Vlinux-compiler-gcc-10-arm
p415
ss(Vdescription
p416
g393
NVmarvell
p417
tp418
(dp419
Vhardware
p420
VMarvell Kirkwood/Orion
p421
sVhardware-long
p422
VMarvell Kirkwood and Orion based systems (https://wiki.debian.org/ArmEabiPort#Supported_hardware)
p423
ss(Vdescription
p424
g393
NVrpi
p425
tp426
(dp427
Vhardware
p428
VRaspberry Pi and Pi Zero
p429
sVhardware-long
p430
VRaspberry Pi, Raspberry Pi Zero based systems
p431
ss(Vimage
p432
g393
NVmarvell
p433
tp434
(dp435
Vrecommends
p436
(lp437
Vu-boot-tools
p438
asVcheck-size
p439
I2729712
sVcheck-size-with-dtb
p440
I01
sVbreaks
p441
(lp442
Vflash-kernel (<< 3.57~)
p443
ass(g222
g393
g191
tp444
(dp445
g225
(lp446
Vmarvell
p447
aVrpi
p448
asg229
I01
ss(Vbase
p449
Varmhf
p450
tp451
(dp452
Vfeaturesets
p453
(lp454
sVkernel-arch
p455
Varm
p456
ss(Vbase
p457
Vhppa
p458
tp459
(dp460
Vdefault-flavour
p461
Vparisc
p462
sVkernel-arch
p463
Vparisc
p464
sg189
(lp465
g191
ass(Vbuild
p466
g458
tp467
(dp468
Vimage-file
p469
Varch/parisc/boot/bzImage
p470
sVdebug-info
p471
I00
ss(Vimage
p472
g458
tp473
(dp474
Vsuggests
p475
(lp476
Vpalo
p477
asVinstall-stem
p478
Vvmlinuz
p479
ss(Vdescription
p480
g458
NVparisc
p481
tp482
(dp483
Vhardware
p484
V32-bit PA-RISC
p485
sVhardware-long
p486
VHP PA-RISC 32-bit systems with max 4 GB RAM
p487
ss(Vbase
p488
g458
NVparisc64
p489
tp490
(dp491
Vcflags
p492
V-fno-cse-follow-jumps
p493
sVoverride-host-type
p494
Vhppa64-linux-gnu
p495
ss(Vdescription
p496
g458
NVparisc64
p497
tp498
(dp499
Vhardware
p500
V64-bit PA-RISC
p501
sVhardware-long
p502
VHP PA-RISC 64-bit systems with support for more than 4 GB RAM
p503
ss(Vrelations
p504
g458
tp505
(dp506
Vgcc-10
p507
Vgcc-10 <!stage1 !cross !pkg.linux.nokernel>, gcc-10-hppa-linux-gnu <!stage1 cross !pkg.linux.nokernel>, binutils-hppa64-linux-gnu <!stage1 !pkg.linux.nokernel>, gcc-10-hppa64-linux-gnu <!stage1 !pkg.linux.nokernel>
p508
ss(g222
g458
g191
tp509
(dp510
g225
(lp511
Vparisc
p512
aVparisc64
p513
asg229
I01
ss(Vbase
p514
Vi386
p515
tp516
(dp517
Vfeaturesets
p518
(lp519
Vnone
p520
aVrt
p521
asVkernel-arch
p522
Vx86
p523
ss(Vbuild
p524
g515
tp525
(dp526
Vimage-file
p527
Varch/x86/boot/bzImage
p528
sVsigned-code
p529
I01
sVvdso
p530
I01
ss(Vdescription
p531
g515
tp532
(dp533
Vpart-long-pae
p534
VThis kernel requires PAE (Physical Address Extension).\u000aThis feature is supported by the Intel Pentium Pro/II/III/4/4M/D, Xeon,\u000aCore and Atom; AMD Geode NX, Athlon (K7), Duron, Opteron, Sempron,\u000aTurion or Phenom; Transmeta Efficeon; VIA C7; and some other processors.
p535
ss(Vimage
p536
g515
tp537
(dp538
Vbootloaders
p539
(lp540
Vgrub-pc
p541
aVgrub-efi-ia32
p542
aVextlinux
p543
asVinstall-stem
p544
Vvmlinuz
p545
sVbreaks
p546
(lp547
Vxserver-xorg-input-vmmouse (<< 1:13.0.99)
p548
ass(Vrelations
p549
g515
tp550
(dp551
Vheaders%gcc-10
p552
Vlinux-compiler-gcc-10-x86
p553
ss(Vdescription
p554
g515
NV686
p555
tp556
(dp557
Vhardware
p558
Volder PCs
p559
sVhardware-long
p560
VPCs with one or more processors not supporting PAE
p561
ss(Vdescription
p562
g515
NV686-pae
p563
tp564
(dp565
Vhardware
p566
Vmodern PCs
p567
sVhardware-long
p568
VPCs with one or more processors supporting PAE
p569
sVparts
p570
(lp571
Vpae
p572
ass(Vbase
p573
g515
Vnone
p574
tp575
(dp576
Vflavours
p577
(lp578
V686
p579
aV686-pae
p580
asVdefault-flavour
p581
V686-pae
p582
ss(Vbase
p583
g515
Vrt
p584
tp585
(dp586
Vflavours
p587
(lp588
V686-pae
p589
ass(Vbase
p590
Via64
p591
tp592
(dp593
Vdefault-flavour
p594
Vitanium
p595
sVkernel-arch
p596
Via64
p597
sg189
(lp598
g191
ass(Vbuild
p599
g591
tp600
(dp601
Vimage-file
p602
Vvmlinux.gz
p603
ss(Vimage
p604
g591
tp605
(dp606
Vbootloaders
p607
(lp608
Vgrub-efi-ia64
p609
asVinstall-stem
p610
Vvmlinuz
p611
ss(Vdescription
p612
g591
NVitanium
p613
tp614
(dp615
Vhardware
p616
VItanium (Merced)
p617
sVhardware-long
p618
Vsystems with original Itanium (Merced) processors
p619
ss(Vdescription
p620
g591
NVmckinley
p621
tp622
(dp623
Vhardware
p624
VItanium 2+
p625
sVhardware-long
p626
Vsystems with Itanium 2 or 9300/9500/9700-series processors
p627
ss(g222
g591
g191
tp628
(dp629
g225
(lp630
Vitanium
p631
aVmckinley
p632
asg229
I01
ss(Vbase
p633
Vm68k
p634
tp635
(dp636
Vcflags
p637
V-ffreestanding
p638
sVdefault-flavour
p639
Vm68k
p640
sVkernel-arch
p641
Vm68k
p642
sg189
(lp643
g191
ass(Vbuild
p644
g634
tp645
(dp646
Vimage-file
p647
Vvmlinux
p648
ss(Vimage
p649
g634
tp650
(dp651
Vsuggests
p652
(lp653
Vvmelilo
p654
aVfdutils
p655
asVinstall-stem
p656
Vvmlinux
p657
ss(Vdescription
p658
g634
NVm68k
p659
tp660
(dp661
Vhardware
p662
VMotorola MC68020+ family
p663
ss(g222
g634
g191
tp664
(dp665
g225
(lp666
Vm68k
p667
asg229
I01
ss(Vbase
p668
Vmips
p669
tp670
(dp671
Vkernel-arch
p672
Vmips
p673
sg189
(lp674
g191
ass(Vbuild
p675
g669
tp676
(dp677
Vimage-file
p678
Vvmlinuz
p679
ss(Vimage
p680
g669
tp681
(dp682
Vinstall-stem
p683
Vvmlinuz
p684
ss(Vdescription
p685
g669
NV4kc-malta
p686
tp687
(dp688
Vhardware
p689
VMIPS Malta
p690
sVhardware-long
p691
VMIPS Malta boards
p692
ss(Vimage
p693
g669
NV4kc-malta
p694
tp695
(dp696
Vconfigs
p697
(lp698
Vkernelarch-mips/config.malta
p699
aVkernelarch-mips/config.mips32r2
p700
ass(Vdescription
p701
g669
NV5kc-malta
p702
tp703
(dp704
Vhardware
p705
VMIPS Malta (64-bit)
p706
sVhardware-long
p707
VMIPS Malta boards (64-bit)
p708
ss(Vimage
p709
g669
NV5kc-malta
p710
tp711
(dp712
Vconfigs
p713
(lp714
Vkernelarch-mips/config.malta
p715
aVkernelarch-mips/config.mips64r2
p716
ass(Vdescription
p717
g669
NVocteon
p718
tp719
(dp720
Vhardware
p721
VOcteon
p722
sVhardware-long
p723
VCavium Networks Octeon
p724
ss(Vbuild
p725
g669
NVocteon
p726
tp727
(dp728
Vimage-file
p729
Vvmlinux
p730
ss(Vimage
p731
g669
NVocteon
p732
tp733
(dp734
Vinstall-stem
p735
Vvmlinux
p736
sVconfigs
p737
(lp738
Vkernelarch-mips/config.octeon
p739
ass(g222
g669
g191
tp740
(dp741
g225
(lp742
V4kc-malta
p743
aV5kc-malta
p744
aVocteon
p745
asg229
I01
ss(Vbase
p746
Vmips64
p747
tp748
(dp749
Vkernel-arch
p750
Vmips
p751
sg189
(lp752
g191
ass(Vbuild
p753
g747
tp754
(dp755
Vimage-file
p756
Vvmlinuz
p757
ss(Vimage
p758
g747
tp759
(dp760
Vinstall-stem
p761
Vvmlinuz
p762
ss(Vdescription
p763
g747
NV5kc-malta
p764
tp765
(dp766
Vhardware
p767
VMIPS Malta
p768
sVhardware-long
p769
VMIPS Malta boards
p770
ss(Vimage
p771
g747
NV5kc-malta
p772
tp773
(dp774
Vconfigs
p775
(lp776
Vkernelarch-mips/config.malta
p777
aVkernelarch-mips/config.mips64r2
p778
ass(Vdescription
p779
g747
NVocteon
p780
tp781
(dp782
Vhardware
p783
VOcteon
p784
sVhardware-long
p785
VCavium Networks Octeon
p786
ss(Vbuild
p787
g747
NVocteon
p788
tp789
(dp790
Vimage-file
p791
Vvmlinux
p792
ss(Vimage
p793
g747
NVocteon
p794
tp795
(dp796
Vinstall-stem
p797
Vvmlinux
p798
sVconfigs
p799
(lp800
Vkernelarch-mips/config.octeon
p801
ass(g222
g747
g191
tp802
(dp803
g225
(lp804
V5kc-malta
p805
aVocteon
p806
asg229
I01
ss(Vbase
p807
Vmips64el
p808
tp809
(dp810
Vkernel-arch
p811
Vmips
p812
sg189
(lp813
g191
ass(Vbuild
p814
g808
tp815
(dp816
Vimage-file
p817
Vvmlinuz
p818
ss(Vimage
p819
g808
tp820
(dp821
Vinstall-stem
p822
Vvmlinuz
p823
ss(Vdescription
p824
g808
NV5kc-malta
p825
tp826
(dp827
Vhardware
p828
VMIPS Malta
p829
sVhardware-long
p830
VMIPS Malta boards
p831
ss(Vimage
p832
g808
NV5kc-malta
p833
tp834
(dp835
Vconfigs
p836
(lp837
Vkernelarch-mips/config.malta
p838
aVkernelarch-mips/config.mips64r2
p839
ass(Vdescription
p840
g808
NVloongson-3
p841
tp842
(dp843
Vhardware
p844
VLoongson 3A/3B
p845
sVhardware-long
p846
VLoongson 3A or 3B based systems (e.g. from Loongson or Lemote)
p847
ss(Vimage
p848
g808
NVloongson-3
p849
tp850
(dp851
Vconfigs
p852
(lp853
Vkernelarch-mips/config.loongson-3
p854
ass(Vdescription
p855
g808
NVocteon
p856
tp857
(dp858
Vhardware
p859
VOcteon
p860
sVhardware-long
p861
VCavium Networks Octeon
p862
ss(Vbuild
p863
g808
NVocteon
p864
tp865
(dp866
Vimage-file
p867
Vvmlinux
p868
ss(Vimage
p869
g808
NVocteon
p870
tp871
(dp872
Vinstall-stem
p873
Vvmlinux
p874
sVconfigs
p875
(lp876
Vkernelarch-mips/config.octeon
p877
ass(g222
g808
g191
tp878
(dp879
g225
(lp880
V5kc-malta
p881
aVloongson-3
p882
aVocteon
p883
asg229
I01
ss(Vbase
p884
Vmips64r6
p885
tp886
(dp887
Vdefault-flavour
p888
Vmips64r6
p889
sVkernel-arch
p890
Vmips
p891
sg189
(lp892
g191
ass(Vbuild
p893
g885
tp894
(dp895
Vimage-file
p896
Vvmlinux
p897
ss(Vimage
p898
g885
tp899
(dp900
Vinstall-stem
p901
Vvmlinux
p902
ss(Vdescription
p903
g885
NVmips64r6
p904
tp905
(dp906
Vhardware
p907
VMIPS R6 (64 bit, big endian)
p908
sVhardware-long
p909
VMIPS R6 (64 bit, big endian)
p910
ss(Vimage
p911
g885
NVmips64r6
p912
tp913
(dp914
Vconfigs
p915
(lp916
Vkernelarch-mips/config.boston
p917
aVkernelarch-mips/config.mips64r6
p918
ass(g222
g885
g191
tp919
(dp920
g225
(lp921
Vmips64r6
p922
asg229
I01
ss(Vbase
p923
Vmips64r6el
p924
tp925
(dp926
Vdefault-flavour
p927
Vmips64r6el
p928
sVkernel-arch
p929
Vmips
p930
sg189
(lp931
g191
ass(Vbuild
p932
g924
tp933
(dp934
Vimage-file
p935
Vvmlinux
p936
ss(Vimage
p937
g924
tp938
(dp939
Vinstall-stem
p940
Vvmlinux
p941
ss(Vdescription
p942
g924
NVmips64r6el
p943
tp944
(dp945
Vhardware
p946
VMIPS R6 (64 bit, little endian)
p947
sVhardware-long
p948
VMIPS R6 (64 bit, little endian)
p949
ss(Vimage
p950
g924
NVmips64r6el
p951
tp952
(dp953
Vconfigs
p954
(lp955
Vkernelarch-mips/config.boston
p956
aVkernelarch-mips/config.mips64r6
p957
ass(g222
g924
g191
tp958
(dp959
g225
(lp960
Vmips64r6el
p961
asg229
I01
ss(Vbase
p962
Vmipsel
p963
tp964
(dp965
Vkernel-arch
p966
Vmips
p967
sg189
(lp968
g191
ass(Vbuild
p969
g963
tp970
(dp971
Vimage-file
p972
Vvmlinuz
p973
ss(Vimage
p974
g963
tp975
(dp976
Vinstall-stem
p977
Vvmlinuz
p978
ss(Vdescription
p979
g963
NV4kc-malta
p980
tp981
(dp982
Vhardware
p983
VMIPS Malta
p984
sVhardware-long
p985
VMIPS Malta boards
p986
ss(Vimage
p987
g963
NV4kc-malta
p988
tp989
(dp990
Vconfigs
p991
(lp992
Vkernelarch-mips/config.malta
p993
aVkernelarch-mips/config.mips32r2
p994
ass(Vdescription
p995
g963
NV5kc-malta
p996
tp997
(dp998
Vhardware
p999
VMIPS Malta (64-bit)
p1000
sVhardware-long
p1001
VMIPS Malta boards (64-bit)
p1002
ss(Vimage
p1003
g963
NV5kc-malta
p1004
tp1005
(dp1006
Vconfigs
p1007
(lp1008
Vkernelarch-mips/config.malta
p1009
aVkernelarch-mips/config.mips64r2
p1010
ass(Vdescription
p1011
g963
NVloongson-3
p1012
tp1013
(dp1014
Vhardware
p1015
VLoongson 3A/3B
p1016
sVhardware-long
p1017
VLoongson 3A or 3B based systems (e.g. from Loongson or Lemote)
p1018
ss(Vimage
p1019
g963
NVloongson-3
p1020
tp1021
(dp1022
Vconfigs
p1023
(lp1024
Vkernelarch-mips/config.loongson-3
p1025
ass(Vdescription
p1026
g963
NVocteon
p1027
tp1028
(dp1029
Vhardware
p1030
VOcteon
p1031
sVhardware-long
p1032
VCavium Networks Octeon
p1033
ss(Vbuild
p1034
g963
NVocteon
p1035
tp1036
(dp1037
Vimage-file
p1038
Vvmlinux
p1039
ss(Vimage
p1040
g963
NVocteon
p1041
tp1042
(dp1043
Vinstall-stem
p1044
Vvmlinux
p1045
sVconfigs
p1046
(lp1047
Vkernelarch-mips/config.octeon
p1048
ass(g222
g963
g191
tp1049
(dp1050
g225
(lp1051
V4kc-malta
p1052
aV5kc-malta
p1053
aVloongson-3
p1054
aVocteon
p1055
asg229
I01
ss(Vbase
p1056
Vmipsn32
p1057
tp1058
(dp1059
Vkernel-arch
p1060
Vmips
p1061
sVfeaturesets
p1062
(lp1063
ss(Vbase
p1064
Vmipsn32el
p1065
tp1066
(dp1067
Vkernel-arch
p1068
Vmips
p1069
sVfeaturesets
p1070
(lp1071
ss(Vbase
p1072
Vmipsn32r6
p1073
tp1074
(dp1075
Vkernel-arch
p1076
Vmips
p1077
sVfeaturesets
p1078
(lp1079
ss(Vbase
p1080
Vmipsn32r6el
p1081
tp1082
(dp1083
Vkernel-arch
p1084
Vmips
p1085
sVfeaturesets
p1086
(lp1087
ss(Vbase
p1088
Vmipsr6
p1089
tp1090
(dp1091
Vdefault-flavour
p1092
Vmips32r6
p1093
sVkernel-arch
p1094
Vmips
p1095
sg189
(lp1096
g191
ass(Vbuild
p1097
g1089
tp1098
(dp1099
Vimage-file
p1100
Vvmlinux
p1101
ss(Vimage
p1102
g1089
tp1103
(dp1104
Vinstall-stem
p1105
Vvmlinux
p1106
ss(Vdescription
p1107
g1089
NVmips32r6
p1108
tp1109
(dp1110
Vhardware
p1111
VMIPS R6 (32 bit, big endian)
p1112
sVhardware-long
p1113
VMIPS R6 (32 bit, big endian)
p1114
ss(Vimage
p1115
g1089
NVmips32r6
p1116
tp1117
(dp1118
Vconfigs
p1119
(lp1120
Vkernelarch-mips/config.boston
p1121
aVkernelarch-mips/config.mips32r6
p1122
ass(Vdescription
p1123
g1089
NVmips64r6
p1124
tp1125
(dp1126
Vhardware
p1127
VMIPS R6 (64 bit, big endian)
p1128
sVhardware-long
p1129
VMIPS R6 (64 bit, big endian)
p1130
ss(Vimage
p1131
g1089
NVmips64r6
p1132
tp1133
(dp1134
Vconfigs
p1135
(lp1136
Vkernelarch-mips/config.boston
p1137
aVkernelarch-mips/config.mips64r6
p1138
ass(g222
g1089
g191
tp1139
(dp1140
g225
(lp1141
Vmips32r6
p1142
aVmips64r6
p1143
asg229
I01
ss(Vbase
p1144
Vmipsr6el
p1145
tp1146
(dp1147
Vdefault-flavour
p1148
Vmips32r6el
p1149
sVkernel-arch
p1150
Vmips
p1151
sg189
(lp1152
g191
ass(Vbuild
p1153
g1145
tp1154
(dp1155
Vimage-file
p1156
Vvmlinux
p1157
ss(Vimage
p1158
g1145
tp1159
(dp1160
Vinstall-stem
p1161
Vvmlinux
p1162
ss(Vdescription
p1163
g1145
NVmips32r6el
p1164
tp1165
(dp1166
Vhardware
p1167
VMIPS R6 (32 bit, little endian)
p1168
sVhardware-long
p1169
VMIPS R6 (32 bit, little endian)
p1170
ss(Vimage
p1171
g1145
NVmips32r6el
p1172
tp1173
(dp1174
Vconfigs
p1175
(lp1176
Vkernelarch-mips/config.boston
p1177
aVkernelarch-mips/config.mips32r6
p1178
ass(Vdescription
p1179
g1145
NVmips64r6el
p1180
tp1181
(dp1182
Vhardware
p1183
VMIPS R6 (64 bit, little endian)
p1184
sVhardware-long
p1185
VMIPS R6 (64 bit, little endian)
p1186
ss(Vimage
p1187
g1145
NVmips64r6el
p1188
tp1189
(dp1190
Vconfigs
p1191
(lp1192
Vkernelarch-mips/config.boston
p1193
aVkernelarch-mips/config.mips64r6
p1194
ass(g222
g1145
g191
tp1195
(dp1196
g225
(lp1197
Vmips32r6el
p1198
aVmips64r6el
p1199
asg229
I01
ss(Vbase
p1200
Vpowerpc
p1201
tp1202
(dp1203
Vkernel-arch
p1204
Vpowerpc
p1205
sg189
(lp1206
g191
ass(Vbuild
p1207
g1201
tp1208
(dp1209
Vimage-file
p1210
Vvmlinux
p1211
sVvdso
p1212
I01
ss(Vimage
p1213
g1201
tp1214
(dp1215
Vconfigs
p1216
(lp1217
sVbootloaders
p1218
(lp1219
Vgrub-ieee1275
p1220
asVsuggests
p1221
(lp1222
Vmkvmlinuz
p1223
asVinstall-stem
p1224
Vvmlinux
p1225
ss(Vdescription
p1226
g1201
NVpowerpc
p1227
tp1228
(dp1229
Vhardware
p1230
Vuniprocessor 32-bit PowerPC
p1231
ss(Vdescription
p1232
g1201
NVpowerpc-smp
p1233
tp1234
(dp1235
Vhardware
p1236
Vmultiprocessor 32-bit PowerPC
p1237
ss(Vimage
p1238
g1201
NVpowerpc-smp
p1239
tp1240
(dp1241
Vconfigs
p1242
(lp1243
Vpowerpc/config.powerpc
p1244
aVpowerpc/config.powerpc-smp
p1245
ass(Vdescription
p1246
g1201
NVpowerpc64
p1247
tp1248
(dp1249
Vhardware
p1250
V64-bit PowerPC
p1251
ss(Vimage
p1252
g1201
NVpowerpc64
p1253
tp1254
(dp1255
Vconfigs
p1256
(lp1257
Vkernelarch-powerpc/config-arch-64
p1258
aVkernelarch-powerpc/config-arch-64-be
p1259
ass(g222
g1201
g191
tp1260
(dp1261
g225
(lp1262
Vpowerpc
p1263
aVpowerpc-smp
p1264
aVpowerpc64
p1265
asg229
I01
ss(Vbase
p1266
Vppc64
p1267
tp1268
(dp1269
Vdefault-flavour
p1270
Vpowerpc64
p1271
sVkernel-arch
p1272
Vpowerpc
p1273
sg189
(lp1274
g191
ass(Vbuild
p1275
g1267
tp1276
(dp1277
Vimage-file
p1278
Vvmlinux
p1279
sVvdso
p1280
I01
ss(Vimage
p1281
g1267
tp1282
(dp1283
Vconfigs
p1284
(lp1285
sVbootloaders
p1286
(lp1287
Vgrub-ieee1275
p1288
asVsuggests
p1289
(lp1290
Vmkvmlinuz
p1291
asVinstall-stem
p1292
Vvmlinux
p1293
ss(Vdescription
p1294
g1267
NVpowerpc64
p1295
tp1296
(dp1297
Vhardware
p1298
V64-bit PowerPC
p1299
ss(Vimage
p1300
g1267
NVpowerpc64
p1301
tp1302
(dp1303
Vconfigs
p1304
(lp1305
Vkernelarch-powerpc/config-arch-64
p1306
aVkernelarch-powerpc/config-arch-64-be
p1307
ass(g222
g1267
g191
tp1308
(dp1309
g225
(lp1310
Vpowerpc64
p1311
asg229
I01
ss(Vbase
p1312
Vppc64el
p1313
tp1314
(dp1315
Vdefault-flavour
p1316
Vpowerpc64le
p1317
sVkernel-arch
p1318
Vpowerpc
p1319
sg189
(lp1320
g191
ass(Vbuild
p1321
g1313
tp1322
(dp1323
Vimage-file
p1324
Vvmlinux
p1325
sVvdso
p1326
I01
ss(Vimage
p1327
g1313
tp1328
(dp1329
Vconfigs
p1330
(lp1331
sVbootloaders
p1332
(lp1333
Vgrub-ieee1275
p1334
asVsuggests
p1335
(lp1336
Vmkvmlinuz
p1337
asVinstall-stem
p1338
Vvmlinux
p1339
ss(Vdescription
p1340
g1313
NVpowerpc64le
p1341
tp1342
(dp1343
Vhardware
p1344
VLittle-endian 64-bit PowerPC
p1345
ss(Vimage
p1346
g1313
NVpowerpc64le
p1347
tp1348
(dp1349
Vconfigs
p1350
(lp1351
Vkernelarch-powerpc/config-arch-64
p1352
aVkernelarch-powerpc/config-arch-64-le
p1353
ass(g222
g1313
g191
tp1354
(dp1355
g225
(lp1356
Vpowerpc64le
p1357
asg229
I01
ss(Vbase
p1358
Vriscv64
p1359
tp1360
(dp1361
Vkernel-arch
p1362
Vriscv
p1363
sVfeaturesets
p1364
(lp1365
Vnone
p1366
ass(Vbuild
p1367
g1359
tp1368
(dp1369
Vimage-file
p1370
Varch/riscv/boot/Image
p1371
sVvdso
p1372
I01
ss(Vimage
p1373
g1359
tp1374
(dp1375
Vinstall-stem
p1376
Vvmlinux
p1377
ss(Vdescription
p1378
g1359
NVriscv64
p1379
tp1380
(dp1381
Vhardware
p1382
V64-bit RISC-V platforms
p1383
sVhardware-long
p1384
V64-bit RISC-V platforms
p1385
ss(Vbase
p1386
g1359
Vnone
p1387
tp1388
(dp1389
Vflavours
p1390
(lp1391
Vriscv64
p1392
asVdefault-flavour
p1393
Vriscv64
p1394
ss(Vbase
p1395
Vs390
p1396
tp1397
(dp1398
Vkernel-arch
p1399
Vs390
p1400
sVfeaturesets
p1401
(lp1402
ss(Vbase
p1403
Vs390x
p1404
tp1405
(dp1406
Vdefault-flavour
p1407
Vs390x
p1408
sVkernel-arch
p1409
Vs390
p1410
sg189
(lp1411
g191
ass(Vbuild
p1412
g1404
tp1413
(dp1414
Vimage-file
p1415
Varch/s390/boot/bzImage
p1416
sVvdso
p1417
I01
ss(Vimage
p1418
g1404
tp1419
(dp1420
Vbootloaders
p1421
(lp1422
Vs390-tools
p1423
asVinstall-stem
p1424
Vvmlinuz
p1425
ss(Vrelations
p1426
g1404
tp1427
(dp1428
Vheaders%gcc-10
p1429
Vlinux-compiler-gcc-10-s390
p1430
ss(Vdescription
p1431
g1404
NVs390x
p1432
tp1433
(dp1434
Vhardware
p1435
VIBM zSeries
p1436
ss(g222
g1404
g191
tp1437
(dp1438
g225
(lp1439
Vs390x
p1440
asg229
I01
ss(Vbase
p1441
Vsh3
p1442
tp1443
(dp1444
Vkernel-arch
p1445
Vsh
p1446
sVfeaturesets
p1447
(lp1448
ss(Vbase
p1449
Vsh4
p1450
tp1451
(dp1452
Vkernel-arch
p1453
Vsh
p1454
sg189
(lp1455
g191
ass(Vbuild
p1456
g1450
tp1457
(dp1458
Vimage-file
p1459
Varch/sh/boot/zImage
p1460
ss(Vimage
p1461
g1450
tp1462
(dp1463
Vinstall-stem
p1464
Vvmlinuz
p1465
ss(Vdescription
p1466
g1450
NVsh7751r
p1467
tp1468
(dp1469
Vhardware
p1470
Vsh7751r
p1471
sVhardware-long
p1472
VRenesas SH7751R R2D plus board
p1473
ss(Vdescription
p1474
g1450
NVsh7785lcr
p1475
tp1476
(dp1477
Vhardware
p1478
Vsh7785lcr
p1479
sVhardware-long
p1480
VRenesas SH7785 reference board
p1481
ss(Vimage
p1482
g1450
NVsh7785lcr
p1483
tp1484
(dp1485
Vrecommends
p1486
(lp1487
Vu-boot-tools
p1488
asVcheck-size
p1489
I4194304
ss(g222
g1450
g191
tp1490
(dp1491
g225
(lp1492
Vsh7751r
p1493
aVsh7785lcr
p1494
asg229
I01
ss(Vbase
p1495
Vsparc
p1496
tp1497
(dp1498
Vkernel-arch
p1499
Vsparc
p1500
sVfeaturesets
p1501
(lp1502
ss(Vbase
p1503
Vsparc64
p1504
tp1505
(dp1506
Vdefault-flavour
p1507
Vsparc64-smp
p1508
sVkernel-arch
p1509
Vsparc
p1510
sg189
(lp1511
g191
ass(Vbuild
p1512
g1504
tp1513
(dp1514
Vimage-file
p1515
Vvmlinux
p1516
ss(Vimage
p1517
g1504
tp1518
(dp1519
Vconfigs
p1520
(lp1521
sVbootloaders
p1522
(lp1523
Vgrub-ieee1275
p1524
asVsuggests
p1525
(lp1526
Vfdutils
p1527
asVinstall-stem
p1528
Vvmlinux
p1529
ss(Vdescription
p1530
g1504
NVsparc64
p1531
tp1532
(dp1533
Vhardware
p1534
Vuniprocessor 64-bit UltraSPARC
p1535
ss(Vimage
p1536
g1504
NVsparc64
p1537
tp1538
(dp1539
Vconfigs
p1540
(lp1541
Vkernelarch-sparc/config-up
p1542
ass(Vdescription
p1543
g1504
NVsparc64-smp
p1544
tp1545
(dp1546
Vhardware
p1547
Vmultiprocessor 64-bit UltraSPARC
p1548
ss(Vimage
p1549
g1504
NVsparc64-smp
p1550
tp1551
(dp1552
Vconfigs
p1553
(lp1554
Vkernelarch-sparc/config-smp
p1555
ass(g222
g1504
g191
tp1556
(dp1557
g225
(lp1558
Vsparc64
p1559
aVsparc64-smp
p1560
asg229
I01
ss(Vbase
p1561
Vx32
p1562
tp1563
(dp1564
Vkernel-arch
p1565
Vx86
p1566
sVfeaturesets
p1567
(lp1568
ss(Vabi
p1569
NVrt
p1570
tp1571
(dp1572
Vignore-changes
p1573
(lp1574
V*
p1575
ass(Vdescription
p1576
Ng1570
tp1577
(dp1578
Vpart-long-rt
p1579
VThis kernel includes the PREEMPT_RT realtime patch set.
p1580
sVpart-short-rt
p1581
VPREEMPT_RT
p1582
sVparts
p1583
(lp1584
Vrt
p1585
ass(Vversion
p1586
tp1587
(dp1588
Vsource
p1589
V5.10.191-1+rpi1
p1590
sVupstream
p1591
V5.10
p1592
sVabiname_base
p1593
V5.10.0
p1594
sVabiname
p1595
V5.10.0-25
p1596
ss.