cdebian_linux.config
ConfigCore
p0
(tRp1
(Vabi
p2
tp3
(dp4
Vabiname
p5
V3
p6
sVignore-changes
p7
(lp8
V__cpuhp_*
p9
aV__xive_vm_h_*
p10
aVbpf_analyzer
p11
aVcxl_*
p12
aVdax_flush
p13
aVieee80211_nullfunc_get
p14
aVinet_add_protocol
p15
aVinet_del_protocol
p16
aViommu_device_*
p17
aVkvm_async_pf_task_wait
p18
aVkvmppc_*
p19
aVmm_iommu_*
p20
aVmv_mbus_*
p21
aVperf_*
p22
aVregister_cxl_calls
p23
aVregister_key_type
p24
aVunregister_cxl_calls
p25
aV*_hw_breakpoint
p26
aVmodule:arch/x86/kvm/*
p27
aVmodule:drivers/crypto/ccp/*
p28
aVmodule:drivers/hv/*
p29
aVmodule:drivers/iio/common/hid-sensors/*
p30
aVmodule:drivers/iio/common/st_sensors/**
p31
aVmodule:drivers/mtd/nand/*
p32
aVmodule:drivers/net/wireless/**
p33
aVmodule:drivers/nvdimm/*
p34
aVmodule:drivers/power/supply/bq27xxx_battery
p35
aVmodule:drivers/scsi/cxgbi/*
p36
aVmodule:drivers/scsi/libiscs*
p37
aVmodule:drivers/scsi/qla2xxx/qla2xxx
p38
aVmodule:drivers/scsi/ufs/*
p39
aVmodule:drivers/target/**
p40
aVmodule:drivers/usb/chipidea/**
p41
aVmodule:drivers/usb/gadget/**
p42
aVmodule:drivers/usb/host/**
p43
aVmodule:drivers/usb/musb/**
p44
aVmodule:fs/nfs/**
p45
aVmodule:net/ceph/libceph
p46
aVmodule:net/l2tp/**
p47
aVmodule:net/rxrpc/rxrpc
p48
aVmodule:sound/core/seq/**
p49
aVmodule:sound/firewire/snd-firewire-lib
p50
aVbtree_*
p51
aVvisitor*
p52
aVcan_rx_register
p53
aVip6_xmit
p54
aVmodule:net/dccp/dccp
p55
aVmodule:net/rds/rds
p56
aVdevfreq_*
p57
aVdevm_devfreq_*
p58
aVupdate_devfreq
p59
aVmodule:drivers/infiniband/**
p60
aVacpi_ec_add_query_handler
p61
aVacpi_ec_remove_query_handler
p62
aVfirst_ec
p63
aVdebugfs_create_automount
p64
aVmodule:drivers/iio/imu/inv_mpu6050/*
p65
ass(Vbase
p66
tp67
(dp68
Varches
p69
(lp70
Valpha
p71
aVamd64
p72
aVarm64
p73
aVarm64ilp32
p74
aVarmel
p75
aVarmhf
p76
aVhppa
p77
aVi386
p78
aVm68k
p79
aVmips
p80
aVmips64
p81
aVmips64el
p82
aVmips64r6
p83
aVmips64r6el
p84
aVmipsel
p85
aVmipsn32
p86
aVmipsn32el
p87
aVmipsn32r6
p88
aVmipsn32r6el
p89
aVmipsr6
p90
aVmipsr6el
p91
aVpowerpc
p92
aVpowerpcspe
p93
aVppc64
p94
aVppc64el
p95
aVs390
p96
aVs390x
p97
aVsh3
p98
aVsh4
p99
aVsparc
p100
aVsparc64
p101
aVtilegx
p102
aVx32
p103
asVcompiler
p104
Vgcc-7
p105
sVfeaturesets
p106
(lp107
Vnone
p108
aVrt
p109
ass(Vbuild
p110
tp111
(dp112
Vdebug-info
p113
I01
sVsigned-modules
p114
I00
ss(Vbase
p115
NVrt
p116
tp117
(dp118
Venabled
p119
I00
ss(Vdescription
p120
tp121
(dp122
Vpart-long-up
p123
VThis kernel is not suitable for SMP (multi-processor,\u000amulti-core or hyper-threaded) systems.
p124
ss(Vimage
p125
tp126
(dp127
Vinitramfs-generators
p128
(lp129
Vinitramfs-tools
p130
aVinitramfs-fallback
p131
asVrecommends
p132
Vapparmor
p133
ss(Vrelations
p134
tp135
(dp136
Vgcc-7
p137
Vgcc-7 <!stage1 !cross>, gcc-7-@gnu-type-package@ <!stage1 cross>
p138
sVinitramfs-fallback
p139
Vlinux-initramfs-tool
p140
sVinitramfs-tools
p141
Vinitramfs-tools (>= 0.120+deb8u2)
p142
ss(Vbase
p143
Valpha
p144
tp145
(dp146
Vkernel-arch
p147
Valpha
p148
sVfeaturesets
p149
(lp150
Vnone
p151
ass(Vbuild
p152
g144
tp153
(dp154
Vimage-file
p155
Varch/alpha/boot/vmlinux.gz
p156
sVsigned-modules
p157
I00
ss(Vimage
p158
g144
tp159
(dp160
Vsuggests
p161
Vaboot, fdutils
p162
sVinstall-stem
p163
Vvmlinuz
p164
ss(Vdescription
p165
g144
NValpha-generic
p166
tp167
(dp168
Vhardware
p169
VAlpha
p170
sVhardware-long
p171
VDEC Alpha systems with extended kernel start address (Wildfire, Titan, Marvel)
p172
ss(Vdescription
p173
g144
NValpha-smp
p174
tp175
(dp176
Vhardware
p177
VAlpha SMP
p178
sVhardware-long
p179
VDEC Alpha SMP systems with extended kernel start address (Wildfire, Titan, Marvel)
p180
ss(Vbase
p181
g144
g151
tp182
(dp183
Vflavours
p184
(lp185
Valpha-generic
p186
aValpha-smp
p187
asVimplicit-flavour
p188
I01
ss(Vbase
p189
Vamd64
p190
tp191
(dp192
Vfeaturesets
p193
(lp194
Vnone
p195
aVrt
p196
asVkernel-arch
p197
Vx86
p198
ss(Vbuild
p199
g190
tp200
(dp201
Vdebug-info
p202
I01
sVimage-file
p203
Varch/x86/boot/bzImage
p204
sVvdso
p205
I01
ss(Vimage
p206
g190
tp207
(dp208
Vbootloaders
p209
(lp210
Vgrub-pc
p211
aVgrub-efi-amd64
p212
aVextlinux
p213
asVinstall-stem
p214
Vvmlinuz
p215
sVbreaks
p216
Vxserver-xorg-input-vmmouse (<< 1:13.0.99)
p217
ss(Vrelations
p218
g190
tp219
(dp220
Vgcc-7
p221
Vgcc-7 (>= 7.2.0-20~) <!stage1 !cross>, gcc-7-x86-64-linux-gnu (>= 7.2.0-20~) <!stage1 cross>
p222
sVheaders%gcc-7
p223
Vlinux-compiler-gcc-7-x86 (>= 4.14.17-1~)
p224
ss(Vdescription
p225
g190
NVamd64
p226
tp227
(dp228
Vhardware
p229
V64-bit PCs
p230
sVhardware-long
p231
VPCs with AMD64, Intel 64 or VIA Nano processors
p232
ss(Vdescription
p233
g190
NVcloud-amd64
p234
tp235
(dp236
Vhardware
p237
Vx86-64 cloud
p238
sVhardware-long
p239
VAmazon EC2, Google Compute Engine and Microsoft Azure cloud platforms
p240
ss(Vbase
p241
g190
Vnone
p242
tp243
(dp244
Vflavours
p245
(lp246
Vamd64
p247
aVcloud-amd64
p248
ass(Vbase
p249
g190
Vrt
p250
tp251
(dp252
Vflavours
p253
(lp254
Vamd64
p255
ass(Vbase
p256
Varm64
p257
tp258
(dp259
Vkernel-arch
p260
Varm64
p261
sVfeaturesets
p262
(lp263
Vnone
p264
ass(Vbuild
p265
g257
tp266
(dp267
Vdebug-info
p268
I01
sVimage-file
p269
Varch/arm64/boot/Image
p270
sVvdso
p271
I01
ss(Vimage
p272
g257
tp273
(dp274
Vinstall-stem
p275
Vvmlinuz
p276
sVbreaks
p277
Vlibmozjs185-1.0, libmozjs-24-0 (<< 24.2.0-5.1~)
p278
ss(Vdescription
p279
g257
NVarm64
p280
tp281
(dp282
Vhardware
p283
V64-bit ARMv8 machines
p284
ss(Vimage
p285
g257
NVarm64
p286
tp287
(dp288
s(Vbase
p289
g257
Vnone
p290
tp291
(dp292
Vflavours
p293
(lp294
Varm64
p295
ass(Vbase
p296
Varm64ilp32
p297
tp298
(dp299
Vkernel-arch
p300
Varm64
p301
sVfeaturesets
p302
(lp303
ss(Vbase
p304
Varmel
p305
tp306
(dp307
Vkernel-arch
p308
Varm
p309
sg149
(lp310
g151
ass(Vbuild
p311
g305
tp312
(dp313
Vimage-file
p314
Varch/arm/boot/zImage
p315
sVsigned-modules
p316
I00
sVuncompressed-image-file
p317
Varch/arm/boot/Image
p318
ss(Vimage
p319
g305
tp320
(dp321
Vinstall-stem
p322
Vvmlinuz
p323
ss(Vrelations
p324
g305
tp325
(dp326
Vheaders%gcc-7
p327
Vlinux-compiler-gcc-7-arm
p328
ss(Vdescription
p329
g305
NVmarvell
p330
tp331
(dp332
Vhardware
p333
VMarvell Kirkwood/Orion
p334
sVhardware-long
p335
VMarvell Kirkwood and Orion based systems (https://wiki.debian.org/ArmEabiPort#Supported_hardware)
p336
ss(Vimage
p337
g305
NVmarvell
p338
tp339
(dp340
Vrecommends
p341
Vu-boot-tools
p342
sVcheck-size
p343
L2097080L
sVcheck-size-with-dtb
p344
I01
sVcheck-uncompressed-size
p345
L7340032L
sVbreaks
p346
Vflash-kernel (<< 3.57~)
p347
ss(g181
g305
g151
tp348
(dp349
g184
(lp350
Vmarvell
p351
asg188
I01
ss(Vbase
p352
Varmhf
p353
tp354
(dp355
Vkernel-arch
p356
Varm
p357
sg149
(lp358
g151
ass(Vbuild
p359
g353
tp360
(dp361
Vimage-file
p362
Varch/arm/boot/zImage
p363
sVvdso
p364
I01
ss(Vimage
p365
g353
tp366
(dp367
Vinstall-stem
p368
Vvmlinuz
p369
ss(Vrelations
p370
g353
tp371
(dp372
Vheaders%gcc-7
p373
Vlinux-compiler-gcc-7-arm
p374
ss(Vdescription
p375
g353
NVarmmp
p376
tp377
(dp378
Vhardware
p379
VARMv7 multiplatform compatible SoCs
p380
sVhardware-long
p381
VARMv7 multiplatform kernel. See\u000ahttps://wiki.debian.org/DebianKernel/ARMMP for details of supported\u000aplatforms
p382
ss(Vdescription
p383
g353
NVarmmp-lpae
p384
tp385
(dp386
Vhardware
p387
VARMv7 multiplatform compatible SoCs supporting LPAE
p388
sVhardware-long
p389
VARMv7 multiplatform kernel supporting LPAE. See\u000ahttps://wiki.debian.org/DebianKernel/ARMMP for details of supported\u000aplatforms.
p390
ss(g181
g353
g151
tp391
(dp392
g184
(lp393
Varmmp
p394
aVarmmp-lpae
p395
asg188
I01
ss(Vbase
p396
Vhppa
p397
tp398
(dp399
Vkernel-arch
p400
Vparisc
p401
sg149
(lp402
g151
ass(Vbuild
p403
g397
tp404
(dp405
Vimage-file
p406
Vvmlinux
p407
sVsigned-modules
p408
I00
ss(Vimage
p409
g397
tp410
(dp411
Vsuggests
p412
Vpalo
p413
sVinstall-stem
p414
Vvmlinux
p415
ss(Vdescription
p416
g397
NVparisc
p417
tp418
(dp419
Vhardware
p420
V32-bit PA-RISC
p421
sVhardware-long
p422
VHP PA-RISC 32-bit systems with max 4 GB RAM
p423
ss(Vbase
p424
g397
NVparisc64-smp
p425
tp426
(dp427
Vcflags
p428
V-fno-cse-follow-jumps
p429
sVoverride-host-type
p430
Vhppa64-linux-gnu
p431
ss(Vdescription
p432
g397
NVparisc64-smp
p433
tp434
(dp435
Vhardware
p436
Vmultiprocessor 64-bit PA-RISC
p437
sVhardware-long
p438
VHP PA-RISC 64-bit SMP systems with support for more than 4 GB RAM
p439
ss(Vrelations
p440
g397
tp441
(dp442
Vgcc-7
p443
Vgcc-7 <!stage1 !cross>, binutils-hppa64-linux-gnu <!stage1 !cross>, gcc-7-hppa64-linux-gnu <!stage1 !cross>, gcc-7-hppa-linux-gnu <!stage1 cross>, binutils-hppa64-linux-gnu <!stage1 cross>, gcc-7-hppa64-linux-gnu <!stage1 cross>
p444
ss(g181
g397
g151
tp445
(dp446
g184
(lp447
Vparisc
p448
aVparisc64-smp
p449
asg188
I01
ss(Vbase
p450
Vi386
p451
tp452
(dp453
Vfeaturesets
p454
(lp455
Vnone
p456
aVrt
p457
asVkernel-arch
p458
Vx86
p459
ss(Vbuild
p460
g451
tp461
(dp462
Vimage-file
p463
Varch/x86/boot/bzImage
p464
sVvdso
p465
I01
ss(Vdescription
p466
g451
tp467
(dp468
Vpart-long-pae
p469
VThis kernel requires PAE (Physical Address Extension).\u000aThis feature is supported by the Intel Pentium Pro/II/III/4/4M/D, Xeon,\u000aCore and Atom; AMD Geode NX, Athlon (K7), Duron, Opteron, Sempron,\u000aTurion or Phenom; Transmeta Efficeon; VIA C7; and some other processors.
p470
ss(Vimage
p471
g451
tp472
(dp473
Vbootloaders
p474
(lp475
Vgrub-pc
p476
aVextlinux
p477
asVinstall-stem
p478
Vvmlinuz
p479
sVbreaks
p480
Vxserver-xorg-input-vmmouse (<< 1:13.0.99)
p481
ss(Vrelations
p482
g451
tp483
(dp484
Vgcc-7
p485
Vgcc-7 (>= 7.2.0-20~) <!stage1 !cross>, gcc-7-i686-linux-gnu (>= 7.2.0-20~) <!stage1 cross>
p486
sVheaders%gcc-7
p487
Vlinux-compiler-gcc-7-x86 (>= 4.14.17-1~)
p488
ss(Vdescription
p489
g451
NV686
p490
tp491
(dp492
Vhardware
p493
Volder PCs
p494
sVhardware-long
p495
VPCs with one or more processors not supporting PAE
p496
ss(Vbuild
p497
g451
NV686-pae
p498
tp499
(dp500
Vdebug-info
p501
I01
ss(Vdescription
p502
g451
NV686-pae
p503
tp504
(dp505
Vhardware
p506
Vmodern PCs
p507
sVhardware-long
p508
VPCs with one or more processors supporting PAE
p509
sVparts
p510
(lp511
Vpae
p512
ass(Vbase
p513
g451
Vnone
p514
tp515
(dp516
Vflavours
p517
(lp518
V686
p519
aV686-pae
p520
ass(Vbase
p521
g451
Vrt
p522
tp523
(dp524
Vflavours
p525
(lp526
V686-pae
p527
ass(Vbase
p528
Vm68k
p529
tp530
(dp531
Vcflags
p532
V-ffreestanding
p533
sVkernel-arch
p534
Vm68k
p535
sg149
(lp536
g151
ass(Vbuild
p537
g529
tp538
(dp539
Vimage-file
p540
Vvmlinux
p541
sVsigned-modules
p542
I00
ss(Vimage
p543
g529
tp544
(dp545
Vsuggests
p546
Vvmelilo, fdutils
p547
sVinstall-stem
p548
Vvmlinux
p549
ss(Vdescription
p550
g529
NVm68k
p551
tp552
(dp553
Vhardware
p554
VMotorola MC68020+ family
p555
ss(g181
g529
g151
tp556
(dp557
g184
(lp558
Vm68k
p559
asg188
I01
ss(Vbase
p560
Vmips
p561
tp562
(dp563
Vkernel-arch
p564
Vmips
p565
sg149
(lp566
g151
ass(Vbuild
p567
g561
tp568
(dp569
Vimage-file
p570
Vvmlinux
p571
sVsigned-modules
p572
I00
ss(Vimage
p573
g561
tp574
(dp575
Vinstall-stem
p576
Vvmlinux
p577
ss(Vdescription
p578
g561
NV4kc-malta
p579
tp580
(dp581
Vhardware
p582
VMIPS Malta
p583
sVhardware-long
p584
VMIPS Malta boards
p585
ss(Vimage
p586
g561
NV4kc-malta
p587
tp588
(dp589
Vconfigs
p590
(lp591
Vkernelarch-mips/config.malta
p592
aVkernelarch-mips/config.mips32r2
p593
ass(Vdescription
p594
g561
NV5kc-malta
p595
tp596
(dp597
Vhardware
p598
VMIPS Malta (64-bit)
p599
sVhardware-long
p600
VMIPS Malta boards (64-bit)
p601
ss(Vimage
p602
g561
NV5kc-malta
p603
tp604
(dp605
Vconfigs
p606
(lp607
Vkernelarch-mips/config.malta
p608
aVkernelarch-mips/config.mips64r2
p609
ass(Vdescription
p610
g561
NVocteon
p611
tp612
(dp613
Vhardware
p614
VOcteon
p615
sVhardware-long
p616
VCavium Networks Octeon
p617
ss(Vimage
p618
g561
NVocteon
p619
tp620
(dp621
Vconfigs
p622
(lp623
Vkernelarch-mips/config.octeon
p624
ass(g181
g561
g151
tp625
(dp626
g184
(lp627
V4kc-malta
p628
aV5kc-malta
p629
aVocteon
p630
asg188
I01
ss(Vbase
p631
Vmips64
p632
tp633
(dp634
Vkernel-arch
p635
Vmips
p636
sg149
(lp637
g151
ass(Vbuild
p638
g632
tp639
(dp640
Vimage-file
p641
Vvmlinux
p642
sVsigned-modules
p643
I00
ss(Vimage
p644
g632
tp645
(dp646
Vinstall-stem
p647
Vvmlinux
p648
ss(Vdescription
p649
g632
NV5kc-malta
p650
tp651
(dp652
Vhardware
p653
VMIPS Malta
p654
sVhardware-long
p655
VMIPS Malta boards
p656
ss(Vimage
p657
g632
NV5kc-malta
p658
tp659
(dp660
Vconfigs
p661
(lp662
Vkernelarch-mips/config.malta
p663
aVkernelarch-mips/config.mips64r2
p664
ass(Vdescription
p665
g632
NVocteon
p666
tp667
(dp668
Vhardware
p669
VOcteon
p670
sVhardware-long
p671
VCavium Networks Octeon
p672
ss(Vimage
p673
g632
NVocteon
p674
tp675
(dp676
Vconfigs
p677
(lp678
Vkernelarch-mips/config.octeon
p679
ass(g181
g632
g151
tp680
(dp681
g184
(lp682
V5kc-malta
p683
aVocteon
p684
asg188
I01
ss(Vbase
p685
Vmips64el
p686
tp687
(dp688
Vkernel-arch
p689
Vmips
p690
sg149
(lp691
g151
ass(Vbuild
p692
g686
tp693
(dp694
Vimage-file
p695
Vvmlinux
p696
sVsigned-modules
p697
I00
ss(Vimage
p698
g686
tp699
(dp700
Vinstall-stem
p701
Vvmlinux
p702
ss(Vdescription
p703
g686
NV5kc-malta
p704
tp705
(dp706
Vhardware
p707
VMIPS Malta
p708
sVhardware-long
p709
VMIPS Malta boards
p710
ss(Vimage
p711
g686
NV5kc-malta
p712
tp713
(dp714
Vconfigs
p715
(lp716
Vkernelarch-mips/config.malta
p717
aVkernelarch-mips/config.mips64r2
p718
ass(Vdescription
p719
g686
NVloongson-3
p720
tp721
(dp722
Vhardware
p723
VLoongson 3A/3B
p724
sVhardware-long
p725
VLoongson 3A or 3B based systems (e.g. from Loongson or Lemote)
p726
ss(Vimage
p727
g686
NVloongson-3
p728
tp729
(dp730
Vconfigs
p731
(lp732
Vkernelarch-mips/config.loongson-3
p733
ass(Vdescription
p734
g686
NVocteon
p735
tp736
(dp737
Vhardware
p738
VOcteon
p739
sVhardware-long
p740
VCavium Networks Octeon
p741
ss(Vimage
p742
g686
NVocteon
p743
tp744
(dp745
Vconfigs
p746
(lp747
Vkernelarch-mips/config.octeon
p748
ass(g181
g686
g151
tp749
(dp750
g184
(lp751
V5kc-malta
p752
aVloongson-3
p753
aVocteon
p754
asg188
I01
ss(Vbase
p755
Vmips64r6
p756
tp757
(dp758
Vkernel-arch
p759
Vmips
p760
sg149
(lp761
g151
ass(Vbuild
p762
g756
tp763
(dp764
Vimage-file
p765
Vvmlinux
p766
sVsigned-modules
p767
I00
ss(Vimage
p768
g756
tp769
(dp770
Vinstall-stem
p771
Vvmlinux
p772
ss(Vdescription
p773
g756
NVmips64r6
p774
tp775
(dp776
Vhardware
p777
VMIPS R6 (64 bit, big endian)
p778
sVhardware-long
p779
VMIPS R6 (64 bit, big endian)
p780
ss(Vimage
p781
g756
NVmips64r6
p782
tp783
(dp784
Vconfigs
p785
(lp786
Vkernelarch-mips/config.malta
p787
aVkernelarch-mips/config.mips64r6
p788
ass(g181
g756
g151
tp789
(dp790
g184
(lp791
Vmips64r6
p792
asg188
I01
ss(Vbase
p793
Vmips64r6el
p794
tp795
(dp796
Vkernel-arch
p797
Vmips
p798
sg149
(lp799
g151
ass(Vbuild
p800
g794
tp801
(dp802
Vimage-file
p803
Vvmlinux
p804
sVsigned-modules
p805
I00
ss(Vimage
p806
g794
tp807
(dp808
Vinstall-stem
p809
Vvmlinux
p810
ss(Vdescription
p811
g794
NVmips64r6el
p812
tp813
(dp814
Vhardware
p815
VMIPS R6 (64 bit, little endian)
p816
sVhardware-long
p817
VMIPS R6 (64 bit, little endian)
p818
ss(Vimage
p819
g794
NVmips64r6el
p820
tp821
(dp822
Vconfigs
p823
(lp824
Vkernelarch-mips/config.malta
p825
aVkernelarch-mips/config.mips64r6
p826
ass(g181
g794
g151
tp827
(dp828
g184
(lp829
Vmips64r6el
p830
asg188
I01
ss(Vbase
p831
Vmipsel
p832
tp833
(dp834
Vkernel-arch
p835
Vmips
p836
sg149
(lp837
g151
ass(Vbuild
p838
g832
tp839
(dp840
Vimage-file
p841
Vvmlinux
p842
sVsigned-modules
p843
I00
ss(Vimage
p844
g832
tp845
(dp846
Vinstall-stem
p847
Vvmlinux
p848
ss(Vdescription
p849
g832
NV4kc-malta
p850
tp851
(dp852
Vhardware
p853
VMIPS Malta
p854
sVhardware-long
p855
VMIPS Malta boards
p856
ss(Vimage
p857
g832
NV4kc-malta
p858
tp859
(dp860
Vconfigs
p861
(lp862
Vkernelarch-mips/config.malta
p863
aVkernelarch-mips/config.mips32r2
p864
ass(Vdescription
p865
g832
NV5kc-malta
p866
tp867
(dp868
Vhardware
p869
VMIPS Malta (64-bit)
p870
sVhardware-long
p871
VMIPS Malta boards (64-bit)
p872
ss(Vimage
p873
g832
NV5kc-malta
p874
tp875
(dp876
Vconfigs
p877
(lp878
Vkernelarch-mips/config.malta
p879
aVkernelarch-mips/config.mips64r2
p880
ass(Vdescription
p881
g832
NVloongson-3
p882
tp883
(dp884
Vhardware
p885
VLoongson 3A/3B
p886
sVhardware-long
p887
VLoongson 3A or 3B based systems (e.g. from Loongson or Lemote)
p888
ss(Vimage
p889
g832
NVloongson-3
p890
tp891
(dp892
Vconfigs
p893
(lp894
Vkernelarch-mips/config.loongson-3
p895
ass(Vdescription
p896
g832
NVocteon
p897
tp898
(dp899
Vhardware
p900
VOcteon
p901
sVhardware-long
p902
VCavium Networks Octeon
p903
ss(Vimage
p904
g832
NVocteon
p905
tp906
(dp907
Vconfigs
p908
(lp909
Vkernelarch-mips/config.octeon
p910
ass(g181
g832
g151
tp911
(dp912
g184
(lp913
V4kc-malta
p914
aV5kc-malta
p915
aVloongson-3
p916
aVocteon
p917
asg188
I01
ss(Vbase
p918
Vmipsn32
p919
tp920
(dp921
Vkernel-arch
p922
Vmips
p923
sVfeaturesets
p924
(lp925
ss(Vbase
p926
Vmipsn32el
p927
tp928
(dp929
Vkernel-arch
p930
Vmips
p931
sVfeaturesets
p932
(lp933
ss(Vbase
p934
Vmipsn32r6
p935
tp936
(dp937
Vkernel-arch
p938
Vmips
p939
sVfeaturesets
p940
(lp941
ss(Vbase
p942
Vmipsn32r6el
p943
tp944
(dp945
Vkernel-arch
p946
Vmips
p947
sVfeaturesets
p948
(lp949
ss(Vbase
p950
Vmipsr6
p951
tp952
(dp953
Vkernel-arch
p954
Vmips
p955
sg149
(lp956
g151
ass(Vbuild
p957
g951
tp958
(dp959
Vimage-file
p960
Vvmlinux
p961
sVsigned-modules
p962
I00
ss(Vimage
p963
g951
tp964
(dp965
Vinstall-stem
p966
Vvmlinux
p967
ss(Vdescription
p968
g951
NVmips32r6
p969
tp970
(dp971
Vhardware
p972
VMIPS R6 (32 bit, big endian)
p973
sVhardware-long
p974
VMIPS R6 (32 bit, big endian)
p975
ss(Vimage
p976
g951
NVmips32r6
p977
tp978
(dp979
Vconfigs
p980
(lp981
Vkernelarch-mips/config.malta
p982
aVkernelarch-mips/config.mips32r6
p983
ass(Vdescription
p984
g951
NVmips64r6
p985
tp986
(dp987
Vhardware
p988
VMIPS R6 (64 bit, big endian)
p989
sVhardware-long
p990
VMIPS R6 (64 bit, big endian)
p991
ss(Vimage
p992
g951
NVmips64r6
p993
tp994
(dp995
Vconfigs
p996
(lp997
Vkernelarch-mips/config.malta
p998
aVkernelarch-mips/config.mips64r6
p999
ass(g181
g951
g151
tp1000
(dp1001
g184
(lp1002
Vmips32r6
p1003
aVmips64r6
p1004
asg188
I01
ss(Vbase
p1005
Vmipsr6el
p1006
tp1007
(dp1008
Vkernel-arch
p1009
Vmips
p1010
sg149
(lp1011
g151
ass(Vbuild
p1012
g1006
tp1013
(dp1014
Vimage-file
p1015
Vvmlinux
p1016
sVsigned-modules
p1017
I00
ss(Vimage
p1018
g1006
tp1019
(dp1020
Vinstall-stem
p1021
Vvmlinux
p1022
ss(Vdescription
p1023
g1006
NVmips32r6el
p1024
tp1025
(dp1026
Vhardware
p1027
VMIPS R6 (32 bit, little endian)
p1028
sVhardware-long
p1029
VMIPS R6 (32 bit, little endian)
p1030
ss(Vimage
p1031
g1006
NVmips32r6el
p1032
tp1033
(dp1034
Vconfigs
p1035
(lp1036
Vkernelarch-mips/config.malta
p1037
aVkernelarch-mips/config.mips32r6
p1038
ass(Vdescription
p1039
g1006
NVmips64r6el
p1040
tp1041
(dp1042
Vhardware
p1043
VMIPS R6 (64 bit, little endian)
p1044
sVhardware-long
p1045
VMIPS R6 (64 bit, little endian)
p1046
ss(Vimage
p1047
g1006
NVmips64r6el
p1048
tp1049
(dp1050
Vconfigs
p1051
(lp1052
Vkernelarch-mips/config.malta
p1053
aVkernelarch-mips/config.mips64r6
p1054
ass(g181
g1006
g151
tp1055
(dp1056
g184
(lp1057
Vmips32r6el
p1058
aVmips64r6el
p1059
asg188
I01
ss(Vbase
p1060
Vpowerpc
p1061
tp1062
(dp1063
Vkernel-arch
p1064
Vpowerpc
p1065
sg149
(lp1066
g151
ass(Vbuild
p1067
g1061
tp1068
(dp1069
Vimage-file
p1070
Vvmlinux
p1071
sVvdso
p1072
I01
ss(Vimage
p1073
g1061
tp1074
(dp1075
Vconfigs
p1076
(lp1077
sVsuggests
p1078
Vmkvmlinuz
p1079
sVinstall-stem
p1080
Vvmlinux
p1081
ss(Vdescription
p1082
g1061
NVpowerpc
p1083
tp1084
(dp1085
Vhardware
p1086
Vuniprocessor 32-bit PowerPC
p1087
ss(Vdescription
p1088
g1061
NVpowerpc-smp
p1089
tp1090
(dp1091
Vhardware
p1092
Vmultiprocessor 32-bit PowerPC
p1093
ss(Vimage
p1094
g1061
NVpowerpc-smp
p1095
tp1096
(dp1097
Vconfigs
p1098
(lp1099
Vpowerpc/config.powerpc
p1100
aVpowerpc/config.powerpc-smp
p1101
ass(Vdescription
p1102
g1061
NVpowerpc64
p1103
tp1104
(dp1105
Vhardware
p1106
V64-bit PowerPC
p1107
ss(Vimage
p1108
g1061
NVpowerpc64
p1109
tp1110
(dp1111
Vconfigs
p1112
(lp1113
Vkernelarch-powerpc/config-arch-64
p1114
aVkernelarch-powerpc/config-arch-64-be
p1115
ass(g181
g1061
g151
tp1116
(dp1117
g184
(lp1118
Vpowerpc
p1119
aVpowerpc-smp
p1120
aVpowerpc64
p1121
asg188
I01
ss(Vbase
p1122
Vpowerpcspe
p1123
tp1124
(dp1125
Vkernel-arch
p1126
Vpowerpc
p1127
sg149
(lp1128
g151
ass(Vbuild
p1129
g1123
tp1130
(dp1131
Vimage-file
p1132
Vvmlinux
p1133
sVsigned-modules
p1134
I00
sVvdso
p1135
I01
ss(Vimage
p1136
g1123
tp1137
(dp1138
Vsuggests
p1139
Vmkvmlinuz
p1140
sVinstall-stem
p1141
Vvmlinux
p1142
ss(Vdescription
p1143
g1123
tp1144
(dp1145
Vhardware
p1146
V32-bit PowerPC with SPE (instead of AltiVec) with SMP support
p1147
ss(g181
g1123
g151
tp1148
(dp1149
g184
(lp1150
Vpowerpcspe
p1151
asg188
I01
ss(Vbase
p1152
Vppc64
p1153
tp1154
(dp1155
Vkernel-arch
p1156
Vpowerpc
p1157
sg149
(lp1158
g151
ass(Vbuild
p1159
g1153
tp1160
(dp1161
Vimage-file
p1162
Vvmlinux
p1163
sVsigned-modules
p1164
I00
sVvdso
p1165
I01
ss(Vimage
p1166
g1153
tp1167
(dp1168
Vconfigs
p1169
(lp1170
sVsuggests
p1171
Vmkvmlinuz
p1172
sVinstall-stem
p1173
Vvmlinux
p1174
ss(Vdescription
p1175
g1153
NVpowerpc64
p1176
tp1177
(dp1178
Vhardware
p1179
V64-bit PowerPC
p1180
ss(Vimage
p1181
g1153
NVpowerpc64
p1182
tp1183
(dp1184
Vconfigs
p1185
(lp1186
Vkernelarch-powerpc/config-arch-64
p1187
aVkernelarch-powerpc/config-arch-64-be
p1188
ass(g181
g1153
g151
tp1189
(dp1190
g184
(lp1191
Vpowerpc64
p1192
asg188
I01
ss(Vbase
p1193
Vppc64el
p1194
tp1195
(dp1196
Vkernel-arch
p1197
Vpowerpc
p1198
sg149
(lp1199
g151
ass(Vbuild
p1200
g1194
tp1201
(dp1202
Vimage-file
p1203
Vvmlinux
p1204
sVvdso
p1205
I01
ss(Vimage
p1206
g1194
tp1207
(dp1208
Vconfigs
p1209
(lp1210
sVsuggests
p1211
Vmkvmlinuz
p1212
sVinstall-stem
p1213
Vvmlinux
p1214
ss(Vdescription
p1215
g1194
NVpowerpc64le
p1216
tp1217
(dp1218
Vhardware
p1219
VLittle-endian 64-bit PowerPC
p1220
ss(Vimage
p1221
g1194
NVpowerpc64le
p1222
tp1223
(dp1224
Vconfigs
p1225
(lp1226
Vkernelarch-powerpc/config-arch-64
p1227
aVkernelarch-powerpc/config-arch-64-le
p1228
ass(g181
g1194
g151
tp1229
(dp1230
g184
(lp1231
Vpowerpc64le
p1232
asg188
I01
ss(Vbase
p1233
Vs390
p1234
tp1235
(dp1236
Vkernel-arch
p1237
Vs390
p1238
sVfeaturesets
p1239
(lp1240
ss(Vbase
p1241
Vs390x
p1242
tp1243
(dp1244
Vkernel-arch
p1245
Vs390
p1246
sg149
(lp1247
g151
ass(Vbuild
p1248
g1242
tp1249
(dp1250
Vimage-file
p1251
Varch/s390/boot/image
p1252
sVvdso
p1253
I01
ss(Vimage
p1254
g1242
tp1255
(dp1256
Vbootloaders
p1257
(lp1258
Vs390-tools
p1259
asVinstall-stem
p1260
Vvmlinuz
p1261
ss(Vrelations
p1262
g1242
tp1263
(dp1264
Vheaders%gcc-7
p1265
Vlinux-compiler-gcc-7-s390
p1266
ss(Vbuild
p1267
g1242
NVs390x
p1268
tp1269
(dp1270
Vdebug-info
p1271
I01
ss(Vdescription
p1272
g1242
NVs390x
p1273
tp1274
(dp1275
Vhardware
p1276
VIBM zSeries
p1277
ss(g181
g1242
g151
tp1278
(dp1279
g184
(lp1280
Vs390x
p1281
asg188
I01
ss(Vbase
p1282
Vsh3
p1283
tp1284
(dp1285
Vkernel-arch
p1286
Vsh
p1287
sVfeaturesets
p1288
(lp1289
ss(Vbase
p1290
Vsh4
p1291
tp1292
(dp1293
Vkernel-arch
p1294
Vsh
p1295
sg149
(lp1296
g151
ass(Vbuild
p1297
g1291
tp1298
(dp1299
Vimage-file
p1300
Varch/sh/boot/zImage
p1301
sVsigned-modules
p1302
I00
ss(Vimage
p1303
g1291
tp1304
(dp1305
Vinstall-stem
p1306
Vvmlinuz
p1307
ss(Vdescription
p1308
g1291
NVsh7751r
p1309
tp1310
(dp1311
Vhardware
p1312
Vsh7751r
p1313
sVhardware-long
p1314
VRenesas SH7751R R2D plus board
p1315
ss(Vdescription
p1316
g1291
NVsh7785lcr
p1317
tp1318
(dp1319
Vhardware
p1320
Vsh7785lcr
p1321
sVhardware-long
p1322
VRenesas SH7785 reference board
p1323
ss(Vimage
p1324
g1291
NVsh7785lcr
p1325
tp1326
(dp1327
Vrecommends
p1328
Vu-boot-tools
p1329
sVcheck-size
p1330
L4194304L
ss(g181
g1291
g151
tp1331
(dp1332
g184
(lp1333
Vsh7751r
p1334
aVsh7785lcr
p1335
asg188
I01
ss(Vbase
p1336
Vsparc
p1337
tp1338
(dp1339
Vkernel-arch
p1340
Vsparc
p1341
sVfeaturesets
p1342
(lp1343
ss(Vbase
p1344
Vsparc64
p1345
tp1346
(dp1347
Vkernel-arch
p1348
Vsparc
p1349
sg149
(lp1350
g151
ass(Vbuild
p1351
g1345
tp1352
(dp1353
Vimage-file
p1354
Varch/sparc/boot/zImage
p1355
sVsigned-modules
p1356
I00
ss(Vimage
p1357
g1345
tp1358
(dp1359
Vconfigs
p1360
(lp1361
sVsuggests
p1362
Vsilo, fdutils
p1363
sVinstall-stem
p1364
Vvmlinuz
p1365
ss(Vdescription
p1366
g1345
NVsparc64
p1367
tp1368
(dp1369
Vhardware
p1370
Vuniprocessor 64-bit UltraSPARC
p1371
ss(Vimage
p1372
g1345
NVsparc64
p1373
tp1374
(dp1375
Vconfigs
p1376
(lp1377
Vkernelarch-sparc/config-up
p1378
ass(Vdescription
p1379
g1345
NVsparc64-smp
p1380
tp1381
(dp1382
Vhardware
p1383
Vmultiprocessor 64-bit UltraSPARC
p1384
ss(Vimage
p1385
g1345
NVsparc64-smp
p1386
tp1387
(dp1388
Vconfigs
p1389
(lp1390
Vkernelarch-sparc/config-smp
p1391
ass(g181
g1345
g151
tp1392
(dp1393
g184
(lp1394
Vsparc64
p1395
aVsparc64-smp
p1396
asg188
I01
ss(Vbase
p1397
Vtilegx
p1398
tp1399
(dp1400
Vkernel-arch
p1401
Vtile
p1402
sVfeaturesets
p1403
(lp1404
ss(Vbase
p1405
Vx32
p1406
tp1407
(dp1408
Vkernel-arch
p1409
Vx86
p1410
sVfeaturesets
p1411
(lp1412
ss(Vabi
p1413
NVrt
p1414
tp1415
(dp1416
Vignore-changes
p1417
(lp1418
V*
p1419
ass(Vdescription
p1420
Ng1414
tp1421
(dp1422
Vpart-long-rt
p1423
VThis kernel includes the PREEMPT_RT realtime patch set.
p1424
sVpart-short-rt
p1425
VPREEMPT_RT
p1426
sVparts
p1427
(lp1428
Vrt
p1429
ass(Vversion
p1430
tp1431
(dp1432
Vsource
p1433
V4.15.17-1
p1434
sVupstream
p1435
V4.15
p1436
sVabiname_base
p1437
V4.15.0
p1438
sVabiname
p1439
V4.15.0-3
p1440
ss.