cdebian_linux.config
ConfigCore
p0
(tRp1
(Vabi
p2
tp3
(dp4
Vabiname
p5
V3
p6
sVignore-changes
p7
(lp8
V__cpuhp_*
p9
aV__xive_vm_h_*
p10
aVbpf_analyzer
p11
aVcxl_*
p12
aVdax_flush
p13
aVieee80211_nullfunc_get
p14
aVinet_add_protocol
p15
aVinet_del_protocol
p16
aViommu_device_*
p17
aVkvm_async_pf_task_wait
p18
aVkvmppc_*
p19
aVmm_iommu_*
p20
aVmv_mbus_*
p21
aVperf_*
p22
aVregister_cxl_calls
p23
aVregister_key_type
p24
aVunregister_cxl_calls
p25
aV*_hw_breakpoint
p26
aVmodule:arch/x86/kvm/*
p27
aVmodule:drivers/crypto/ccp/*
p28
aVmodule:drivers/hv/*
p29
aVmodule:drivers/gpu/drm/sun4i/*
p30
aVmodule:drivers/iio/**
p31
aVmodule:drivers/misc/cxl/*
p32
aVmodule:drivers/mtd/nand/*
p33
aVmodule:drivers/net/ethernet/**
p34
aVmodule:drivers/net/wireless/**
p35
aVmodule:drivers/nvdimm/*
p36
aVmodule:drivers/power/supply/bq27xxx_battery
p37
aVmodule:drivers/scsi/cxgbi/*
p38
aVmodule:drivers/scsi/libiscs*
p39
aVmodule:drivers/scsi/qla2xxx/qla2xxx
p40
aVmodule:drivers/scsi/ufs/*
p41
aVmodule:drivers/target/**
p42
aVmodule:drivers/usb/chipidea/**
p43
aVmodule:drivers/usb/gadget/**
p44
aVmodule:drivers/usb/host/**
p45
aVmodule:drivers/usb/musb/**
p46
aVmodule:fs/nfs/**
p47
aVmodule:net/ceph/libceph
p48
aVmodule:net/l2tp/**
p49
aVmodule:net/rxrpc/rxrpc
p50
aVmodule:net/sctp/**
p51
aVmodule:sound/core/seq/**
p52
aVmodule:sound/firewire/snd-firewire-lib
p53
aVmodule:sound/pci/hda/*
p54
aVbtree_*
p55
aVvisitor*
p56
aVcan_rx_register
p57
aVip6_xmit
p58
aVmodule:net/dccp/dccp
p59
aVmodule:net/rds/rds
p60
aVdevfreq_*
p61
aVdevm_devfreq_*
p62
aVupdate_devfreq
p63
aVmodule:drivers/infiniband/**
p64
aVacpi_ec_add_query_handler
p65
aVacpi_ec_remove_query_handler
p66
aVfirst_ec
p67
aVdebugfs_create_automount
p68
aVmodule:drivers/iio/imu/inv_mpu6050/*
p69
aVdrm_crtc_accurate_vblank_count
p70
aVacpi_nfit_desc_init
p71
aVacpi_nfit_init
p72
aVloop_register_transfer
p73
aVxen_xlate_*
p74
aVnf_nat_masquerade_ipv4_register_notifier
p75
aVnf_nat_masquerade_ipv6_register_notifier
p76
aVmodule:drivers/scsi/hisi_sas/*
p77
ass(Vbase
p78
tp79
(dp80
Varches
p81
(lp82
Valpha
p83
aVamd64
p84
aVarm64
p85
aVarm64ilp32
p86
aVarmel
p87
aVarmhf
p88
aVhppa
p89
aVi386
p90
aVia64
p91
aVm68k
p92
aVmips
p93
aVmips64
p94
aVmips64el
p95
aVmips64r6
p96
aVmips64r6el
p97
aVmipsel
p98
aVmipsn32
p99
aVmipsn32el
p100
aVmipsn32r6
p101
aVmipsn32r6el
p102
aVmipsr6
p103
aVmipsr6el
p104
aVpowerpc
p105
aVpowerpcspe
p106
aVppc64
p107
aVppc64el
p108
aVriscv64
p109
aVs390
p110
aVs390x
p111
aVsh3
p112
aVsh4
p113
aVsparc
p114
aVsparc64
p115
aVx32
p116
asVcompiler
p117
Vgcc-8
p118
sVfeaturesets
p119
(lp120
Vnone
p121
aVrt
p122
ass(Vbuild
p123
tp124
(dp125
Vdebug-info
p126
I01
sVsigned-code
p127
I00
ss(Vbase
p128
NVrt
p129
tp130
(dp131
Venabled
p132
I01
ss(Vdescription
p133
tp134
(dp135
Vpart-long-up
p136
VThis kernel is not suitable for SMP (multi-processor,\u000amulti-core or hyper-threaded) systems.
p137
ss(Vimage
p138
tp139
(dp140
Vinitramfs-generators
p141
(lp142
Vinitramfs-tools
p143
aVinitramfs-fallback
p144
asVrecommends
p145
(lp146
Vapparmor
p147
ass(Vrelations
p148
tp149
(dp150
Vgcc-8
p151
Vgcc-8 <!stage1 !cross !pkg.linux.nokernel>, gcc-8-@gnu-type-package@ <!stage1 cross !pkg.linux.nokernel>
p152
sVinitramfs-fallback
p153
Vlinux-initramfs-tool
p154
sVinitramfs-tools
p155
Vinitramfs-tools (>= 0.120+deb8u2)
p156
ss(Vbase
p157
Valpha
p158
tp159
(dp160
Vkernel-arch
p161
Valpha
p162
sVfeaturesets
p163
(lp164
Vnone
p165
ass(Vbuild
p166
g158
tp167
(dp168
Vimage-file
p169
Varch/alpha/boot/vmlinux.gz
p170
ss(Vimage
p171
g158
tp172
(dp173
Vsuggests
p174
(lp175
Vaboot
p176
aVfdutils
p177
asVinstall-stem
p178
Vvmlinuz
p179
ss(Vdescription
p180
g158
NValpha-generic
p181
tp182
(dp183
Vhardware
p184
VAlpha
p185
sVhardware-long
p186
VDEC Alpha systems with extended kernel start address (Wildfire, Titan, Marvel)
p187
ss(Vdescription
p188
g158
NValpha-smp
p189
tp190
(dp191
Vhardware
p192
VAlpha SMP
p193
sVhardware-long
p194
VDEC Alpha SMP systems with extended kernel start address (Wildfire, Titan, Marvel)
p195
ss(Vbase
p196
g158
g165
tp197
(dp198
Vflavours
p199
(lp200
Valpha-generic
p201
aValpha-smp
p202
asVimplicit-flavour
p203
I01
ss(Vbase
p204
Vamd64
p205
tp206
(dp207
Vfeaturesets
p208
(lp209
Vnone
p210
aVrt
p211
asVkernel-arch
p212
Vx86
p213
ss(Vbuild
p214
g205
tp215
(dp216
Vdebug-info
p217
I01
sVimage-file
p218
Varch/x86/boot/bzImage
p219
sVsigned-code
p220
I01
sVvdso
p221
I01
ss(Vimage
p222
g205
tp223
(dp224
Vbootloaders
p225
(lp226
Vgrub-pc
p227
aVgrub-efi-amd64
p228
aVextlinux
p229
asVinstall-stem
p230
Vvmlinuz
p231
sVbreaks
p232
(lp233
Vxserver-xorg-input-vmmouse (<< 1:13.0.99)
p234
ass(Vrelations
p235
g205
tp236
(dp237
Vgcc-8
p238
Vgcc-8 (>= 8-20180123-1~) <!stage1 !cross !pkg.linux.nokernel>, gcc-8-x86-64-linux-gnu (>= 8-20180123-1~) <!stage1 cross !pkg.linux.nokernel>
p239
sVheaders%gcc-8
p240
Vlinux-compiler-gcc-8-x86
p241
ss(Vdescription
p242
g205
NVamd64
p243
tp244
(dp245
Vhardware
p246
V64-bit PCs
p247
sVhardware-long
p248
VPCs with AMD64, Intel 64 or VIA Nano processors
p249
ss(Vdescription
p250
g205
NVcloud-amd64
p251
tp252
(dp253
Vhardware
p254
Vx86-64 cloud
p255
sVhardware-long
p256
VAmazon EC2, Google Compute Engine and Microsoft Azure cloud platforms
p257
ss(Vbase
p258
g205
Vnone
p259
tp260
(dp261
Vflavours
p262
(lp263
Vamd64
p264
aVcloud-amd64
p265
ass(Vbase
p266
g205
Vrt
p267
tp268
(dp269
Vflavours
p270
(lp271
Vamd64
p272
ass(Vbase
p273
Varm64
p274
tp275
(dp276
Vkernel-arch
p277
Varm64
p278
sVfeaturesets
p279
(lp280
Vnone
p281
aVrt
p282
ass(Vbuild
p283
g274
tp284
(dp285
Vdebug-info
p286
I01
sVimage-file
p287
Varch/arm64/boot/Image
p288
sVsigned-code
p289
I01
sVvdso
p290
I01
ss(Vimage
p291
g274
tp292
(dp293
Vinstall-stem
p294
Vvmlinuz
p295
sVbreaks
p296
(lp297
Vlibmozjs185-1.0
p298
aVlibmozjs-24-0 (<< 24.2.0-5.1~)
p299
ass(Vdescription
p300
g274
NVarm64
p301
tp302
(dp303
Vhardware
p304
V64-bit ARMv8 machines
p305
ss(Vimage
p306
g274
NVarm64
p307
tp308
(dp309
s(Vbase
p310
g274
Vnone
p311
tp312
(dp313
Vflavours
p314
(lp315
Varm64
p316
ass(Vbase
p317
g274
Vrt
p318
tp319
(dp320
Vflavours
p321
(lp322
Varm64
p323
ass(Vbase
p324
Varm64ilp32
p325
tp326
(dp327
Vkernel-arch
p328
Varm64
p329
sVfeaturesets
p330
(lp331
ss(Vbase
p332
Varmel
p333
tp334
(dp335
Vkernel-arch
p336
Varm
p337
sg163
(lp338
g165
ass(Vbuild
p339
g333
tp340
(dp341
Vimage-file
p342
Varch/arm/boot/zImage
p343
sVuncompressed-image-file
p344
Varch/arm/boot/Image
p345
ss(Vimage
p346
g333
tp347
(dp348
Vinstall-stem
p349
Vvmlinuz
p350
ss(Vrelations
p351
g333
tp352
(dp353
Vheaders%gcc-8
p354
Vlinux-compiler-gcc-8-arm
p355
ss(Vdescription
p356
g333
NVmarvell
p357
tp358
(dp359
Vhardware
p360
VMarvell Kirkwood/Orion
p361
sVhardware-long
p362
VMarvell Kirkwood and Orion based systems (https://wiki.debian.org/ArmEabiPort#Supported_hardware)
p363
ss(Vdescription
p364
g333
NVrpi
p365
tp366
(dp367
Vhardware
p368
VRaspberry Pi and Pi Zero
p369
sVhardware-long
p370
VRaspberry Pi, Raspberry Pi Zero based systems
p371
ss(Vimage
p372
g333
NVmarvell
p373
tp374
(dp375
Vrecommends
p376
(lp377
Vu-boot-tools
p378
asVcheck-size
p379
I2729712
sVcheck-size-with-dtb
p380
I01
sVcheck-uncompressed-size
p381
I7340032
sVbreaks
p382
(lp383
Vflash-kernel (<< 3.57~)
p384
ass(g196
g333
g165
tp385
(dp386
g199
(lp387
Vmarvell
p388
aVrpi
p389
asg203
I01
ss(Vbase
p390
Varmhf
p391
tp392
(dp393
Vfeaturesets
p394
(lp395
sVkernel-arch
p396
Varm
p397
ss(Vbase
p398
Vhppa
p399
tp400
(dp401
Vkernel-arch
p402
Vparisc
p403
sg163
(lp404
g165
ass(Vbuild
p405
g399
tp406
(dp407
Vimage-file
p408
Varch/parisc/boot/bzImage
p409
sVdebug-info
p410
I00
ss(Vimage
p411
g399
tp412
(dp413
Vsuggests
p414
(lp415
Vpalo
p416
asVinstall-stem
p417
Vvmlinuz
p418
ss(Vdescription
p419
g399
NVparisc
p420
tp421
(dp422
Vhardware
p423
V32-bit PA-RISC
p424
sVhardware-long
p425
VHP PA-RISC 32-bit systems with max 4 GB RAM
p426
ss(Vbase
p427
g399
NVparisc64
p428
tp429
(dp430
Vcflags
p431
V-fno-cse-follow-jumps
p432
sVoverride-host-type
p433
Vhppa64-linux-gnu
p434
ss(Vdescription
p435
g399
NVparisc64
p436
tp437
(dp438
Vhardware
p439
V64-bit PA-RISC
p440
sVhardware-long
p441
VHP PA-RISC 64-bit systems with support for more than 4 GB RAM
p442
ss(Vrelations
p443
g399
tp444
(dp445
Vgcc-8
p446
Vgcc-8 <!stage1 !cross !pkg.linux.nokernel>, gcc-8-hppa-linux-gnu <!stage1 cross !pkg.linux.nokernel>, binutils-hppa64-linux-gnu <!stage1 !pkg.linux.nokernel>, gcc-8-hppa64-linux-gnu <!stage1 !pkg.linux.nokernel>
p447
ss(g196
g399
g165
tp448
(dp449
g199
(lp450
Vparisc
p451
aVparisc64
p452
asg203
I01
ss(Vbase
p453
Vi386
p454
tp455
(dp456
Vfeaturesets
p457
(lp458
Vnone
p459
aVrt
p460
asVkernel-arch
p461
Vx86
p462
ss(Vbuild
p463
g454
tp464
(dp465
Vimage-file
p466
Varch/x86/boot/bzImage
p467
sVsigned-code
p468
I01
sVvdso
p469
I01
ss(Vdescription
p470
g454
tp471
(dp472
Vpart-long-pae
p473
VThis kernel requires PAE (Physical Address Extension).\u000aThis feature is supported by the Intel Pentium Pro/II/III/4/4M/D, Xeon,\u000aCore and Atom; AMD Geode NX, Athlon (K7), Duron, Opteron, Sempron,\u000aTurion or Phenom; Transmeta Efficeon; VIA C7; and some other processors.
p474
ss(Vimage
p475
g454
tp476
(dp477
Vbootloaders
p478
(lp479
Vgrub-pc
p480
aVgrub-efi-ia32
p481
aVextlinux
p482
asVinstall-stem
p483
Vvmlinuz
p484
sVbreaks
p485
(lp486
Vxserver-xorg-input-vmmouse (<< 1:13.0.99)
p487
ass(Vrelations
p488
g454
tp489
(dp490
Vgcc-8
p491
Vgcc-8 (>= 8-20180123-1~) <!stage1 !cross !pkg.linux.nokernel>, gcc-8-i686-linux-gnu (>= 8-20180123-1~) <!stage1 cross !pkg.linux.nokernel>
p492
sVheaders%gcc-8
p493
Vlinux-compiler-gcc-8-x86
p494
ss(Vdescription
p495
g454
NV686
p496
tp497
(dp498
Vhardware
p499
Volder PCs
p500
sVhardware-long
p501
VPCs with one or more processors not supporting PAE
p502
ss(Vbuild
p503
g454
NV686-pae
p504
tp505
(dp506
Vdebug-info
p507
I01
ss(Vdescription
p508
g454
NV686-pae
p509
tp510
(dp511
Vhardware
p512
Vmodern PCs
p513
sVhardware-long
p514
VPCs with one or more processors supporting PAE
p515
sVparts
p516
(lp517
Vpae
p518
ass(Vbase
p519
g454
Vnone
p520
tp521
(dp522
Vflavours
p523
(lp524
V686
p525
aV686-pae
p526
ass(Vbase
p527
g454
Vrt
p528
tp529
(dp530
Vflavours
p531
(lp532
V686-pae
p533
ass(Vbase
p534
Via64
p535
tp536
(dp537
Vkernel-arch
p538
Via64
p539
sg163
(lp540
g165
ass(Vbuild
p541
g535
tp542
(dp543
Vimage-file
p544
Vvmlinux.gz
p545
ss(Vimage
p546
g535
tp547
(dp548
Vbootloaders
p549
(lp550
Vgrub-efi-ia64
p551
asVinstall-stem
p552
Vvmlinuz
p553
ss(Vdescription
p554
g535
NVitanium
p555
tp556
(dp557
Vhardware
p558
VItanium (Merced)
p559
sVhardware-long
p560
Vsystems with original Itanium (Merced) processors
p561
ss(Vdescription
p562
g535
NVmckinley
p563
tp564
(dp565
Vhardware
p566
VItanium 2+
p567
sVhardware-long
p568
Vsystems with Itanium 2 or 9300/9500/9700-series processors
p569
ss(g196
g535
g165
tp570
(dp571
g199
(lp572
Vitanium
p573
aVmckinley
p574
asg203
I01
ss(Vbase
p575
Vm68k
p576
tp577
(dp578
Vcflags
p579
V-ffreestanding
p580
sVkernel-arch
p581
Vm68k
p582
sg163
(lp583
g165
ass(Vbuild
p584
g576
tp585
(dp586
Vimage-file
p587
Vvmlinux
p588
ss(Vimage
p589
g576
tp590
(dp591
Vsuggests
p592
(lp593
Vvmelilo
p594
aVfdutils
p595
asVinstall-stem
p596
Vvmlinux
p597
ss(Vdescription
p598
g576
NVm68k
p599
tp600
(dp601
Vhardware
p602
VMotorola MC68020+ family
p603
ss(g196
g576
g165
tp604
(dp605
g199
(lp606
Vm68k
p607
asg203
I01
ss(Vbase
p608
Vmips
p609
tp610
(dp611
Vkernel-arch
p612
Vmips
p613
sg163
(lp614
g165
ass(Vbuild
p615
g609
tp616
(dp617
Vimage-file
p618
Vvmlinux
p619
ss(Vimage
p620
g609
tp621
(dp622
Vinstall-stem
p623
Vvmlinux
p624
ss(Vdescription
p625
g609
NV4kc-malta
p626
tp627
(dp628
Vhardware
p629
VMIPS Malta
p630
sVhardware-long
p631
VMIPS Malta boards
p632
ss(Vimage
p633
g609
NV4kc-malta
p634
tp635
(dp636
Vconfigs
p637
(lp638
Vkernelarch-mips/config.malta
p639
aVkernelarch-mips/config.mips32r2
p640
ass(Vdescription
p641
g609
NV5kc-malta
p642
tp643
(dp644
Vhardware
p645
VMIPS Malta (64-bit)
p646
sVhardware-long
p647
VMIPS Malta boards (64-bit)
p648
ss(Vimage
p649
g609
NV5kc-malta
p650
tp651
(dp652
Vconfigs
p653
(lp654
Vkernelarch-mips/config.malta
p655
aVkernelarch-mips/config.mips64r2
p656
ass(Vdescription
p657
g609
NVocteon
p658
tp659
(dp660
Vhardware
p661
VOcteon
p662
sVhardware-long
p663
VCavium Networks Octeon
p664
ss(Vimage
p665
g609
NVocteon
p666
tp667
(dp668
Vconfigs
p669
(lp670
Vkernelarch-mips/config.octeon
p671
ass(g196
g609
g165
tp672
(dp673
g199
(lp674
V4kc-malta
p675
aV5kc-malta
p676
aVocteon
p677
asg203
I01
ss(Vbase
p678
Vmips64
p679
tp680
(dp681
Vkernel-arch
p682
Vmips
p683
sg163
(lp684
g165
ass(Vbuild
p685
g679
tp686
(dp687
Vimage-file
p688
Vvmlinux
p689
ss(Vimage
p690
g679
tp691
(dp692
Vinstall-stem
p693
Vvmlinux
p694
ss(Vdescription
p695
g679
NV5kc-malta
p696
tp697
(dp698
Vhardware
p699
VMIPS Malta
p700
sVhardware-long
p701
VMIPS Malta boards
p702
ss(Vimage
p703
g679
NV5kc-malta
p704
tp705
(dp706
Vconfigs
p707
(lp708
Vkernelarch-mips/config.malta
p709
aVkernelarch-mips/config.mips64r2
p710
ass(Vdescription
p711
g679
NVocteon
p712
tp713
(dp714
Vhardware
p715
VOcteon
p716
sVhardware-long
p717
VCavium Networks Octeon
p718
ss(Vimage
p719
g679
NVocteon
p720
tp721
(dp722
Vconfigs
p723
(lp724
Vkernelarch-mips/config.octeon
p725
ass(g196
g679
g165
tp726
(dp727
g199
(lp728
V5kc-malta
p729
aVocteon
p730
asg203
I01
ss(Vbase
p731
Vmips64el
p732
tp733
(dp734
Vkernel-arch
p735
Vmips
p736
sg163
(lp737
g165
ass(Vbuild
p738
g732
tp739
(dp740
Vimage-file
p741
Vvmlinux
p742
ss(Vimage
p743
g732
tp744
(dp745
Vinstall-stem
p746
Vvmlinux
p747
ss(Vdescription
p748
g732
NV5kc-malta
p749
tp750
(dp751
Vhardware
p752
VMIPS Malta
p753
sVhardware-long
p754
VMIPS Malta boards
p755
ss(Vimage
p756
g732
NV5kc-malta
p757
tp758
(dp759
Vconfigs
p760
(lp761
Vkernelarch-mips/config.malta
p762
aVkernelarch-mips/config.mips64r2
p763
ass(Vdescription
p764
g732
NVloongson-3
p765
tp766
(dp767
Vhardware
p768
VLoongson 3A/3B
p769
sVhardware-long
p770
VLoongson 3A or 3B based systems (e.g. from Loongson or Lemote)
p771
ss(Vimage
p772
g732
NVloongson-3
p773
tp774
(dp775
Vconfigs
p776
(lp777
Vkernelarch-mips/config.loongson-3
p778
ass(Vdescription
p779
g732
NVocteon
p780
tp781
(dp782
Vhardware
p783
VOcteon
p784
sVhardware-long
p785
VCavium Networks Octeon
p786
ss(Vimage
p787
g732
NVocteon
p788
tp789
(dp790
Vconfigs
p791
(lp792
Vkernelarch-mips/config.octeon
p793
ass(g196
g732
g165
tp794
(dp795
g199
(lp796
V5kc-malta
p797
aVloongson-3
p798
aVocteon
p799
asg203
I01
ss(Vbase
p800
Vmips64r6
p801
tp802
(dp803
Vkernel-arch
p804
Vmips
p805
sg163
(lp806
g165
ass(Vbuild
p807
g801
tp808
(dp809
Vimage-file
p810
Vvmlinux
p811
ss(Vimage
p812
g801
tp813
(dp814
Vinstall-stem
p815
Vvmlinux
p816
ss(Vdescription
p817
g801
NVmips64r6
p818
tp819
(dp820
Vhardware
p821
VMIPS R6 (64 bit, big endian)
p822
sVhardware-long
p823
VMIPS R6 (64 bit, big endian)
p824
ss(Vimage
p825
g801
NVmips64r6
p826
tp827
(dp828
Vconfigs
p829
(lp830
Vkernelarch-mips/config.boston
p831
aVkernelarch-mips/config.mips64r6
p832
ass(g196
g801
g165
tp833
(dp834
g199
(lp835
Vmips64r6
p836
asg203
I01
ss(Vbase
p837
Vmips64r6el
p838
tp839
(dp840
Vkernel-arch
p841
Vmips
p842
sg163
(lp843
g165
ass(Vbuild
p844
g838
tp845
(dp846
Vimage-file
p847
Vvmlinux
p848
ss(Vimage
p849
g838
tp850
(dp851
Vinstall-stem
p852
Vvmlinux
p853
ss(Vdescription
p854
g838
NVmips64r6el
p855
tp856
(dp857
Vhardware
p858
VMIPS R6 (64 bit, little endian)
p859
sVhardware-long
p860
VMIPS R6 (64 bit, little endian)
p861
ss(Vimage
p862
g838
NVmips64r6el
p863
tp864
(dp865
Vconfigs
p866
(lp867
Vkernelarch-mips/config.boston
p868
aVkernelarch-mips/config.mips64r6
p869
ass(g196
g838
g165
tp870
(dp871
g199
(lp872
Vmips64r6el
p873
asg203
I01
ss(Vbase
p874
Vmipsel
p875
tp876
(dp877
Vkernel-arch
p878
Vmips
p879
sg163
(lp880
g165
ass(Vbuild
p881
g875
tp882
(dp883
Vimage-file
p884
Vvmlinux
p885
ss(Vimage
p886
g875
tp887
(dp888
Vinstall-stem
p889
Vvmlinux
p890
ss(Vdescription
p891
g875
NV4kc-malta
p892
tp893
(dp894
Vhardware
p895
VMIPS Malta
p896
sVhardware-long
p897
VMIPS Malta boards
p898
ss(Vimage
p899
g875
NV4kc-malta
p900
tp901
(dp902
Vconfigs
p903
(lp904
Vkernelarch-mips/config.malta
p905
aVkernelarch-mips/config.mips32r2
p906
ass(Vdescription
p907
g875
NV5kc-malta
p908
tp909
(dp910
Vhardware
p911
VMIPS Malta (64-bit)
p912
sVhardware-long
p913
VMIPS Malta boards (64-bit)
p914
ss(Vimage
p915
g875
NV5kc-malta
p916
tp917
(dp918
Vconfigs
p919
(lp920
Vkernelarch-mips/config.malta
p921
aVkernelarch-mips/config.mips64r2
p922
ass(Vdescription
p923
g875
NVloongson-3
p924
tp925
(dp926
Vhardware
p927
VLoongson 3A/3B
p928
sVhardware-long
p929
VLoongson 3A or 3B based systems (e.g. from Loongson or Lemote)
p930
ss(Vimage
p931
g875
NVloongson-3
p932
tp933
(dp934
Vconfigs
p935
(lp936
Vkernelarch-mips/config.loongson-3
p937
ass(Vdescription
p938
g875
NVocteon
p939
tp940
(dp941
Vhardware
p942
VOcteon
p943
sVhardware-long
p944
VCavium Networks Octeon
p945
ss(Vimage
p946
g875
NVocteon
p947
tp948
(dp949
Vconfigs
p950
(lp951
Vkernelarch-mips/config.octeon
p952
ass(g196
g875
g165
tp953
(dp954
g199
(lp955
V4kc-malta
p956
aV5kc-malta
p957
aVloongson-3
p958
aVocteon
p959
asg203
I01
ss(Vbase
p960
Vmipsn32
p961
tp962
(dp963
Vkernel-arch
p964
Vmips
p965
sVfeaturesets
p966
(lp967
ss(Vbase
p968
Vmipsn32el
p969
tp970
(dp971
Vkernel-arch
p972
Vmips
p973
sVfeaturesets
p974
(lp975
ss(Vbase
p976
Vmipsn32r6
p977
tp978
(dp979
Vkernel-arch
p980
Vmips
p981
sVfeaturesets
p982
(lp983
ss(Vbase
p984
Vmipsn32r6el
p985
tp986
(dp987
Vkernel-arch
p988
Vmips
p989
sVfeaturesets
p990
(lp991
ss(Vbase
p992
Vmipsr6
p993
tp994
(dp995
Vkernel-arch
p996
Vmips
p997
sg163
(lp998
g165
ass(Vbuild
p999
g993
tp1000
(dp1001
Vimage-file
p1002
Vvmlinux
p1003
ss(Vimage
p1004
g993
tp1005
(dp1006
Vinstall-stem
p1007
Vvmlinux
p1008
ss(Vdescription
p1009
g993
NVmips32r6
p1010
tp1011
(dp1012
Vhardware
p1013
VMIPS R6 (32 bit, big endian)
p1014
sVhardware-long
p1015
VMIPS R6 (32 bit, big endian)
p1016
ss(Vimage
p1017
g993
NVmips32r6
p1018
tp1019
(dp1020
Vconfigs
p1021
(lp1022
Vkernelarch-mips/config.boston
p1023
aVkernelarch-mips/config.mips32r6
p1024
ass(Vdescription
p1025
g993
NVmips64r6
p1026
tp1027
(dp1028
Vhardware
p1029
VMIPS R6 (64 bit, big endian)
p1030
sVhardware-long
p1031
VMIPS R6 (64 bit, big endian)
p1032
ss(Vimage
p1033
g993
NVmips64r6
p1034
tp1035
(dp1036
Vconfigs
p1037
(lp1038
Vkernelarch-mips/config.boston
p1039
aVkernelarch-mips/config.mips64r6
p1040
ass(g196
g993
g165
tp1041
(dp1042
g199
(lp1043
Vmips32r6
p1044
aVmips64r6
p1045
asg203
I01
ss(Vbase
p1046
Vmipsr6el
p1047
tp1048
(dp1049
Vkernel-arch
p1050
Vmips
p1051
sg163
(lp1052
g165
ass(Vbuild
p1053
g1047
tp1054
(dp1055
Vimage-file
p1056
Vvmlinux
p1057
ss(Vimage
p1058
g1047
tp1059
(dp1060
Vinstall-stem
p1061
Vvmlinux
p1062
ss(Vdescription
p1063
g1047
NVmips32r6el
p1064
tp1065
(dp1066
Vhardware
p1067
VMIPS R6 (32 bit, little endian)
p1068
sVhardware-long
p1069
VMIPS R6 (32 bit, little endian)
p1070
ss(Vimage
p1071
g1047
NVmips32r6el
p1072
tp1073
(dp1074
Vconfigs
p1075
(lp1076
Vkernelarch-mips/config.boston
p1077
aVkernelarch-mips/config.mips32r6
p1078
ass(Vdescription
p1079
g1047
NVmips64r6el
p1080
tp1081
(dp1082
Vhardware
p1083
VMIPS R6 (64 bit, little endian)
p1084
sVhardware-long
p1085
VMIPS R6 (64 bit, little endian)
p1086
ss(Vimage
p1087
g1047
NVmips64r6el
p1088
tp1089
(dp1090
Vconfigs
p1091
(lp1092
Vkernelarch-mips/config.boston
p1093
aVkernelarch-mips/config.mips64r6
p1094
ass(g196
g1047
g165
tp1095
(dp1096
g199
(lp1097
Vmips32r6el
p1098
aVmips64r6el
p1099
asg203
I01
ss(Vbase
p1100
Vpowerpc
p1101
tp1102
(dp1103
Vkernel-arch
p1104
Vpowerpc
p1105
sg163
(lp1106
g165
ass(Vbuild
p1107
g1101
tp1108
(dp1109
Vimage-file
p1110
Vvmlinux
p1111
sVvdso
p1112
I01
ss(Vimage
p1113
g1101
tp1114
(dp1115
Vconfigs
p1116
(lp1117
sVbootloaders
p1118
(lp1119
Vgrub-ieee1275
p1120
asVsuggests
p1121
(lp1122
Vmkvmlinuz
p1123
asVinstall-stem
p1124
Vvmlinux
p1125
ss(Vdescription
p1126
g1101
NVpowerpc
p1127
tp1128
(dp1129
Vhardware
p1130
Vuniprocessor 32-bit PowerPC
p1131
ss(Vdescription
p1132
g1101
NVpowerpc-smp
p1133
tp1134
(dp1135
Vhardware
p1136
Vmultiprocessor 32-bit PowerPC
p1137
ss(Vimage
p1138
g1101
NVpowerpc-smp
p1139
tp1140
(dp1141
Vconfigs
p1142
(lp1143
Vpowerpc/config.powerpc
p1144
aVpowerpc/config.powerpc-smp
p1145
ass(Vdescription
p1146
g1101
NVpowerpc64
p1147
tp1148
(dp1149
Vhardware
p1150
V64-bit PowerPC
p1151
ss(Vimage
p1152
g1101
NVpowerpc64
p1153
tp1154
(dp1155
Vconfigs
p1156
(lp1157
Vkernelarch-powerpc/config-arch-64
p1158
aVkernelarch-powerpc/config-arch-64-be
p1159
ass(g196
g1101
g165
tp1160
(dp1161
g199
(lp1162
Vpowerpc
p1163
aVpowerpc-smp
p1164
aVpowerpc64
p1165
asg203
I01
ss(Vbase
p1166
Vpowerpcspe
p1167
tp1168
(dp1169
Vkernel-arch
p1170
Vpowerpc
p1171
sg163
(lp1172
g165
ass(Vbuild
p1173
g1167
tp1174
(dp1175
Vimage-file
p1176
Vvmlinux
p1177
sVvdso
p1178
I01
ss(Vimage
p1179
g1167
tp1180
(dp1181
Vsuggests
p1182
(lp1183
Vmkvmlinuz
p1184
asVinstall-stem
p1185
Vvmlinux
p1186
ss(Vdescription
p1187
g1167
tp1188
(dp1189
Vhardware
p1190
V32-bit PowerPC with SPE (instead of AltiVec) with SMP support
p1191
ss(g196
g1167
g165
tp1192
(dp1193
g199
(lp1194
Vpowerpcspe
p1195
asg203
I01
ss(Vbase
p1196
Vppc64
p1197
tp1198
(dp1199
Vkernel-arch
p1200
Vpowerpc
p1201
sg163
(lp1202
g165
ass(Vbuild
p1203
g1197
tp1204
(dp1205
Vimage-file
p1206
Vvmlinux
p1207
sVvdso
p1208
I01
ss(Vimage
p1209
g1197
tp1210
(dp1211
Vconfigs
p1212
(lp1213
sVbootloaders
p1214
(lp1215
Vgrub-ieee1275
p1216
asVsuggests
p1217
(lp1218
Vmkvmlinuz
p1219
asVinstall-stem
p1220
Vvmlinux
p1221
ss(Vdescription
p1222
g1197
NVpowerpc64
p1223
tp1224
(dp1225
Vhardware
p1226
V64-bit PowerPC
p1227
ss(Vimage
p1228
g1197
NVpowerpc64
p1229
tp1230
(dp1231
Vconfigs
p1232
(lp1233
Vkernelarch-powerpc/config-arch-64
p1234
aVkernelarch-powerpc/config-arch-64-be
p1235
ass(g196
g1197
g165
tp1236
(dp1237
g199
(lp1238
Vpowerpc64
p1239
asg203
I01
ss(Vbase
p1240
Vppc64el
p1241
tp1242
(dp1243
Vkernel-arch
p1244
Vpowerpc
p1245
sg163
(lp1246
g165
ass(Vbuild
p1247
g1241
tp1248
(dp1249
Vimage-file
p1250
Vvmlinux
p1251
sVvdso
p1252
I01
ss(Vimage
p1253
g1241
tp1254
(dp1255
Vconfigs
p1256
(lp1257
sVbootloaders
p1258
(lp1259
Vgrub-ieee1275
p1260
asVsuggests
p1261
(lp1262
Vmkvmlinuz
p1263
asVinstall-stem
p1264
Vvmlinux
p1265
ss(Vdescription
p1266
g1241
NVpowerpc64le
p1267
tp1268
(dp1269
Vhardware
p1270
VLittle-endian 64-bit PowerPC
p1271
ss(Vimage
p1272
g1241
NVpowerpc64le
p1273
tp1274
(dp1275
Vconfigs
p1276
(lp1277
Vkernelarch-powerpc/config-arch-64
p1278
aVkernelarch-powerpc/config-arch-64-le
p1279
ass(g196
g1241
g165
tp1280
(dp1281
g199
(lp1282
Vpowerpc64le
p1283
asg203
I01
ss(Vbase
p1284
Vriscv64
p1285
tp1286
(dp1287
Vkernel-arch
p1288
Vriscv
p1289
sVfeaturesets
p1290
(lp1291
Vnone
p1292
ass(Vbuild
p1293
g1285
tp1294
(dp1295
Vimage-file
p1296
Varch/riscv/boot/Image
p1297
sVvdso
p1298
I01
ss(Vimage
p1299
g1285
tp1300
(dp1301
Vinstall-stem
p1302
Vvmlinux
p1303
ss(Vdescription
p1304
g1285
NVriscv64
p1305
tp1306
(dp1307
Vhardware
p1308
V64-bit RISC-V platforms
p1309
sVhardware-long
p1310
V64-bit RISC-V platforms
p1311
ss(Vbase
p1312
g1285
Vnone
p1313
tp1314
(dp1315
Vflavours
p1316
(lp1317
Vriscv64
p1318
ass(Vbase
p1319
Vs390
p1320
tp1321
(dp1322
Vkernel-arch
p1323
Vs390
p1324
sVfeaturesets
p1325
(lp1326
ss(Vbase
p1327
Vs390x
p1328
tp1329
(dp1330
Vkernel-arch
p1331
Vs390
p1332
sg163
(lp1333
g165
ass(Vbuild
p1334
g1328
tp1335
(dp1336
Vimage-file
p1337
Varch/s390/boot/bzImage
p1338
sVvdso
p1339
I01
ss(Vimage
p1340
g1328
tp1341
(dp1342
Vbootloaders
p1343
(lp1344
Vs390-tools
p1345
asVinstall-stem
p1346
Vvmlinuz
p1347
ss(Vrelations
p1348
g1328
tp1349
(dp1350
Vheaders%gcc-8
p1351
Vlinux-compiler-gcc-8-s390
p1352
ss(Vbuild
p1353
g1328
NVs390x
p1354
tp1355
(dp1356
Vdebug-info
p1357
I01
ss(Vdescription
p1358
g1328
NVs390x
p1359
tp1360
(dp1361
Vhardware
p1362
VIBM zSeries
p1363
ss(g196
g1328
g165
tp1364
(dp1365
g199
(lp1366
Vs390x
p1367
asg203
I01
ss(Vbase
p1368
Vsh3
p1369
tp1370
(dp1371
Vkernel-arch
p1372
Vsh
p1373
sVfeaturesets
p1374
(lp1375
ss(Vbase
p1376
Vsh4
p1377
tp1378
(dp1379
Vkernel-arch
p1380
Vsh
p1381
sg163
(lp1382
g165
ass(Vbuild
p1383
g1377
tp1384
(dp1385
Vimage-file
p1386
Varch/sh/boot/zImage
p1387
ss(Vimage
p1388
g1377
tp1389
(dp1390
Vinstall-stem
p1391
Vvmlinuz
p1392
ss(Vdescription
p1393
g1377
NVsh7751r
p1394
tp1395
(dp1396
Vhardware
p1397
Vsh7751r
p1398
sVhardware-long
p1399
VRenesas SH7751R R2D plus board
p1400
ss(Vdescription
p1401
g1377
NVsh7785lcr
p1402
tp1403
(dp1404
Vhardware
p1405
Vsh7785lcr
p1406
sVhardware-long
p1407
VRenesas SH7785 reference board
p1408
ss(Vimage
p1409
g1377
NVsh7785lcr
p1410
tp1411
(dp1412
Vrecommends
p1413
(lp1414
Vu-boot-tools
p1415
asVcheck-size
p1416
I4194304
ss(g196
g1377
g165
tp1417
(dp1418
g199
(lp1419
Vsh7751r
p1420
aVsh7785lcr
p1421
asg203
I01
ss(Vbase
p1422
Vsparc
p1423
tp1424
(dp1425
Vkernel-arch
p1426
Vsparc
p1427
sVfeaturesets
p1428
(lp1429
ss(Vbase
p1430
Vsparc64
p1431
tp1432
(dp1433
Vkernel-arch
p1434
Vsparc
p1435
sg163
(lp1436
g165
ass(Vbuild
p1437
g1431
tp1438
(dp1439
Vimage-file
p1440
Vvmlinux
p1441
ss(Vimage
p1442
g1431
tp1443
(dp1444
Vconfigs
p1445
(lp1446
sVbootloaders
p1447
(lp1448
Vgrub-ieee1275
p1449
asVsuggests
p1450
(lp1451
Vfdutils
p1452
asVinstall-stem
p1453
Vvmlinux
p1454
ss(Vdescription
p1455
g1431
NVsparc64
p1456
tp1457
(dp1458
Vhardware
p1459
Vuniprocessor 64-bit UltraSPARC
p1460
ss(Vimage
p1461
g1431
NVsparc64
p1462
tp1463
(dp1464
Vconfigs
p1465
(lp1466
Vkernelarch-sparc/config-up
p1467
ass(Vdescription
p1468
g1431
NVsparc64-smp
p1469
tp1470
(dp1471
Vhardware
p1472
Vmultiprocessor 64-bit UltraSPARC
p1473
ss(Vimage
p1474
g1431
NVsparc64-smp
p1475
tp1476
(dp1477
Vconfigs
p1478
(lp1479
Vkernelarch-sparc/config-smp
p1480
ass(g196
g1431
g165
tp1481
(dp1482
g199
(lp1483
Vsparc64
p1484
aVsparc64-smp
p1485
asg203
I01
ss(Vbase
p1486
Vx32
p1487
tp1488
(dp1489
Vkernel-arch
p1490
Vx86
p1491
sVfeaturesets
p1492
(lp1493
ss(Vabi
p1494
NVrt
p1495
tp1496
(dp1497
Vignore-changes
p1498
(lp1499
V*
p1500
ass(Vdescription
p1501
Ng1495
tp1502
(dp1503
Vpart-long-rt
p1504
VThis kernel includes the PREEMPT_RT realtime patch set.
p1505
sVpart-short-rt
p1506
VPREEMPT_RT
p1507
sVparts
p1508
(lp1509
Vrt
p1510
ass(Vversion
p1511
tp1512
(dp1513
Vsource
p1514
V5.2.17-1+rpi1
p1515
sVupstream
p1516
V5.2
p1517
sVabiname_base
p1518
V5.2.0
p1519
sVabiname
p1520
V5.2.0-3
p1521
ss.