ccopy_reg
_reconstructor
p0
(cdebian_linux.config
ConfigCore
p1
c__builtin__
dict
p2
(dp3
(S'description'
p4
S'i386'
p5
NS'amd64'
p6
tp7
(dp8
S'hardware'
p9
S'64-bit PCs'
p10
sS'parts'
p11
(lp12
S'xen'
p13
asS'hardware-long'
p14
S'PCs with AMD64, Intel 64 or VIA Nano processors'
p15
ss(S'image'
p16
S'amd64'
p17
tp18
(dp19
S'install-stem'
p20
S'vmlinuz'
p21
sS'configs'
p22
(lp23
sS'bootloaders'
p24
(lp25
S'grub-pc'
p26
aS'grub-efi'
p27
aS'extlinux'
p28
ass(S'image'
p29
S'sparc64'
p30
NS'sparc64-smp'
p31
tp32
(dp33
S'configs'
p34
(lp35
S'kernelarch-sparc/config-smp'
p36
ass(S'description'
p37
S'ppc64el'
p38
NS'powerpc64le'
p39
tp40
(dp41
S'hardware'
p42
S'Little-endian 64-bit PowerPC'
p43
ss(S'base'
p44
g17
S'none'
p45
tp46
(dp47
S'flavours'
p48
(lp49
S'amd64'
p50
ass(S'description'
p51
S'sparc'
p52
NS'sparc64'
p53
tp54
(dp55
S'hardware'
p56
S'uniprocessor 64-bit UltraSPARC'
p57
ss(S'image'
p58
S'ia64'
p59
tp60
(dp61
S'suggests'
p62
S'fdutils'
p63
sS'bootloaders'
p64
(lp65
S'elilo'
p66
asS'install-stem'
p67
S'vmlinuz'
p68
ss(S'image'
p69
S'mips'
p70
NS'r5k-ip32'
p71
tp72
(dp73
S'configs'
p74
(lp75
S'kernelarch-mips/config.r5k-ip32'
p76
ass(S'image'
p77
g5
NS'586'
p78
tp79
(dp80
S'configs'
p81
(lp82
S'kernelarch-x86/config-arch-32'
p83
aS'i386/config.586'
p84
ass(S'image'
p85
S'powerpc'
p86
NS'powerpc-smp'
p87
tp88
(dp89
S'configs'
p90
(lp91
S'powerpc/config.powerpc'
p92
aS'powerpc/config.powerpc-smp'
p93
ass(S'image'
p94
S'mips64'
p95
NS'5kc-malta'
p96
tp97
(dp98
S'configs'
p99
(lp100
S'kernelarch-mips/config.5kc-malta'
p101
ass(S'description'
p102
g17
g45
S'amd64'
p103
tp104
(dp105
S'parts'
p106
(lp107
S'xen'
p108
ass(S'description'
p109
S'sh4'
p110
NS'sh7785lcr'
p111
tp112
(dp113
S'hardware'
p114
S'sh7785lcr'
p115
sS'hardware-long'
p116
S'Renesas SH7785 reference board'
p117
ss(S'base'
p118
S'ppc64'
p119
S'none'
p120
tp121
(dp122
S'implicit-flavour'
p123
I01
sS'flavours'
p124
(lp125
S'powerpc64'
p126
ass(S'image'
p127
g70
NS'r4k-ip22'
p128
tp129
(dp130
S'configs'
p131
(lp132
S'kernelarch-mips/config.r4k-ip22'
p133
ass(S'image'
p134
S'armel'
p135
NS'kirkwood'
p136
tp137
(dp138
S'check-size'
p139
S'2097080'
p140
sS'breaks'
p141
S'flash-kernel (<< 3.14~)'
p142
sS'recommends'
p143
S'u-boot-tools'
p144
ss(S'description'
p145
S'm68k'
p146
NS'm68k'
p147
tp148
(dp149
S'hardware'
p150
S'Motorola MC68020+ family'
p151
ss(S'image'
p152
g70
NS'sb1-bcm91250a'
p153
tp154
(dp155
S'configs'
p156
(lp157
S'kernelarch-mips/config.sb1-bcm91250a'
p158
ass(S'base'
p159
S'alpha'
p160
tp161
(dp162
S'kernel-arch'
p163
S'alpha'
p164
sS'featuresets'
p165
(lp166
g120
ass(S'base'
p167
NS'rt'
p168
tp169
(dp170
S'enabled'
p171
I00
ss(g118
S'armhf'
p172
g120
tp173
(dp174
g123
I01
sg124
(lp175
S'armmp'
p176
aS'armmp-lpae'
p177
ass(S'description'
p178
g17
NS'amd64'
p179
tp180
(dp181
S'hardware'
p182
S'64-bit PCs'
p183
sS'hardware-long'
p184
S'PCs with AMD64, Intel 64 or VIA Nano processors'
p185
ss(S'description'
p186
g70
NS'sb1-bcm91250a'
p187
tp188
(dp189
S'hardware'
p190
S'BCM91250A'
p191
sS'hardware-long'
p192
S'Broadcom BCM91250A systems (aka SWARM)'
p193
ss(S'base'
p194
g5
S'rt'
p195
tp196
(dp197
S'flavours'
p198
(lp199
S'686-pae'
p200
ass(g118
g146
g120
tp201
(dp202
g123
I01
sg124
(lp203
S'm68k'
p204
ass(S'image'
p205
g38
tp206
(dp207
S'suggests'
p208
S'mkvmlinuz'
p209
sS'configs'
p210
(lp211
sS'install-stem'
p212
S'vmlinux'
p213
ss(S'relations'
p214
g5
tp215
(dp216
S'headers%gcc-4.9'
p217
S'linux-compiler-gcc-4.9-x86 (>= 3.16.51-3+deb8u2~), linux-kbuild-3.16 (>= 3.16.56-1)'
p218
ss(S'image'
p219
g86
tp220
(dp221
S'suggests'
p222
S'mkvmlinuz'
p223
sS'configs'
p224
(lp225
sS'install-stem'
p226
S'vmlinux'
p227
ss(S'base'
p228
g17
S'rt'
p229
tp230
(dp231
S'flavours'
p232
(lp233
S'amd64'
p234
ass(S'description'
p235
g70
NS'r5k-ip32'
p236
tp237
(dp238
S'hardware'
p239
S'SGI IP32'
p240
sS'hardware-long'
p241
S'SGI IP32 systems (O2)'
p242
ss(S'build'
p243
g38
tp244
(dp245
S'image-file'
p246
S'vmlinux'
p247
ss(S'build'
p248
g119
tp249
(dp250
S'image-file'
p251
S'vmlinux'
p252
ss(S'description'
p253
g5
S'none'
p254
S'amd64'
p255
tp256
(dp257
S'parts'
p258
(lp259
S'xen'
p260
ass(S'base'
p261
S'arm64'
p262
tp263
(dp264
S'kernel-arch'
p265
S'arm64'
p266
sS'featuresets'
p267
(lp268
S'none'
p269
ass(S'base'
p270
g5
tp271
(dp272
S'kernel-arch'
p273
S'x86'
p274
sS'featuresets'
p275
(lp276
S'none'
p277
aS'rt'
p278
asS'compiler'
p279
S'gcc-4.9'
p280
ss(S'base'
p281
S'mipsel'
p282
tp283
(dp284
S'kernel-arch'
p285
S'mips'
p286
sg165
(lp287
g120
ass(S'relations'
p288
g17
tp289
(dp290
S'headers%gcc-4.9'
p291
S'linux-compiler-gcc-4.9-x86 (>= 3.16.51-3+deb8u2~), linux-kbuild-3.16 (>= 3.16.56-1)'
p292
ss(g118
S'hppa'
p293
g120
tp294
(dp295
g123
I01
sg124
(lp296
S'parisc'
p297
aS'parisc64-smp'
p298
ass(S'description'
p299
g135
NS'kirkwood'
p300
tp301
(dp302
S'hardware'
p303
S'Marvell Kirkwood'
p304
sS'hardware-long'
p305
S'Marvell Kirkwood based systems (SheevaPlug, QNAP TS-119/TS-219, etc)'
p306
ss(S'base'
p307
g293
tp308
(dp309
S'kernel-arch'
p310
S'parisc'
p311
sg165
(lp312
g120
ass(S'image'
p313
g52
NS'sparc64-smp'
p314
tp315
(dp316
S'configs'
p317
(lp318
S'kernelarch-sparc/config-smp'
p319
ass(S'relations'
p320
S's390'
p321
tp322
(dp323
S'headers%gcc-4.8'
p324
S'linux-compiler-gcc-4.8-s390'
p325
ss(S'base'
p326
g293
NS'parisc64-smp'
p327
tp328
(dp329
S'override-host-type'
p330
S'hppa64-linux-gnu'
p331
sS'cflags'
p332
S'-fno-cse-follow-jumps'
p333
ss(S'description'
p334
g86
NS'powerpc64'
p335
tp336
(dp337
S'hardware'
p338
S'64-bit PowerPC'
p339
ss(S'image'
p340
S's390x'
p341
NS's390x'
p342
tp343
(dp344
S'configs'
p345
(lp346
S'kernelarch-s390/config-arch-64'
p347
ass(S'relations'
p348
tp349
(dp350
S'gcc-4.9'
p351
S'gcc-4.9 (>= 4.9.2-10+deb7u1), gcc-4.9 (<< 4.9.2-11)'
p352
sS'gcc-4.8'
p353
S'gcc-4.8'
p354
sS'initramfs-fallback'
p355
S'linux-initramfs-tool'
p356
sS'gcc-4.7'
p357
S'gcc-4.7'
p358
sS'gcc-4.6'
p359
S'gcc-4.6'
p360
sS'gcc-4.4'
p361
S'gcc-4.4'
p362
sS'initramfs-tools'
p363
S'initramfs-tools (>= 0.110~)'
p364
ss(S'build'
p365
g160
tp366
(dp367
S'image-file'
p368
S'arch/alpha/boot/vmlinux.gz'
p369
ss(S'description'
p370
g70
NS'4kc-malta'
p371
tp372
(dp373
S'hardware'
p374
S'MIPS Malta'
p375
sS'hardware-long'
p376
S'MIPS Malta boards'
p377
ss(S'image'
p378
g172
NS'armmp-lpae'
p379
tp380
(dp381
S'configs'
p382
(lp383
S'armhf/config.armmp'
p384
aS'armhf/config.lpae'
p385
ass(S'build'
p386
S'powerpcspe'
p387
tp388
(dp389
S'image-file'
p390
S'vmlinux'
p391
ss(g118
g110
g120
tp392
(dp393
g123
I01
sg124
(lp394
S'sh7751r'
p395
aS'sh7785lcr'
p396
ass(S'build'
p397
g293
tp398
(dp399
S'image-file'
p400
S'vmlinux'
p401
ss(S'build'
p402
S'mips64el'
p403
tp404
(dp405
S'image-file'
p406
S'vmlinux'
p407
ss(S'base'
p408
g172
tp409
(dp410
S'kernel-arch'
p411
S'arm'
p412
sg165
(lp413
g120
ass(S'image'
p414
g282
NS'sb1-bcm91250a'
p415
tp416
(dp417
S'configs'
p418
(lp419
S'kernelarch-mips/config.sb1-bcm91250a'
p420
ass(S'description'
p421
g341
NS's390x'
p422
tp423
(dp424
S'hardware'
p425
S'IBM zSeries'
p426
ss(S'description'
p427
g282
NS'4kc-malta'
p428
tp429
(dp430
S'hardware'
p431
S'MIPS Malta'
p432
sS'hardware-long'
p433
S'MIPS Malta boards'
p434
ss(S'base'
p435
g135
tp436
(dp437
S'kernel-arch'
p438
S'arm'
p439
sg165
(lp440
g120
ass(S'description'
p441
g262
NS'arm64'
p442
tp443
(dp444
S'hardware'
p445
S'64-bit ARMv8 machines'
p446
ss(S'build'
p447
g262
tp448
(dp449
S'debug-info'
p450
I01
sS'image-file'
p451
S'arch/arm64/boot/Image'
p452
ss(S'base'
p453
g52
tp454
(dp455
S'kernel-arch'
p456
S'sparc'
p457
sg165
(lp458
g120
ass(S'base'
p459
g387
tp460
(dp461
S'kernel-arch'
p462
S'powerpc'
p463
sg165
(lp464
g120
ass(S'description'
p465
g135
NS'orion5x'
p466
tp467
(dp468
S'hardware'
p469
S'Marvell Orion'
p470
sS'hardware-long'
p471
S'Marvell Orion 5181, 5182 and 5281 based systems (QNAP TS-109/TS-209, etc)'
p472
ss(S'image'
p473
g403
NS'octeon'
p474
tp475
(dp476
S'configs'
p477
(lp478
S'kernelarch-mips/config.octeon'
p479
ass(S'image'
p480
g5
NS'amd64'
p481
tp482
(dp483
S'configs'
p484
(lp485
S'kernelarch-x86/config-arch-64'
p486
asS'recommends'
p487
S'libc6-i686'
p488
ss(g118
g321
g120
tp489
(dp490
g123
I01
sg124
(lp491
S's390x'
p492
ass(S'base'
p493
S'or1k'
p494
tp495
(dp496
S'kernel-arch'
p497
S'openrisc'
p498
sS'featuresets'
p499
(lp500
ss(g118
g341
g120
tp501
(dp502
g123
I01
sg124
(lp503
S's390x'
p504
ass(S'base'
p505
g70
tp506
(dp507
S'kernel-arch'
p508
S'mips'
p509
sg165
(lp510
g120
ass(S'build'
p511
g17
tp512
(dp513
S'debug-info'
p514
I01
sS'image-file'
p515
S'arch/x86/boot/bzImage'
p516
ss(g118
g282
g120
tp517
(dp518
g123
I01
sg124
(lp519
S'sb1-bcm91250a'
p520
aS'4kc-malta'
p521
aS'5kc-malta'
p522
aS'loongson-2e'
p523
aS'loongson-2f'
p524
aS'loongson-3'
p525
ass(S'description'
p526
NS'rt'
p527
tp528
(dp529
S'part-long-rt'
p530
S'This kernel includes the PREEMPT_RT realtime patch set.'
p531
sS'parts'
p532
(lp533
S'rt'
p534
asS'part-short-rt'
p535
S'PREEMPT_RT'
p536
ss(S'build'
p537
g52
tp538
(dp539
S'image-file'
p540
S'arch/sparc/boot/zImage'
p541
ss(S'image'
p542
g282
tp543
(dp544
S'install-stem'
p545
S'vmlinux'
p546
ss(S'image'
p547
g52
NS'sparc64'
p548
tp549
(dp550
S'configs'
p551
(lp552
S'kernelarch-sparc/config-up'
p553
ass(S'description'
p554
g160
NS'alpha-smp'
p555
tp556
(dp557
S'hardware'
p558
S'Alpha SMP'
p559
sS'hardware-long'
p560
S'DEC Alpha SMP systems with extended kernel start address (Wildfire, Titan, Marvel)'
p561
ss(S'build'
p562
g341
NS's390x'
p563
tp564
(dp565
S'debug-info'
p566
I01
ss(S'build'
p567
g282
tp568
(dp569
S'image-file'
p570
S'vmlinux'
p571
ss(S'base'
p572
g95
tp573
(dp574
S'kernel-arch'
p575
S'mips'
p576
sg165
(lp577
g120
ass(S'base'
p578
g17
tp579
(dp580
S'kernel-arch'
p581
S'x86'
p582
sS'featuresets'
p583
(lp584
S'none'
p585
aS'rt'
p586
asS'compiler'
p587
S'gcc-4.9'
p588
ss(S'base'
p589
g59
tp590
(dp591
S'kernel-arch'
p592
S'ia64'
p593
sg165
(lp594
g120
asS'compiler'
p595
S'gcc-4.6'
p596
ss(S'image'
p597
g282
NS'loongson-2e'
p598
tp599
(dp600
S'configs'
p601
(lp602
S'kernelarch-mips/config.loongson-2e'
p603
ass(S'description'
p604
g5
NS'686-pae'
p605
tp606
(dp607
S'hardware'
p608
S'modern PCs'
p609
sS'parts'
p610
(lp611
S'pae'
p612
asS'hardware-long'
p613
S'PCs with one or more processors supporting PAE'
p614
ss(S'base'
p615
g321
tp616
(dp617
S'kernel-arch'
p618
S's390'
p619
sg165
(lp620
g120
ass(g118
g135
g120
tp621
(dp622
g123
I01
sg124
(lp623
S'ixp4xx'
p624
aS'kirkwood'
p625
aS'orion5x'
p626
aS'versatile'
p627
ass(S'description'
p628
g387
tp629
(dp630
S'hardware'
p631
S'32-bit PowerPC with SPE (instead of AltiVec) with SMP support'
p632
ss(S'description'
p633
g282
NS'loongson-2e'
p634
tp635
(dp636
S'hardware'
p637
S'Loongson 2E'
p638
sS'hardware-long'
p639
S'Lemote Loongson 2E systems'
p640
ss(S'description'
p641
g52
NS'sparc32'
p642
tp643
(dp644
S'hardware'
p645
S'uniprocessor sparc32 (sun4m)'
p646
ss(S'image'
p647
g70
NS'5kc-malta'
p648
tp649
(dp650
S'configs'
p651
(lp652
S'kernelarch-mips/config.5kc-malta'
p653
ass(S'description'
p654
g119
NS'powerpc64'
p655
tp656
(dp657
S'hardware'
p658
S'64-bit PowerPC'
p659
ss(S'image'
p660
g30
NS'sparc64'
p661
tp662
(dp663
S'configs'
p664
(lp665
S'kernelarch-sparc/config-up'
p666
ass(S'description'
p667
g5
tp668
(dp669
S'part-long-pae'
p670
S'This kernel requires PAE (Physical Address Extension).\nThis feature is supported by the Intel Pentium Pro/II/III/4/4M/D, Xeon,\nCore and Atom; AMD Geode NX, Athlon (K7), Duron, Opteron, Sempron,\nTurion or Phenom; Transmeta Efficeon; VIA C7; and some other processors.'
p671
ss(S'image'
p672
g172
tp673
(dp674
S'suggests'
p675
S'fdutils'
p676
sS'configs'
p677
(lp678
S'kernelarch-arm/config'
p679
aS'armhf/config'
p680
asS'install-stem'
p681
S'vmlinuz'
p682
ss(S'xen'
p683
g17
g45
S'amd64'
p684
tp685
(dp686
S'flavours'
p687
(lp688
S'amd64'
p689
ass(S'image'
p690
g135
tp691
(dp692
S'suggests'
p693
S'fdutils'
p694
sS'configs'
p695
(lp696
S'kernelarch-arm/config'
p697
aS'armel/config'
p698
asS'install-stem'
p699
S'vmlinuz'
p700
ss(S'image'
p701
g321
tp702
(dp703
S'install-stem'
p704
S'vmlinuz'
p705
sS'configs'
p706
(lp707
sS'bootloaders'
p708
(lp709
S's390-tools'
p710
ass(S'description'
p711
g172
NS'armmp-lpae'
p712
tp713
(dp714
S'hardware'
p715
S'ARMv7 multiplatform compatible SoCs supporting LPAE'
p716
sS'hardware-long'
p717
S'ARMv7 multiplatform kernel supporting LPAE. See\nhttps://wiki.debian.org/DebianKernel/ARMMP for details of supported\nplatforms.'
p718
ss(S'image'
p719
g293
tp720
(dp721
S'suggests'
p722
S'palo'
p723
sS'install-stem'
p724
S'vmlinux'
p725
ss(S'description'
p726
g172
NS'armmp'
p727
tp728
(dp729
S'hardware'
p730
S'ARMv7 multiplatform compatible SoCs'
p731
sS'hardware-long'
p732
S'ARMv7 multiplatform kernel. See\nhttps://wiki.debian.org/DebianKernel/ARMMP for details of supported\nplatforms'
p733
ss(g118
g95
g120
tp734
(dp735
g123
I01
sg124
(lp736
S'sb1-bcm91250a'
p737
aS'5kc-malta'
p738
aS'octeon'
p739
ass(S'relations'
p740
g293
tp741
(dp742
S'gcc-4.8'
p743
S'gcc-4.8, binutils-hppa64, gcc-4.8-hppa64'
p744
ss(S'image'
p745
g17
NS'amd64'
p746
tp747
(dp748
S'configs'
p749
(lp750
S'kernelarch-x86/config-arch-64'
p751
ass(S'image'
p752
g403
NS'loongson-3'
p753
tp754
(dp755
S'configs'
p756
(lp757
S'kernelarch-mips/config.loongson-3'
p758
ass(S'image'
p759
g403
NS'sb1-bcm91250a'
p760
tp761
(dp762
S'configs'
p763
(lp764
S'kernelarch-mips/config.sb1-bcm91250a'
p765
ass(S'description'
p766
g95
NS'sb1-bcm91250a'
p767
tp768
(dp769
S'hardware'
p770
S'BCM91250A'
p771
sS'hardware-long'
p772
S'Broadcom BCM91250A systems (aka SWARM)'
p773
ss(S'description'
p774
g110
NS'sh7751r'
p775
tp776
(dp777
S'hardware'
p778
S'sh7751r'
p779
sS'hardware-long'
p780
S'Renesas SH7751R R2D plus board'
p781
ss(S'description'
p782
g70
NS'5kc-malta'
p783
tp784
(dp785
S'hardware'
p786
S'MIPS Malta (64-bit)'
p787
sS'hardware-long'
p788
S'MIPS Malta boards (64-bit)'
p789
ss(S'image'
p790
g70
NS'octeon'
p791
tp792
(dp793
S'configs'
p794
(lp795
S'kernelarch-mips/config.octeon'
p796
ass(S'description'
p797
g321
NS's390x'
p798
tp799
(dp800
S'hardware'
p801
S'IBM zSeries'
p802
ss(S'image'
p803
g160
tp804
(dp805
S'suggests'
p806
S'aboot, fdutils'
p807
sS'install-stem'
p808
S'vmlinuz'
p809
ss(S'abi'
p810
Ng527
tp811
(dp812
S'ignore-changes'
p813
(lp814
S'*'
p815
ass(S'base'
p816
g30
tp817
(dp818
S'kernel-arch'
p819
S'sparc'
p820
sg165
(lp821
g120
ass(S'description'
p822
g86
NS'powerpc-smp'
p823
tp824
(dp825
S'hardware'
p826
S'multiprocessor 32-bit PowerPC'
p827
ss(S'version'
p828
tp829
(dp830
S'abiname'
p831
S'3.16.0-10'
p832
sS'source'
p833
V3.16.72-1
p834
sS'abiname_base'
p835
S'3.16.0'
p836
sS'upstream'
p837
S'3.16'
p838
ss(S'description'
p839
g95
NS'5kc-malta'
p840
tp841
(dp842
S'hardware'
p843
S'MIPS Malta'
p844
sS'hardware-long'
p845
S'MIPS Malta boards'
p846
ss(S'base'
p847
g341
tp848
(dp849
S'kernel-arch'
p850
S's390'
p851
sg165
(lp852
g120
ass(S'description'
p853
g293
NS'parisc'
p854
tp855
(dp856
S'hardware'
p857
S'32-bit PA-RISC'
p858
sS'hardware-long'
p859
S'HP PA-RISC 32-bit systems with max 4 GB RAM'
p860
ss(S'description'
p861
g70
NS'r4k-ip22'
p862
tp863
(dp864
S'hardware'
p865
S'SGI IP22'
p866
sS'hardware-long'
p867
S'SGI IP22 systems (Indy, Indigo2)'
p868
ss(S'image'
p869
g110
NS'sh7785lcr'
p870
tp871
(dp872
S'check-size'
p873
S'4194304'
p874
sS'recommends'
p875
S'u-boot-tools'
p876
ss(S'image'
p877
g119
tp878
(dp879
S'suggests'
p880
S'mkvmlinuz'
p881
sS'configs'
p882
(lp883
sS'install-stem'
p884
S'vmlinux'
p885
ss(S'image'
p886
g70
tp887
(dp888
S'install-stem'
p889
S'vmlinux'
p890
ss(S'image'
p891
g5
tp892
(dp893
S'install-stem'
p894
S'vmlinuz'
p895
sS'configs'
p896
(lp897
sS'bootloaders'
p898
(lp899
S'grub-pc'
p900
aS'extlinux'
p901
ass(g118
g52
g120
tp902
(dp903
g123
I01
sg124
(lp904
S'sparc64'
p905
aS'sparc64-smp'
p906
ass(S'relations'
p907
g86
tp908
(dp909
S'gcc-4.8'
p910
S'gcc-4.8 (>= 4.8.2-21)'
p911
ss(g118
g160
g120
tp912
(dp913
g123
I01
sg124
(lp914
S'alpha-generic'
p915
aS'alpha-smp'
p916
ass(S'description'
p917
g5
g254
S'686-pae'
p918
tp919
(dp920
S'parts'
p921
(lp922
S'xen'
p923
ass(S'base'
p924
S'x32'
p925
tp926
(dp927
S'kernel-arch'
p928
S'x86'
p929
sS'featuresets'
p930
(lp931
ss(S'base'
p932
g119
tp933
(dp934
S'kernel-arch'
p935
S'powerpc'
p936
sg165
(lp937
g120
ass(S'build'
p938
g341
tp939
(dp940
S'image-file'
p941
S'arch/s390/boot/image'
p942
ss(g118
g70
g120
tp943
(dp944
g123
I01
sg124
(lp945
S'r4k-ip22'
p946
aS'r5k-ip32'
p947
aS'sb1-bcm91250a'
p948
aS'4kc-malta'
p949
aS'5kc-malta'
p950
aS'octeon'
p951
ass(S'build'
p952
g70
tp953
(dp954
S'image-file'
p955
S'vmlinux'
p956
ss(S'description'
p957
g282
NS'sb1-bcm91250a'
p958
tp959
(dp960
S'hardware'
p961
S'BCM91250A'
p962
sS'hardware-long'
p963
S'Broadcom BCM91250A systems (aka SWARM)'
p964
ss(S'image'
p965
g282
NS'loongson-3'
p966
tp967
(dp968
S'configs'
p969
(lp970
S'kernelarch-mips/config.loongson-3'
p971
ass(S'image'
p972
g282
NS'4kc-malta'
p973
tp974
(dp975
S'configs'
p976
(lp977
S'kernelarch-mips/config.4kc-malta'
p978
ass(S'description'
p979
g282
NS'loongson-3'
p980
tp981
(dp982
S'hardware'
p983
S'Loongson 3A/3B'
p984
sS'hardware-long'
p985
S'Loongson 3A or 3B based systems (e.g. from Loongson or Lemote)'
p986
ss(S'image'
p987
g95
NS'octeon'
p988
tp989
(dp990
S'configs'
p991
(lp992
S'kernelarch-mips/config.octeon'
p993
ass(g118
g59
g120
tp994
(dp995
g123
I01
sg124
(lp996
S'itanium'
p997
aS'mckinley'
p998
ass(S'description'
p999
g160
NS'alpha-generic'
p1000
tp1001
(dp1002
S'hardware'
p1003
S'Alpha'
p1004
sS'hardware-long'
p1005
S'DEC Alpha systems with extended kernel start address (Wildfire, Titan, Marvel)'
p1006
ss(S'image'
p1007
g146
tp1008
(dp1009
S'suggests'
p1010
S'vmelilo, fdutils'
p1011
sS'install-stem'
p1012
S'vmlinuz'
p1013
ss(S'description'
p1014
g30
NS'sparc64'
p1015
tp1016
(dp1017
S'hardware'
p1018
S'uniprocessor 64-bit UltraSPARC'
p1019
ss(S'base'
p1020
g262
S'none'
p1021
tp1022
(dp1023
S'flavours'
p1024
(lp1025
S'arm64'
p1026
ass(S'build'
p1027
g95
tp1028
(dp1029
S'image-file'
p1030
S'vmlinux'
p1031
ss(S'build'
p1032
g172
tp1033
(dp1034
S'image-file'
p1035
S'arch/arm/boot/zImage'
p1036
ss(S'description'
p1037
g86
NS'powerpc'
p1038
tp1039
(dp1040
S'hardware'
p1041
S'uniprocessor 32-bit PowerPC'
p1042
ss(S'description'
p1043
g70
NS'octeon'
p1044
tp1045
(dp1046
S'hardware'
p1047
S'Octeon'
p1048
sS'hardware-long'
p1049
S'Cavium Networks Octeon'
p1050
ss(S'build'
p1051
g59
tp1052
(dp1053
S'image-file'
p1054
S'vmlinux.gz'
p1055
ss(S'image'
p1056
g262
NS'arm64'
p1057
tp1058
(dp1059
s(S'image'
p1060
g135
NS'orion5x'
p1061
tp1062
(dp1063
S'check-size'
p1064
S'1572792'
p1065
sS'configs'
p1066
(lp1067
S'armel/config-reduced'
p1068
aS'armel/config.orion5x'
p1069
asS'recommends'
p1070
S'u-boot-tools'
p1071
ss(S'description'
p1072
g135
NS'ixp4xx'
p1073
tp1074
(dp1075
S'hardware'
p1076
S'IXP4xx'
p1077
sS'hardware-long'
p1078
S'IXP4xx based systems (Linksys NSLU2, etc)'
p1079
ss(S'image'
p1080
g110
tp1081
(dp1082
S'suggests'
p1083
S'fdutils'
p1084
sS'install-stem'
p1085
S'vmlinuz'
p1086
ss(S'image'
p1087
g95
NS'sb1-bcm91250a'
p1088
tp1089
(dp1090
S'configs'
p1091
(lp1092
S'kernelarch-mips/config.sb1-bcm91250a'
p1093
ass(g118
g403
g120
tp1094
(dp1095
g123
I01
sg124
(lp1096
S'sb1-bcm91250a'
p1097
aS'5kc-malta'
p1098
aS'loongson-3'
p1099
aS'octeon'
p1100
ass(S'image'
p1101
g52
tp1102
(dp1103
S'suggests'
p1104
S'silo, fdutils'
p1105
sS'configs'
p1106
(lp1107
sS'install-stem'
p1108
S'vmlinuz'
p1109
ss(S'description'
p1110
tp1111
(dp1112
S'part-long-up'
p1113
S'This kernel is not suitable for SMP (multi-processor,\nmulti-core or hyper-threaded) systems.'
p1114
sS'part-long-xen'
p1115
S'This kernel also runs on a Xen hypervisor.\nIt supports both privileged (dom0) and unprivileged (domU) operation.'
p1116
ss(S'build'
p1117
g30
tp1118
(dp1119
S'image-file'
p1120
S'arch/sparc/boot/zImage'
p1121
ss(S'relations'
p1122
g172
tp1123
(dp1124
S'headers%gcc-4.8'
p1125
S'linux-compiler-gcc-4.8-arm'
p1126
ss(S'image'
p1127
g5
NS'686-pae'
p1128
tp1129
(dp1130
S'configs'
p1131
(lp1132
S'kernelarch-x86/config-arch-32'
p1133
aS'i386/config.686-pae'
p1134
asS'recommends'
p1135
S'libc6-i686'
p1136
ss(S'image'
p1137
g282
NS'loongson-2f'
p1138
tp1139
(dp1140
S'configs'
p1141
(lp1142
S'kernelarch-mips/config.loongson-2f'
p1143
asS'recommends'
p1144
S'libc6-loongson2f'
p1145
ss(S'image'
p1146
g86
NS'powerpc64'
p1147
tp1148
(dp1149
S'configs'
p1150
(lp1151
S'kernelarch-powerpc/config-arch-64'
p1152
aS'kernelarch-powerpc/config-arch-64-be'
p1153
ass(S'description'
p1154
g95
NS'octeon'
p1155
tp1156
(dp1157
S'hardware'
p1158
S'Octeon'
p1159
sS'hardware-long'
p1160
S'Cavium Networks Octeon'
p1161
ss(S'image'
p1162
g30
tp1163
(dp1164
S'suggests'
p1165
S'silo, fdutils'
p1166
sS'configs'
p1167
(lp1168
sS'install-stem'
p1169
S'vmlinuz'
p1170
ss(S'relations'
p1171
g341
tp1172
(dp1173
S'headers%gcc-4.8'
p1174
S'linux-compiler-gcc-4.8-s390'
p1175
ss(S'description'
p1176
g135
NS'versatile'
p1177
tp1178
(dp1179
S'hardware'
p1180
S'Versatile'
p1181
sS'hardware-long'
p1182
S'Versatile systems (PB, AB, Qemu)'
p1183
ss(S'base'
p1184
g86
tp1185
(dp1186
S'kernel-arch'
p1187
S'powerpc'
p1188
sg165
(lp1189
g120
ass(S'description'
p1190
g5
NS'586'
p1191
tp1192
(dp1193
S'hardware'
p1194
S'older PCs'
p1195
sS'parts'
p1196
(lp1197
S'up'
p1198
asS'hardware-long'
p1199
S'PCs with a single processor not supporting PAE'
p1200
ss(S'description'
p1201
g30
NS'sparc64-smp'
p1202
tp1203
(dp1204
S'hardware'
p1205
S'multiprocessor 64-bit UltraSPARC'
p1206
ss(S'description'
p1207
g403
NS'loongson-3'
p1208
tp1209
(dp1210
S'hardware'
p1211
S'Loongson 3A/3B'
p1212
sS'hardware-long'
p1213
S'Loongson 3A or 3B based systems (e.g. from Loongson or Lemote)'
p1214
ss(S'description'
p1215
g403
NS'octeon'
p1216
tp1217
(dp1218
S'hardware'
p1219
S'Octeon'
p1220
sS'hardware-long'
p1221
S'Cavium Networks Octeon'
p1222
ss(S'description'
p1223
g403
NS'sb1-bcm91250a'
p1224
tp1225
(dp1226
S'hardware'
p1227
S'BCM91250A'
p1228
sS'hardware-long'
p1229
S'Broadcom BCM91250A systems (aka SWARM)'
p1230
ss(S'image'
p1231
g119
NS'powerpc64'
p1232
tp1233
(dp1234
S'configs'
p1235
(lp1236
S'kernelarch-powerpc/config-arch-64'
p1237
aS'kernelarch-powerpc/config-arch-64-be'
p1238
ass(S'build'
p1239
g321
NS's390x'
p1240
tp1241
(dp1242
S'debug-info'
p1243
I01
ss(S'description'
p1244
g293
NS'parisc64-smp'
p1245
tp1246
(dp1247
S'hardware'
p1248
S'multiprocessor 64-bit PA-RISC'
p1249
sS'hardware-long'
p1250
S'HP PA-RISC 64-bit SMP systems with support for more than 4 GB RAM'
p1251
ss(S'image'
p1252
g95
tp1253
(dp1254
S'install-stem'
p1255
S'vmlinux'
p1256
ss(S'build'
p1257
g321
tp1258
(dp1259
S'image-file'
p1260
S'arch/s390/boot/image'
p1261
ss(S'image'
p1262
g387
tp1263
(dp1264
S'suggests'
p1265
S'mkvmlinuz'
p1266
sS'install-stem'
p1267
S'vmlinux'
p1268
ss(S'description'
p1269
g59
NS'itanium'
p1270
tp1271
(dp1272
S'hardware'
p1273
S'Itanium'
p1274
ss(S'image'
p1275
g70
NS'4kc-malta'
p1276
tp1277
(dp1278
S'configs'
p1279
(lp1280
S'kernelarch-mips/config.4kc-malta'
p1281
ass(S'abi'
p1282
tp1283
(dp1284
S'abiname'
p1285
S'10'
p1286
sS'ignore-changes'
p1287
(lp1288
S'module:arch/x86/kvm/kvm'
p1289
aS'module:arch/powerpc/kvm/kvm'
p1290
aS'module:drivers/edac/edac_mce_amd'
p1291
aS'module:drivers/hid/hid-sensor-hub'
p1292
aS'module:drivers/iio/**'
p1293
aS'module:drivers/md/dm-snapshot'
p1294
aS'module:drivers/mmc/host/*'
p1295
aS'module:drivers/misc/mei/*'
p1296
aS'module:drivers/mtd/spi-nor/spi-nor'
p1297
aS'module:drivers/net/can/can-dev'
p1298
aS'module:drivers/net/ethernet/**'
p1299
aS'module:drivers/net/wireless/**'
p1300
aS'module:drivers/s390/net/qeth'
p1301
aS'module:drivers/s390/net/qeth*'
p1302
aS'module:drivers/scsi/cxgbi/*'
p1303
aS'module:drivers/scsi/libiscs*'
p1304
aS'module:drivers/scsi/qla2xxx/qla2xxx'
p1305
aS'module:drivers/staging/usbip/*'
p1306
aS'module:drivers/target/iscsi/iscsi_target_mod'
p1307
aS'module:drivers/target/target_core_mod'
p1308
aS'module:drivers/usb/musb/*'
p1309
aS'module:drivers/vhost/vhost'
p1310
aS'module:fs/nfs/nfs'
p1311
aS'module:fs/ocfs2/**'
p1312
aS'module:net/ceph/libceph'
p1313
aS'module:net/l2tp/*'
p1314
aS'module:net/rds/rds'
p1315
aS'module:net/vmw_vsock/*'
p1316
aS'module:sound/firewire/snd-firewire-lib'
p1317
aS'module:sound/i2c/other/snd-ak4113'
p1318
aS'module:sound/i2c/other/snd-ak4114'
p1319
aS'module:sound/pci/emu10k1/*'
p1320
aS'azx_alloc_cmd_io'
p1321
aS'azx_free_cmd_io'
p1322
aS'azx_get_response'
p1323
aS'azx_init_cmd_io'
p1324
aS'azx_send_cmd'
p1325
aS'can_rx_register'
p1326
aS'cfi_*'
p1327
aS'cpuidle_*'
p1328
aS'fuse_*'
p1329
aS'inet_add_protocol'
p1330
aS'inet_del_protocol'
p1331
aS'inet_frag_*'
p1332
aS'inet_frags_*'
p1333
aS'injectm'
p1334
aS'kvm_async_pf_task_wait'
p1335
aS'kvmppc_*'
p1336
aS'mtd_do_chip_probe'
p1337
aS'musb_*'
p1338
aS'nft_register_set'
p1339
aS'nft_unregister_set'
p1340
aS'perf_trace_*'
p1341
aS'sdhci_*'
p1342
aS'tcp_make_synack'
p1343
aS'tcp_parse_options'
p1344
aS'tcp_try_fastopen'
p1345
aS'__add_pages'
p1346
aS'__fib_lookup'
p1347
aS'__remove_pages'
p1348
aS'fib_table_lookup'
p1349
aS'nf_register_queue_handler'
p1350
aS'of_device_is_stdout_path'
p1351
aS'module:sound/soc/*'
p1352
aS'blk_rq_check_limits'
p1353
aS'clk_divider_ro_ops'
p1354
aS'tick_nohz_idle_enter'
p1355
aS'tick_nohz_idle_exit'
p1356
aS'skb_copy_and_csum_datagram_iovec'
p1357
aS'module:net/dccp/dccp'
p1358
aS'fl6_*'
p1359
aS'inet_sk_diag_fill'
p1360
aS'ip6_append_data'
p1361
aS'ip6_datagram_send_ctl'
p1362
aS'ip6_xmit'
p1363
aS'ipv6_dup_options'
p1364
aS'ipv6_fixup_options'
p1365
aS'ipv6_push_nfrag_opts'
p1366
aS'tcp_cong_avoid_ai'
p1367
aS'tcp_slow_start'
p1368
aS'__scm_destroy'
p1369
aS'__scm_send'
p1370
aS'scm_detach_fds'
p1371
aS'scm_fp_dup'
p1372
aS'af_alg_*'
p1373
aS'xt_compat_match_from_user'
p1374
aS'efivar_validate'
p1375
aS'zpci_disable_device'
p1376
aS'zpci_enable_device'
p1377
aS'zpci_stop_device'
p1378
aS'fsnotify_*_group'
p1379
aS'fsnotify_*_mark'
p1380
aS'module:drivers/infiniband/**'
p1381
aS'register_kretprobe'
p1382
aS'register_kretprobes'
p1383
aS'unregister_kretprobe'
p1384
aS'unregister_kretprobes'
p1385
ass(S'relations'
p1386
g119
tp1387
(dp1388
S'gcc-4.8'
p1389
S'gcc-4.8 (>= 4.8.2-21)'
p1390
ss(g118
g387
g120
tp1391
(dp1392
g123
I01
sg124
(lp1393
S'powerpcspe'
p1394
ass(S'description'
p1395
g282
NS'loongson-2f'
p1396
tp1397
(dp1398
S'hardware'
p1399
S'Loongson 2F'
p1400
sS'hardware-long'
p1401
S'Lemote Loongson 2F systems'
p1402
ss(S'description'
p1403
g403
NS'5kc-malta'
p1404
tp1405
(dp1406
S'hardware'
p1407
S'MIPS Malta'
p1408
sS'hardware-long'
p1409
S'MIPS Malta boards'
p1410
ss(S'image'
p1411
g38
NS'powerpc64le'
p1412
tp1413
(dp1414
S'configs'
p1415
(lp1416
S'kernelarch-powerpc/config-arch-64'
p1417
aS'kernelarch-powerpc/config-arch-64-le'
p1418
ass(S'base'
p1419
g5
g254
tp1420
(dp1421
S'flavours'
p1422
(lp1423
S'586'
p1424
aS'686-pae'
p1425
aS'amd64'
p1426
ass(S'base'
p1427
tp1428
(dp1429
S'arches'
p1430
(lp1431
S'alpha'
p1432
aS'amd64'
p1433
aS'arm64'
p1434
aS'armel'
p1435
aS'armhf'
p1436
aS'hppa'
p1437
aS'i386'
p1438
aS'ia64'
p1439
aS'm68k'
p1440
aS'mips'
p1441
aS'mipsel'
p1442
aS'mips64'
p1443
aS'mips64el'
p1444
aS'or1k'
p1445
aS'powerpc'
p1446
aS'powerpcspe'
p1447
aS'ppc64'
p1448
aS'ppc64el'
p1449
aS's390'
p1450
aS's390x'
p1451
aS'sh4'
p1452
aS'sparc'
p1453
aS'sparc64'
p1454
aS'x32'
p1455
asS'featuresets'
p1456
(lp1457
S'none'
p1458
aS'rt'
p1459
asS'compiler'
p1460
S'gcc-4.8'
p1461
ss(S'build'
p1462
g146
tp1463
(dp1464
S'image-file'
p1465
S'vmlinux.gz'
p1466
ss(S'description'
p1467
g52
NS'sparc64-smp'
p1468
tp1469
(dp1470
S'hardware'
p1471
S'multiprocessor 64-bit UltraSPARC'
p1472
ss(S'build'
p1473
g135
tp1474
(dp1475
S'image-file'
p1476
S'arch/arm/boot/zImage'
p1477
ss(g118
g86
g120
tp1478
(dp1479
g123
I01
sg124
(lp1480
S'powerpc'
p1481
aS'powerpc-smp'
p1482
aS'powerpc64'
p1483
ass(S'image'
p1484
g403
tp1485
(dp1486
S'install-stem'
p1487
S'vmlinux'
p1488
ss(S'image'
p1489
g321
NS's390x'
p1490
tp1491
(dp1492
S'configs'
p1493
(lp1494
S'kernelarch-s390/config-arch-64'
p1495
ass(S'build'
p1496
g5
NS'686-pae'
p1497
tp1498
(dp1499
S'debug-info'
p1500
I01
ss(S'base'
p1501
g38
tp1502
(dp1503
S'kernel-arch'
p1504
S'powerpc'
p1505
sg165
(lp1506
g120
ass(S'base'
p1507
g403
tp1508
(dp1509
S'kernel-arch'
p1510
S'mips'
p1511
sg165
(lp1512
g120
ass(S'base'
p1513
g146
tp1514
(dp1515
S'kernel-arch'
p1516
S'm68k'
p1517
sg165
(lp1518
g120
asS'cflags'
p1519
S'-ffreestanding'
p1520
sS'compiler'
p1521
S'gcc-4.8'
p1522
ss(S'description'
p1523
g282
NS'5kc-malta'
p1524
tp1525
(dp1526
S'hardware'
p1527
S'MIPS Malta (64-bit)'
p1528
sS'hardware-long'
p1529
S'MIPS Malta boards (64-bit)'
p1530
ss(S'image'
p1531
tp1532
(dp1533
S'initramfs-generators'
p1534
(lp1535
S'initramfs-tools'
p1536
aS'initramfs-fallback'
p1537
asS'type'
p1538
S'plain'
p1539
ss(S'image'
p1540
g52
NS'sparc32'
p1541
tp1542
(dp1543
S'image-postproc'
p1544
S'sparc32-image-postproc'
p1545
ss(S'image'
p1546
g282
NS'5kc-malta'
p1547
tp1548
(dp1549
S'configs'
p1550
(lp1551
S'kernelarch-mips/config.5kc-malta'
p1552
ass(S'image'
p1553
g135
NS'ixp4xx'
p1554
tp1555
(dp1556
S'check-size'
p1557
S'1441760'
p1558
sS'configs'
p1559
(lp1560
S'armel/config-reduced'
p1561
aS'armel/config.ixp4xx'
p1562
ass(S'relations'
p1563
g135
tp1564
(dp1565
S'headers%gcc-4.8'
p1566
S'linux-compiler-gcc-4.8-arm'
p1567
ss(g118
g30
g120
tp1568
(dp1569
g123
I01
sg124
(lp1570
S'sparc64'
p1571
aS'sparc64-smp'
p1572
ass(S'image'
p1573
g403
NS'5kc-malta'
p1574
tp1575
(dp1576
S'configs'
p1577
(lp1578
S'kernelarch-mips/config.5kc-malta'
p1579
ass(S'description'
p1580
g59
NS'mckinley'
p1581
tp1582
(dp1583
S'hardware'
p1584
S'Itanium II'
p1585
ss(S'build'
p1586
g86
tp1587
(dp1588
S'image-file'
p1589
S'vmlinux'
p1590
ss(S'base'
p1591
g110
tp1592
(dp1593
S'kernel-arch'
p1594
S'sh'
p1595
sg165
(lp1596
g120
ass(S'build'
p1597
g110
tp1598
(dp1599
S'image-file'
p1600
S'arch/sh/boot/zImage'
p1601
ss(S'image'
p1602
g341
tp1603
(dp1604
S'install-stem'
p1605
S'vmlinuz'
p1606
sS'configs'
p1607
(lp1608
sS'bootloaders'
p1609
(lp1610
S's390-tools'
p1611
ass(S'image'
p1612
g262
tp1613
(dp1614
S'install-stem'
p1615
S'vmlinuz'
p1616
ss(S'build'
p1617
g5
tp1618
(dp1619
S'image-file'
p1620
S'arch/x86/boot/bzImage'
p1621
ss(g118
g38
g120
tp1622
(dp1623
g123
I01
sg124
(lp1624
S'powerpc64le'
p1625
asstp1626
Rp1627
.