cdebian_linux.config
ConfigCore
p0
(tRp1
(Vabi
p2
tp3
(dp4
Vabiname
p5
V3
p6
sVignore-changes
p7
(lp8
V__cpuhp_*
p9
aVbpf_analyzer
p10
aVcxl_*
p11
aVdax_flush
p12
aVieee80211_nullfunc_get
p13
aVinet_add_protocol
p14
aVinet_del_protocol
p15
aViommu_device_*
p16
aVmm_iommu_*
p17
aVmv_mbus_*
p18
aVperf_*
p19
aVregister_cxl_calls
p20
aVregister_key_type
p21
aVunregister_cxl_calls
p22
aV*_hw_breakpoint
p23
aVmodule:drivers/crypto/ccp/*
p24
aVmodule:drivers/hv/*
p25
aVmodule:drivers/gpu/drm/sun4i/*
p26
aVmodule:drivers/iio/**
p27
aVmodule:drivers/misc/cxl/*
p28
aVmodule:drivers/mtd/nand/*
p29
aVmodule:drivers/net/ethernet/**
p30
aVmodule:drivers/net/wireless/**
p31
aVmodule:drivers/nvdimm/*
p32
aVmodule:drivers/nvme/**
p33
aVmodule:drivers/power/supply/bq27xxx_battery
p34
aVmodule:drivers/scsi/cxgbi/*
p35
aVmodule:drivers/scsi/libiscs*
p36
aVmodule:drivers/scsi/qla2xxx/qla2xxx
p37
aVmodule:drivers/scsi/ufs/*
p38
aVmodule:drivers/target/**
p39
aVmodule:drivers/usb/chipidea/**
p40
aVmodule:drivers/usb/gadget/**
p41
aVmodule:drivers/usb/host/**
p42
aVmodule:drivers/usb/musb/**
p43
aVmodule:fs/nfs/**
p44
aVmodule:net/ceph/libceph
p45
aVmodule:net/l2tp/**
p46
aVmodule:net/rxrpc/rxrpc
p47
aVmodule:net/sctp/**
p48
aVmodule:sound/core/seq/**
p49
aVmodule:sound/firewire/snd-firewire-lib
p50
aVmodule:sound/pci/hda/*
p51
aVbtree_*
p52
aVvisitor*
p53
aVcan_rx_register
p54
aVip6_xmit
p55
aVmodule:net/dccp/dccp
p56
aVmodule:net/rds/rds
p57
aVdevfreq_*
p58
aVdevm_devfreq_*
p59
aVupdate_devfreq
p60
aVmodule:drivers/infiniband/**
p61
aVacpi_ec_add_query_handler
p62
aVacpi_ec_remove_query_handler
p63
aVfirst_ec
p64
aVdebugfs_create_automount
p65
aVmodule:drivers/iio/imu/inv_mpu6050/*
p66
aVdrm_crtc_accurate_vblank_count
p67
aVacpi_nfit_desc_init
p68
aVacpi_nfit_init
p69
aVloop_register_transfer
p70
aVxen_xlate_*
p71
aVnf_nat_masquerade_ipv4_register_notifier
p72
aVnf_nat_masquerade_ipv6_register_notifier
p73
aVdfltcc_*
p74
aVmodule:drivers/scsi/hisi_sas/*
p75
aV__gfn_*
p76
aV__kvmhv_*
p77
aV__kvm_*
p78
aV__xive_vm_h_*
p79
aVgfn_*
p80
aVh_ipi_redirect
p81
aVhalt_poll_ns*
p82
aVkvm_*
p83
aVkvmhv_*
p84
aVkvmppc_*
p85
aVmark_page_dirty
p86
aVvcpu_*
p87
aVmodule:arch/powerpc/kvm/*
p88
aVmodule:arch/s390/kvm/*
p89
aVmodule:arch/x86/kvm/*
p90
ass(Vbase
p91
tp92
(dp93
Varches
p94
(lp95
Valpha
p96
aVamd64
p97
aVarm64
p98
aVarm64ilp32
p99
aVarmel
p100
aVarmhf
p101
aVhppa
p102
aVi386
p103
aVia64
p104
aVm68k
p105
aVmips
p106
aVmips64
p107
aVmips64el
p108
aVmips64r6
p109
aVmips64r6el
p110
aVmipsel
p111
aVmipsn32
p112
aVmipsn32el
p113
aVmipsn32r6
p114
aVmipsn32r6el
p115
aVmipsr6
p116
aVmipsr6el
p117
aVpowerpc
p118
aVppc64
p119
aVppc64el
p120
aVriscv64
p121
aVs390
p122
aVs390x
p123
aVsh3
p124
aVsh4
p125
aVsparc
p126
aVsparc64
p127
aVx32
p128
asVcompiler
p129
Vgcc-10
p130
sVfeaturesets
p131
(lp132
Vnone
p133
aVrt
p134
ass(Vbuild
p135
tp136
(dp137
Vdebug-info
p138
I01
sVsigned-code
p139
I00
ss(Vbase
p140
NVrt
p141
tp142
(dp143
Venabled
p144
I01
ss(Vdescription
p145
tp146
(dp147
Vpart-long-up
p148
VThis kernel is not suitable for SMP (multi-processor,\u000amulti-core or hyper-threaded) systems.
p149
ss(Vimage
p150
tp151
(dp152
Vinitramfs-generators
p153
(lp154
Vinitramfs-tools
p155
aVinitramfs-fallback
p156
asVbreaks
p157
(lp158
Vwireless-regdb (<< 2019.06.03-1~)
p159
asVrecommends
p160
(lp161
Vapparmor
p162
ass(Vrelations
p163
tp164
(dp165
Vgcc-10
p166
Vgcc-10 <!stage1 !cross !pkg.linux.nokernel>, gcc-10-@gnu-type-package@ <!stage1 cross !pkg.linux.nokernel>
p167
sVinitramfs-fallback
p168
Vlinux-initramfs-tool
p169
sVinitramfs-tools
p170
Vinitramfs-tools (>= 0.120+deb8u2)
p171
ss(Vbase
p172
Valpha
p173
tp174
(dp175
Vdefault-flavour
p176
Valpha-smp
p177
sVkernel-arch
p178
Valpha
p179
sVfeaturesets
p180
(lp181
Vnone
p182
ass(Vbuild
p183
g173
tp184
(dp185
Vimage-file
p186
Varch/alpha/boot/vmlinux.gz
p187
ss(Vimage
p188
g173
tp189
(dp190
Vsuggests
p191
(lp192
Vaboot
p193
aVfdutils
p194
asVinstall-stem
p195
Vvmlinuz
p196
ss(Vdescription
p197
g173
NValpha-generic
p198
tp199
(dp200
Vhardware
p201
VAlpha
p202
sVhardware-long
p203
VDEC Alpha systems with extended kernel start address (Wildfire, Titan, Marvel)
p204
ss(Vdescription
p205
g173
NValpha-smp
p206
tp207
(dp208
Vhardware
p209
VAlpha SMP
p210
sVhardware-long
p211
VDEC Alpha SMP systems with extended kernel start address (Wildfire, Titan, Marvel)
p212
ss(Vbase
p213
g173
g182
tp214
(dp215
Vflavours
p216
(lp217
Valpha-generic
p218
aValpha-smp
p219
asVimplicit-flavour
p220
I01
ss(Vbase
p221
Vamd64
p222
tp223
(dp224
Vfeaturesets
p225
(lp226
Vnone
p227
aVrt
p228
asVkernel-arch
p229
Vx86
p230
ss(Vbuild
p231
g222
tp232
(dp233
Vimage-file
p234
Varch/x86/boot/bzImage
p235
sVsigned-code
p236
I01
sVvdso
p237
I01
ss(Vimage
p238
g222
tp239
(dp240
Vbootloaders
p241
(lp242
Vgrub-pc
p243
aVgrub-efi-amd64
p244
aVextlinux
p245
asVinstall-stem
p246
Vvmlinuz
p247
sVbreaks
p248
(lp249
Vxserver-xorg-input-vmmouse (<< 1:13.0.99)
p250
ass(Vrelations
p251
g222
tp252
(dp253
Vheaders%gcc-10
p254
Vlinux-compiler-gcc-10-x86
p255
ss(Vdescription
p256
g222
NVamd64
p257
tp258
(dp259
Vhardware
p260
V64-bit PCs
p261
sVhardware-long
p262
VPCs with AMD64, Intel 64 or VIA Nano processors
p263
ss(Vdescription
p264
g222
NVcloud-amd64
p265
tp266
(dp267
Vhardware
p268
Vx86-64 cloud
p269
sVhardware-long
p270
Vcloud platforms including Amazon EC2, Microsoft Azure, and Google Compute Engine
p271
ss(Vbase
p272
g222
Vnone
p273
tp274
(dp275
Vflavours
p276
(lp277
Vamd64
p278
aVcloud-amd64
p279
asVdefault-flavour
p280
Vamd64
p281
ss(Vimage
p282
g222
g273
Vcloud-amd64
p283
tp284
(dp285
Vconfigs
p286
(lp287
Vconfig.cloud
p288
aVamd64/config.cloud-amd64
p289
ass(Vbase
p290
g222
Vrt
p291
tp292
(dp293
Vflavours
p294
(lp295
Vamd64
p296
ass(Vbase
p297
Varm64
p298
tp299
(dp300
Vcross-compile-compat
p301
Varm-linux-gnueabihf-
p302
sVkernel-arch
p303
Varm64
p304
sVfeaturesets
p305
(lp306
Vnone
p307
aVrt
p308
ass(Vbuild
p309
g298
tp310
(dp311
Vimage-file
p312
Varch/arm64/boot/Image
p313
sVsigned-code
p314
I01
sVvdso
p315
I01
ss(Vimage
p316
g298
tp317
(dp318
Vinstall-stem
p319
Vvmlinuz
p320
sVbreaks
p321
(lp322
Vlibmozjs185-1.0
p323
aVlibmozjs-24-0 (<< 24.2.0-5.1~)
p324
ass(Vdescription
p325
g298
NVarm64
p326
tp327
(dp328
Vhardware
p329
V64-bit ARMv8 machines
p330
ss(Vdescription
p331
g298
NVcloud-arm64
p332
tp333
(dp334
Vhardware
p335
Varm64 cloud
p336
sVhardware-long
p337
Vcloud platforms supporting arm64 virtual machines
p338
ss(Vimage
p339
g298
NVarm64
p340
tp341
(dp342
s(Vrelations
p343
g298
tp344
(dp345
Vgcc-10
p346
Vgcc-10 <!stage1 !cross !pkg.linux.nokernel>, gcc-10-aarch64-linux-gnu <!stage1 cross !pkg.linux.nokernel>, gcc-arm-linux-gnueabihf <!stage1 !pkg.linux.nokernel>
p347
sVheaders%gcc-10
p348
Vgcc-10
p349
ss(Vbase
p350
g298
Vnone
p351
tp352
(dp353
Vflavours
p354
(lp355
Varm64
p356
aVcloud-arm64
p357
asVdefault-flavour
p358
Varm64
p359
ss(Vimage
p360
g298
g351
Vcloud-arm64
p361
tp362
(dp363
Vconfigs
p364
(lp365
Vconfig.cloud
p366
aVarm64/config.cloud-arm64
p367
ass(Vbase
p368
g298
Vrt
p369
tp370
(dp371
Vflavours
p372
(lp373
Varm64
p374
ass(Vbase
p375
Varm64ilp32
p376
tp377
(dp378
Vkernel-arch
p379
Varm64
p380
sVfeaturesets
p381
(lp382
ss(Vbase
p383
Varmel
p384
tp385
(dp386
Vkernel-arch
p387
Varm
p388
sg180
(lp389
g182
ass(Vbuild
p390
g384
tp391
(dp392
Vimage-file
p393
Varch/arm/boot/zImage
p394
sVuncompressed-image-file
p395
Varch/arm/boot/Image
p396
ss(Vimage
p397
g384
tp398
(dp399
Vinstall-stem
p400
Vvmlinuz
p401
ss(Vrelations
p402
g384
tp403
(dp404
Vheaders%gcc-10
p405
Vlinux-compiler-gcc-10-arm
p406
ss(Vdescription
p407
g384
NVmarvell
p408
tp409
(dp410
Vhardware
p411
VMarvell Kirkwood/Orion
p412
sVhardware-long
p413
VMarvell Kirkwood and Orion based systems (https://wiki.debian.org/ArmEabiPort#Supported_hardware)
p414
ss(Vdescription
p415
g384
NVrpi
p416
tp417
(dp418
Vhardware
p419
VRaspberry Pi and Pi Zero
p420
sVhardware-long
p421
VRaspberry Pi, Raspberry Pi Zero based systems
p422
ss(Vimage
p423
g384
NVmarvell
p424
tp425
(dp426
Vrecommends
p427
(lp428
Vu-boot-tools
p429
asVcheck-size
p430
I2729712
sVcheck-size-with-dtb
p431
I01
sVbreaks
p432
(lp433
Vflash-kernel (<< 3.57~)
p434
ass(g213
g384
g182
tp435
(dp436
g216
(lp437
Vmarvell
p438
aVrpi
p439
asg220
I01
ss(Vbase
p440
Varmhf
p441
tp442
(dp443
Vfeaturesets
p444
(lp445
Vnone
p446
aVrt
p447
asVkernel-arch
p448
Varm
p449
ss(Vbuild
p450
g441
tp451
(dp452
Vimage-file
p453
Varch/arm/boot/zImage
p454
sVvdso
p455
I01
ss(Vimage
p456
g441
tp457
(dp458
Vinstall-stem
p459
Vvmlinuz
p460
ss(Vrelations
p461
g441
tp462
(dp463
Vheaders%gcc-10
p464
Vlinux-compiler-gcc-10-arm
p465
ss(Vdescription
p466
g441
NVarmmp
p467
tp468
(dp469
Vhardware
p470
VARMv7 multiplatform compatible SoCs
p471
sVhardware-long
p472
VARMv7 multiplatform kernel. See\u000ahttps://wiki.debian.org/DebianKernel/ARMMP for details of supported\u000aplatforms
p473
ss(Vdescription
p474
g441
NVarmmp-lpae
p475
tp476
(dp477
Vhardware
p478
VARMv7 multiplatform compatible SoCs supporting LPAE
p479
sVhardware-long
p480
VARMv7 multiplatform kernel supporting LPAE. See\u000ahttps://wiki.debian.org/DebianKernel/ARMMP for details of supported\u000aplatforms.
p481
ss(Vbase
p482
g441
Vnone
p483
tp484
(dp485
Vflavours
p486
(lp487
Varmmp
p488
aVarmmp-lpae
p489
asVdefault-flavour
p490
Varmmp
p491
ss(Vbase
p492
g441
Vrt
p493
tp494
(dp495
Vflavours
p496
(lp497
Varmmp
p498
ass(Vbase
p499
Vhppa
p500
tp501
(dp502
Vdefault-flavour
p503
Vparisc
p504
sVkernel-arch
p505
Vparisc
p506
sg180
(lp507
g182
ass(Vbuild
p508
g500
tp509
(dp510
Vimage-file
p511
Varch/parisc/boot/bzImage
p512
sVdebug-info
p513
I00
ss(Vimage
p514
g500
tp515
(dp516
Vsuggests
p517
(lp518
Vpalo
p519
asVinstall-stem
p520
Vvmlinuz
p521
ss(Vdescription
p522
g500
NVparisc
p523
tp524
(dp525
Vhardware
p526
V32-bit PA-RISC
p527
sVhardware-long
p528
VHP PA-RISC 32-bit systems with max 4 GB RAM
p529
ss(Vbase
p530
g500
NVparisc64
p531
tp532
(dp533
Vcflags
p534
V-fno-cse-follow-jumps
p535
sVoverride-host-type
p536
Vhppa64-linux-gnu
p537
ss(Vdescription
p538
g500
NVparisc64
p539
tp540
(dp541
Vhardware
p542
V64-bit PA-RISC
p543
sVhardware-long
p544
VHP PA-RISC 64-bit systems with support for more than 4 GB RAM
p545
ss(Vrelations
p546
g500
tp547
(dp548
Vgcc-10
p549
Vgcc-10 <!stage1 !cross !pkg.linux.nokernel>, gcc-10-hppa-linux-gnu <!stage1 cross !pkg.linux.nokernel>, binutils-hppa64-linux-gnu <!stage1 !pkg.linux.nokernel>, gcc-10-hppa64-linux-gnu <!stage1 !pkg.linux.nokernel>
p550
ss(g213
g500
g182
tp551
(dp552
g216
(lp553
Vparisc
p554
aVparisc64
p555
asg220
I01
ss(Vbase
p556
Vi386
p557
tp558
(dp559
Vfeaturesets
p560
(lp561
Vnone
p562
aVrt
p563
asVkernel-arch
p564
Vx86
p565
ss(Vbuild
p566
g557
tp567
(dp568
Vimage-file
p569
Varch/x86/boot/bzImage
p570
sVsigned-code
p571
I01
sVvdso
p572
I01
ss(Vdescription
p573
g557
tp574
(dp575
Vpart-long-pae
p576
VThis kernel requires PAE (Physical Address Extension).\u000aThis feature is supported by the Intel Pentium Pro/II/III/4/4M/D, Xeon,\u000aCore and Atom; AMD Geode NX, Athlon (K7), Duron, Opteron, Sempron,\u000aTurion or Phenom; Transmeta Efficeon; VIA C7; and some other processors.
p577
ss(Vimage
p578
g557
tp579
(dp580
Vbootloaders
p581
(lp582
Vgrub-pc
p583
aVgrub-efi-ia32
p584
aVextlinux
p585
asVinstall-stem
p586
Vvmlinuz
p587
sVbreaks
p588
(lp589
Vxserver-xorg-input-vmmouse (<< 1:13.0.99)
p590
ass(Vrelations
p591
g557
tp592
(dp593
Vheaders%gcc-10
p594
Vlinux-compiler-gcc-10-x86
p595
ss(Vdescription
p596
g557
NV686
p597
tp598
(dp599
Vhardware
p600
Volder PCs
p601
sVhardware-long
p602
VPCs with one or more processors not supporting PAE
p603
ss(Vdescription
p604
g557
NV686-pae
p605
tp606
(dp607
Vhardware
p608
Vmodern PCs
p609
sVhardware-long
p610
VPCs with one or more processors supporting PAE
p611
sVparts
p612
(lp613
Vpae
p614
ass(Vbase
p615
g557
Vnone
p616
tp617
(dp618
Vflavours
p619
(lp620
V686
p621
aV686-pae
p622
asVdefault-flavour
p623
V686-pae
p624
ss(Vbase
p625
g557
Vrt
p626
tp627
(dp628
Vflavours
p629
(lp630
V686-pae
p631
ass(Vbase
p632
Via64
p633
tp634
(dp635
Vdefault-flavour
p636
Vitanium
p637
sVkernel-arch
p638
Via64
p639
sg180
(lp640
g182
ass(Vbuild
p641
g633
tp642
(dp643
Vimage-file
p644
Vvmlinux.gz
p645
ss(Vimage
p646
g633
tp647
(dp648
Vbootloaders
p649
(lp650
Vgrub-efi-ia64
p651
asVinstall-stem
p652
Vvmlinuz
p653
ss(Vdescription
p654
g633
NVitanium
p655
tp656
(dp657
Vhardware
p658
VItanium (Merced)
p659
sVhardware-long
p660
Vsystems with original Itanium (Merced) processors
p661
ss(Vdescription
p662
g633
NVmckinley
p663
tp664
(dp665
Vhardware
p666
VItanium 2+
p667
sVhardware-long
p668
Vsystems with Itanium 2 or 9300/9500/9700-series processors
p669
ss(g213
g633
g182
tp670
(dp671
g216
(lp672
Vitanium
p673
aVmckinley
p674
asg220
I01
ss(Vbase
p675
Vm68k
p676
tp677
(dp678
Vcflags
p679
V-ffreestanding
p680
sVdefault-flavour
p681
Vm68k
p682
sVkernel-arch
p683
Vm68k
p684
sg180
(lp685
g182
ass(Vbuild
p686
g676
tp687
(dp688
Vimage-file
p689
Vvmlinux
p690
ss(Vimage
p691
g676
tp692
(dp693
Vsuggests
p694
(lp695
Vvmelilo
p696
aVfdutils
p697
asVinstall-stem
p698
Vvmlinux
p699
ss(Vdescription
p700
g676
NVm68k
p701
tp702
(dp703
Vhardware
p704
VMotorola MC68020+ family
p705
ss(g213
g676
g182
tp706
(dp707
g216
(lp708
Vm68k
p709
asg220
I01
ss(Vbase
p710
Vmips
p711
tp712
(dp713
Vkernel-arch
p714
Vmips
p715
sg180
(lp716
g182
ass(Vbuild
p717
g711
tp718
(dp719
Vimage-file
p720
Vvmlinuz
p721
ss(Vimage
p722
g711
tp723
(dp724
Vinstall-stem
p725
Vvmlinuz
p726
ss(Vdescription
p727
g711
NV4kc-malta
p728
tp729
(dp730
Vhardware
p731
VMIPS Malta
p732
sVhardware-long
p733
VMIPS Malta boards
p734
ss(Vimage
p735
g711
NV4kc-malta
p736
tp737
(dp738
Vconfigs
p739
(lp740
Vkernelarch-mips/config.malta
p741
aVkernelarch-mips/config.mips32r2
p742
ass(Vdescription
p743
g711
NV5kc-malta
p744
tp745
(dp746
Vhardware
p747
VMIPS Malta (64-bit)
p748
sVhardware-long
p749
VMIPS Malta boards (64-bit)
p750
ss(Vimage
p751
g711
NV5kc-malta
p752
tp753
(dp754
Vconfigs
p755
(lp756
Vkernelarch-mips/config.malta
p757
aVkernelarch-mips/config.mips64r2
p758
ass(Vdescription
p759
g711
NVocteon
p760
tp761
(dp762
Vhardware
p763
VOcteon
p764
sVhardware-long
p765
VCavium Networks Octeon
p766
ss(Vbuild
p767
g711
NVocteon
p768
tp769
(dp770
Vimage-file
p771
Vvmlinux
p772
ss(Vimage
p773
g711
NVocteon
p774
tp775
(dp776
Vinstall-stem
p777
Vvmlinux
p778
sVconfigs
p779
(lp780
Vkernelarch-mips/config.octeon
p781
ass(g213
g711
g182
tp782
(dp783
g216
(lp784
V4kc-malta
p785
aV5kc-malta
p786
aVocteon
p787
asg220
I01
ss(Vbase
p788
Vmips64
p789
tp790
(dp791
Vkernel-arch
p792
Vmips
p793
sg180
(lp794
g182
ass(Vbuild
p795
g789
tp796
(dp797
Vimage-file
p798
Vvmlinuz
p799
ss(Vimage
p800
g789
tp801
(dp802
Vinstall-stem
p803
Vvmlinuz
p804
ss(Vdescription
p805
g789
NV5kc-malta
p806
tp807
(dp808
Vhardware
p809
VMIPS Malta
p810
sVhardware-long
p811
VMIPS Malta boards
p812
ss(Vimage
p813
g789
NV5kc-malta
p814
tp815
(dp816
Vconfigs
p817
(lp818
Vkernelarch-mips/config.malta
p819
aVkernelarch-mips/config.mips64r2
p820
ass(Vdescription
p821
g789
NVocteon
p822
tp823
(dp824
Vhardware
p825
VOcteon
p826
sVhardware-long
p827
VCavium Networks Octeon
p828
ss(Vbuild
p829
g789
NVocteon
p830
tp831
(dp832
Vimage-file
p833
Vvmlinux
p834
ss(Vimage
p835
g789
NVocteon
p836
tp837
(dp838
Vinstall-stem
p839
Vvmlinux
p840
sVconfigs
p841
(lp842
Vkernelarch-mips/config.octeon
p843
ass(g213
g789
g182
tp844
(dp845
g216
(lp846
V5kc-malta
p847
aVocteon
p848
asg220
I01
ss(Vbase
p849
Vmips64el
p850
tp851
(dp852
Vkernel-arch
p853
Vmips
p854
sg180
(lp855
g182
ass(Vbuild
p856
g850
tp857
(dp858
Vimage-file
p859
Vvmlinuz
p860
ss(Vimage
p861
g850
tp862
(dp863
Vinstall-stem
p864
Vvmlinuz
p865
ss(Vdescription
p866
g850
NV5kc-malta
p867
tp868
(dp869
Vhardware
p870
VMIPS Malta
p871
sVhardware-long
p872
VMIPS Malta boards
p873
ss(Vimage
p874
g850
NV5kc-malta
p875
tp876
(dp877
Vconfigs
p878
(lp879
Vkernelarch-mips/config.malta
p880
aVkernelarch-mips/config.mips64r2
p881
ass(Vdescription
p882
g850
NVloongson-3
p883
tp884
(dp885
Vhardware
p886
VLoongson 3A/3B
p887
sVhardware-long
p888
VLoongson 3A or 3B based systems (e.g. from Loongson or Lemote)
p889
ss(Vimage
p890
g850
NVloongson-3
p891
tp892
(dp893
Vconfigs
p894
(lp895
Vkernelarch-mips/config.loongson-3
p896
ass(Vdescription
p897
g850
NVocteon
p898
tp899
(dp900
Vhardware
p901
VOcteon
p902
sVhardware-long
p903
VCavium Networks Octeon
p904
ss(Vbuild
p905
g850
NVocteon
p906
tp907
(dp908
Vimage-file
p909
Vvmlinux
p910
ss(Vimage
p911
g850
NVocteon
p912
tp913
(dp914
Vinstall-stem
p915
Vvmlinux
p916
sVconfigs
p917
(lp918
Vkernelarch-mips/config.octeon
p919
ass(g213
g850
g182
tp920
(dp921
g216
(lp922
V5kc-malta
p923
aVloongson-3
p924
aVocteon
p925
asg220
I01
ss(Vbase
p926
Vmips64r6
p927
tp928
(dp929
Vdefault-flavour
p930
Vmips64r6
p931
sVkernel-arch
p932
Vmips
p933
sg180
(lp934
g182
ass(Vbuild
p935
g927
tp936
(dp937
Vimage-file
p938
Vvmlinux
p939
ss(Vimage
p940
g927
tp941
(dp942
Vinstall-stem
p943
Vvmlinux
p944
ss(Vdescription
p945
g927
NVmips64r6
p946
tp947
(dp948
Vhardware
p949
VMIPS R6 (64 bit, big endian)
p950
sVhardware-long
p951
VMIPS R6 (64 bit, big endian)
p952
ss(Vimage
p953
g927
NVmips64r6
p954
tp955
(dp956
Vconfigs
p957
(lp958
Vkernelarch-mips/config.boston
p959
aVkernelarch-mips/config.mips64r6
p960
ass(g213
g927
g182
tp961
(dp962
g216
(lp963
Vmips64r6
p964
asg220
I01
ss(Vbase
p965
Vmips64r6el
p966
tp967
(dp968
Vdefault-flavour
p969
Vmips64r6el
p970
sVkernel-arch
p971
Vmips
p972
sg180
(lp973
g182
ass(Vbuild
p974
g966
tp975
(dp976
Vimage-file
p977
Vvmlinux
p978
ss(Vimage
p979
g966
tp980
(dp981
Vinstall-stem
p982
Vvmlinux
p983
ss(Vdescription
p984
g966
NVmips64r6el
p985
tp986
(dp987
Vhardware
p988
VMIPS R6 (64 bit, little endian)
p989
sVhardware-long
p990
VMIPS R6 (64 bit, little endian)
p991
ss(Vimage
p992
g966
NVmips64r6el
p993
tp994
(dp995
Vconfigs
p996
(lp997
Vkernelarch-mips/config.boston
p998
aVkernelarch-mips/config.mips64r6
p999
ass(g213
g966
g182
tp1000
(dp1001
g216
(lp1002
Vmips64r6el
p1003
asg220
I01
ss(Vbase
p1004
Vmipsel
p1005
tp1006
(dp1007
Vkernel-arch
p1008
Vmips
p1009
sg180
(lp1010
g182
ass(Vbuild
p1011
g1005
tp1012
(dp1013
Vimage-file
p1014
Vvmlinuz
p1015
ss(Vimage
p1016
g1005
tp1017
(dp1018
Vinstall-stem
p1019
Vvmlinuz
p1020
ss(Vdescription
p1021
g1005
NV4kc-malta
p1022
tp1023
(dp1024
Vhardware
p1025
VMIPS Malta
p1026
sVhardware-long
p1027
VMIPS Malta boards
p1028
ss(Vimage
p1029
g1005
NV4kc-malta
p1030
tp1031
(dp1032
Vconfigs
p1033
(lp1034
Vkernelarch-mips/config.malta
p1035
aVkernelarch-mips/config.mips32r2
p1036
ass(Vdescription
p1037
g1005
NV5kc-malta
p1038
tp1039
(dp1040
Vhardware
p1041
VMIPS Malta (64-bit)
p1042
sVhardware-long
p1043
VMIPS Malta boards (64-bit)
p1044
ss(Vimage
p1045
g1005
NV5kc-malta
p1046
tp1047
(dp1048
Vconfigs
p1049
(lp1050
Vkernelarch-mips/config.malta
p1051
aVkernelarch-mips/config.mips64r2
p1052
ass(Vdescription
p1053
g1005
NVloongson-3
p1054
tp1055
(dp1056
Vhardware
p1057
VLoongson 3A/3B
p1058
sVhardware-long
p1059
VLoongson 3A or 3B based systems (e.g. from Loongson or Lemote)
p1060
ss(Vimage
p1061
g1005
NVloongson-3
p1062
tp1063
(dp1064
Vconfigs
p1065
(lp1066
Vkernelarch-mips/config.loongson-3
p1067
ass(Vdescription
p1068
g1005
NVocteon
p1069
tp1070
(dp1071
Vhardware
p1072
VOcteon
p1073
sVhardware-long
p1074
VCavium Networks Octeon
p1075
ss(Vbuild
p1076
g1005
NVocteon
p1077
tp1078
(dp1079
Vimage-file
p1080
Vvmlinux
p1081
ss(Vimage
p1082
g1005
NVocteon
p1083
tp1084
(dp1085
Vinstall-stem
p1086
Vvmlinux
p1087
sVconfigs
p1088
(lp1089
Vkernelarch-mips/config.octeon
p1090
ass(g213
g1005
g182
tp1091
(dp1092
g216
(lp1093
V4kc-malta
p1094
aV5kc-malta
p1095
aVloongson-3
p1096
aVocteon
p1097
asg220
I01
ss(Vbase
p1098
Vmipsn32
p1099
tp1100
(dp1101
Vkernel-arch
p1102
Vmips
p1103
sVfeaturesets
p1104
(lp1105
ss(Vbase
p1106
Vmipsn32el
p1107
tp1108
(dp1109
Vkernel-arch
p1110
Vmips
p1111
sVfeaturesets
p1112
(lp1113
ss(Vbase
p1114
Vmipsn32r6
p1115
tp1116
(dp1117
Vkernel-arch
p1118
Vmips
p1119
sVfeaturesets
p1120
(lp1121
ss(Vbase
p1122
Vmipsn32r6el
p1123
tp1124
(dp1125
Vkernel-arch
p1126
Vmips
p1127
sVfeaturesets
p1128
(lp1129
ss(Vbase
p1130
Vmipsr6
p1131
tp1132
(dp1133
Vdefault-flavour
p1134
Vmips32r6
p1135
sVkernel-arch
p1136
Vmips
p1137
sg180
(lp1138
g182
ass(Vbuild
p1139
g1131
tp1140
(dp1141
Vimage-file
p1142
Vvmlinux
p1143
ss(Vimage
p1144
g1131
tp1145
(dp1146
Vinstall-stem
p1147
Vvmlinux
p1148
ss(Vdescription
p1149
g1131
NVmips32r6
p1150
tp1151
(dp1152
Vhardware
p1153
VMIPS R6 (32 bit, big endian)
p1154
sVhardware-long
p1155
VMIPS R6 (32 bit, big endian)
p1156
ss(Vimage
p1157
g1131
NVmips32r6
p1158
tp1159
(dp1160
Vconfigs
p1161
(lp1162
Vkernelarch-mips/config.boston
p1163
aVkernelarch-mips/config.mips32r6
p1164
ass(Vdescription
p1165
g1131
NVmips64r6
p1166
tp1167
(dp1168
Vhardware
p1169
VMIPS R6 (64 bit, big endian)
p1170
sVhardware-long
p1171
VMIPS R6 (64 bit, big endian)
p1172
ss(Vimage
p1173
g1131
NVmips64r6
p1174
tp1175
(dp1176
Vconfigs
p1177
(lp1178
Vkernelarch-mips/config.boston
p1179
aVkernelarch-mips/config.mips64r6
p1180
ass(g213
g1131
g182
tp1181
(dp1182
g216
(lp1183
Vmips32r6
p1184
aVmips64r6
p1185
asg220
I01
ss(Vbase
p1186
Vmipsr6el
p1187
tp1188
(dp1189
Vdefault-flavour
p1190
Vmips32r6el
p1191
sVkernel-arch
p1192
Vmips
p1193
sg180
(lp1194
g182
ass(Vbuild
p1195
g1187
tp1196
(dp1197
Vimage-file
p1198
Vvmlinux
p1199
ss(Vimage
p1200
g1187
tp1201
(dp1202
Vinstall-stem
p1203
Vvmlinux
p1204
ss(Vdescription
p1205
g1187
NVmips32r6el
p1206
tp1207
(dp1208
Vhardware
p1209
VMIPS R6 (32 bit, little endian)
p1210
sVhardware-long
p1211
VMIPS R6 (32 bit, little endian)
p1212
ss(Vimage
p1213
g1187
NVmips32r6el
p1214
tp1215
(dp1216
Vconfigs
p1217
(lp1218
Vkernelarch-mips/config.boston
p1219
aVkernelarch-mips/config.mips32r6
p1220
ass(Vdescription
p1221
g1187
NVmips64r6el
p1222
tp1223
(dp1224
Vhardware
p1225
VMIPS R6 (64 bit, little endian)
p1226
sVhardware-long
p1227
VMIPS R6 (64 bit, little endian)
p1228
ss(Vimage
p1229
g1187
NVmips64r6el
p1230
tp1231
(dp1232
Vconfigs
p1233
(lp1234
Vkernelarch-mips/config.boston
p1235
aVkernelarch-mips/config.mips64r6
p1236
ass(g213
g1187
g182
tp1237
(dp1238
g216
(lp1239
Vmips32r6el
p1240
aVmips64r6el
p1241
asg220
I01
ss(Vbase
p1242
Vpowerpc
p1243
tp1244
(dp1245
Vkernel-arch
p1246
Vpowerpc
p1247
sg180
(lp1248
g182
ass(Vbuild
p1249
g1243
tp1250
(dp1251
Vimage-file
p1252
Vvmlinux
p1253
sVvdso
p1254
I01
ss(Vimage
p1255
g1243
tp1256
(dp1257
Vconfigs
p1258
(lp1259
sVbootloaders
p1260
(lp1261
Vgrub-ieee1275
p1262
asVsuggests
p1263
(lp1264
Vmkvmlinuz
p1265
asVinstall-stem
p1266
Vvmlinux
p1267
ss(Vdescription
p1268
g1243
NVpowerpc
p1269
tp1270
(dp1271
Vhardware
p1272
Vuniprocessor 32-bit PowerPC
p1273
ss(Vdescription
p1274
g1243
NVpowerpc-smp
p1275
tp1276
(dp1277
Vhardware
p1278
Vmultiprocessor 32-bit PowerPC
p1279
ss(Vimage
p1280
g1243
NVpowerpc-smp
p1281
tp1282
(dp1283
Vconfigs
p1284
(lp1285
Vpowerpc/config.powerpc
p1286
aVpowerpc/config.powerpc-smp
p1287
ass(Vdescription
p1288
g1243
NVpowerpc64
p1289
tp1290
(dp1291
Vhardware
p1292
V64-bit PowerPC
p1293
ss(Vimage
p1294
g1243
NVpowerpc64
p1295
tp1296
(dp1297
Vconfigs
p1298
(lp1299
Vkernelarch-powerpc/config-arch-64
p1300
aVkernelarch-powerpc/config-arch-64-be
p1301
ass(g213
g1243
g182
tp1302
(dp1303
g216
(lp1304
Vpowerpc
p1305
aVpowerpc-smp
p1306
aVpowerpc64
p1307
asg220
I01
ss(Vbase
p1308
Vppc64
p1309
tp1310
(dp1311
Vdefault-flavour
p1312
Vpowerpc64
p1313
sVkernel-arch
p1314
Vpowerpc
p1315
sg180
(lp1316
g182
ass(Vbuild
p1317
g1309
tp1318
(dp1319
Vimage-file
p1320
Vvmlinux
p1321
sVvdso
p1322
I01
ss(Vimage
p1323
g1309
tp1324
(dp1325
Vconfigs
p1326
(lp1327
sVbootloaders
p1328
(lp1329
Vgrub-ieee1275
p1330
asVsuggests
p1331
(lp1332
Vmkvmlinuz
p1333
asVinstall-stem
p1334
Vvmlinux
p1335
ss(Vdescription
p1336
g1309
NVpowerpc64
p1337
tp1338
(dp1339
Vhardware
p1340
V64-bit PowerPC
p1341
ss(Vimage
p1342
g1309
NVpowerpc64
p1343
tp1344
(dp1345
Vconfigs
p1346
(lp1347
Vkernelarch-powerpc/config-arch-64
p1348
aVkernelarch-powerpc/config-arch-64-be
p1349
ass(g213
g1309
g182
tp1350
(dp1351
g216
(lp1352
Vpowerpc64
p1353
asg220
I01
ss(Vbase
p1354
Vppc64el
p1355
tp1356
(dp1357
Vdefault-flavour
p1358
Vpowerpc64le
p1359
sVkernel-arch
p1360
Vpowerpc
p1361
sg180
(lp1362
g182
ass(Vbuild
p1363
g1355
tp1364
(dp1365
Vimage-file
p1366
Vvmlinux
p1367
sVvdso
p1368
I01
ss(Vimage
p1369
g1355
tp1370
(dp1371
Vconfigs
p1372
(lp1373
sVbootloaders
p1374
(lp1375
Vgrub-ieee1275
p1376
asVsuggests
p1377
(lp1378
Vmkvmlinuz
p1379
asVinstall-stem
p1380
Vvmlinux
p1381
ss(Vdescription
p1382
g1355
NVpowerpc64le
p1383
tp1384
(dp1385
Vhardware
p1386
VLittle-endian 64-bit PowerPC
p1387
ss(Vimage
p1388
g1355
NVpowerpc64le
p1389
tp1390
(dp1391
Vconfigs
p1392
(lp1393
Vkernelarch-powerpc/config-arch-64
p1394
aVkernelarch-powerpc/config-arch-64-le
p1395
ass(g213
g1355
g182
tp1396
(dp1397
g216
(lp1398
Vpowerpc64le
p1399
asg220
I01
ss(Vbase
p1400
Vriscv64
p1401
tp1402
(dp1403
Vkernel-arch
p1404
Vriscv
p1405
sVfeaturesets
p1406
(lp1407
Vnone
p1408
ass(Vbuild
p1409
g1401
tp1410
(dp1411
Vimage-file
p1412
Varch/riscv/boot/Image
p1413
sVvdso
p1414
I01
ss(Vimage
p1415
g1401
tp1416
(dp1417
Vinstall-stem
p1418
Vvmlinux
p1419
ss(Vdescription
p1420
g1401
NVriscv64
p1421
tp1422
(dp1423
Vhardware
p1424
V64-bit RISC-V platforms
p1425
sVhardware-long
p1426
V64-bit RISC-V platforms
p1427
ss(Vbase
p1428
g1401
Vnone
p1429
tp1430
(dp1431
Vflavours
p1432
(lp1433
Vriscv64
p1434
asVdefault-flavour
p1435
Vriscv64
p1436
ss(Vbase
p1437
Vs390
p1438
tp1439
(dp1440
Vkernel-arch
p1441
Vs390
p1442
sVfeaturesets
p1443
(lp1444
ss(Vbase
p1445
Vs390x
p1446
tp1447
(dp1448
Vdefault-flavour
p1449
Vs390x
p1450
sVkernel-arch
p1451
Vs390
p1452
sg180
(lp1453
g182
ass(Vbuild
p1454
g1446
tp1455
(dp1456
Vimage-file
p1457
Varch/s390/boot/bzImage
p1458
sVvdso
p1459
I01
ss(Vimage
p1460
g1446
tp1461
(dp1462
Vbootloaders
p1463
(lp1464
Vs390-tools
p1465
asVinstall-stem
p1466
Vvmlinuz
p1467
ss(Vrelations
p1468
g1446
tp1469
(dp1470
Vheaders%gcc-10
p1471
Vlinux-compiler-gcc-10-s390
p1472
ss(Vdescription
p1473
g1446
NVs390x
p1474
tp1475
(dp1476
Vhardware
p1477
VIBM zSeries
p1478
ss(g213
g1446
g182
tp1479
(dp1480
g216
(lp1481
Vs390x
p1482
asg220
I01
ss(Vbase
p1483
Vsh3
p1484
tp1485
(dp1486
Vkernel-arch
p1487
Vsh
p1488
sVfeaturesets
p1489
(lp1490
ss(Vbase
p1491
Vsh4
p1492
tp1493
(dp1494
Vkernel-arch
p1495
Vsh
p1496
sg180
(lp1497
g182
ass(Vbuild
p1498
g1492
tp1499
(dp1500
Vimage-file
p1501
Varch/sh/boot/zImage
p1502
ss(Vimage
p1503
g1492
tp1504
(dp1505
Vinstall-stem
p1506
Vvmlinuz
p1507
ss(Vdescription
p1508
g1492
NVsh7751r
p1509
tp1510
(dp1511
Vhardware
p1512
Vsh7751r
p1513
sVhardware-long
p1514
VRenesas SH7751R R2D plus board
p1515
ss(Vdescription
p1516
g1492
NVsh7785lcr
p1517
tp1518
(dp1519
Vhardware
p1520
Vsh7785lcr
p1521
sVhardware-long
p1522
VRenesas SH7785 reference board
p1523
ss(Vimage
p1524
g1492
NVsh7785lcr
p1525
tp1526
(dp1527
Vrecommends
p1528
(lp1529
Vu-boot-tools
p1530
asVcheck-size
p1531
I4194304
ss(g213
g1492
g182
tp1532
(dp1533
g216
(lp1534
Vsh7751r
p1535
aVsh7785lcr
p1536
asg220
I01
ss(Vbase
p1537
Vsparc
p1538
tp1539
(dp1540
Vkernel-arch
p1541
Vsparc
p1542
sVfeaturesets
p1543
(lp1544
ss(Vbase
p1545
Vsparc64
p1546
tp1547
(dp1548
Vdefault-flavour
p1549
Vsparc64-smp
p1550
sVkernel-arch
p1551
Vsparc
p1552
sg180
(lp1553
g182
ass(Vbuild
p1554
g1546
tp1555
(dp1556
Vimage-file
p1557
Vvmlinux
p1558
ss(Vimage
p1559
g1546
tp1560
(dp1561
Vconfigs
p1562
(lp1563
sVbootloaders
p1564
(lp1565
Vgrub-ieee1275
p1566
asVsuggests
p1567
(lp1568
Vfdutils
p1569
asVinstall-stem
p1570
Vvmlinux
p1571
ss(Vdescription
p1572
g1546
NVsparc64
p1573
tp1574
(dp1575
Vhardware
p1576
Vuniprocessor 64-bit UltraSPARC
p1577
ss(Vimage
p1578
g1546
NVsparc64
p1579
tp1580
(dp1581
Vconfigs
p1582
(lp1583
Vkernelarch-sparc/config-up
p1584
ass(Vdescription
p1585
g1546
NVsparc64-smp
p1586
tp1587
(dp1588
Vhardware
p1589
Vmultiprocessor 64-bit UltraSPARC
p1590
ss(Vimage
p1591
g1546
NVsparc64-smp
p1592
tp1593
(dp1594
Vconfigs
p1595
(lp1596
Vkernelarch-sparc/config-smp
p1597
ass(g213
g1546
g182
tp1598
(dp1599
g216
(lp1600
Vsparc64
p1601
aVsparc64-smp
p1602
asg220
I01
ss(Vbase
p1603
Vx32
p1604
tp1605
(dp1606
Vkernel-arch
p1607
Vx86
p1608
sVfeaturesets
p1609
(lp1610
ss(Vabi
p1611
NVrt
p1612
tp1613
(dp1614
Vignore-changes
p1615
(lp1616
V*
p1617
ass(Vdescription
p1618
Ng1612
tp1619
(dp1620
Vpart-long-rt
p1621
VThis kernel includes the PREEMPT_RT realtime patch set.
p1622
sVpart-short-rt
p1623
VPREEMPT_RT
p1624
sVparts
p1625
(lp1626
Vrt
p1627
ass(Vversion
p1628
tp1629
(dp1630
Vsource
p1631
V5.10.12-1
p1632
sVupstream
p1633
V5.10
p1634
sVabiname_base
p1635
V5.10.0
p1636
sVabiname
p1637
V5.10.0-3
p1638
ss.