cdebian_linux.config
ConfigCore
p0
(tRp1
(Vabi
p2
tp3
(dp4
Vabiname
p5
V14
p6
sVignore-changes
p7
(lp8
V__cpuhp_*
p9
aV__udp_gso_segment
p10
aVbpf_analyzer
p11
aVbpf_offload_dev_create
p12
aVbpf_verifier_log_write
p13
aVcxl_*
p14
aVdax_flush
p15
aVieee80211_nullfunc_get
p16
aVinet_add_protocol
p17
aVinet_del_protocol
p18
aViommu_device_*
p19
aVmm_iommu_*
p20
aVmv_mbus_*
p21
aVperf_*
p22
aVregister_cxl_calls
p23
aVregister_key_type
p24
aVunregister_cxl_calls
p25
aV*_hw_breakpoint
p26
aVmodule:drivers/crypto/ccp/*
p27
aVmodule:drivers/hv/*
p28
aVmodule:drivers/gpu/drm/sun4i/*
p29
aVmodule:drivers/iio/**
p30
aVmodule:drivers/misc/cxl/*
p31
aVmodule:drivers/misc/lis3lv02d/*
p32
aVmodule:drivers/mtd/nand/*
p33
aVmodule:drivers/net/ethernet/**
p34
aVmodule:drivers/net/wireless/**
p35
aVmodule:drivers/nvdimm/*
p36
aVmodule:drivers/nvme/**
p37
aVmodule:drivers/power/supply/bq27xxx_battery
p38
aVmodule:drivers/scsi/cxgbi/*
p39
aVmodule:drivers/scsi/libiscs*
p40
aVmodule:drivers/scsi/qla2xxx/qla2xxx
p41
aVmodule:drivers/scsi/ufs/*
p42
aVmodule:drivers/target/**
p43
aVmodule:drivers/usb/chipidea/**
p44
aVmodule:drivers/usb/gadget/**
p45
aVmodule:drivers/usb/host/**
p46
aVmodule:drivers/usb/musb/**
p47
aVmodule:fs/nfs/**
p48
aVmodule:net/ceph/libceph
p49
aVmodule:net/l2tp/**
p50
aVmodule:net/openvswitch/**
p51
aVmodule:net/rxrpc/rxrpc
p52
aVmodule:net/sctp/**
p53
aVmodule:sound/core/seq/**
p54
aVmodule:sound/firewire/snd-firewire-lib
p55
aVmodule:sound/pci/hda/*
p56
aVbtree_*
p57
aVvisitor*
p58
aVcan_rx_register
p59
aVip6_xmit
p60
aVmodule:net/dccp/dccp
p61
aVmodule:net/rds/rds
p62
aVdevfreq_*
p63
aVdevm_devfreq_*
p64
aVupdate_devfreq
p65
aVmodule:drivers/infiniband/**
p66
aVacpi_ec_add_query_handler
p67
aVacpi_ec_remove_query_handler
p68
aVfirst_ec
p69
aVdebugfs_create_automount
p70
aVmodule:drivers/iio/imu/inv_mpu6050/*
p71
aVdrm_crtc_accurate_vblank_count
p72
aVacpi_nfit_desc_init
p73
aVacpi_nfit_init
p74
aVloop_register_transfer
p75
aVxen_xlate_*
p76
aVnf_nat_masquerade_ipv4_register_notifier
p77
aVnf_nat_masquerade_ipv6_register_notifier
p78
aVdfltcc_*
p79
aVmodule:drivers/scsi/hisi_sas/*
p80
aV__gfn_*
p81
aV__kvmhv_*
p82
aV__kvm_*
p83
aV__xive_vm_h_*
p84
aVgfn_*
p85
aVh_ipi_redirect
p86
aVhalt_poll_ns*
p87
aVkvm_*
p88
aVkvmhv_*
p89
aVkvmppc_*
p90
aVmark_page_dirty
p91
aVvcpu_*
p92
aVmodule:arch/powerpc/kvm/*
p93
aVmodule:arch/s390/kvm/*
p94
aVmodule:arch/x86/kvm/*
p95
aVuv_info
p96
aVxhci_init_driver
p97
ass(Vbase
p98
tp99
(dp100
Varches
p101
(lp102
Valpha
p103
aVamd64
p104
aVarm64
p105
aVarm64ilp32
p106
aVarmel
p107
aVarmhf
p108
aVhppa
p109
aVi386
p110
aVia64
p111
aVm68k
p112
aVmips
p113
aVmips64
p114
aVmips64el
p115
aVmips64r6
p116
aVmips64r6el
p117
aVmipsel
p118
aVmipsn32
p119
aVmipsn32el
p120
aVmipsn32r6
p121
aVmipsn32r6el
p122
aVmipsr6
p123
aVmipsr6el
p124
aVpowerpc
p125
aVppc64
p126
aVppc64el
p127
aVriscv64
p128
aVs390
p129
aVs390x
p130
aVsh3
p131
aVsh4
p132
aVsparc
p133
aVsparc64
p134
aVx32
p135
asVcompiler
p136
Vgcc-10
p137
sVfeaturesets
p138
(lp139
Vnone
p140
aVrt
p141
ass(Vbuild
p142
tp143
(dp144
Vdebug-info
p145
I01
sVsigned-code
p146
I00
ss(Vbase
p147
NVrt
p148
tp149
(dp150
Venabled
p151
I01
ss(Vdescription
p152
tp153
(dp154
Vpart-long-up
p155
VThis kernel is not suitable for SMP (multi-processor,\u000amulti-core or hyper-threaded) systems.
p156
ss(Vimage
p157
tp158
(dp159
Vinitramfs-generators
p160
(lp161
Vinitramfs-tools
p162
aVinitramfs-fallback
p163
asVbreaks
p164
(lp165
Vfwupdate (<< 12-7)
p166
aVwireless-regdb (<< 2019.06.03-1~)
p167
asVrecommends
p168
(lp169
Vapparmor
p170
ass(Vrelations
p171
tp172
(dp173
Vgcc-10
p174
Vgcc-10 <!stage1 !cross !pkg.linux.nokernel>, gcc-10-@gnu-type-package@ <!stage1 cross !pkg.linux.nokernel>
p175
sVinitramfs-fallback
p176
Vlinux-initramfs-tool
p177
sVinitramfs-tools
p178
Vinitramfs-tools (>= 0.120+deb8u2)
p179
ss(Vbase
p180
Valpha
p181
tp182
(dp183
Vdefault-flavour
p184
Valpha-smp
p185
sVkernel-arch
p186
Valpha
p187
sVfeaturesets
p188
(lp189
Vnone
p190
ass(Vbuild
p191
g181
tp192
(dp193
Vimage-file
p194
Varch/alpha/boot/vmlinux.gz
p195
ss(Vimage
p196
g181
tp197
(dp198
Vsuggests
p199
(lp200
Vaboot
p201
aVfdutils
p202
asVinstall-stem
p203
Vvmlinuz
p204
ss(Vdescription
p205
g181
NValpha-generic
p206
tp207
(dp208
Vhardware
p209
VAlpha
p210
sVhardware-long
p211
VDEC Alpha systems with extended kernel start address (Wildfire, Titan, Marvel)
p212
ss(Vdescription
p213
g181
NValpha-smp
p214
tp215
(dp216
Vhardware
p217
VAlpha SMP
p218
sVhardware-long
p219
VDEC Alpha SMP systems with extended kernel start address (Wildfire, Titan, Marvel)
p220
ss(Vbase
p221
g181
g190
tp222
(dp223
Vflavours
p224
(lp225
Valpha-generic
p226
aValpha-smp
p227
asVimplicit-flavour
p228
I01
ss(Vbase
p229
Vamd64
p230
tp231
(dp232
Vfeaturesets
p233
(lp234
Vnone
p235
aVrt
p236
asVkernel-arch
p237
Vx86
p238
ss(Vbuild
p239
g230
tp240
(dp241
Vimage-file
p242
Varch/x86/boot/bzImage
p243
sVsigned-code
p244
I01
sVvdso
p245
I01
ss(Vimage
p246
g230
tp247
(dp248
Vbootloaders
p249
(lp250
Vgrub-pc
p251
aVgrub-efi-amd64
p252
aVextlinux
p253
asVinstall-stem
p254
Vvmlinuz
p255
sVbreaks
p256
(lp257
Vxserver-xorg-input-vmmouse (<< 1:13.0.99)
p258
ass(Vrelations
p259
g230
tp260
(dp261
Vheaders%gcc-10
p262
Vlinux-compiler-gcc-10-x86
p263
ss(Vdescription
p264
g230
NVamd64
p265
tp266
(dp267
Vhardware
p268
V64-bit PCs
p269
sVhardware-long
p270
VPCs with AMD64, Intel 64 or VIA Nano processors
p271
ss(Vdescription
p272
g230
NVcloud-amd64
p273
tp274
(dp275
Vhardware
p276
Vx86-64 cloud
p277
sVhardware-long
p278
Vcloud platforms including Amazon EC2, Microsoft Azure, and Google Compute Engine
p279
ss(Vbase
p280
g230
Vnone
p281
tp282
(dp283
Vflavours
p284
(lp285
Vamd64
p286
aVcloud-amd64
p287
asVdefault-flavour
p288
Vamd64
p289
ss(Vimage
p290
g230
g281
Vcloud-amd64
p291
tp292
(dp293
Vconfigs
p294
(lp295
Vconfig.cloud
p296
aVamd64/config.cloud-amd64
p297
ass(Vbase
p298
g230
Vrt
p299
tp300
(dp301
Vflavours
p302
(lp303
Vamd64
p304
ass(Vbase
p305
Varm64
p306
tp307
(dp308
Vcross-compile-compat
p309
Varm-linux-gnueabihf-
p310
sVkernel-arch
p311
Varm64
p312
sVfeaturesets
p313
(lp314
Vnone
p315
aVrt
p316
ass(Vbuild
p317
g306
tp318
(dp319
Vimage-file
p320
Varch/arm64/boot/Image
p321
sVsigned-code
p322
I01
sVvdso
p323
I01
ss(Vimage
p324
g306
tp325
(dp326
Vinstall-stem
p327
Vvmlinuz
p328
sVbreaks
p329
(lp330
Vlibmozjs185-1.0
p331
aVlibmozjs-24-0 (<< 24.2.0-5.1~)
p332
ass(Vdescription
p333
g306
NVarm64
p334
tp335
(dp336
Vhardware
p337
V64-bit ARMv8 machines
p338
ss(Vdescription
p339
g306
NVcloud-arm64
p340
tp341
(dp342
Vhardware
p343
Varm64 cloud
p344
sVhardware-long
p345
Vcloud platforms supporting arm64 virtual machines
p346
ss(Vimage
p347
g306
NVarm64
p348
tp349
(dp350
s(Vrelations
p351
g306
tp352
(dp353
Vgcc-10
p354
Vgcc-10 <!stage1 !cross !pkg.linux.nokernel>, gcc-10-aarch64-linux-gnu <!stage1 cross !pkg.linux.nokernel>, gcc-arm-linux-gnueabihf <!stage1 !pkg.linux.nokernel>
p355
sVheaders%gcc-10
p356
Vgcc-10
p357
ss(Vbase
p358
g306
Vnone
p359
tp360
(dp361
Vflavours
p362
(lp363
Varm64
p364
aVcloud-arm64
p365
asVdefault-flavour
p366
Varm64
p367
ss(Vimage
p368
g306
g359
Vcloud-arm64
p369
tp370
(dp371
Vconfigs
p372
(lp373
Vconfig.cloud
p374
aVarm64/config.cloud-arm64
p375
ass(Vbase
p376
g306
Vrt
p377
tp378
(dp379
Vflavours
p380
(lp381
Varm64
p382
ass(Vbase
p383
Varm64ilp32
p384
tp385
(dp386
Vkernel-arch
p387
Varm64
p388
sVfeaturesets
p389
(lp390
ss(Vbase
p391
Varmel
p392
tp393
(dp394
Vkernel-arch
p395
Varm
p396
sg188
(lp397
g190
ass(Vbuild
p398
g392
tp399
(dp400
Vimage-file
p401
Varch/arm/boot/zImage
p402
sVuncompressed-image-file
p403
Varch/arm/boot/Image
p404
ss(Vimage
p405
g392
tp406
(dp407
Vinstall-stem
p408
Vvmlinuz
p409
ss(Vrelations
p410
g392
tp411
(dp412
Vheaders%gcc-10
p413
Vlinux-compiler-gcc-10-arm
p414
ss(Vdescription
p415
g392
NVmarvell
p416
tp417
(dp418
Vhardware
p419
VMarvell Kirkwood/Orion
p420
sVhardware-long
p421
VMarvell Kirkwood and Orion based systems (https://wiki.debian.org/ArmEabiPort#Supported_hardware)
p422
ss(Vdescription
p423
g392
NVrpi
p424
tp425
(dp426
Vhardware
p427
VRaspberry Pi and Pi Zero
p428
sVhardware-long
p429
VRaspberry Pi, Raspberry Pi Zero based systems
p430
ss(Vimage
p431
g392
NVmarvell
p432
tp433
(dp434
Vrecommends
p435
(lp436
Vu-boot-tools
p437
asVcheck-size
p438
I2729712
sVcheck-size-with-dtb
p439
I01
sVbreaks
p440
(lp441
Vflash-kernel (<< 3.57~)
p442
ass(g221
g392
g190
tp443
(dp444
g224
(lp445
Vmarvell
p446
aVrpi
p447
asg228
I01
ss(Vbase
p448
Varmhf
p449
tp450
(dp451
Vfeaturesets
p452
(lp453
sVkernel-arch
p454
Varm
p455
ss(Vbase
p456
Vhppa
p457
tp458
(dp459
Vdefault-flavour
p460
Vparisc
p461
sVkernel-arch
p462
Vparisc
p463
sg188
(lp464
g190
ass(Vbuild
p465
g457
tp466
(dp467
Vimage-file
p468
Varch/parisc/boot/bzImage
p469
sVdebug-info
p470
I00
ss(Vimage
p471
g457
tp472
(dp473
Vsuggests
p474
(lp475
Vpalo
p476
asVinstall-stem
p477
Vvmlinuz
p478
ss(Vdescription
p479
g457
NVparisc
p480
tp481
(dp482
Vhardware
p483
V32-bit PA-RISC
p484
sVhardware-long
p485
VHP PA-RISC 32-bit systems with max 4 GB RAM
p486
ss(Vbase
p487
g457
NVparisc64
p488
tp489
(dp490
Vcflags
p491
V-fno-cse-follow-jumps
p492
sVoverride-host-type
p493
Vhppa64-linux-gnu
p494
ss(Vdescription
p495
g457
NVparisc64
p496
tp497
(dp498
Vhardware
p499
V64-bit PA-RISC
p500
sVhardware-long
p501
VHP PA-RISC 64-bit systems with support for more than 4 GB RAM
p502
ss(Vrelations
p503
g457
tp504
(dp505
Vgcc-10
p506
Vgcc-10 <!stage1 !cross !pkg.linux.nokernel>, gcc-10-hppa-linux-gnu <!stage1 cross !pkg.linux.nokernel>, binutils-hppa64-linux-gnu <!stage1 !pkg.linux.nokernel>, gcc-10-hppa64-linux-gnu <!stage1 !pkg.linux.nokernel>
p507
ss(g221
g457
g190
tp508
(dp509
g224
(lp510
Vparisc
p511
aVparisc64
p512
asg228
I01
ss(Vbase
p513
Vi386
p514
tp515
(dp516
Vfeaturesets
p517
(lp518
Vnone
p519
aVrt
p520
asVkernel-arch
p521
Vx86
p522
ss(Vbuild
p523
g514
tp524
(dp525
Vimage-file
p526
Varch/x86/boot/bzImage
p527
sVsigned-code
p528
I01
sVvdso
p529
I01
ss(Vdescription
p530
g514
tp531
(dp532
Vpart-long-pae
p533
VThis kernel requires PAE (Physical Address Extension).\u000aThis feature is supported by the Intel Pentium Pro/II/III/4/4M/D, Xeon,\u000aCore and Atom; AMD Geode NX, Athlon (K7), Duron, Opteron, Sempron,\u000aTurion or Phenom; Transmeta Efficeon; VIA C7; and some other processors.
p534
ss(Vimage
p535
g514
tp536
(dp537
Vbootloaders
p538
(lp539
Vgrub-pc
p540
aVgrub-efi-ia32
p541
aVextlinux
p542
asVinstall-stem
p543
Vvmlinuz
p544
sVbreaks
p545
(lp546
Vxserver-xorg-input-vmmouse (<< 1:13.0.99)
p547
ass(Vrelations
p548
g514
tp549
(dp550
Vheaders%gcc-10
p551
Vlinux-compiler-gcc-10-x86
p552
ss(Vdescription
p553
g514
NV686
p554
tp555
(dp556
Vhardware
p557
Volder PCs
p558
sVhardware-long
p559
VPCs with one or more processors not supporting PAE
p560
ss(Vdescription
p561
g514
NV686-pae
p562
tp563
(dp564
Vhardware
p565
Vmodern PCs
p566
sVhardware-long
p567
VPCs with one or more processors supporting PAE
p568
sVparts
p569
(lp570
Vpae
p571
ass(Vbase
p572
g514
Vnone
p573
tp574
(dp575
Vflavours
p576
(lp577
V686
p578
aV686-pae
p579
asVdefault-flavour
p580
V686-pae
p581
ss(Vbase
p582
g514
Vrt
p583
tp584
(dp585
Vflavours
p586
(lp587
V686-pae
p588
ass(Vbase
p589
Via64
p590
tp591
(dp592
Vdefault-flavour
p593
Vitanium
p594
sVkernel-arch
p595
Via64
p596
sg188
(lp597
g190
ass(Vbuild
p598
g590
tp599
(dp600
Vimage-file
p601
Vvmlinux.gz
p602
ss(Vimage
p603
g590
tp604
(dp605
Vbootloaders
p606
(lp607
Vgrub-efi-ia64
p608
asVinstall-stem
p609
Vvmlinuz
p610
ss(Vdescription
p611
g590
NVitanium
p612
tp613
(dp614
Vhardware
p615
VItanium (Merced)
p616
sVhardware-long
p617
Vsystems with original Itanium (Merced) processors
p618
ss(Vdescription
p619
g590
NVmckinley
p620
tp621
(dp622
Vhardware
p623
VItanium 2+
p624
sVhardware-long
p625
Vsystems with Itanium 2 or 9300/9500/9700-series processors
p626
ss(g221
g590
g190
tp627
(dp628
g224
(lp629
Vitanium
p630
aVmckinley
p631
asg228
I01
ss(Vbase
p632
Vm68k
p633
tp634
(dp635
Vcflags
p636
V-ffreestanding
p637
sVdefault-flavour
p638
Vm68k
p639
sVkernel-arch
p640
Vm68k
p641
sg188
(lp642
g190
ass(Vbuild
p643
g633
tp644
(dp645
Vimage-file
p646
Vvmlinux
p647
ss(Vimage
p648
g633
tp649
(dp650
Vsuggests
p651
(lp652
Vvmelilo
p653
aVfdutils
p654
asVinstall-stem
p655
Vvmlinux
p656
ss(Vdescription
p657
g633
NVm68k
p658
tp659
(dp660
Vhardware
p661
VMotorola MC68020+ family
p662
ss(g221
g633
g190
tp663
(dp664
g224
(lp665
Vm68k
p666
asg228
I01
ss(Vbase
p667
Vmips
p668
tp669
(dp670
Vkernel-arch
p671
Vmips
p672
sg188
(lp673
g190
ass(Vbuild
p674
g668
tp675
(dp676
Vimage-file
p677
Vvmlinuz
p678
ss(Vimage
p679
g668
tp680
(dp681
Vinstall-stem
p682
Vvmlinuz
p683
ss(Vdescription
p684
g668
NV4kc-malta
p685
tp686
(dp687
Vhardware
p688
VMIPS Malta
p689
sVhardware-long
p690
VMIPS Malta boards
p691
ss(Vimage
p692
g668
NV4kc-malta
p693
tp694
(dp695
Vconfigs
p696
(lp697
Vkernelarch-mips/config.malta
p698
aVkernelarch-mips/config.mips32r2
p699
ass(Vdescription
p700
g668
NV5kc-malta
p701
tp702
(dp703
Vhardware
p704
VMIPS Malta (64-bit)
p705
sVhardware-long
p706
VMIPS Malta boards (64-bit)
p707
ss(Vimage
p708
g668
NV5kc-malta
p709
tp710
(dp711
Vconfigs
p712
(lp713
Vkernelarch-mips/config.malta
p714
aVkernelarch-mips/config.mips64r2
p715
ass(Vdescription
p716
g668
NVocteon
p717
tp718
(dp719
Vhardware
p720
VOcteon
p721
sVhardware-long
p722
VCavium Networks Octeon
p723
ss(Vbuild
p724
g668
NVocteon
p725
tp726
(dp727
Vimage-file
p728
Vvmlinux
p729
ss(Vimage
p730
g668
NVocteon
p731
tp732
(dp733
Vinstall-stem
p734
Vvmlinux
p735
sVconfigs
p736
(lp737
Vkernelarch-mips/config.octeon
p738
ass(g221
g668
g190
tp739
(dp740
g224
(lp741
V4kc-malta
p742
aV5kc-malta
p743
aVocteon
p744
asg228
I01
ss(Vbase
p745
Vmips64
p746
tp747
(dp748
Vkernel-arch
p749
Vmips
p750
sg188
(lp751
g190
ass(Vbuild
p752
g746
tp753
(dp754
Vimage-file
p755
Vvmlinuz
p756
ss(Vimage
p757
g746
tp758
(dp759
Vinstall-stem
p760
Vvmlinuz
p761
ss(Vdescription
p762
g746
NV5kc-malta
p763
tp764
(dp765
Vhardware
p766
VMIPS Malta
p767
sVhardware-long
p768
VMIPS Malta boards
p769
ss(Vimage
p770
g746
NV5kc-malta
p771
tp772
(dp773
Vconfigs
p774
(lp775
Vkernelarch-mips/config.malta
p776
aVkernelarch-mips/config.mips64r2
p777
ass(Vdescription
p778
g746
NVocteon
p779
tp780
(dp781
Vhardware
p782
VOcteon
p783
sVhardware-long
p784
VCavium Networks Octeon
p785
ss(Vbuild
p786
g746
NVocteon
p787
tp788
(dp789
Vimage-file
p790
Vvmlinux
p791
ss(Vimage
p792
g746
NVocteon
p793
tp794
(dp795
Vinstall-stem
p796
Vvmlinux
p797
sVconfigs
p798
(lp799
Vkernelarch-mips/config.octeon
p800
ass(g221
g746
g190
tp801
(dp802
g224
(lp803
V5kc-malta
p804
aVocteon
p805
asg228
I01
ss(Vbase
p806
Vmips64el
p807
tp808
(dp809
Vkernel-arch
p810
Vmips
p811
sg188
(lp812
g190
ass(Vbuild
p813
g807
tp814
(dp815
Vimage-file
p816
Vvmlinuz
p817
ss(Vimage
p818
g807
tp819
(dp820
Vinstall-stem
p821
Vvmlinuz
p822
ss(Vdescription
p823
g807
NV5kc-malta
p824
tp825
(dp826
Vhardware
p827
VMIPS Malta
p828
sVhardware-long
p829
VMIPS Malta boards
p830
ss(Vimage
p831
g807
NV5kc-malta
p832
tp833
(dp834
Vconfigs
p835
(lp836
Vkernelarch-mips/config.malta
p837
aVkernelarch-mips/config.mips64r2
p838
ass(Vdescription
p839
g807
NVloongson-3
p840
tp841
(dp842
Vhardware
p843
VLoongson 3A/3B
p844
sVhardware-long
p845
VLoongson 3A or 3B based systems (e.g. from Loongson or Lemote)
p846
ss(Vimage
p847
g807
NVloongson-3
p848
tp849
(dp850
Vconfigs
p851
(lp852
Vkernelarch-mips/config.loongson-3
p853
ass(Vdescription
p854
g807
NVocteon
p855
tp856
(dp857
Vhardware
p858
VOcteon
p859
sVhardware-long
p860
VCavium Networks Octeon
p861
ss(Vbuild
p862
g807
NVocteon
p863
tp864
(dp865
Vimage-file
p866
Vvmlinux
p867
ss(Vimage
p868
g807
NVocteon
p869
tp870
(dp871
Vinstall-stem
p872
Vvmlinux
p873
sVconfigs
p874
(lp875
Vkernelarch-mips/config.octeon
p876
ass(g221
g807
g190
tp877
(dp878
g224
(lp879
V5kc-malta
p880
aVloongson-3
p881
aVocteon
p882
asg228
I01
ss(Vbase
p883
Vmips64r6
p884
tp885
(dp886
Vdefault-flavour
p887
Vmips64r6
p888
sVkernel-arch
p889
Vmips
p890
sg188
(lp891
g190
ass(Vbuild
p892
g884
tp893
(dp894
Vimage-file
p895
Vvmlinux
p896
ss(Vimage
p897
g884
tp898
(dp899
Vinstall-stem
p900
Vvmlinux
p901
ss(Vdescription
p902
g884
NVmips64r6
p903
tp904
(dp905
Vhardware
p906
VMIPS R6 (64 bit, big endian)
p907
sVhardware-long
p908
VMIPS R6 (64 bit, big endian)
p909
ss(Vimage
p910
g884
NVmips64r6
p911
tp912
(dp913
Vconfigs
p914
(lp915
Vkernelarch-mips/config.boston
p916
aVkernelarch-mips/config.mips64r6
p917
ass(g221
g884
g190
tp918
(dp919
g224
(lp920
Vmips64r6
p921
asg228
I01
ss(Vbase
p922
Vmips64r6el
p923
tp924
(dp925
Vdefault-flavour
p926
Vmips64r6el
p927
sVkernel-arch
p928
Vmips
p929
sg188
(lp930
g190
ass(Vbuild
p931
g923
tp932
(dp933
Vimage-file
p934
Vvmlinux
p935
ss(Vimage
p936
g923
tp937
(dp938
Vinstall-stem
p939
Vvmlinux
p940
ss(Vdescription
p941
g923
NVmips64r6el
p942
tp943
(dp944
Vhardware
p945
VMIPS R6 (64 bit, little endian)
p946
sVhardware-long
p947
VMIPS R6 (64 bit, little endian)
p948
ss(Vimage
p949
g923
NVmips64r6el
p950
tp951
(dp952
Vconfigs
p953
(lp954
Vkernelarch-mips/config.boston
p955
aVkernelarch-mips/config.mips64r6
p956
ass(g221
g923
g190
tp957
(dp958
g224
(lp959
Vmips64r6el
p960
asg228
I01
ss(Vbase
p961
Vmipsel
p962
tp963
(dp964
Vkernel-arch
p965
Vmips
p966
sg188
(lp967
g190
ass(Vbuild
p968
g962
tp969
(dp970
Vimage-file
p971
Vvmlinuz
p972
ss(Vimage
p973
g962
tp974
(dp975
Vinstall-stem
p976
Vvmlinuz
p977
ss(Vdescription
p978
g962
NV4kc-malta
p979
tp980
(dp981
Vhardware
p982
VMIPS Malta
p983
sVhardware-long
p984
VMIPS Malta boards
p985
ss(Vimage
p986
g962
NV4kc-malta
p987
tp988
(dp989
Vconfigs
p990
(lp991
Vkernelarch-mips/config.malta
p992
aVkernelarch-mips/config.mips32r2
p993
ass(Vdescription
p994
g962
NV5kc-malta
p995
tp996
(dp997
Vhardware
p998
VMIPS Malta (64-bit)
p999
sVhardware-long
p1000
VMIPS Malta boards (64-bit)
p1001
ss(Vimage
p1002
g962
NV5kc-malta
p1003
tp1004
(dp1005
Vconfigs
p1006
(lp1007
Vkernelarch-mips/config.malta
p1008
aVkernelarch-mips/config.mips64r2
p1009
ass(Vdescription
p1010
g962
NVloongson-3
p1011
tp1012
(dp1013
Vhardware
p1014
VLoongson 3A/3B
p1015
sVhardware-long
p1016
VLoongson 3A or 3B based systems (e.g. from Loongson or Lemote)
p1017
ss(Vimage
p1018
g962
NVloongson-3
p1019
tp1020
(dp1021
Vconfigs
p1022
(lp1023
Vkernelarch-mips/config.loongson-3
p1024
ass(Vdescription
p1025
g962
NVocteon
p1026
tp1027
(dp1028
Vhardware
p1029
VOcteon
p1030
sVhardware-long
p1031
VCavium Networks Octeon
p1032
ss(Vbuild
p1033
g962
NVocteon
p1034
tp1035
(dp1036
Vimage-file
p1037
Vvmlinux
p1038
ss(Vimage
p1039
g962
NVocteon
p1040
tp1041
(dp1042
Vinstall-stem
p1043
Vvmlinux
p1044
sVconfigs
p1045
(lp1046
Vkernelarch-mips/config.octeon
p1047
ass(g221
g962
g190
tp1048
(dp1049
g224
(lp1050
V4kc-malta
p1051
aV5kc-malta
p1052
aVloongson-3
p1053
aVocteon
p1054
asg228
I01
ss(Vbase
p1055
Vmipsn32
p1056
tp1057
(dp1058
Vkernel-arch
p1059
Vmips
p1060
sVfeaturesets
p1061
(lp1062
ss(Vbase
p1063
Vmipsn32el
p1064
tp1065
(dp1066
Vkernel-arch
p1067
Vmips
p1068
sVfeaturesets
p1069
(lp1070
ss(Vbase
p1071
Vmipsn32r6
p1072
tp1073
(dp1074
Vkernel-arch
p1075
Vmips
p1076
sVfeaturesets
p1077
(lp1078
ss(Vbase
p1079
Vmipsn32r6el
p1080
tp1081
(dp1082
Vkernel-arch
p1083
Vmips
p1084
sVfeaturesets
p1085
(lp1086
ss(Vbase
p1087
Vmipsr6
p1088
tp1089
(dp1090
Vdefault-flavour
p1091
Vmips32r6
p1092
sVkernel-arch
p1093
Vmips
p1094
sg188
(lp1095
g190
ass(Vbuild
p1096
g1088
tp1097
(dp1098
Vimage-file
p1099
Vvmlinux
p1100
ss(Vimage
p1101
g1088
tp1102
(dp1103
Vinstall-stem
p1104
Vvmlinux
p1105
ss(Vdescription
p1106
g1088
NVmips32r6
p1107
tp1108
(dp1109
Vhardware
p1110
VMIPS R6 (32 bit, big endian)
p1111
sVhardware-long
p1112
VMIPS R6 (32 bit, big endian)
p1113
ss(Vimage
p1114
g1088
NVmips32r6
p1115
tp1116
(dp1117
Vconfigs
p1118
(lp1119
Vkernelarch-mips/config.boston
p1120
aVkernelarch-mips/config.mips32r6
p1121
ass(Vdescription
p1122
g1088
NVmips64r6
p1123
tp1124
(dp1125
Vhardware
p1126
VMIPS R6 (64 bit, big endian)
p1127
sVhardware-long
p1128
VMIPS R6 (64 bit, big endian)
p1129
ss(Vimage
p1130
g1088
NVmips64r6
p1131
tp1132
(dp1133
Vconfigs
p1134
(lp1135
Vkernelarch-mips/config.boston
p1136
aVkernelarch-mips/config.mips64r6
p1137
ass(g221
g1088
g190
tp1138
(dp1139
g224
(lp1140
Vmips32r6
p1141
aVmips64r6
p1142
asg228
I01
ss(Vbase
p1143
Vmipsr6el
p1144
tp1145
(dp1146
Vdefault-flavour
p1147
Vmips32r6el
p1148
sVkernel-arch
p1149
Vmips
p1150
sg188
(lp1151
g190
ass(Vbuild
p1152
g1144
tp1153
(dp1154
Vimage-file
p1155
Vvmlinux
p1156
ss(Vimage
p1157
g1144
tp1158
(dp1159
Vinstall-stem
p1160
Vvmlinux
p1161
ss(Vdescription
p1162
g1144
NVmips32r6el
p1163
tp1164
(dp1165
Vhardware
p1166
VMIPS R6 (32 bit, little endian)
p1167
sVhardware-long
p1168
VMIPS R6 (32 bit, little endian)
p1169
ss(Vimage
p1170
g1144
NVmips32r6el
p1171
tp1172
(dp1173
Vconfigs
p1174
(lp1175
Vkernelarch-mips/config.boston
p1176
aVkernelarch-mips/config.mips32r6
p1177
ass(Vdescription
p1178
g1144
NVmips64r6el
p1179
tp1180
(dp1181
Vhardware
p1182
VMIPS R6 (64 bit, little endian)
p1183
sVhardware-long
p1184
VMIPS R6 (64 bit, little endian)
p1185
ss(Vimage
p1186
g1144
NVmips64r6el
p1187
tp1188
(dp1189
Vconfigs
p1190
(lp1191
Vkernelarch-mips/config.boston
p1192
aVkernelarch-mips/config.mips64r6
p1193
ass(g221
g1144
g190
tp1194
(dp1195
g224
(lp1196
Vmips32r6el
p1197
aVmips64r6el
p1198
asg228
I01
ss(Vbase
p1199
Vpowerpc
p1200
tp1201
(dp1202
Vkernel-arch
p1203
Vpowerpc
p1204
sg188
(lp1205
g190
ass(Vbuild
p1206
g1200
tp1207
(dp1208
Vimage-file
p1209
Vvmlinux
p1210
sVvdso
p1211
I01
ss(Vimage
p1212
g1200
tp1213
(dp1214
Vconfigs
p1215
(lp1216
sVbootloaders
p1217
(lp1218
Vgrub-ieee1275
p1219
asVsuggests
p1220
(lp1221
Vmkvmlinuz
p1222
asVinstall-stem
p1223
Vvmlinux
p1224
ss(Vdescription
p1225
g1200
NVpowerpc
p1226
tp1227
(dp1228
Vhardware
p1229
Vuniprocessor 32-bit PowerPC
p1230
ss(Vdescription
p1231
g1200
NVpowerpc-smp
p1232
tp1233
(dp1234
Vhardware
p1235
Vmultiprocessor 32-bit PowerPC
p1236
ss(Vimage
p1237
g1200
NVpowerpc-smp
p1238
tp1239
(dp1240
Vconfigs
p1241
(lp1242
Vpowerpc/config.powerpc
p1243
aVpowerpc/config.powerpc-smp
p1244
ass(Vdescription
p1245
g1200
NVpowerpc64
p1246
tp1247
(dp1248
Vhardware
p1249
V64-bit PowerPC
p1250
ss(Vimage
p1251
g1200
NVpowerpc64
p1252
tp1253
(dp1254
Vconfigs
p1255
(lp1256
Vkernelarch-powerpc/config-arch-64
p1257
aVkernelarch-powerpc/config-arch-64-be
p1258
ass(g221
g1200
g190
tp1259
(dp1260
g224
(lp1261
Vpowerpc
p1262
aVpowerpc-smp
p1263
aVpowerpc64
p1264
asg228
I01
ss(Vbase
p1265
Vppc64
p1266
tp1267
(dp1268
Vdefault-flavour
p1269
Vpowerpc64
p1270
sVkernel-arch
p1271
Vpowerpc
p1272
sg188
(lp1273
g190
ass(Vbuild
p1274
g1266
tp1275
(dp1276
Vimage-file
p1277
Vvmlinux
p1278
sVvdso
p1279
I01
ss(Vimage
p1280
g1266
tp1281
(dp1282
Vconfigs
p1283
(lp1284
sVbootloaders
p1285
(lp1286
Vgrub-ieee1275
p1287
asVsuggests
p1288
(lp1289
Vmkvmlinuz
p1290
asVinstall-stem
p1291
Vvmlinux
p1292
ss(Vdescription
p1293
g1266
NVpowerpc64
p1294
tp1295
(dp1296
Vhardware
p1297
V64-bit PowerPC
p1298
ss(Vimage
p1299
g1266
NVpowerpc64
p1300
tp1301
(dp1302
Vconfigs
p1303
(lp1304
Vkernelarch-powerpc/config-arch-64
p1305
aVkernelarch-powerpc/config-arch-64-be
p1306
ass(g221
g1266
g190
tp1307
(dp1308
g224
(lp1309
Vpowerpc64
p1310
asg228
I01
ss(Vbase
p1311
Vppc64el
p1312
tp1313
(dp1314
Vdefault-flavour
p1315
Vpowerpc64le
p1316
sVkernel-arch
p1317
Vpowerpc
p1318
sg188
(lp1319
g190
ass(Vbuild
p1320
g1312
tp1321
(dp1322
Vimage-file
p1323
Vvmlinux
p1324
sVvdso
p1325
I01
ss(Vimage
p1326
g1312
tp1327
(dp1328
Vconfigs
p1329
(lp1330
sVbootloaders
p1331
(lp1332
Vgrub-ieee1275
p1333
asVsuggests
p1334
(lp1335
Vmkvmlinuz
p1336
asVinstall-stem
p1337
Vvmlinux
p1338
ss(Vdescription
p1339
g1312
NVpowerpc64le
p1340
tp1341
(dp1342
Vhardware
p1343
VLittle-endian 64-bit PowerPC
p1344
ss(Vimage
p1345
g1312
NVpowerpc64le
p1346
tp1347
(dp1348
Vconfigs
p1349
(lp1350
Vkernelarch-powerpc/config-arch-64
p1351
aVkernelarch-powerpc/config-arch-64-le
p1352
ass(g221
g1312
g190
tp1353
(dp1354
g224
(lp1355
Vpowerpc64le
p1356
asg228
I01
ss(Vbase
p1357
Vriscv64
p1358
tp1359
(dp1360
Vkernel-arch
p1361
Vriscv
p1362
sVfeaturesets
p1363
(lp1364
Vnone
p1365
ass(Vbuild
p1366
g1358
tp1367
(dp1368
Vimage-file
p1369
Varch/riscv/boot/Image
p1370
sVvdso
p1371
I01
ss(Vimage
p1372
g1358
tp1373
(dp1374
Vinstall-stem
p1375
Vvmlinux
p1376
ss(Vdescription
p1377
g1358
NVriscv64
p1378
tp1379
(dp1380
Vhardware
p1381
V64-bit RISC-V platforms
p1382
sVhardware-long
p1383
V64-bit RISC-V platforms
p1384
ss(Vbase
p1385
g1358
Vnone
p1386
tp1387
(dp1388
Vflavours
p1389
(lp1390
Vriscv64
p1391
asVdefault-flavour
p1392
Vriscv64
p1393
ss(Vbase
p1394
Vs390
p1395
tp1396
(dp1397
Vkernel-arch
p1398
Vs390
p1399
sVfeaturesets
p1400
(lp1401
ss(Vbase
p1402
Vs390x
p1403
tp1404
(dp1405
Vdefault-flavour
p1406
Vs390x
p1407
sVkernel-arch
p1408
Vs390
p1409
sg188
(lp1410
g190
ass(Vbuild
p1411
g1403
tp1412
(dp1413
Vimage-file
p1414
Varch/s390/boot/bzImage
p1415
sVvdso
p1416
I01
ss(Vimage
p1417
g1403
tp1418
(dp1419
Vbootloaders
p1420
(lp1421
Vs390-tools
p1422
asVinstall-stem
p1423
Vvmlinuz
p1424
ss(Vrelations
p1425
g1403
tp1426
(dp1427
Vheaders%gcc-10
p1428
Vlinux-compiler-gcc-10-s390
p1429
ss(Vdescription
p1430
g1403
NVs390x
p1431
tp1432
(dp1433
Vhardware
p1434
VIBM zSeries
p1435
ss(g221
g1403
g190
tp1436
(dp1437
g224
(lp1438
Vs390x
p1439
asg228
I01
ss(Vbase
p1440
Vsh3
p1441
tp1442
(dp1443
Vkernel-arch
p1444
Vsh
p1445
sVfeaturesets
p1446
(lp1447
ss(Vbase
p1448
Vsh4
p1449
tp1450
(dp1451
Vkernel-arch
p1452
Vsh
p1453
sg188
(lp1454
g190
ass(Vbuild
p1455
g1449
tp1456
(dp1457
Vimage-file
p1458
Varch/sh/boot/zImage
p1459
ss(Vimage
p1460
g1449
tp1461
(dp1462
Vinstall-stem
p1463
Vvmlinuz
p1464
ss(Vdescription
p1465
g1449
NVsh7751r
p1466
tp1467
(dp1468
Vhardware
p1469
Vsh7751r
p1470
sVhardware-long
p1471
VRenesas SH7751R R2D plus board
p1472
ss(Vdescription
p1473
g1449
NVsh7785lcr
p1474
tp1475
(dp1476
Vhardware
p1477
Vsh7785lcr
p1478
sVhardware-long
p1479
VRenesas SH7785 reference board
p1480
ss(Vimage
p1481
g1449
NVsh7785lcr
p1482
tp1483
(dp1484
Vrecommends
p1485
(lp1486
Vu-boot-tools
p1487
asVcheck-size
p1488
I4194304
ss(g221
g1449
g190
tp1489
(dp1490
g224
(lp1491
Vsh7751r
p1492
aVsh7785lcr
p1493
asg228
I01
ss(Vbase
p1494
Vsparc
p1495
tp1496
(dp1497
Vkernel-arch
p1498
Vsparc
p1499
sVfeaturesets
p1500
(lp1501
ss(Vbase
p1502
Vsparc64
p1503
tp1504
(dp1505
Vdefault-flavour
p1506
Vsparc64-smp
p1507
sVkernel-arch
p1508
Vsparc
p1509
sg188
(lp1510
g190
ass(Vbuild
p1511
g1503
tp1512
(dp1513
Vimage-file
p1514
Vvmlinux
p1515
ss(Vimage
p1516
g1503
tp1517
(dp1518
Vconfigs
p1519
(lp1520
sVbootloaders
p1521
(lp1522
Vgrub-ieee1275
p1523
asVsuggests
p1524
(lp1525
Vfdutils
p1526
asVinstall-stem
p1527
Vvmlinux
p1528
ss(Vdescription
p1529
g1503
NVsparc64
p1530
tp1531
(dp1532
Vhardware
p1533
Vuniprocessor 64-bit UltraSPARC
p1534
ss(Vimage
p1535
g1503
NVsparc64
p1536
tp1537
(dp1538
Vconfigs
p1539
(lp1540
Vkernelarch-sparc/config-up
p1541
ass(Vdescription
p1542
g1503
NVsparc64-smp
p1543
tp1544
(dp1545
Vhardware
p1546
Vmultiprocessor 64-bit UltraSPARC
p1547
ss(Vimage
p1548
g1503
NVsparc64-smp
p1549
tp1550
(dp1551
Vconfigs
p1552
(lp1553
Vkernelarch-sparc/config-smp
p1554
ass(g221
g1503
g190
tp1555
(dp1556
g224
(lp1557
Vsparc64
p1558
aVsparc64-smp
p1559
asg228
I01
ss(Vbase
p1560
Vx32
p1561
tp1562
(dp1563
Vkernel-arch
p1564
Vx86
p1565
sVfeaturesets
p1566
(lp1567
ss(Vabi
p1568
NVrt
p1569
tp1570
(dp1571
Vignore-changes
p1572
(lp1573
V*
p1574
ass(Vdescription
p1575
Ng1569
tp1576
(dp1577
Vpart-long-rt
p1578
VThis kernel includes the PREEMPT_RT realtime patch set.
p1579
sVpart-short-rt
p1580
VPREEMPT_RT
p1581
sVparts
p1582
(lp1583
Vrt
p1584
ass(Vversion
p1585
tp1586
(dp1587
Vsource
p1588
V5.10.113-1+rpi1
p1589
sVupstream
p1590
V5.10
p1591
sVabiname_base
p1592
V5.10.0
p1593
sVabiname
p1594
V5.10.0-14
p1595
ss.