cdebian_linux.config
ConfigCore
p0
(tRp1
(Vabi
p2
tp3
(dp4
Vabiname
p5
V1
p6
sVignore-changes
p7
(lp8
V__cpuhp_*
p9
aV__udp_gso_segment
p10
aVbpf_analyzer
p11
aVbpf_offload_dev_create
p12
aVbpf_verifier_log_write
p13
aVcxl_*
p14
aVdax_flush
p15
aVieee80211_nullfunc_get
p16
aVinet_add_protocol
p17
aVinet_del_protocol
p18
aViommu_device_*
p19
aVmm_iommu_*
p20
aVmv_mbus_*
p21
aVperf_*
p22
aVregister_cxl_calls
p23
aVregister_key_type
p24
aVunregister_cxl_calls
p25
aV*_hw_breakpoint
p26
aVmodule:drivers/crypto/ccp/*
p27
aVmodule:drivers/hv/*
p28
aVmodule:drivers/gpu/drm/sun4i/*
p29
aVmodule:drivers/iio/**
p30
aVmodule:drivers/misc/cxl/*
p31
aVmodule:drivers/misc/lis3lv02d/*
p32
aVmodule:drivers/mtd/nand/*
p33
aVmodule:drivers/net/ethernet/**
p34
aVmodule:drivers/net/wireless/**
p35
aVmodule:drivers/nvdimm/*
p36
aVmodule:drivers/nvme/**
p37
aVmodule:drivers/power/supply/bq27xxx_battery
p38
aVmodule:drivers/scsi/cxgbi/*
p39
aVmodule:drivers/scsi/libiscs*
p40
aVmodule:drivers/scsi/qla2xxx/qla2xxx
p41
aVmodule:drivers/scsi/ufs/*
p42
aVmodule:drivers/target/**
p43
aVmodule:drivers/usb/chipidea/**
p44
aVmodule:drivers/usb/gadget/**
p45
aVmodule:drivers/usb/host/**
p46
aVmodule:drivers/usb/musb/**
p47
aVmodule:fs/nfs/**
p48
aVmodule:net/ceph/libceph
p49
aVmodule:net/l2tp/**
p50
aVmodule:net/openvswitch/**
p51
aVmodule:net/rxrpc/rxrpc
p52
aVmodule:net/sctp/**
p53
aVmodule:sound/core/seq/**
p54
aVmodule:sound/firewire/snd-firewire-lib
p55
aVmodule:sound/pci/hda/*
p56
aVbtree_*
p57
aVvisitor*
p58
aVcan_rx_register
p59
aVip6_xmit
p60
aVmodule:net/dccp/dccp
p61
aVmodule:net/rds/rds
p62
aVdevfreq_*
p63
aVdevm_devfreq_*
p64
aVupdate_devfreq
p65
aVmodule:drivers/infiniband/**
p66
aVacpi_ec_add_query_handler
p67
aVacpi_ec_remove_query_handler
p68
aVfirst_ec
p69
aVdebugfs_create_automount
p70
aVmodule:drivers/iio/imu/inv_mpu6050/*
p71
aVdrm_crtc_accurate_vblank_count
p72
aVacpi_nfit_desc_init
p73
aVacpi_nfit_init
p74
aVloop_register_transfer
p75
aVxen_xlate_*
p76
aVnf_nat_masquerade_ipv4_register_notifier
p77
aVnf_nat_masquerade_ipv6_register_notifier
p78
aVdfltcc_*
p79
aVmodule:drivers/scsi/hisi_sas/*
p80
aV__gfn_*
p81
aV__kvmhv_*
p82
aV__kvm_*
p83
aV__xive_vm_h_*
p84
aVgfn_*
p85
aVh_ipi_redirect
p86
aVhalt_poll_ns*
p87
aVkvm_*
p88
aVkvmhv_*
p89
aVkvmppc_*
p90
aVmark_page_dirty
p91
aVvcpu_*
p92
aVmodule:arch/powerpc/kvm/*
p93
aVmodule:arch/s390/kvm/*
p94
aVmodule:arch/x86/kvm/*
p95
aVuv_info
p96
aVxhci_init_driver
p97
aVxfrm_bpf_md_dst
p98
ass(Vbase
p99
tp100
(dp101
Varches
p102
(lp103
Valpha
p104
aVamd64
p105
aVarm64
p106
aVarm64ilp32
p107
aVarmel
p108
aVarmhf
p109
aVhppa
p110
aVi386
p111
aVia64
p112
aVm68k
p113
aVmips
p114
aVmips64
p115
aVmips64el
p116
aVmips64r6
p117
aVmips64r6el
p118
aVmipsel
p119
aVmipsn32
p120
aVmipsn32el
p121
aVmipsn32r6
p122
aVmipsn32r6el
p123
aVmipsr6
p124
aVmipsr6el
p125
aVpowerpc
p126
aVppc64
p127
aVppc64el
p128
aVriscv64
p129
aVs390
p130
aVs390x
p131
aVsh3
p132
aVsh4
p133
aVsparc
p134
aVsparc64
p135
aVx32
p136
asVcompiler
p137
Vgcc-13
p138
sVfeaturesets
p139
(lp140
Vnone
p141
aVrt
p142
ass(Vbuild
p143
tp144
(dp145
Vsigned-code
p146
I00
sVtrusted-certs
p147
Vdebian/certs/debian-uefi-certs.pem
p148
ss(Vbase
p149
NVrt
p150
tp151
(dp152
Venabled
p153
I01
ss(Vdescription
p154
tp155
(dp156
Vpart-long-up
p157
VThis kernel is not suitable for SMP (multi-processor, multi-core or hyper-threaded) systems.
p158
ss(Vimage
p159
tp160
(dp161
Vinitramfs-generators
p162
(lp163
Vinitramfs-tools
p164
aVinitramfs-fallback
p165
asVbreaks
p166
(lp167
Vfwupdate (<< 12-7)
p168
aVwireless-regdb (<< 2019.06.03-1~)
p169
asVrecommends
p170
(lp171
Vapparmor
p172
ass(Vrelations
p173
tp174
(dp175
Vgcc-13
p176
Vgcc-13 <!stage1 !cross !pkg.linux.nokernel>, gcc-13-@gnu-type-package@ <!stage1 cross !pkg.linux.nokernel>
p177
sVinitramfs-fallback
p178
Vlinux-initramfs-tool
p179
sVinitramfs-tools
p180
Vinitramfs-tools (>= 0.120+deb8u2)
p181
ss(Vbase
p182
Valpha
p183
tp184
(dp185
Vdefault-flavour
p186
Valpha-smp
p187
sVkernel-arch
p188
Valpha
p189
sVfeaturesets
p190
(lp191
Vnone
p192
ass(Vbuild
p193
g183
tp194
(dp195
Vimage-file
p196
Varch/alpha/boot/vmlinux.gz
p197
ss(Vimage
p198
g183
tp199
(dp200
Vsuggests
p201
(lp202
Vaboot
p203
aVfdutils
p204
asVinstall-stem
p205
Vvmlinuz
p206
ss(Vdescription
p207
g183
NValpha-generic
p208
tp209
(dp210
Vhardware
p211
VAlpha
p212
sVhardware-long
p213
VDEC Alpha systems with extended kernel start address (Wildfire, Titan, Marvel)
p214
ss(Vdescription
p215
g183
NValpha-smp
p216
tp217
(dp218
Vhardware
p219
VAlpha SMP
p220
sVhardware-long
p221
VDEC Alpha SMP systems with extended kernel start address (Wildfire, Titan, Marvel)
p222
ss(Vbase
p223
g183
g192
tp224
(dp225
Vflavours
p226
(lp227
Valpha-generic
p228
aValpha-smp
p229
asVimplicit-flavour
p230
I01
ss(Vbase
p231
Vamd64
p232
tp233
(dp234
Vfeaturesets
p235
(lp236
Vnone
p237
aVrt
p238
asVkernel-arch
p239
Vx86
p240
ss(Vbuild
p241
g232
tp242
(dp243
Vimage-file
p244
Varch/x86/boot/bzImage
p245
sVsigned-code
p246
I01
sVvdso
p247
I01
ss(Vimage
p248
g232
tp249
(dp250
Vbootloaders
p251
(lp252
Vgrub-pc
p253
aVgrub-efi-amd64
p254
aVextlinux
p255
asVinstall-stem
p256
Vvmlinuz
p257
ss(Vrelations
p258
g232
tp259
(dp260
Vheaders%gcc-13
p261
Vlinux-compiler-gcc-13-x86
p262
ss(Vdescription
p263
g232
NVamd64
p264
tp265
(dp266
Vhardware
p267
V64-bit PCs
p268
sVhardware-long
p269
VPCs with AMD64, Intel 64 or VIA Nano processors
p270
ss(Vdescription
p271
g232
NVcloud-amd64
p272
tp273
(dp274
Vhardware
p275
Vx86-64 cloud
p276
sVhardware-long
p277
Vcloud platforms including Amazon EC2, Microsoft Azure, and Google Compute Engine
p278
ss(Vbase
p279
g232
Vnone
p280
tp281
(dp282
Vflavours
p283
(lp284
Vamd64
p285
aVcloud-amd64
p286
asVdefault-flavour
p287
Vamd64
p288
sVquick-flavour
p289
Vcloud-amd64
p290
ss(Vimage
p291
g232
g280
Vcloud-amd64
p292
tp293
(dp294
Vconfigs
p295
(lp296
Vconfig.cloud
p297
aVamd64/config.cloud-amd64
p298
ass(Vbase
p299
g232
Vrt
p300
tp301
(dp302
Vflavours
p303
(lp304
Vamd64
p305
ass(Vbase
p306
Varm64
p307
tp308
(dp309
Vcompat-deb-arch
p310
Varmhf
p311
sVcompat-gnu-type
p312
Varm-linux-gnueabihf
p313
sVkernel-arch
p314
Varm64
p315
sVfeaturesets
p316
(lp317
Vnone
p318
aVrt
p319
ass(Vbuild
p320
g307
tp321
(dp322
Vimage-file
p323
Varch/arm64/boot/Image
p324
sVsigned-code
p325
I01
sVvdso
p326
I01
ss(Vimage
p327
g307
tp328
(dp329
Vinstall-stem
p330
Vvmlinuz
p331
ss(Vdescription
p332
g307
NVarm64
p333
tp334
(dp335
Vhardware
p336
V64-bit ARMv8 machines
p337
ss(Vdescription
p338
g307
NVcloud-arm64
p339
tp340
(dp341
Vhardware
p342
Varm64 cloud
p343
sVhardware-long
p344
Vcloud platforms supporting arm64 virtual machines
p345
ss(Vimage
p346
g307
NVarm64
p347
tp348
(dp349
s(Vrelations
p350
g307
tp351
(dp352
Vgcc-13
p353
Vgcc-13 <!stage1 !cross !pkg.linux.nokernel>, gcc-13-aarch64-linux-gnu <!stage1 cross !pkg.linux.nokernel>, gcc-arm-linux-gnueabihf <!stage1 !pkg.linux.nokernel>
p354
sVheaders%gcc-13
p355
Vgcc-13
p356
ss(Vbase
p357
g307
Vnone
p358
tp359
(dp360
Vflavours
p361
(lp362
Varm64
p363
aVcloud-arm64
p364
asVdefault-flavour
p365
Varm64
p366
sVquick-flavour
p367
Vcloud-arm64
p368
ss(Vimage
p369
g307
g358
Vcloud-arm64
p370
tp371
(dp372
Vconfigs
p373
(lp374
Vconfig.cloud
p375
aVarm64/config.cloud-arm64
p376
ass(Vbase
p377
g307
Vrt
p378
tp379
(dp380
Vflavours
p381
(lp382
Varm64
p383
ass(Vbase
p384
Varm64ilp32
p385
tp386
(dp387
Vkernel-arch
p388
Varm64
p389
sVfeaturesets
p390
(lp391
ss(Vbase
p392
Varmel
p393
tp394
(dp395
Vkernel-arch
p396
Varm
p397
sg190
(lp398
g192
ass(Vbuild
p399
g393
tp400
(dp401
Vimage-file
p402
Varch/arm/boot/zImage
p403
sVuncompressed-image-file
p404
Varch/arm/boot/Image
p405
ss(Vimage
p406
g393
tp407
(dp408
Vinstall-stem
p409
Vvmlinuz
p410
ss(Vrelations
p411
g393
tp412
(dp413
Vheaders%gcc-13
p414
Vlinux-compiler-gcc-13-arm
p415
ss(Vdescription
p416
g393
NVmarvell
p417
tp418
(dp419
Vhardware
p420
VMarvell Kirkwood/Orion
p421
sVhardware-long
p422
VMarvell Kirkwood and Orion based systems (https://wiki.debian.org/ArmEabiPort#Supported_hardware)
p423
ss(Vdescription
p424
g393
NVrpi
p425
tp426
(dp427
Vhardware
p428
VRaspberry Pi Zero, Zero W and 1
p429
sVhardware-long
p430
VRaspberry Pi Zero, Zero W and 1 based systems
p431
ss(Vimage
p432
g393
NVmarvell
p433
tp434
(dp435
Vrecommends
p436
(lp437
Vu-boot-tools
p438
asVcheck-size
p439
I2729712
sVcheck-size-with-dtb
p440
I01
ss(g223
g393
g192
tp441
(dp442
g226
(lp443
Vmarvell
p444
aVrpi
p445
asg230
I01
ss(Vbase
p446
Varmhf
p447
tp448
(dp449
Vfeaturesets
p450
(lp451
sVkernel-arch
p452
Varm
p453
ss(Vbase
p454
Vhppa
p455
tp456
(dp457
Vdefault-flavour
p458
Vparisc
p459
sVkernel-arch
p460
Vparisc
p461
sg190
(lp462
g192
ass(Vbuild
p463
g455
tp464
(dp465
Vimage-file
p466
Varch/parisc/boot/bzImage
p467
ss(Vimage
p468
g455
tp469
(dp470
Vsuggests
p471
(lp472
Vpalo
p473
asVinstall-stem
p474
Vvmlinuz
p475
ss(Vrelations
p476
g455
tp477
(dp478
Vgcc-13
p479
Vgcc-13 <!stage1 !cross !pkg.linux.nokernel>, gcc-13-hppa-linux-gnu <!stage1 cross !pkg.linux.nokernel>, gcc-hppa-linux-gnu <!stage1 cross !pkg.linux.nokernel>, binutils-hppa64-linux-gnu:native <!stage1 !pkg.linux.nokernel>, gcc-13-hppa64-linux-gnu:native <!stage1 !pkg.linux.nokernel>
p480
ss(Vdescription
p481
g455
NVparisc
p482
tp483
(dp484
Vhardware
p485
V32-bit PA-RISC
p486
sVhardware-long
p487
VHP PA-RISC 32-bit systems with max 4 GB RAM
p488
ss(Vrelations
p489
g455
NVparisc
p490
tp491
(dp492
Vheaders%gcc-13
p493
Vgcc-13
p494
ss(Vbase
p495
g455
NVparisc64
p496
tp497
(dp498
Vcflags
p499
V-fno-cse-follow-jumps
p500
sVkernel-deb-arch
p501
Vundefined
p502
sVkernel-gnu-type
p503
Vhppa64-linux-gnu
p504
sVcompat-deb-arch
p505
Vhppa
p506
sVcompat-gnu-type
p507
Vhppa-linux-gnu
p508
ss(Vdescription
p509
g455
NVparisc64
p510
tp511
(dp512
Vhardware
p513
V64-bit PA-RISC
p514
sVhardware-long
p515
VHP PA-RISC 64-bit systems with support for more than 4 GB RAM
p516
ss(Vrelations
p517
g455
NVparisc64
p518
tp519
(dp520
Vheaders%gcc-13
p521
Vgcc-13-hppa64-linux-gnu
p522
ss(g223
g455
g192
tp523
(dp524
g226
(lp525
Vparisc
p526
aVparisc64
p527
asg230
I01
ss(Vbase
p528
Vi386
p529
tp530
(dp531
Vfeaturesets
p532
(lp533
Vnone
p534
aVrt
p535
asVkernel-arch
p536
Vx86
p537
ss(Vbuild
p538
g529
tp539
(dp540
Vimage-file
p541
Varch/x86/boot/bzImage
p542
sVsigned-code
p543
I01
sVvdso
p544
I01
ss(Vdescription
p545
g529
tp546
(dp547
Vpart-long-pae
p548
VThis kernel requires PAE (Physical Address Extension). This feature is supported by the Intel Pentium Pro/II/III/4/4M/D, Xeon, Core and Atom; AMD Geode NX, Athlon (K7), Duron, Opteron, Sempron, Turion or Phenom; Transmeta Efficeon; VIA C7; and some other processors.
p549
ss(Vimage
p550
g529
tp551
(dp552
Vbootloaders
p553
(lp554
Vgrub-pc
p555
aVgrub-efi-ia32
p556
aVextlinux
p557
asVinstall-stem
p558
Vvmlinuz
p559
ss(Vrelations
p560
g529
tp561
(dp562
Vheaders%gcc-13
p563
Vlinux-compiler-gcc-13-x86
p564
ss(Vdescription
p565
g529
NV686
p566
tp567
(dp568
Vhardware
p569
Volder PCs
p570
sVhardware-long
p571
VPCs with one or more processors not supporting PAE
p572
ss(Vdescription
p573
g529
NV686-pae
p574
tp575
(dp576
Vhardware
p577
Vmodern PCs
p578
sVhardware-long
p579
VPCs with one or more processors supporting PAE
p580
sVparts
p581
(lp582
Vpae
p583
ass(Vbase
p584
g529
Vnone
p585
tp586
(dp587
Vflavours
p588
(lp589
V686
p590
aV686-pae
p591
asVdefault-flavour
p592
V686-pae
p593
ss(Vbase
p594
g529
Vrt
p595
tp596
(dp597
Vflavours
p598
(lp599
V686-pae
p600
ass(Vbase
p601
Via64
p602
tp603
(dp604
Vdefault-flavour
p605
Vitanium
p606
sVkernel-arch
p607
Via64
p608
sg190
(lp609
g192
ass(Vbuild
p610
g602
tp611
(dp612
Vimage-file
p613
Vvmlinux.gz
p614
ss(Vimage
p615
g602
tp616
(dp617
Vbootloaders
p618
(lp619
Vgrub-efi-ia64
p620
asVinstall-stem
p621
Vvmlinuz
p622
ss(Vdescription
p623
g602
NVitanium
p624
tp625
(dp626
Vhardware
p627
VItanium (Merced)
p628
sVhardware-long
p629
Vsystems with original Itanium (Merced) processors
p630
ss(Vdescription
p631
g602
NVmckinley
p632
tp633
(dp634
Vhardware
p635
VItanium 2+
p636
sVhardware-long
p637
Vsystems with Itanium 2 or 9300/9500/9700-series processors
p638
ss(g223
g602
g192
tp639
(dp640
g226
(lp641
Vitanium
p642
aVmckinley
p643
asg230
I01
ss(Vbase
p644
Vm68k
p645
tp646
(dp647
Vcflags
p648
V-ffreestanding
p649
sVdefault-flavour
p650
Vm68k
p651
sVkernel-arch
p652
Vm68k
p653
sg190
(lp654
g192
ass(Vbuild
p655
g645
tp656
(dp657
Vimage-file
p658
Vvmlinux
p659
ss(Vimage
p660
g645
tp661
(dp662
Vsuggests
p663
(lp664
Vvmelilo
p665
aVfdutils
p666
asVinstall-stem
p667
Vvmlinux
p668
ss(Vdescription
p669
g645
NVm68k
p670
tp671
(dp672
Vhardware
p673
VMotorola MC68020+ family
p674
ss(g223
g645
g192
tp675
(dp676
g226
(lp677
Vm68k
p678
asg230
I01
ss(Vbase
p679
Vmips
p680
tp681
(dp682
Vkernel-arch
p683
Vmips
p684
sg190
(lp685
g192
ass(Vbuild
p686
g680
tp687
(dp688
Vimage-file
p689
Vvmlinuz
p690
ss(Vimage
p691
g680
tp692
(dp693
Vinstall-stem
p694
Vvmlinuz
p695
ss(Vdescription
p696
g680
NV4kc-malta
p697
tp698
(dp699
Vhardware
p700
VMIPS Malta
p701
sVhardware-long
p702
VMIPS Malta boards
p703
ss(Vimage
p704
g680
NV4kc-malta
p705
tp706
(dp707
Vconfigs
p708
(lp709
Vkernelarch-mips/config.malta
p710
aVkernelarch-mips/config.mips32r2
p711
ass(Vdescription
p712
g680
NVmips32r2eb
p713
tp714
(dp715
Vhardware
p716
VMIPS Generic (mips32r2eb)
p717
sVhardware-long
p718
VMIPS Generic platform (mips32r2eb)
p719
ss(Vimage
p720
g680
NVmips32r2eb
p721
tp722
(dp723
Vconfigs
p724
(lp725
Vkernelarch-mips/config.boston
p726
aVkernelarch-mips/config.mips32r2
p727
ass(Vdescription
p728
g680
NVocteon
p729
tp730
(dp731
Vhardware
p732
VOcteon
p733
sVhardware-long
p734
VCavium Networks Octeon
p735
ss(Vbuild
p736
g680
NVocteon
p737
tp738
(dp739
Vimage-file
p740
Vvmlinux
p741
ss(Vimage
p742
g680
NVocteon
p743
tp744
(dp745
Vinstall-stem
p746
Vvmlinux
p747
sVconfigs
p748
(lp749
Vkernelarch-mips/config.octeon
p750
ass(g223
g680
g192
tp751
(dp752
g226
(lp753
V4kc-malta
p754
aVmips32r2eb
p755
aVocteon
p756
asg230
I01
ss(Vbase
p757
Vmips64
p758
tp759
(dp760
Vkernel-arch
p761
Vmips
p762
sg190
(lp763
g192
ass(Vbuild
p764
g758
tp765
(dp766
Vimage-file
p767
Vvmlinuz
p768
ss(Vimage
p769
g758
tp770
(dp771
Vinstall-stem
p772
Vvmlinuz
p773
ss(Vdescription
p774
g758
NV5kc-malta
p775
tp776
(dp777
Vhardware
p778
VMIPS Malta
p779
sVhardware-long
p780
VMIPS Malta boards
p781
ss(Vimage
p782
g758
NV5kc-malta
p783
tp784
(dp785
Vconfigs
p786
(lp787
Vkernelarch-mips/config.malta
p788
aVkernelarch-mips/config.mips64r2
p789
ass(Vdescription
p790
g758
NVmips64r2eb
p791
tp792
(dp793
Vhardware
p794
VMIPS Generic (mips64r2eb)
p795
sVhardware-long
p796
VMIPS Generic platform (mips64r2eb)
p797
ss(Vimage
p798
g758
NVmips64r2eb
p799
tp800
(dp801
Vconfigs
p802
(lp803
Vkernelarch-mips/config.boston
p804
aVkernelarch-mips/config.mips64r2
p805
ass(Vdescription
p806
g758
NVocteon
p807
tp808
(dp809
Vhardware
p810
VOcteon
p811
sVhardware-long
p812
VCavium Networks Octeon
p813
ss(Vbuild
p814
g758
NVocteon
p815
tp816
(dp817
Vimage-file
p818
Vvmlinux
p819
ss(Vimage
p820
g758
NVocteon
p821
tp822
(dp823
Vinstall-stem
p824
Vvmlinux
p825
sVconfigs
p826
(lp827
Vkernelarch-mips/config.octeon
p828
ass(g223
g758
g192
tp829
(dp830
g226
(lp831
V5kc-malta
p832
aVmips64r2eb
p833
aVocteon
p834
asg230
I01
ss(Vbase
p835
Vmips64el
p836
tp837
(dp838
Vkernel-arch
p839
Vmips
p840
sg190
(lp841
g192
ass(Vbuild
p842
g836
tp843
(dp844
Vimage-file
p845
Vvmlinuz
p846
ss(Vimage
p847
g836
tp848
(dp849
Vinstall-stem
p850
Vvmlinuz
p851
ss(Vdescription
p852
g836
NV5kc-malta
p853
tp854
(dp855
Vhardware
p856
VMIPS Malta
p857
sVhardware-long
p858
VMIPS Malta boards
p859
ss(Vimage
p860
g836
NV5kc-malta
p861
tp862
(dp863
Vconfigs
p864
(lp865
Vkernelarch-mips/config.malta
p866
aVkernelarch-mips/config.mips64r2
p867
ass(Vdescription
p868
g836
NVmips64r2el
p869
tp870
(dp871
Vhardware
p872
VMIPS Generic (mips64r2el)
p873
sVhardware-long
p874
VMIPS Generic platform (mips64r2el)
p875
ss(Vimage
p876
g836
NVmips64r2el
p877
tp878
(dp879
Vconfigs
p880
(lp881
Vkernelarch-mips/config.boston
p882
aVkernelarch-mips/config.mips64r2
p883
ass(Vdescription
p884
g836
NVloongson-3
p885
tp886
(dp887
Vhardware
p888
VLoongson 3A/3B
p889
sVhardware-long
p890
VLoongson 3A or 3B based systems (e.g. from Loongson or Lemote)
p891
ss(Vimage
p892
g836
NVloongson-3
p893
tp894
(dp895
Vrecommends
p896
(lp897
Vpmon-update
p898
asVconfigs
p899
(lp900
Vkernelarch-mips/config.loongson-3
p901
ass(Vdescription
p902
g836
NVocteon
p903
tp904
(dp905
Vhardware
p906
VOcteon
p907
sVhardware-long
p908
VCavium Networks Octeon
p909
ss(Vbuild
p910
g836
NVocteon
p911
tp912
(dp913
Vimage-file
p914
Vvmlinux
p915
ss(Vimage
p916
g836
NVocteon
p917
tp918
(dp919
Vinstall-stem
p920
Vvmlinux
p921
sVconfigs
p922
(lp923
Vkernelarch-mips/config.octeon
p924
ass(g223
g836
g192
tp925
(dp926
g226
(lp927
V5kc-malta
p928
aVmips64r2el
p929
aVloongson-3
p930
aVocteon
p931
asg230
I01
ss(Vbase
p932
Vmips64r6
p933
tp934
(dp935
Vkernel-arch
p936
Vmips
p937
sg190
(lp938
g192
ass(Vbuild
p939
g933
tp940
(dp941
Vimage-file
p942
Vvmlinuz
p943
ss(Vimage
p944
g933
tp945
(dp946
Vinstall-stem
p947
Vvmlinuz
p948
ss(Vdescription
p949
g933
NVmips64r6eb
p950
tp951
(dp952
Vhardware
p953
VMIPS Generic (mips64r6eb)
p954
sVhardware-long
p955
VMIPS Generic platform (mips64r6eb)
p956
ss(Vimage
p957
g933
NVmips64r6eb
p958
tp959
(dp960
Vconfigs
p961
(lp962
Vkernelarch-mips/config.boston
p963
aVkernelarch-mips/config.mips64r6
p964
ass(g223
g933
g192
tp965
(dp966
g226
(lp967
Vmips64r6eb
p968
asg230
I01
ss(Vbase
p969
Vmips64r6el
p970
tp971
(dp972
Vkernel-arch
p973
Vmips
p974
sg190
(lp975
g192
ass(Vbuild
p976
g970
tp977
(dp978
Vimage-file
p979
Vvmlinuz
p980
ss(Vimage
p981
g970
tp982
(dp983
Vinstall-stem
p984
Vvmlinuz
p985
ss(Vdescription
p986
g970
NVmips64r6el
p987
tp988
(dp989
Vhardware
p990
VMIPS Generic (mips64r6el)
p991
sVhardware-long
p992
VMIPS Generic platform (mips64r6el)
p993
ss(Vimage
p994
g970
NVmips64r6el
p995
tp996
(dp997
Vconfigs
p998
(lp999
Vkernelarch-mips/config.boston
p1000
aVkernelarch-mips/config.mips64r6
p1001
ass(g223
g970
g192
tp1002
(dp1003
g226
(lp1004
Vmips64r6el
p1005
asg230
I01
ss(Vbase
p1006
Vmipsel
p1007
tp1008
(dp1009
Vkernel-arch
p1010
Vmips
p1011
sg190
(lp1012
g192
ass(Vbuild
p1013
g1007
tp1014
(dp1015
Vimage-file
p1016
Vvmlinuz
p1017
ss(Vimage
p1018
g1007
tp1019
(dp1020
Vinstall-stem
p1021
Vvmlinuz
p1022
ss(Vdescription
p1023
g1007
NV4kc-malta
p1024
tp1025
(dp1026
Vhardware
p1027
VMIPS Malta
p1028
sVhardware-long
p1029
VMIPS Malta boards
p1030
ss(Vimage
p1031
g1007
NV4kc-malta
p1032
tp1033
(dp1034
Vconfigs
p1035
(lp1036
Vkernelarch-mips/config.malta
p1037
aVkernelarch-mips/config.mips32r2
p1038
ass(Vdescription
p1039
g1007
NVmips32r2el
p1040
tp1041
(dp1042
Vhardware
p1043
VMIPS Generic (mips32r2el)
p1044
sVhardware-long
p1045
VMIPS Generic platform (mips32r2el)
p1046
ss(Vimage
p1047
g1007
NVmips32r2el
p1048
tp1049
(dp1050
Vconfigs
p1051
(lp1052
Vkernelarch-mips/config.boston
p1053
aVkernelarch-mips/config.mips32r2
p1054
ass(Vdescription
p1055
g1007
NVloongson-3
p1056
tp1057
(dp1058
Vhardware
p1059
VLoongson 3A/3B
p1060
sVhardware-long
p1061
VLoongson 3A or 3B based systems (e.g. from Loongson or Lemote)
p1062
ss(Vimage
p1063
g1007
NVloongson-3
p1064
tp1065
(dp1066
Vrecommends
p1067
(lp1068
Vpmon-update
p1069
asVconfigs
p1070
(lp1071
Vkernelarch-mips/config.loongson-3
p1072
ass(Vdescription
p1073
g1007
NVocteon
p1074
tp1075
(dp1076
Vhardware
p1077
VOcteon
p1078
sVhardware-long
p1079
VCavium Networks Octeon
p1080
ss(Vbuild
p1081
g1007
NVocteon
p1082
tp1083
(dp1084
Vimage-file
p1085
Vvmlinux
p1086
ss(Vimage
p1087
g1007
NVocteon
p1088
tp1089
(dp1090
Vinstall-stem
p1091
Vvmlinux
p1092
sVconfigs
p1093
(lp1094
Vkernelarch-mips/config.octeon
p1095
ass(g223
g1007
g192
tp1096
(dp1097
g226
(lp1098
V4kc-malta
p1099
aVmips32r2el
p1100
aVloongson-3
p1101
aVocteon
p1102
asg230
I01
ss(Vbase
p1103
Vmipsn32
p1104
tp1105
(dp1106
Vkernel-arch
p1107
Vmips
p1108
sVfeaturesets
p1109
(lp1110
ss(Vbase
p1111
Vmipsn32el
p1112
tp1113
(dp1114
Vkernel-arch
p1115
Vmips
p1116
sVfeaturesets
p1117
(lp1118
ss(Vbase
p1119
Vmipsn32r6
p1120
tp1121
(dp1122
Vkernel-arch
p1123
Vmips
p1124
sVfeaturesets
p1125
(lp1126
ss(Vbase
p1127
Vmipsn32r6el
p1128
tp1129
(dp1130
Vkernel-arch
p1131
Vmips
p1132
sVfeaturesets
p1133
(lp1134
ss(Vbase
p1135
Vmipsr6
p1136
tp1137
(dp1138
Vkernel-arch
p1139
Vmips
p1140
sg190
(lp1141
g192
ass(Vbuild
p1142
g1136
tp1143
(dp1144
Vimage-file
p1145
Vvmlinuz
p1146
ss(Vimage
p1147
g1136
tp1148
(dp1149
Vinstall-stem
p1150
Vvmlinuz
p1151
ss(Vdescription
p1152
g1136
NVmips32r6eb
p1153
tp1154
(dp1155
Vhardware
p1156
VMIPS Generic (mips32r6eb)
p1157
sVhardware-long
p1158
VMIPS Generic platform (mips32r6eb)
p1159
ss(Vimage
p1160
g1136
NVmips32r6eb
p1161
tp1162
(dp1163
Vconfigs
p1164
(lp1165
Vkernelarch-mips/config.boston
p1166
aVkernelarch-mips/config.mips32r6
p1167
ass(g223
g1136
g192
tp1168
(dp1169
g226
(lp1170
Vmips32r6eb
p1171
asg230
I01
ss(Vbase
p1172
Vmipsr6el
p1173
tp1174
(dp1175
Vkernel-arch
p1176
Vmips
p1177
sg190
(lp1178
g192
ass(Vbuild
p1179
g1173
tp1180
(dp1181
Vimage-file
p1182
Vvmlinuz
p1183
ss(Vimage
p1184
g1173
tp1185
(dp1186
Vinstall-stem
p1187
Vvmlinuz
p1188
ss(Vdescription
p1189
g1173
NVmips32r6el
p1190
tp1191
(dp1192
Vhardware
p1193
VMIPS Generic (mips32r6el)
p1194
sVhardware-long
p1195
VMIPS Generic platform (mips32r6el)
p1196
ss(Vimage
p1197
g1173
NVmips32r6el
p1198
tp1199
(dp1200
Vconfigs
p1201
(lp1202
Vkernelarch-mips/config.boston
p1203
aVkernelarch-mips/config.mips32r6
p1204
ass(g223
g1173
g192
tp1205
(dp1206
g226
(lp1207
Vmips32r6el
p1208
asg230
I01
ss(Vbase
p1209
Vpowerpc
p1210
tp1211
(dp1212
Vkernel-arch
p1213
Vpowerpc
p1214
sg190
(lp1215
g192
ass(Vbuild
p1216
g1210
tp1217
(dp1218
Vimage-file
p1219
Vvmlinux
p1220
ss(Vimage
p1221
g1210
tp1222
(dp1223
Vconfigs
p1224
(lp1225
sVbootloaders
p1226
(lp1227
Vgrub-ieee1275
p1228
asVsuggests
p1229
(lp1230
Vmkvmlinuz
p1231
asVinstall-stem
p1232
Vvmlinux
p1233
ss(Vdescription
p1234
g1210
NVpowerpc
p1235
tp1236
(dp1237
Vhardware
p1238
Vuniprocessor 32-bit PowerPC
p1239
ss(Vdescription
p1240
g1210
NVpowerpc-smp
p1241
tp1242
(dp1243
Vhardware
p1244
Vmultiprocessor 32-bit PowerPC
p1245
ss(Vimage
p1246
g1210
NVpowerpc-smp
p1247
tp1248
(dp1249
Vconfigs
p1250
(lp1251
Vpowerpc/config.powerpc
p1252
aVpowerpc/config.powerpc-smp
p1253
ass(Vdescription
p1254
g1210
NVpowerpc64
p1255
tp1256
(dp1257
Vhardware
p1258
V64-bit PowerPC
p1259
ss(Vimage
p1260
g1210
NVpowerpc64
p1261
tp1262
(dp1263
Vconfigs
p1264
(lp1265
Vkernelarch-powerpc/config-arch-64
p1266
aVkernelarch-powerpc/config-arch-64-be
p1267
ass(g223
g1210
g192
tp1268
(dp1269
g226
(lp1270
Vpowerpc
p1271
aVpowerpc-smp
p1272
aVpowerpc64
p1273
asg230
I01
ss(Vbase
p1274
Vppc64
p1275
tp1276
(dp1277
Vdefault-flavour
p1278
Vpowerpc64
p1279
sVkernel-arch
p1280
Vpowerpc
p1281
sg190
(lp1282
g192
ass(Vbuild
p1283
g1275
tp1284
(dp1285
Vimage-file
p1286
Vvmlinux
p1287
ss(Vimage
p1288
g1275
tp1289
(dp1290
Vconfigs
p1291
(lp1292
sVbootloaders
p1293
(lp1294
Vgrub-ieee1275
p1295
asVsuggests
p1296
(lp1297
Vmkvmlinuz
p1298
asVinstall-stem
p1299
Vvmlinux
p1300
ss(Vdescription
p1301
g1275
NVpowerpc64
p1302
tp1303
(dp1304
Vhardware
p1305
V64-bit PowerPC
p1306
ss(Vimage
p1307
g1275
NVpowerpc64
p1308
tp1309
(dp1310
Vconfigs
p1311
(lp1312
Vkernelarch-powerpc/config-arch-64
p1313
aVkernelarch-powerpc/config-arch-64-be
p1314
ass(g223
g1275
g192
tp1315
(dp1316
g226
(lp1317
Vpowerpc64
p1318
asg230
I01
ss(Vbase
p1319
Vppc64el
p1320
tp1321
(dp1322
Vdefault-flavour
p1323
Vpowerpc64le
p1324
sVkernel-arch
p1325
Vpowerpc
p1326
sg190
(lp1327
g192
ass(Vbuild
p1328
g1320
tp1329
(dp1330
Vimage-file
p1331
Vvmlinux
p1332
ss(Vimage
p1333
g1320
tp1334
(dp1335
Vconfigs
p1336
(lp1337
sVbootloaders
p1338
(lp1339
Vgrub-ieee1275
p1340
asVsuggests
p1341
(lp1342
Vmkvmlinuz
p1343
asVinstall-stem
p1344
Vvmlinux
p1345
ss(Vdescription
p1346
g1320
NVpowerpc64le
p1347
tp1348
(dp1349
Vhardware
p1350
VLittle-endian 64-bit PowerPC
p1351
ss(Vimage
p1352
g1320
NVpowerpc64le
p1353
tp1354
(dp1355
Vconfigs
p1356
(lp1357
Vkernelarch-powerpc/config-arch-64
p1358
aVkernelarch-powerpc/config-arch-64-le
p1359
ass(g223
g1320
g192
tp1360
(dp1361
g226
(lp1362
Vpowerpc64le
p1363
asg230
I01
ss(Vbase
p1364
Vriscv64
p1365
tp1366
(dp1367
Vkernel-arch
p1368
Vriscv
p1369
sVfeaturesets
p1370
(lp1371
Vnone
p1372
ass(Vbuild
p1373
g1365
tp1374
(dp1375
Vimage-file
p1376
Varch/riscv/boot/Image
p1377
sVvdso
p1378
I01
ss(Vimage
p1379
g1365
tp1380
(dp1381
Vinstall-stem
p1382
Vvmlinux
p1383
ss(Vdescription
p1384
g1365
NVriscv64
p1385
tp1386
(dp1387
Vhardware
p1388
V64-bit RISC-V platforms
p1389
sVhardware-long
p1390
V64-bit RISC-V platforms
p1391
ss(Vbase
p1392
g1365
Vnone
p1393
tp1394
(dp1395
Vflavours
p1396
(lp1397
Vriscv64
p1398
asVdefault-flavour
p1399
Vriscv64
p1400
ss(Vbase
p1401
Vs390
p1402
tp1403
(dp1404
Vkernel-arch
p1405
Vs390
p1406
sVfeaturesets
p1407
(lp1408
ss(Vbase
p1409
Vs390x
p1410
tp1411
(dp1412
Vdefault-flavour
p1413
Vs390x
p1414
sVkernel-arch
p1415
Vs390
p1416
sg190
(lp1417
g192
ass(Vbuild
p1418
g1410
tp1419
(dp1420
Vimage-file
p1421
Varch/s390/boot/bzImage
p1422
sVvdso
p1423
I01
ss(Vimage
p1424
g1410
tp1425
(dp1426
Vbootloaders
p1427
(lp1428
Vs390-tools
p1429
asVinstall-stem
p1430
Vvmlinuz
p1431
ss(Vrelations
p1432
g1410
tp1433
(dp1434
Vheaders%gcc-13
p1435
Vlinux-compiler-gcc-13-s390
p1436
ss(Vdescription
p1437
g1410
NVs390x
p1438
tp1439
(dp1440
Vhardware
p1441
VIBM zSeries
p1442
ss(g223
g1410
g192
tp1443
(dp1444
g226
(lp1445
Vs390x
p1446
asg230
I01
ss(Vbase
p1447
Vsh3
p1448
tp1449
(dp1450
Vkernel-arch
p1451
Vsh
p1452
sVfeaturesets
p1453
(lp1454
ss(Vbase
p1455
Vsh4
p1456
tp1457
(dp1458
Vkernel-arch
p1459
Vsh
p1460
sg190
(lp1461
g192
ass(Vbuild
p1462
g1456
tp1463
(dp1464
Vimage-file
p1465
Varch/sh/boot/zImage
p1466
ss(Vimage
p1467
g1456
tp1468
(dp1469
Vinstall-stem
p1470
Vvmlinuz
p1471
ss(Vdescription
p1472
g1456
NVsh7751r
p1473
tp1474
(dp1475
Vhardware
p1476
Vsh7751r
p1477
sVhardware-long
p1478
VRenesas SH7751R R2D plus board
p1479
ss(Vdescription
p1480
g1456
NVsh7785lcr
p1481
tp1482
(dp1483
Vhardware
p1484
Vsh7785lcr
p1485
sVhardware-long
p1486
VRenesas SH7785 reference board
p1487
ss(Vimage
p1488
g1456
NVsh7785lcr
p1489
tp1490
(dp1491
Vrecommends
p1492
(lp1493
Vu-boot-tools
p1494
asVcheck-size
p1495
I4194304
ss(g223
g1456
g192
tp1496
(dp1497
g226
(lp1498
Vsh7751r
p1499
aVsh7785lcr
p1500
asg230
I01
ss(Vbase
p1501
Vsparc
p1502
tp1503
(dp1504
Vkernel-arch
p1505
Vsparc
p1506
sVfeaturesets
p1507
(lp1508
ss(Vbase
p1509
Vsparc64
p1510
tp1511
(dp1512
Vdefault-flavour
p1513
Vsparc64-smp
p1514
sVkernel-arch
p1515
Vsparc
p1516
sg190
(lp1517
g192
ass(Vbuild
p1518
g1510
tp1519
(dp1520
Vimage-file
p1521
Vvmlinux
p1522
ss(Vimage
p1523
g1510
tp1524
(dp1525
Vconfigs
p1526
(lp1527
sVbootloaders
p1528
(lp1529
Vgrub-ieee1275
p1530
asVsuggests
p1531
(lp1532
Vfdutils
p1533
asVinstall-stem
p1534
Vvmlinux
p1535
ss(Vdescription
p1536
g1510
NVsparc64
p1537
tp1538
(dp1539
Vhardware
p1540
Vuniprocessor 64-bit UltraSPARC
p1541
ss(Vimage
p1542
g1510
NVsparc64
p1543
tp1544
(dp1545
Vconfigs
p1546
(lp1547
Vkernelarch-sparc/config-up
p1548
ass(Vdescription
p1549
g1510
NVsparc64-smp
p1550
tp1551
(dp1552
Vhardware
p1553
Vmultiprocessor 64-bit UltraSPARC
p1554
ss(Vimage
p1555
g1510
NVsparc64-smp
p1556
tp1557
(dp1558
Vconfigs
p1559
(lp1560
Vkernelarch-sparc/config-smp
p1561
ass(g223
g1510
g192
tp1562
(dp1563
g226
(lp1564
Vsparc64
p1565
aVsparc64-smp
p1566
asg230
I01
ss(Vbase
p1567
Vx32
p1568
tp1569
(dp1570
Vkernel-arch
p1571
Vx86
p1572
sVfeaturesets
p1573
(lp1574
ss(Vabi
p1575
NVrt
p1576
tp1577
(dp1578
Vignore-changes
p1579
(lp1580
V*
p1581
ass(Vdescription
p1582
Ng1576
tp1583
(dp1584
Vpart-long-rt
p1585
VThis kernel includes the PREEMPT_RT realtime patch set.
p1586
sVpart-short-rt
p1587
VPREEMPT_RT
p1588
sVparts
p1589
(lp1590
Vrt
p1591
ass(Vversion
p1592
tp1593
(dp1594
Vsource
p1595
V6.5.3-1+rpi1
p1596
sVupstream
p1597
V6.5
p1598
sVabiname_base
p1599
V6.5.0
p1600
sVabiname
p1601
V6.5.0-1
p1602
ss.