cdebian_linux.config
ConfigCore
p0
(tRp1
(Vbase
p2
tp3
(dp4
Varches
p5
(lp6
Valpha
p7
aVamd64
p8
aVarm64
p9
aVarm64ilp32
p10
aVarmel
p11
aVarmhf
p12
aVhppa
p13
aVi386
p14
aVm68k
p15
aVmips
p16
aVmips64
p17
aVmips64el
p18
aVmips64r6
p19
aVmips64r6el
p20
aVmipsel
p21
aVmipsn32
p22
aVmipsn32el
p23
aVmipsn32r6
p24
aVmipsn32r6el
p25
aVmipsr6
p26
aVmipsr6el
p27
aVpowerpc
p28
aVpowerpcspe
p29
aVppc64
p30
aVppc64el
p31
aVs390
p32
aVs390x
p33
aVsh3
p34
aVsh4
p35
aVsparc
p36
aVsparc64
p37
aVtilegx
p38
aVx32
p39
asVfeaturesets
p40
(lp41
Vnone
p42
aVrt
p43
asVcompiler
p44
Vgcc-7
p45
ss(Vbuild
p46
tp47
(dp48
Vsigned-modules
p49
I00
sVdebug-info
p50
I01
ss(Vbase
p51
NVrt
p52
tp53
(dp54
Venabled
p55
I00
ss(Vdescription
p56
tp57
(dp58
Vpart-long-up
p59
VThis kernel is not suitable for SMP (multi-processor,\u000amulti-core or hyper-threaded) systems.
p60
ss(Vrelations
p61
tp62
(dp63
Vinitramfs-tools
p64
Vinitramfs-tools (>= 0.120+deb8u2)
p65
sVgcc-7
p66
Vgcc-7 <!stage1 !cross>, gcc-7-@gnu-type-package@ <!stage1 cross>
p67
sVinitramfs-fallback
p68
Vlinux-initramfs-tool
p69
ss(Vimage
p70
tp71
(dp72
Vinitramfs-generators
p73
(lp74
Vinitramfs-tools
p75
aVinitramfs-fallback
p76
asVrecommends
p77
Vapparmor
p78
ss(Vabi
p79
tp80
(dp81
Vabiname
p82
V3
p83
sVignore-changes
p84
(lp85
V__cpuhp_*
p86
aV__xive_vm_h_*
p87
aVbpf_analyzer
p88
aVcxl_*
p89
aVdax_flush
p90
aVieee80211_nullfunc_get
p91
aVinet_add_protocol
p92
aVinet_del_protocol
p93
aViommu_device_*
p94
aVkvm_async_pf_task_wait
p95
aVkvmppc_*
p96
aVmm_iommu_*
p97
aVmv_mbus_*
p98
aVperf_*
p99
aVregister_cxl_calls
p100
aVregister_key_type
p101
aVunregister_cxl_calls
p102
aV*_hw_breakpoint
p103
aVmodule:arch/x86/kvm/*
p104
aVmodule:drivers/crypto/ccp/*
p105
aVmodule:drivers/hv/*
p106
aVmodule:drivers/iio/common/hid-sensors/*
p107
aVmodule:drivers/iio/common/st_sensors/**
p108
aVmodule:drivers/mtd/nand/*
p109
aVmodule:drivers/net/wireless/**
p110
aVmodule:drivers/nvdimm/*
p111
aVmodule:drivers/power/supply/bq27xxx_battery
p112
aVmodule:drivers/scsi/cxgbi/*
p113
aVmodule:drivers/scsi/libiscs*
p114
aVmodule:drivers/scsi/qla2xxx/qla2xxx
p115
aVmodule:drivers/scsi/ufs/*
p116
aVmodule:drivers/target/**
p117
aVmodule:drivers/usb/chipidea/**
p118
aVmodule:drivers/usb/gadget/**
p119
aVmodule:drivers/usb/host/**
p120
aVmodule:drivers/usb/musb/**
p121
aVmodule:fs/nfs/**
p122
aVmodule:net/ceph/libceph
p123
aVmodule:net/l2tp/**
p124
aVmodule:net/rxrpc/rxrpc
p125
aVmodule:sound/core/seq/**
p126
aVmodule:sound/firewire/snd-firewire-lib
p127
aVbtree_*
p128
aVvisitor*
p129
aVcan_rx_register
p130
aVip6_xmit
p131
aVmodule:net/dccp/dccp
p132
aVmodule:net/rds/rds
p133
aVdevfreq_*
p134
aVdevm_devfreq_*
p135
aVupdate_devfreq
p136
aVmodule:drivers/infiniband/**
p137
aVacpi_ec_add_query_handler
p138
aVacpi_ec_remove_query_handler
p139
aVfirst_ec
p140
aVdebugfs_create_automount
p141
aVmodule:drivers/iio/imu/inv_mpu6050/*
p142
ass(Vbase
p143
Valpha
p144
tp145
(dp146
Vfeaturesets
p147
(lp148
Vnone
p149
asVkernel-arch
p150
Valpha
p151
ss(Vdescription
p152
g144
NValpha-smp
p153
tp154
(dp155
Vhardware
p156
VAlpha SMP
p157
sVhardware-long
p158
VDEC Alpha SMP systems with extended kernel start address (Wildfire, Titan, Marvel)
p159
ss(Vbuild
p160
g144
tp161
(dp162
Vsigned-modules
p163
I00
sVimage-file
p164
Varch/alpha/boot/vmlinux.gz
p165
ss(Vdescription
p166
g144
NValpha-generic
p167
tp168
(dp169
Vhardware
p170
VAlpha
p171
sVhardware-long
p172
VDEC Alpha systems with extended kernel start address (Wildfire, Titan, Marvel)
p173
ss(Vimage
p174
g144
tp175
(dp176
Vsuggests
p177
Vaboot, fdutils
p178
sVinstall-stem
p179
Vvmlinuz
p180
ss(Vbase
p181
g144
g149
tp182
(dp183
Vflavours
p184
(lp185
Valpha-generic
p186
aValpha-smp
p187
asVimplicit-flavour
p188
I01
ss(Vbase
p189
Vamd64
p190
tp191
(dp192
Vfeaturesets
p193
(lp194
Vnone
p195
aVrt
p196
asVkernel-arch
p197
Vx86
p198
ss(Vbuild
p199
g190
tp200
(dp201
Vvdso
p202
I01
sVimage-file
p203
Varch/x86/boot/bzImage
p204
sVdebug-info
p205
I01
ss(Vdescription
p206
g190
NVamd64
p207
tp208
(dp209
Vhardware
p210
V64-bit PCs
p211
sVhardware-long
p212
VPCs with AMD64, Intel 64 or VIA Nano processors
p213
ss(Vrelations
p214
g190
tp215
(dp216
Vgcc-7
p217
Vgcc-7 (>= 7.2.0-20~) <!stage1 !cross>, gcc-7-x86-64-linux-gnu (>= 7.2.0-20~) <!stage1 cross>
p218
sVheaders%gcc-7
p219
Vlinux-compiler-gcc-7-x86 (>= 4.14.17-1~)
p220
ss(Vdescription
p221
g190
NVcloud-amd64
p222
tp223
(dp224
Vhardware
p225
Vx86-64 cloud
p226
sVhardware-long
p227
VAmazon EC2, Google Compute Engine and Microsoft Azure cloud platforms
p228
ss(Vimage
p229
g190
tp230
(dp231
Vbreaks
p232
Vxserver-xorg-input-vmmouse (<< 1:13.0.99)
p233
sVinstall-stem
p234
Vvmlinuz
p235
sVbootloaders
p236
(lp237
Vgrub-pc
p238
aVgrub-efi-amd64
p239
aVextlinux
p240
ass(Vbase
p241
g190
Vnone
p242
tp243
(dp244
Vflavours
p245
(lp246
Vamd64
p247
aVcloud-amd64
p248
ass(Vbase
p249
g190
Vrt
p250
tp251
(dp252
Vflavours
p253
(lp254
Vamd64
p255
ass(Vbase
p256
Varm64
p257
tp258
(dp259
Vfeaturesets
p260
(lp261
Vnone
p262
asVkernel-arch
p263
Varm64
p264
ss(Vdescription
p265
g257
NVarm64
p266
tp267
(dp268
Vhardware
p269
V64-bit ARMv8 machines
p270
ss(Vbuild
p271
g257
tp272
(dp273
Vvdso
p274
I01
sVimage-file
p275
Varch/arm64/boot/Image
p276
sVdebug-info
p277
I01
ss(Vimage
p278
g257
NVarm64
p279
tp280
(dp281
s(Vimage
p282
g257
tp283
(dp284
Vbreaks
p285
Vlibmozjs185-1.0, libmozjs-24-0 (<< 24.2.0-5.1~)
p286
sVinstall-stem
p287
Vvmlinuz
p288
ss(Vbase
p289
g257
Vnone
p290
tp291
(dp292
Vflavours
p293
(lp294
Varm64
p295
ass(Vbase
p296
Varm64ilp32
p297
tp298
(dp299
Vfeaturesets
p300
(lp301
sVkernel-arch
p302
Varm64
p303
ss(Vbase
p304
Varmel
p305
tp306
(dp307
g147
(lp308
g149
asVkernel-arch
p309
Varm
p310
ss(Vbuild
p311
g305
tp312
(dp313
Vsigned-modules
p314
I00
sVimage-file
p315
Varch/arm/boot/zImage
p316
sVuncompressed-image-file
p317
Varch/arm/boot/Image
p318
ss(Vimage
p319
g305
NVmarvell
p320
tp321
(dp322
Vrecommends
p323
Vu-boot-tools
p324
sVbreaks
p325
Vflash-kernel (<< 3.57~)
p326
sVcheck-size-with-dtb
p327
I01
sVcheck-size
p328
L2097080L
sVcheck-uncompressed-size
p329
L7340032L
ss(Vdescription
p330
g305
NVmarvell
p331
tp332
(dp333
Vhardware
p334
VMarvell Kirkwood/Orion
p335
sVhardware-long
p336
VMarvell Kirkwood and Orion based systems (https://wiki.debian.org/ArmEabiPort#Supported_hardware)
p337
ss(Vrelations
p338
g305
tp339
(dp340
Vheaders%gcc-7
p341
Vlinux-compiler-gcc-7-arm
p342
ss(Vimage
p343
g305
tp344
(dp345
Vinstall-stem
p346
Vvmlinuz
p347
ss(g181
g305
g149
tp348
(dp349
g184
(lp350
Vmarvell
p351
asg188
I01
ss(Vbase
p352
Varmhf
p353
tp354
(dp355
Vfeaturesets
p356
(lp357
sVkernel-arch
p358
Varm
p359
ss(Vbase
p360
Vhppa
p361
tp362
(dp363
g147
(lp364
g149
asVkernel-arch
p365
Vparisc
p366
ss(Vbuild
p367
g361
tp368
(dp369
Vsigned-modules
p370
I00
sVimage-file
p371
Vvmlinux
p372
ss(Vdescription
p373
g361
NVparisc64-smp
p374
tp375
(dp376
Vhardware
p377
Vmultiprocessor 64-bit PA-RISC
p378
sVhardware-long
p379
VHP PA-RISC 64-bit SMP systems with support for more than 4 GB RAM
p380
ss(Vbase
p381
g361
NVparisc64-smp
p382
tp383
(dp384
Vcflags
p385
V-fno-cse-follow-jumps
p386
sVoverride-host-type
p387
Vhppa64-linux-gnu
p388
ss(Vrelations
p389
g361
tp390
(dp391
Vgcc-7
p392
Vgcc-7 <!stage1 !cross>, binutils-hppa64-linux-gnu <!stage1 !cross>, gcc-7-hppa64-linux-gnu <!stage1 !cross>, gcc-7-hppa-linux-gnu <!stage1 cross>, binutils-hppa64-linux-gnu <!stage1 cross>, gcc-7-hppa64-linux-gnu <!stage1 cross>
p393
ss(Vdescription
p394
g361
NVparisc
p395
tp396
(dp397
Vhardware
p398
V32-bit PA-RISC
p399
sVhardware-long
p400
VHP PA-RISC 32-bit systems with max 4 GB RAM
p401
ss(Vimage
p402
g361
tp403
(dp404
Vsuggests
p405
Vpalo
p406
sVinstall-stem
p407
Vvmlinux
p408
ss(g181
g361
g149
tp409
(dp410
g184
(lp411
Vparisc
p412
aVparisc64-smp
p413
asg188
I01
ss(Vbase
p414
Vi386
p415
tp416
(dp417
Vfeaturesets
p418
(lp419
Vnone
p420
aVrt
p421
asVkernel-arch
p422
Vx86
p423
ss(Vbuild
p424
g415
tp425
(dp426
Vvdso
p427
I01
sVimage-file
p428
Varch/x86/boot/bzImage
p429
ss(Vdescription
p430
g415
NV686-pae
p431
tp432
(dp433
Vhardware
p434
Vmodern PCs
p435
sVhardware-long
p436
VPCs with one or more processors supporting PAE
p437
sVparts
p438
(lp439
Vpae
p440
ass(Vdescription
p441
g415
tp442
(dp443
Vpart-long-pae
p444
VThis kernel requires PAE (Physical Address Extension).\u000aThis feature is supported by the Intel Pentium Pro/II/III/4/4M/D, Xeon,\u000aCore and Atom; AMD Geode NX, Athlon (K7), Duron, Opteron, Sempron,\u000aTurion or Phenom; Transmeta Efficeon; VIA C7; and some other processors.
p445
ss(Vbuild
p446
g415
NV686-pae
p447
tp448
(dp449
Vdebug-info
p450
I01
ss(Vdescription
p451
g415
NV686
p452
tp453
(dp454
Vhardware
p455
Volder PCs
p456
sVhardware-long
p457
VPCs with one or more processors not supporting PAE
p458
ss(Vrelations
p459
g415
tp460
(dp461
Vgcc-7
p462
Vgcc-7 (>= 7.2.0-20~) <!stage1 !cross>, gcc-7-i686-linux-gnu (>= 7.2.0-20~) <!stage1 cross>
p463
sVheaders%gcc-7
p464
Vlinux-compiler-gcc-7-x86 (>= 4.14.17-1~)
p465
ss(Vimage
p466
g415
tp467
(dp468
Vbreaks
p469
Vxserver-xorg-input-vmmouse (<< 1:13.0.99)
p470
sVinstall-stem
p471
Vvmlinuz
p472
sVbootloaders
p473
(lp474
Vgrub-pc
p475
aVextlinux
p476
ass(Vbase
p477
g415
Vnone
p478
tp479
(dp480
Vflavours
p481
(lp482
V686
p483
aV686-pae
p484
ass(Vbase
p485
g415
Vrt
p486
tp487
(dp488
Vflavours
p489
(lp490
V686-pae
p491
ass(Vbase
p492
Vm68k
p493
tp494
(dp495
Vcflags
p496
V-ffreestanding
p497
sg147
(lp498
g149
asVkernel-arch
p499
Vm68k
p500
ss(Vbuild
p501
g493
tp502
(dp503
Vsigned-modules
p504
I00
sVimage-file
p505
Vvmlinux
p506
ss(Vdescription
p507
g493
NVm68k
p508
tp509
(dp510
Vhardware
p511
VMotorola MC68020+ family
p512
ss(Vimage
p513
g493
tp514
(dp515
Vsuggests
p516
Vvmelilo, fdutils
p517
sVinstall-stem
p518
Vvmlinux
p519
ss(g181
g493
g149
tp520
(dp521
g184
(lp522
Vm68k
p523
asg188
I01
ss(Vbase
p524
Vmips
p525
tp526
(dp527
g147
(lp528
g149
asVkernel-arch
p529
Vmips
p530
ss(Vbuild
p531
g525
tp532
(dp533
Vsigned-modules
p534
I00
sVimage-file
p535
Vvmlinux
p536
ss(Vimage
p537
g525
NV4kc-malta
p538
tp539
(dp540
Vconfigs
p541
(lp542
Vkernelarch-mips/config.malta
p543
aVkernelarch-mips/config.mips32r2
p544
ass(Vimage
p545
g525
NV5kc-malta
p546
tp547
(dp548
Vconfigs
p549
(lp550
Vkernelarch-mips/config.malta
p551
aVkernelarch-mips/config.mips64r2
p552
ass(Vdescription
p553
g525
NVocteon
p554
tp555
(dp556
Vhardware
p557
VOcteon
p558
sVhardware-long
p559
VCavium Networks Octeon
p560
ss(Vimage
p561
g525
NVocteon
p562
tp563
(dp564
Vconfigs
p565
(lp566
Vkernelarch-mips/config.octeon
p567
ass(Vimage
p568
g525
tp569
(dp570
Vinstall-stem
p571
Vvmlinux
p572
ss(Vdescription
p573
g525
NV5kc-malta
p574
tp575
(dp576
Vhardware
p577
VMIPS Malta (64-bit)
p578
sVhardware-long
p579
VMIPS Malta boards (64-bit)
p580
ss(Vdescription
p581
g525
NV4kc-malta
p582
tp583
(dp584
Vhardware
p585
VMIPS Malta
p586
sVhardware-long
p587
VMIPS Malta boards
p588
ss(g181
g525
g149
tp589
(dp590
g184
(lp591
V4kc-malta
p592
aV5kc-malta
p593
aVocteon
p594
asg188
I01
ss(Vbase
p595
Vmips64
p596
tp597
(dp598
g147
(lp599
g149
asVkernel-arch
p600
Vmips
p601
ss(Vbuild
p602
g596
tp603
(dp604
Vsigned-modules
p605
I00
sVimage-file
p606
Vvmlinux
p607
ss(Vimage
p608
g596
NV5kc-malta
p609
tp610
(dp611
Vconfigs
p612
(lp613
Vkernelarch-mips/config.malta
p614
aVkernelarch-mips/config.mips64r2
p615
ass(Vdescription
p616
g596
NVocteon
p617
tp618
(dp619
Vhardware
p620
VOcteon
p621
sVhardware-long
p622
VCavium Networks Octeon
p623
ss(Vimage
p624
g596
tp625
(dp626
Vinstall-stem
p627
Vvmlinux
p628
ss(Vdescription
p629
g596
NV5kc-malta
p630
tp631
(dp632
Vhardware
p633
VMIPS Malta
p634
sVhardware-long
p635
VMIPS Malta boards
p636
ss(Vimage
p637
g596
NVocteon
p638
tp639
(dp640
Vconfigs
p641
(lp642
Vkernelarch-mips/config.octeon
p643
ass(g181
g596
g149
tp644
(dp645
g184
(lp646
V5kc-malta
p647
aVocteon
p648
asg188
I01
ss(Vbase
p649
Vmips64el
p650
tp651
(dp652
g147
(lp653
g149
asVkernel-arch
p654
Vmips
p655
ss(Vimage
p656
g650
NVloongson-3
p657
tp658
(dp659
Vconfigs
p660
(lp661
Vkernelarch-mips/config.loongson-3
p662
ass(Vbuild
p663
g650
tp664
(dp665
Vsigned-modules
p666
I00
sVimage-file
p667
Vvmlinux
p668
ss(Vimage
p669
g650
NV5kc-malta
p670
tp671
(dp672
Vconfigs
p673
(lp674
Vkernelarch-mips/config.malta
p675
aVkernelarch-mips/config.mips64r2
p676
ass(Vdescription
p677
g650
NVocteon
p678
tp679
(dp680
Vhardware
p681
VOcteon
p682
sVhardware-long
p683
VCavium Networks Octeon
p684
ss(Vdescription
p685
g650
NVloongson-3
p686
tp687
(dp688
Vhardware
p689
VLoongson 3A/3B
p690
sVhardware-long
p691
VLoongson 3A or 3B based systems (e.g. from Loongson or Lemote)
p692
ss(Vimage
p693
g650
tp694
(dp695
Vinstall-stem
p696
Vvmlinux
p697
ss(Vdescription
p698
g650
NV5kc-malta
p699
tp700
(dp701
Vhardware
p702
VMIPS Malta
p703
sVhardware-long
p704
VMIPS Malta boards
p705
ss(Vimage
p706
g650
NVocteon
p707
tp708
(dp709
Vconfigs
p710
(lp711
Vkernelarch-mips/config.octeon
p712
ass(g181
g650
g149
tp713
(dp714
g184
(lp715
V5kc-malta
p716
aVloongson-3
p717
aVocteon
p718
asg188
I01
ss(Vbase
p719
Vmips64r6
p720
tp721
(dp722
g147
(lp723
g149
asVkernel-arch
p724
Vmips
p725
ss(Vbuild
p726
g720
tp727
(dp728
Vsigned-modules
p729
I00
sVimage-file
p730
Vvmlinux
p731
ss(Vimage
p732
g720
tp733
(dp734
Vinstall-stem
p735
Vvmlinux
p736
ss(Vimage
p737
g720
NVmips64r6
p738
tp739
(dp740
Vconfigs
p741
(lp742
Vkernelarch-mips/config.malta
p743
aVkernelarch-mips/config.mips64r6
p744
ass(Vdescription
p745
g720
NVmips64r6
p746
tp747
(dp748
Vhardware
p749
VMIPS R6 (64 bit, big endian)
p750
sVhardware-long
p751
VMIPS R6 (64 bit, big endian)
p752
ss(g181
g720
g149
tp753
(dp754
g184
(lp755
Vmips64r6
p756
asg188
I01
ss(Vbase
p757
Vmips64r6el
p758
tp759
(dp760
g147
(lp761
g149
asVkernel-arch
p762
Vmips
p763
ss(Vimage
p764
g758
NVmips64r6el
p765
tp766
(dp767
Vconfigs
p768
(lp769
Vkernelarch-mips/config.malta
p770
aVkernelarch-mips/config.mips64r6
p771
ass(Vbuild
p772
g758
tp773
(dp774
Vsigned-modules
p775
I00
sVimage-file
p776
Vvmlinux
p777
ss(Vdescription
p778
g758
NVmips64r6el
p779
tp780
(dp781
Vhardware
p782
VMIPS R6 (64 bit, little endian)
p783
sVhardware-long
p784
VMIPS R6 (64 bit, little endian)
p785
ss(Vimage
p786
g758
tp787
(dp788
Vinstall-stem
p789
Vvmlinux
p790
ss(g181
g758
g149
tp791
(dp792
g184
(lp793
Vmips64r6el
p794
asg188
I01
ss(Vbase
p795
Vmipsel
p796
tp797
(dp798
g147
(lp799
g149
asVkernel-arch
p800
Vmips
p801
ss(Vimage
p802
g796
NVloongson-3
p803
tp804
(dp805
Vconfigs
p806
(lp807
Vkernelarch-mips/config.loongson-3
p808
ass(Vbuild
p809
g796
tp810
(dp811
Vsigned-modules
p812
I00
sVimage-file
p813
Vvmlinux
p814
ss(Vimage
p815
g796
NV4kc-malta
p816
tp817
(dp818
Vconfigs
p819
(lp820
Vkernelarch-mips/config.malta
p821
aVkernelarch-mips/config.mips32r2
p822
ass(Vimage
p823
g796
NV5kc-malta
p824
tp825
(dp826
Vconfigs
p827
(lp828
Vkernelarch-mips/config.malta
p829
aVkernelarch-mips/config.mips64r2
p830
ass(Vdescription
p831
g796
NVocteon
p832
tp833
(dp834
Vhardware
p835
VOcteon
p836
sVhardware-long
p837
VCavium Networks Octeon
p838
ss(Vdescription
p839
g796
NVloongson-3
p840
tp841
(dp842
Vhardware
p843
VLoongson 3A/3B
p844
sVhardware-long
p845
VLoongson 3A or 3B based systems (e.g. from Loongson or Lemote)
p846
ss(Vimage
p847
g796
NVocteon
p848
tp849
(dp850
Vconfigs
p851
(lp852
Vkernelarch-mips/config.octeon
p853
ass(Vimage
p854
g796
tp855
(dp856
Vinstall-stem
p857
Vvmlinux
p858
ss(Vdescription
p859
g796
NV5kc-malta
p860
tp861
(dp862
Vhardware
p863
VMIPS Malta (64-bit)
p864
sVhardware-long
p865
VMIPS Malta boards (64-bit)
p866
ss(Vdescription
p867
g796
NV4kc-malta
p868
tp869
(dp870
Vhardware
p871
VMIPS Malta
p872
sVhardware-long
p873
VMIPS Malta boards
p874
ss(g181
g796
g149
tp875
(dp876
g184
(lp877
V4kc-malta
p878
aV5kc-malta
p879
aVloongson-3
p880
aVocteon
p881
asg188
I01
ss(Vbase
p882
Vmipsn32
p883
tp884
(dp885
Vfeaturesets
p886
(lp887
sVkernel-arch
p888
Vmips
p889
ss(Vbase
p890
Vmipsn32el
p891
tp892
(dp893
Vfeaturesets
p894
(lp895
sVkernel-arch
p896
Vmips
p897
ss(Vbase
p898
Vmipsn32r6
p899
tp900
(dp901
Vfeaturesets
p902
(lp903
sVkernel-arch
p904
Vmips
p905
ss(Vbase
p906
Vmipsn32r6el
p907
tp908
(dp909
Vfeaturesets
p910
(lp911
sVkernel-arch
p912
Vmips
p913
ss(Vbase
p914
Vmipsr6
p915
tp916
(dp917
g147
(lp918
g149
asVkernel-arch
p919
Vmips
p920
ss(Vbuild
p921
g915
tp922
(dp923
Vsigned-modules
p924
I00
sVimage-file
p925
Vvmlinux
p926
ss(Vdescription
p927
g915
NVmips32r6
p928
tp929
(dp930
Vhardware
p931
VMIPS R6 (32 bit, big endian)
p932
sVhardware-long
p933
VMIPS R6 (32 bit, big endian)
p934
ss(Vdescription
p935
g915
NVmips64r6
p936
tp937
(dp938
Vhardware
p939
VMIPS R6 (64 bit, big endian)
p940
sVhardware-long
p941
VMIPS R6 (64 bit, big endian)
p942
ss(Vimage
p943
g915
NVmips64r6
p944
tp945
(dp946
Vconfigs
p947
(lp948
Vkernelarch-mips/config.malta
p949
aVkernelarch-mips/config.mips64r6
p950
ass(Vimage
p951
g915
tp952
(dp953
Vinstall-stem
p954
Vvmlinux
p955
ss(Vimage
p956
g915
NVmips32r6
p957
tp958
(dp959
Vconfigs
p960
(lp961
Vkernelarch-mips/config.malta
p962
aVkernelarch-mips/config.mips32r6
p963
ass(g181
g915
g149
tp964
(dp965
g184
(lp966
Vmips32r6
p967
aVmips64r6
p968
asg188
I01
ss(Vbase
p969
Vmipsr6el
p970
tp971
(dp972
g147
(lp973
g149
asVkernel-arch
p974
Vmips
p975
ss(Vimage
p976
g970
NVmips32r6el
p977
tp978
(dp979
Vconfigs
p980
(lp981
Vkernelarch-mips/config.malta
p982
aVkernelarch-mips/config.mips32r6
p983
ass(Vdescription
p984
g970
NVmips64r6el
p985
tp986
(dp987
Vhardware
p988
VMIPS R6 (64 bit, little endian)
p989
sVhardware-long
p990
VMIPS R6 (64 bit, little endian)
p991
ss(Vdescription
p992
g970
NVmips32r6el
p993
tp994
(dp995
Vhardware
p996
VMIPS R6 (32 bit, little endian)
p997
sVhardware-long
p998
VMIPS R6 (32 bit, little endian)
p999
ss(Vimage
p1000
g970
NVmips64r6el
p1001
tp1002
(dp1003
Vconfigs
p1004
(lp1005
Vkernelarch-mips/config.malta
p1006
aVkernelarch-mips/config.mips64r6
p1007
ass(Vbuild
p1008
g970
tp1009
(dp1010
Vsigned-modules
p1011
I00
sVimage-file
p1012
Vvmlinux
p1013
ss(Vimage
p1014
g970
tp1015
(dp1016
Vinstall-stem
p1017
Vvmlinux
p1018
ss(g181
g970
g149
tp1019
(dp1020
g184
(lp1021
Vmips32r6el
p1022
aVmips64r6el
p1023
asg188
I01
ss(Vbase
p1024
Vpowerpc
p1025
tp1026
(dp1027
g147
(lp1028
g149
asVkernel-arch
p1029
Vpowerpc
p1030
ss(Vdescription
p1031
g1025
NVpowerpc64
p1032
tp1033
(dp1034
Vhardware
p1035
V64-bit PowerPC
p1036
ss(Vbuild
p1037
g1025
tp1038
(dp1039
Vvdso
p1040
I01
sVimage-file
p1041
Vvmlinux
p1042
ss(Vimage
p1043
g1025
NVpowerpc-smp
p1044
tp1045
(dp1046
Vconfigs
p1047
(lp1048
Vpowerpc/config.powerpc
p1049
aVpowerpc/config.powerpc-smp
p1050
ass(Vdescription
p1051
g1025
NVpowerpc
p1052
tp1053
(dp1054
Vhardware
p1055
Vuniprocessor 32-bit PowerPC
p1056
ss(Vimage
p1057
g1025
NVpowerpc64
p1058
tp1059
(dp1060
Vconfigs
p1061
(lp1062
Vkernelarch-powerpc/config-arch-64
p1063
aVkernelarch-powerpc/config-arch-64-be
p1064
ass(Vdescription
p1065
g1025
NVpowerpc-smp
p1066
tp1067
(dp1068
Vhardware
p1069
Vmultiprocessor 32-bit PowerPC
p1070
ss(Vimage
p1071
g1025
tp1072
(dp1073
Vsuggests
p1074
Vmkvmlinuz
p1075
sVinstall-stem
p1076
Vvmlinux
p1077
sVconfigs
p1078
(lp1079
ss(g181
g1025
g149
tp1080
(dp1081
g184
(lp1082
Vpowerpc
p1083
aVpowerpc-smp
p1084
aVpowerpc64
p1085
asg188
I01
ss(Vbase
p1086
Vpowerpcspe
p1087
tp1088
(dp1089
g147
(lp1090
g149
asVkernel-arch
p1091
Vpowerpc
p1092
ss(Vbuild
p1093
g1087
tp1094
(dp1095
Vsigned-modules
p1096
I00
sVimage-file
p1097
Vvmlinux
p1098
sVvdso
p1099
I01
ss(Vimage
p1100
g1087
tp1101
(dp1102
Vsuggests
p1103
Vmkvmlinuz
p1104
sVinstall-stem
p1105
Vvmlinux
p1106
ss(Vdescription
p1107
g1087
tp1108
(dp1109
Vhardware
p1110
V32-bit PowerPC with SPE (instead of AltiVec) with SMP support
p1111
ss(g181
g1087
g149
tp1112
(dp1113
g184
(lp1114
Vpowerpcspe
p1115
asg188
I01
ss(Vbase
p1116
Vppc64
p1117
tp1118
(dp1119
g147
(lp1120
g149
asVkernel-arch
p1121
Vpowerpc
p1122
ss(Vdescription
p1123
g1117
NVpowerpc64
p1124
tp1125
(dp1126
Vhardware
p1127
V64-bit PowerPC
p1128
ss(Vbuild
p1129
g1117
tp1130
(dp1131
Vsigned-modules
p1132
I00
sVimage-file
p1133
Vvmlinux
p1134
sVvdso
p1135
I01
ss(Vimage
p1136
g1117
NVpowerpc64
p1137
tp1138
(dp1139
Vconfigs
p1140
(lp1141
Vkernelarch-powerpc/config-arch-64
p1142
aVkernelarch-powerpc/config-arch-64-be
p1143
ass(Vimage
p1144
g1117
tp1145
(dp1146
Vsuggests
p1147
Vmkvmlinuz
p1148
sVinstall-stem
p1149
Vvmlinux
p1150
sVconfigs
p1151
(lp1152
ss(g181
g1117
g149
tp1153
(dp1154
g184
(lp1155
Vpowerpc64
p1156
asg188
I01
ss(Vbase
p1157
Vppc64el
p1158
tp1159
(dp1160
g147
(lp1161
g149
asVkernel-arch
p1162
Vpowerpc
p1163
ss(Vdescription
p1164
g1158
NVpowerpc64le
p1165
tp1166
(dp1167
Vhardware
p1168
VLittle-endian 64-bit PowerPC
p1169
ss(Vbuild
p1170
g1158
tp1171
(dp1172
Vvdso
p1173
I01
sVimage-file
p1174
Vvmlinux
p1175
ss(Vimage
p1176
g1158
tp1177
(dp1178
Vsuggests
p1179
Vmkvmlinuz
p1180
sVinstall-stem
p1181
Vvmlinux
p1182
sVconfigs
p1183
(lp1184
ss(Vimage
p1185
g1158
NVpowerpc64le
p1186
tp1187
(dp1188
Vconfigs
p1189
(lp1190
Vkernelarch-powerpc/config-arch-64
p1191
aVkernelarch-powerpc/config-arch-64-le
p1192
ass(g181
g1158
g149
tp1193
(dp1194
g184
(lp1195
Vpowerpc64le
p1196
asg188
I01
ss(Vbase
p1197
Vs390
p1198
tp1199
(dp1200
Vfeaturesets
p1201
(lp1202
sVkernel-arch
p1203
Vs390
p1204
ss(Vbase
p1205
Vs390x
p1206
tp1207
(dp1208
g147
(lp1209
g149
asVkernel-arch
p1210
Vs390
p1211
ss(Vdescription
p1212
g1206
NVs390x
p1213
tp1214
(dp1215
Vhardware
p1216
VIBM zSeries
p1217
ss(Vbuild
p1218
g1206
tp1219
(dp1220
Vvdso
p1221
I01
sVimage-file
p1222
Varch/s390/boot/image
p1223
ss(Vbuild
p1224
g1206
NVs390x
p1225
tp1226
(dp1227
Vdebug-info
p1228
I01
ss(Vrelations
p1229
g1206
tp1230
(dp1231
Vheaders%gcc-7
p1232
Vlinux-compiler-gcc-7-s390
p1233
ss(Vimage
p1234
g1206
tp1235
(dp1236
Vinstall-stem
p1237
Vvmlinuz
p1238
sVbootloaders
p1239
(lp1240
Vs390-tools
p1241
ass(g181
g1206
g149
tp1242
(dp1243
g184
(lp1244
Vs390x
p1245
asg188
I01
ss(Vbase
p1246
Vsh3
p1247
tp1248
(dp1249
Vfeaturesets
p1250
(lp1251
sVkernel-arch
p1252
Vsh
p1253
ss(Vbase
p1254
Vsh4
p1255
tp1256
(dp1257
g147
(lp1258
g149
asVkernel-arch
p1259
Vsh
p1260
ss(Vbuild
p1261
g1255
tp1262
(dp1263
Vsigned-modules
p1264
I00
sVimage-file
p1265
Varch/sh/boot/zImage
p1266
ss(Vdescription
p1267
g1255
NVsh7751r
p1268
tp1269
(dp1270
Vhardware
p1271
Vsh7751r
p1272
sVhardware-long
p1273
VRenesas SH7751R R2D plus board
p1274
ss(Vdescription
p1275
g1255
NVsh7785lcr
p1276
tp1277
(dp1278
Vhardware
p1279
Vsh7785lcr
p1280
sVhardware-long
p1281
VRenesas SH7785 reference board
p1282
ss(Vimage
p1283
g1255
tp1284
(dp1285
Vinstall-stem
p1286
Vvmlinuz
p1287
ss(Vimage
p1288
g1255
NVsh7785lcr
p1289
tp1290
(dp1291
Vrecommends
p1292
Vu-boot-tools
p1293
sVcheck-size
p1294
L4194304L
ss(g181
g1255
g149
tp1295
(dp1296
g184
(lp1297
Vsh7751r
p1298
aVsh7785lcr
p1299
asg188
I01
ss(Vbase
p1300
Vsparc
p1301
tp1302
(dp1303
Vfeaturesets
p1304
(lp1305
sVkernel-arch
p1306
Vsparc
p1307
ss(Vbase
p1308
Vsparc64
p1309
tp1310
(dp1311
g147
(lp1312
g149
asVkernel-arch
p1313
Vsparc
p1314
ss(Vbuild
p1315
g1309
tp1316
(dp1317
Vsigned-modules
p1318
I00
sVimage-file
p1319
Varch/sparc/boot/zImage
p1320
ss(Vimage
p1321
g1309
NVsparc64
p1322
tp1323
(dp1324
Vconfigs
p1325
(lp1326
Vkernelarch-sparc/config-up
p1327
ass(Vimage
p1328
g1309
NVsparc64-smp
p1329
tp1330
(dp1331
Vconfigs
p1332
(lp1333
Vkernelarch-sparc/config-smp
p1334
ass(Vimage
p1335
g1309
tp1336
(dp1337
Vsuggests
p1338
Vsilo, fdutils
p1339
sVinstall-stem
p1340
Vvmlinuz
p1341
sVconfigs
p1342
(lp1343
ss(Vdescription
p1344
g1309
NVsparc64-smp
p1345
tp1346
(dp1347
Vhardware
p1348
Vmultiprocessor 64-bit UltraSPARC
p1349
ss(Vdescription
p1350
g1309
NVsparc64
p1351
tp1352
(dp1353
Vhardware
p1354
Vuniprocessor 64-bit UltraSPARC
p1355
ss(g181
g1309
g149
tp1356
(dp1357
g184
(lp1358
Vsparc64
p1359
aVsparc64-smp
p1360
asg188
I01
ss(Vbase
p1361
Vtilegx
p1362
tp1363
(dp1364
Vfeaturesets
p1365
(lp1366
sVkernel-arch
p1367
Vtile
p1368
ss(Vbase
p1369
Vx32
p1370
tp1371
(dp1372
Vfeaturesets
p1373
(lp1374
sVkernel-arch
p1375
Vx86
p1376
ss(Vdescription
p1377
NVrt
p1378
tp1379
(dp1380
Vparts
p1381
(lp1382
Vrt
p1383
asVpart-long-rt
p1384
VThis kernel includes the PREEMPT_RT realtime patch set.
p1385
sVpart-short-rt
p1386
VPREEMPT_RT
p1387
ss(Vabi
p1388
Ng1378
tp1389
(dp1390
Vignore-changes
p1391
(lp1392
V*
p1393
ass(Vversion
p1394
tp1395
(dp1396
Vupstream
p1397
V4.15
p1398
sVsource
p1399
V4.15.17-1+rpi1
p1400
sVabiname
p1401
V4.15.0-3
p1402
sVabiname_base
p1403
V4.15.0
p1404
ss.