ccopy_reg
_reconstructor
p0
(cdebian_linux.config
ConfigCore
p1
c__builtin__
dict
p2
(dp3
(S'image'
p4
S'amd64'
p5
tp6
(dp7
S'install-stem'
p8
S'vmlinuz'
p9
sS'configs'
p10
(lp11
sS'bootloaders'
p12
(lp13
S'grub-pc'
p14
aS'grub-efi'
p15
aS'extlinux'
p16
ass(S'image'
p17
S'mips64el'
p18
NS'5kc-malta'
p19
tp20
(dp21
S'configs'
p22
(lp23
S'kernelarch-mips/config.5kc-malta'
p24
ass(S'description'
p25
S'mips64'
p26
NS'sb1-bcm91250a'
p27
tp28
(dp29
S'hardware'
p30
S'BCM91250A'
p31
sS'hardware-long'
p32
S'Broadcom BCM91250A systems (aka SWARM)'
p33
ss(S'description'
p34
S'sh4'
p35
NS'sh7751r'
p36
tp37
(dp38
S'hardware'
p39
S'sh7751r'
p40
sS'hardware-long'
p41
S'Renesas SH7751R R2D plus board'
p42
ss(S'base'
p43
g5
S'none'
p44
tp45
(dp46
S'flavours'
p47
(lp48
S'amd64'
p49
ass(S'image'
p50
S'mips'
p51
NS'4kc-malta'
p52
tp53
(dp54
S'configs'
p55
(lp56
S'kernelarch-mips/config.4kc-malta'
p57
ass(S'image'
p58
g51
NS'octeon'
p59
tp60
(dp61
S'configs'
p62
(lp63
S'kernelarch-mips/config.octeon'
p64
ass(S'image'
p65
S'ia64'
p66
tp67
(dp68
S'suggests'
p69
S'fdutils'
p70
sS'bootloaders'
p71
(lp72
S'elilo'
p73
asS'install-stem'
p74
S'vmlinuz'
p75
ss(S'abi'
p76
NS'rt'
p77
tp78
(dp79
S'ignore-changes'
p80
(lp81
S'*'
p82
ass(S'image'
p83
S'i386'
p84
NS'586'
p85
tp86
(dp87
S'configs'
p88
(lp89
S'kernelarch-x86/config-arch-32'
p90
aS'i386/config.586'
p91
ass(S'description'
p92
S'arm64'
p93
NS'arm64'
p94
tp95
(dp96
S'hardware'
p97
S'64-bit ARMv8 machines'
p98
ss(S'version'
p99
tp100
(dp101
S'abiname'
p102
S'3.16.0-10'
p103
sS'source'
p104
V3.16.74-1
p105
sS'abiname_base'
p106
S'3.16.0'
p107
sS'upstream'
p108
S'3.16'
p109
ss(S'description'
p110
S'powerpc'
p111
NS'powerpc-smp'
p112
tp113
(dp114
S'hardware'
p115
S'multiprocessor 32-bit PowerPC'
p116
ss(S'description'
p117
g5
g44
S'amd64'
p118
tp119
(dp120
S'parts'
p121
(lp122
S'xen'
p123
ass(S'description'
p124
g26
NS'5kc-malta'
p125
tp126
(dp127
S'hardware'
p128
S'MIPS Malta'
p129
sS'hardware-long'
p130
S'MIPS Malta boards'
p131
ss(S'base'
p132
S'ppc64'
p133
S'none'
p134
tp135
(dp136
S'implicit-flavour'
p137
I01
sS'flavours'
p138
(lp139
S'powerpc64'
p140
ass(S'description'
p141
S'hppa'
p142
NS'parisc'
p143
tp144
(dp145
S'hardware'
p146
S'32-bit PA-RISC'
p147
sS'hardware-long'
p148
S'HP PA-RISC 32-bit systems with max 4 GB RAM'
p149
ss(S'description'
p150
g51
NS'r4k-ip22'
p151
tp152
(dp153
S'hardware'
p154
S'SGI IP22'
p155
sS'hardware-long'
p156
S'SGI IP22 systems (Indy, Indigo2)'
p157
ss(S'image'
p158
g35
NS'sh7785lcr'
p159
tp160
(dp161
S'check-size'
p162
S'4194304'
p163
sS'recommends'
p164
S'u-boot-tools'
p165
ss(S'description'
p166
g84
S'none'
p167
S'amd64'
p168
tp169
(dp170
S'parts'
p171
(lp172
S'xen'
p173
ass(S'description'
p174
g111
NS'powerpc'
p175
tp176
(dp177
S'hardware'
p178
S'uniprocessor 32-bit PowerPC'
p179
ss(S'base'
p180
S'alpha'
p181
tp182
(dp183
S'kernel-arch'
p184
S'alpha'
p185
sS'featuresets'
p186
(lp187
g134
ass(S'description'
p188
g51
NS'5kc-malta'
p189
tp190
(dp191
S'hardware'
p192
S'MIPS Malta (64-bit)'
p193
sS'hardware-long'
p194
S'MIPS Malta boards (64-bit)'
p195
ss(S'image'
p196
g26
NS'octeon'
p197
tp198
(dp199
S'configs'
p200
(lp201
S'kernelarch-mips/config.octeon'
p202
ass(g132
S'armhf'
p203
g134
tp204
(dp205
g137
I01
sg138
(lp206
S'armmp'
p207
aS'armmp-lpae'
p208
ass(S'image'
p209
g93
NS'arm64'
p210
tp211
(dp212
s(S'base'
p213
g84
S'rt'
p214
tp215
(dp216
S'flavours'
p217
(lp218
S'686-pae'
p219
ass(S'description'
p220
S'mipsel'
p221
NS'sb1-bcm91250a'
p222
tp223
(dp224
S'hardware'
p225
S'BCM91250A'
p226
sS'hardware-long'
p227
S'Broadcom BCM91250A systems (aka SWARM)'
p228
ss(S'image'
p229
g221
NS'loongson-3'
p230
tp231
(dp232
S'configs'
p233
(lp234
S'kernelarch-mips/config.loongson-3'
p235
ass(S'relations'
p236
g84
tp237
(dp238
S'headers%gcc-4.9'
p239
S'linux-compiler-gcc-4.9-x86 (>= 3.16.51-3+deb8u2~), linux-kbuild-3.16 (>= 3.16.56-1)'
p240
ss(S'image'
p241
g221
NS'4kc-malta'
p242
tp243
(dp244
S'configs'
p245
(lp246
S'kernelarch-mips/config.4kc-malta'
p247
ass(S'description'
p248
g221
NS'loongson-3'
p249
tp250
(dp251
S'hardware'
p252
S'Loongson 3A/3B'
p253
sS'hardware-long'
p254
S'Loongson 3A or 3B based systems (e.g. from Loongson or Lemote)'
p255
ss(S'image'
p256
g111
tp257
(dp258
S'suggests'
p259
S'mkvmlinuz'
p260
sS'configs'
p261
(lp262
sS'install-stem'
p263
S'vmlinux'
p264
ss(S'description'
p265
g181
NS'alpha-generic'
p266
tp267
(dp268
S'hardware'
p269
S'Alpha'
p270
sS'hardware-long'
p271
S'DEC Alpha systems with extended kernel start address (Wildfire, Titan, Marvel)'
p272
ss(S'description'
p273
S'sparc64'
p274
NS'sparc64'
p275
tp276
(dp277
S'hardware'
p278
S'uniprocessor 64-bit UltraSPARC'
p279
ss(S'base'
p280
g5
S'rt'
p281
tp282
(dp283
S'flavours'
p284
(lp285
S'amd64'
p286
ass(S'build'
p287
S'ppc64el'
p288
tp289
(dp290
S'image-file'
p291
S'vmlinux'
p292
ss(S'build'
p293
g133
tp294
(dp295
S'image-file'
p296
S'vmlinux'
p297
ss(S'description'
p298
g51
NS'octeon'
p299
tp300
(dp301
S'hardware'
p302
S'Octeon'
p303
sS'hardware-long'
p304
S'Cavium Networks Octeon'
p305
ss(S'base'
p306
g93
tp307
(dp308
S'kernel-arch'
p309
S'arm64'
p310
sS'featuresets'
p311
(lp312
S'none'
p313
ass(S'image'
p314
S'armel'
p315
NS'orion5x'
p316
tp317
(dp318
S'check-size'
p319
S'1572792'
p320
sS'configs'
p321
(lp322
S'armel/config-reduced'
p323
aS'armel/config.orion5x'
p324
asS'recommends'
p325
S'u-boot-tools'
p326
ss(S'base'
p327
g84
tp328
(dp329
S'kernel-arch'
p330
S'x86'
p331
sS'featuresets'
p332
(lp333
S'none'
p334
aS'rt'
p335
asS'compiler'
p336
S'gcc-4.9'
p337
ss(S'description'
p338
g315
NS'ixp4xx'
p339
tp340
(dp341
S'hardware'
p342
S'IXP4xx'
p343
sS'hardware-long'
p344
S'IXP4xx based systems (Linksys NSLU2, etc)'
p345
ss(S'base'
p346
g221
tp347
(dp348
S'kernel-arch'
p349
S'mips'
p350
sg186
(lp351
g134
ass(S'relations'
p352
g5
tp353
(dp354
S'headers%gcc-4.9'
p355
S'linux-compiler-gcc-4.9-x86 (>= 3.16.51-3+deb8u2~), linux-kbuild-3.16 (>= 3.16.56-1)'
p356
ss(S'description'
p357
S's390'
p358
NS's390x'
p359
tp360
(dp361
S'hardware'
p362
S'IBM zSeries'
p363
ss(S'image'
p364
g203
NS'armmp-lpae'
p365
tp366
(dp367
S'configs'
p368
(lp369
S'armhf/config.armmp'
p370
aS'armhf/config.lpae'
p371
ass(S'relations'
p372
g358
tp373
(dp374
S'headers%gcc-4.8'
p375
S'linux-compiler-gcc-4.8-s390'
p376
ss(g132
g221
g134
tp377
(dp378
g137
I01
sg138
(lp379
S'sb1-bcm91250a'
p380
aS'4kc-malta'
p381
aS'5kc-malta'
p382
aS'loongson-2e'
p383
aS'loongson-2f'
p384
aS'loongson-3'
p385
ass(S'image'
p386
g84
NS'686-pae'
p387
tp388
(dp389
S'configs'
p390
(lp391
S'kernelarch-x86/config-arch-32'
p392
aS'i386/config.686-pae'
p393
asS'recommends'
p394
S'libc6-i686'
p395
ss(S'description'
p396
S'powerpcspe'
p397
tp398
(dp399
S'hardware'
p400
S'32-bit PowerPC with SPE (instead of AltiVec) with SMP support'
p401
ss(S'relations'
p402
tp403
(dp404
S'gcc-4.9'
p405
S'gcc-4.9 (>= 4.9.2-10+deb7u1), gcc-4.9 (<< 4.9.2-11)'
p406
sS'gcc-4.8'
p407
S'gcc-4.8'
p408
sS'initramfs-fallback'
p409
S'linux-initramfs-tool'
p410
sS'gcc-4.7'
p411
S'gcc-4.7'
p412
sS'gcc-4.6'
p413
S'gcc-4.6'
p414
sS'gcc-4.4'
p415
S'gcc-4.4'
p416
sS'initramfs-tools'
p417
S'initramfs-tools (>= 0.110~)'
p418
ss(S'image'
p419
g221
NS'loongson-2f'
p420
tp421
(dp422
S'configs'
p423
(lp424
S'kernelarch-mips/config.loongson-2f'
p425
asS'recommends'
p426
S'libc6-loongson2f'
p427
ss(S'description'
p428
g203
NS'armmp'
p429
tp430
(dp431
S'hardware'
p432
S'ARMv7 multiplatform compatible SoCs'
p433
sS'hardware-long'
p434
S'ARMv7 multiplatform kernel. See\nhttps://wiki.debian.org/DebianKernel/ARMMP for details of supported\nplatforms'
p435
ss(S'description'
p436
g26
NS'octeon'
p437
tp438
(dp439
S'hardware'
p440
S'Octeon'
p441
sS'hardware-long'
p442
S'Cavium Networks Octeon'
p443
ss(S'image'
p444
S'sparc'
p445
NS'sparc64-smp'
p446
tp447
(dp448
S'configs'
p449
(lp450
S'kernelarch-sparc/config-smp'
p451
ass(S'build'
p452
g397
tp453
(dp454
S'image-file'
p455
S'vmlinux'
p456
ss(S'description'
p457
g315
NS'versatile'
p458
tp459
(dp460
S'hardware'
p461
S'Versatile'
p462
sS'hardware-long'
p463
S'Versatile systems (PB, AB, Qemu)'
p464
ss(S'build'
p465
g142
tp466
(dp467
S'image-file'
p468
S'vmlinux'
p469
ss(S'relations'
p470
g111
tp471
(dp472
S'gcc-4.8'
p473
S'gcc-4.8 (>= 4.8.2-21)'
p474
ss(S'image'
p475
g181
tp476
(dp477
S'suggests'
p478
S'aboot, fdutils'
p479
sS'install-stem'
p480
S'vmlinuz'
p481
ss(S'description'
p482
g84
NS'586'
p483
tp484
(dp485
S'hardware'
p486
S'older PCs'
p487
sS'parts'
p488
(lp489
S'up'
p490
asS'hardware-long'
p491
S'PCs with a single processor not supporting PAE'
p492
ss(S'description'
p493
g274
NS'sparc64-smp'
p494
tp495
(dp496
S'hardware'
p497
S'multiprocessor 64-bit UltraSPARC'
p498
ss(S'description'
p499
g181
NS'alpha-smp'
p500
tp501
(dp502
S'hardware'
p503
S'Alpha SMP'
p504
sS'hardware-long'
p505
S'DEC Alpha SMP systems with extended kernel start address (Wildfire, Titan, Marvel)'
p506
ss(S'base'
p507
g315
tp508
(dp509
S'kernel-arch'
p510
S'arm'
p511
sg186
(lp512
g134
ass(S'description'
p513
g18
NS'sb1-bcm91250a'
p514
tp515
(dp516
S'hardware'
p517
S'BCM91250A'
p518
sS'hardware-long'
p519
S'Broadcom BCM91250A systems (aka SWARM)'
p520
ss(S'build'
p521
g93
tp522
(dp523
S'debug-info'
p524
I01
sS'image-file'
p525
S'arch/arm64/boot/Image'
p526
ss(S'image'
p527
g133
NS'powerpc64'
p528
tp529
(dp530
S'configs'
p531
(lp532
S'kernelarch-powerpc/config-arch-64'
p533
aS'kernelarch-powerpc/config-arch-64-be'
p534
ass(S'build'
p535
g358
NS's390x'
p536
tp537
(dp538
S'debug-info'
p539
I01
ss(S'description'
p540
g142
NS'parisc64-smp'
p541
tp542
(dp543
S'hardware'
p544
S'multiprocessor 64-bit PA-RISC'
p545
sS'hardware-long'
p546
S'HP PA-RISC 64-bit SMP systems with support for more than 4 GB RAM'
p547
ss(S'base'
p548
g397
tp549
(dp550
S'kernel-arch'
p551
S'powerpc'
p552
sg186
(lp553
g134
ass(S'build'
p554
g84
NS'686-pae'
p555
tp556
(dp557
S'debug-info'
p558
I01
ss(g132
g111
g134
tp559
(dp560
g137
I01
sg138
(lp561
S'powerpc'
p562
aS'powerpc-smp'
p563
aS'powerpc64'
p564
ass(S'description'
p565
g66
NS'itanium'
p566
tp567
(dp568
S'hardware'
p569
S'Itanium'
p570
ss(g132
g358
g134
tp571
(dp572
g137
I01
sg138
(lp573
S's390x'
p574
ass(g132
S's390x'
p575
g134
tp576
(dp577
g137
I01
sg138
(lp578
S's390x'
p579
ass(S'base'
p580
g51
tp581
(dp582
S'kernel-arch'
p583
S'mips'
p584
sg186
(lp585
g134
ass(S'build'
p586
g5
tp587
(dp588
S'debug-info'
p589
I01
sS'image-file'
p590
S'arch/x86/boot/bzImage'
p591
ss(S'description'
p592
g18
NS'5kc-malta'
p593
tp594
(dp595
S'hardware'
p596
S'MIPS Malta'
p597
sS'hardware-long'
p598
S'MIPS Malta boards'
p599
ss(S'base'
p600
g142
NS'parisc64-smp'
p601
tp602
(dp603
S'override-host-type'
p604
S'hppa64-linux-gnu'
p605
sS'cflags'
p606
S'-fno-cse-follow-jumps'
p607
ss(S'image'
p608
g288
NS'powerpc64le'
p609
tp610
(dp611
S'configs'
p612
(lp613
S'kernelarch-powerpc/config-arch-64'
p614
aS'kernelarch-powerpc/config-arch-64-le'
p615
ass(S'build'
p616
g445
tp617
(dp618
S'image-file'
p619
S'arch/sparc/boot/zImage'
p620
ss(S'image'
p621
g221
tp622
(dp623
S'install-stem'
p624
S'vmlinux'
p625
ss(S'description'
p626
g445
NS'sparc64-smp'
p627
tp628
(dp629
S'hardware'
p630
S'multiprocessor 64-bit UltraSPARC'
p631
ss(S'build'
p632
g111
tp633
(dp634
S'image-file'
p635
S'vmlinux'
p636
ss(S'description'
p637
g18
NS'loongson-3'
p638
tp639
(dp640
S'hardware'
p641
S'Loongson 3A/3B'
p642
sS'hardware-long'
p643
S'Loongson 3A or 3B based systems (e.g. from Loongson or Lemote)'
p644
ss(S'build'
p645
g221
tp646
(dp647
S'image-file'
p648
S'vmlinux'
p649
ss(S'base'
p650
g26
tp651
(dp652
S'kernel-arch'
p653
S'mips'
p654
sg186
(lp655
g134
ass(S'base'
p656
g575
tp657
(dp658
S'kernel-arch'
p659
S's390'
p660
sg186
(lp661
g134
ass(S'base'
p662
g5
tp663
(dp664
S'kernel-arch'
p665
S'x86'
p666
sS'featuresets'
p667
(lp668
S'none'
p669
aS'rt'
p670
asS'compiler'
p671
S'gcc-4.9'
p672
ss(S'base'
p673
g66
tp674
(dp675
S'kernel-arch'
p676
S'ia64'
p677
sg186
(lp678
g134
asS'compiler'
p679
S'gcc-4.6'
p680
ss(S'image'
p681
g221
NS'5kc-malta'
p682
tp683
(dp684
S'configs'
p685
(lp686
S'kernelarch-mips/config.5kc-malta'
p687
ass(S'image'
p688
g315
NS'ixp4xx'
p689
tp690
(dp691
S'check-size'
p692
S'1441760'
p693
sS'configs'
p694
(lp695
S'armel/config-reduced'
p696
aS'armel/config.ixp4xx'
p697
ass(S'base'
p698
g358
tp699
(dp700
S'kernel-arch'
p701
S's390'
p702
sg186
(lp703
g134
ass(g132
g315
g134
tp704
(dp705
g137
I01
sg138
(lp706
S'ixp4xx'
p707
aS'kirkwood'
p708
aS'orion5x'
p709
aS'versatile'
p710
ass(S'description'
p711
g66
NS'mckinley'
p712
tp713
(dp714
S'hardware'
p715
S'Itanium II'
p716
ss(S'description'
p717
g221
NS'5kc-malta'
p718
tp719
(dp720
S'hardware'
p721
S'MIPS Malta (64-bit)'
p722
sS'hardware-long'
p723
S'MIPS Malta boards (64-bit)'
p724
ss(S'description'
p725
g84
tp726
(dp727
S'part-long-pae'
p728
S'This kernel requires PAE (Physical Address Extension).\nThis feature is supported by the Intel Pentium Pro/II/III/4/4M/D, Xeon,\nCore and Atom; AMD Geode NX, Athlon (K7), Duron, Opteron, Sempron,\nTurion or Phenom; Transmeta Efficeon; VIA C7; and some other processors.'
p729
ss(S'build'
p730
g18
tp731
(dp732
S'image-file'
p733
S'vmlinux'
p734
ss(S'xen'
p735
g5
g44
S'amd64'
p736
tp737
(dp738
S'flavours'
p739
(lp740
S'amd64'
p741
ass(S'image'
p742
g315
tp743
(dp744
S'suggests'
p745
S'fdutils'
p746
sS'configs'
p747
(lp748
S'kernelarch-arm/config'
p749
aS'armel/config'
p750
asS'install-stem'
p751
S'vmlinuz'
p752
ss(S'image'
p753
g358
tp754
(dp755
S'install-stem'
p756
S'vmlinuz'
p757
sS'configs'
p758
(lp759
sS'bootloaders'
p760
(lp761
S's390-tools'
p762
ass(S'relations'
p763
g315
tp764
(dp765
S'headers%gcc-4.8'
p766
S'linux-compiler-gcc-4.8-arm'
p767
ss(S'image'
p768
g142
tp769
(dp770
S'suggests'
p771
S'palo'
p772
sS'install-stem'
p773
S'vmlinux'
p774
ss(S'image'
p775
g111
NS'powerpc64'
p776
tp777
(dp778
S'configs'
p779
(lp780
S'kernelarch-powerpc/config-arch-64'
p781
aS'kernelarch-powerpc/config-arch-64-be'
p782
ass(g132
g26
g134
tp783
(dp784
g137
I01
sg138
(lp785
S'sb1-bcm91250a'
p786
aS'5kc-malta'
p787
aS'octeon'
p788
ass(S'relations'
p789
g142
tp790
(dp791
S'gcc-4.8'
p792
S'gcc-4.8, binutils-hppa64, gcc-4.8-hppa64'
p793
ss(S'description'
p794
g84
NS'amd64'
p795
tp796
(dp797
S'hardware'
p798
S'64-bit PCs'
p799
sS'parts'
p800
(lp801
S'xen'
p802
asS'hardware-long'
p803
S'PCs with AMD64, Intel 64 or VIA Nano processors'
p804
ss(S'image'
p805
g51
NS'r4k-ip22'
p806
tp807
(dp808
S'configs'
p809
(lp810
S'kernelarch-mips/config.r4k-ip22'
p811
ass(S'image'
p812
g274
NS'sparc64-smp'
p813
tp814
(dp815
S'configs'
p816
(lp817
S'kernelarch-sparc/config-smp'
p818
ass(S'description'
p819
g288
NS'powerpc64le'
p820
tp821
(dp822
S'hardware'
p823
S'Little-endian 64-bit PowerPC'
p824
ss(S'description'
p825
g51
NS'sb1-bcm91250a'
p826
tp827
(dp828
S'hardware'
p829
S'BCM91250A'
p830
sS'hardware-long'
p831
S'Broadcom BCM91250A systems (aka SWARM)'
p832
ss(S'description'
p833
g445
NS'sparc64'
p834
tp835
(dp836
S'hardware'
p837
S'uniprocessor 64-bit UltraSPARC'
p838
ss(S'image'
p839
g315
NS'kirkwood'
p840
tp841
(dp842
S'check-size'
p843
S'2097080'
p844
sS'breaks'
p845
S'flash-kernel (<< 3.14~)'
p846
sS'recommends'
p847
S'u-boot-tools'
p848
ss(g132
g142
g134
tp849
(dp850
g137
I01
sg138
(lp851
S'parisc'
p852
aS'parisc64-smp'
p853
ass(S'description'
p854
S'm68k'
p855
NS'm68k'
p856
tp857
(dp858
S'hardware'
p859
S'Motorola MC68020+ family'
p860
ss(S'image'
p861
g111
NS'powerpc-smp'
p862
tp863
(dp864
S'configs'
p865
(lp866
S'powerpc/config.powerpc'
p867
aS'powerpc/config.powerpc-smp'
p868
ass(S'base'
p869
g274
tp870
(dp871
S'kernel-arch'
p872
S'sparc'
p873
sg186
(lp874
g134
ass(S'image'
p875
g26
NS'5kc-malta'
p876
tp877
(dp878
S'configs'
p879
(lp880
S'kernelarch-mips/config.5kc-malta'
p881
ass(S'base'
p882
S'or1k'
p883
tp884
(dp885
S'kernel-arch'
p886
S'openrisc'
p887
sS'featuresets'
p888
(lp889
ss(S'description'
p890
g35
NS'sh7785lcr'
p891
tp892
(dp893
S'hardware'
p894
S'sh7785lcr'
p895
sS'hardware-long'
p896
S'Renesas SH7785 reference board'
p897
ss(S'image'
p898
g51
tp899
(dp900
S'install-stem'
p901
S'vmlinux'
p902
ss(g132
g18
g134
tp903
(dp904
g137
I01
sg138
(lp905
S'sb1-bcm91250a'
p906
aS'5kc-malta'
p907
aS'loongson-3'
p908
aS'octeon'
p909
ass(S'image'
p910
g18
NS'sb1-bcm91250a'
p911
tp912
(dp913
S'configs'
p914
(lp915
S'kernelarch-mips/config.sb1-bcm91250a'
p916
ass(S'image'
p917
g133
tp918
(dp919
S'suggests'
p920
S'mkvmlinuz'
p921
sS'configs'
p922
(lp923
sS'install-stem'
p924
S'vmlinux'
p925
ss(S'image'
p926
g445
NS'sparc32'
p927
tp928
(dp929
S'image-postproc'
p930
S'sparc32-image-postproc'
p931
ss(S'image'
p932
g84
tp933
(dp934
S'install-stem'
p935
S'vmlinuz'
p936
sS'configs'
p937
(lp938
sS'bootloaders'
p939
(lp940
S'grub-pc'
p941
aS'extlinux'
p942
ass(S'build'
p943
g358
tp944
(dp945
S'image-file'
p946
S'arch/s390/boot/image'
p947
ss(g132
g445
g134
tp948
(dp949
g137
I01
sg138
(lp950
S'sparc64'
p951
aS'sparc64-smp'
p952
ass(S'base'
p953
NS'rt'
p954
tp955
(dp956
S'enabled'
p957
I00
ss(g132
g181
g134
tp958
(dp959
g137
I01
sg138
(lp960
S'alpha-generic'
p961
aS'alpha-smp'
p962
ass(S'description'
p963
g84
g167
S'686-pae'
p964
tp965
(dp966
S'parts'
p967
(lp968
S'xen'
p969
ass(g132
g66
g134
tp970
(dp971
g137
I01
sg138
(lp972
S'itanium'
p973
aS'mckinley'
p974
ass(S'base'
p975
g133
tp976
(dp977
S'kernel-arch'
p978
S'powerpc'
p979
sg186
(lp980
g134
ass(S'description'
p981
g5
NS'amd64'
p982
tp983
(dp984
S'hardware'
p985
S'64-bit PCs'
p986
sS'hardware-long'
p987
S'PCs with AMD64, Intel 64 or VIA Nano processors'
p988
ss(S'build'
p989
g575
tp990
(dp991
S'image-file'
p992
S'arch/s390/boot/image'
p993
ss(S'description'
p994
g221
NS'loongson-2f'
p995
tp996
(dp997
S'hardware'
p998
S'Loongson 2F'
p999
sS'hardware-long'
p1000
S'Lemote Loongson 2F systems'
p1001
ss(g132
g51
g134
tp1002
(dp1003
g137
I01
sg138
(lp1004
S'r4k-ip22'
p1005
aS'r5k-ip32'
p1006
aS'sb1-bcm91250a'
p1007
aS'4kc-malta'
p1008
aS'5kc-malta'
p1009
aS'octeon'
p1010
ass(S'build'
p1011
g51
tp1012
(dp1013
S'image-file'
p1014
S'vmlinux'
p1015
ss(S'image'
p1016
g26
tp1017
(dp1018
S'install-stem'
p1019
S'vmlinux'
p1020
ss(g132
g35
g134
tp1021
(dp1022
g137
I01
sg138
(lp1023
S'sh7751r'
p1024
aS'sh7785lcr'
p1025
ass(S'base'
p1026
S'x32'
p1027
tp1028
(dp1029
S'kernel-arch'
p1030
S'x86'
p1031
sS'featuresets'
p1032
(lp1033
ss(S'build'
p1034
g35
tp1035
(dp1036
S'image-file'
p1037
S'arch/sh/boot/zImage'
p1038
ss(S'image'
p1039
g855
tp1040
(dp1041
S'suggests'
p1042
S'vmelilo, fdutils'
p1043
sS'install-stem'
p1044
S'vmlinuz'
p1045
ss(S'base'
p1046
g93
S'none'
p1047
tp1048
(dp1049
S'flavours'
p1050
(lp1051
S'arm64'
p1052
ass(S'description'
p1053
g51
NS'r5k-ip32'
p1054
tp1055
(dp1056
S'hardware'
p1057
S'SGI IP32'
p1058
sS'hardware-long'
p1059
S'SGI IP32 systems (O2)'
p1060
ss(S'build'
p1061
g26
tp1062
(dp1063
S'image-file'
p1064
S'vmlinux'
p1065
ss(S'build'
p1066
g66
tp1067
(dp1068
S'image-file'
p1069
S'vmlinux.gz'
p1070
ss(S'base'
p1071
g203
tp1072
(dp1073
S'kernel-arch'
p1074
S'arm'
p1075
sg186
(lp1076
g134
ass(S'description'
p1077
g84
NS'686-pae'
p1078
tp1079
(dp1080
S'hardware'
p1081
S'modern PCs'
p1082
sS'parts'
p1083
(lp1084
S'pae'
p1085
asS'hardware-long'
p1086
S'PCs with one or more processors supporting PAE'
p1087
ss(S'image'
p1088
g51
NS'r5k-ip32'
p1089
tp1090
(dp1091
S'configs'
p1092
(lp1093
S'kernelarch-mips/config.r5k-ip32'
p1094
ass(S'image'
p1095
g35
tp1096
(dp1097
S'suggests'
p1098
S'fdutils'
p1099
sS'install-stem'
p1100
S'vmlinuz'
p1101
ss(S'base'
p1102
g142
tp1103
(dp1104
S'kernel-arch'
p1105
S'parisc'
p1106
sg186
(lp1107
g134
ass(S'description'
p1108
g315
NS'kirkwood'
p1109
tp1110
(dp1111
S'hardware'
p1112
S'Marvell Kirkwood'
p1113
sS'hardware-long'
p1114
S'Marvell Kirkwood based systems (SheevaPlug, QNAP TS-119/TS-219, etc)'
p1115
ss(S'base'
p1116
g35
tp1117
(dp1118
S'kernel-arch'
p1119
S'sh'
p1120
sg186
(lp1121
g134
ass(S'image'
p1122
g445
tp1123
(dp1124
S'suggests'
p1125
S'silo, fdutils'
p1126
sS'configs'
p1127
(lp1128
sS'install-stem'
p1129
S'vmlinuz'
p1130
ss(S'description'
p1131
tp1132
(dp1133
S'part-long-up'
p1134
S'This kernel is not suitable for SMP (multi-processor,\nmulti-core or hyper-threaded) systems.'
p1135
sS'part-long-xen'
p1136
S'This kernel also runs on a Xen hypervisor.\nIt supports both privileged (dom0) and unprivileged (domU) operation.'
p1137
ss(S'build'
p1138
g274
tp1139
(dp1140
S'image-file'
p1141
S'arch/sparc/boot/zImage'
p1142
ss(S'relations'
p1143
g203
tp1144
(dp1145
S'headers%gcc-4.8'
p1146
S'linux-compiler-gcc-4.8-arm'
p1147
ss(S'description'
p1148
g111
NS'powerpc64'
p1149
tp1150
(dp1151
S'hardware'
p1152
S'64-bit PowerPC'
p1153
ss(S'image'
p1154
g575
NS's390x'
p1155
tp1156
(dp1157
S'configs'
p1158
(lp1159
S'kernelarch-s390/config-arch-64'
p1160
ass(S'image'
p1161
g18
NS'loongson-3'
p1162
tp1163
(dp1164
S'configs'
p1165
(lp1166
S'kernelarch-mips/config.loongson-3'
p1167
ass(S'build'
p1168
g181
tp1169
(dp1170
S'image-file'
p1171
S'arch/alpha/boot/vmlinux.gz'
p1172
ss(S'relations'
p1173
g575
tp1174
(dp1175
S'headers%gcc-4.8'
p1176
S'linux-compiler-gcc-4.8-s390'
p1177
ss(S'base'
p1178
g111
tp1179
(dp1180
S'kernel-arch'
p1181
S'powerpc'
p1182
sg186
(lp1183
g134
ass(S'image'
p1184
g221
NS'sb1-bcm91250a'
p1185
tp1186
(dp1187
S'configs'
p1188
(lp1189
S'kernelarch-mips/config.sb1-bcm91250a'
p1190
ass(S'description'
p1191
g575
NS's390x'
p1192
tp1193
(dp1194
S'hardware'
p1195
S'IBM zSeries'
p1196
ss(S'description'
p1197
g221
NS'4kc-malta'
p1198
tp1199
(dp1200
S'hardware'
p1201
S'MIPS Malta'
p1202
sS'hardware-long'
p1203
S'MIPS Malta boards'
p1204
ss(S'image'
p1205
g51
NS'sb1-bcm91250a'
p1206
tp1207
(dp1208
S'configs'
p1209
(lp1210
S'kernelarch-mips/config.sb1-bcm91250a'
p1211
ass(S'image'
p1212
g288
tp1213
(dp1214
S'suggests'
p1215
S'mkvmlinuz'
p1216
sS'configs'
p1217
(lp1218
sS'install-stem'
p1219
S'vmlinux'
p1220
ss(S'description'
p1221
g18
NS'octeon'
p1222
tp1223
(dp1224
S'hardware'
p1225
S'Octeon'
p1226
sS'hardware-long'
p1227
S'Cavium Networks Octeon'
p1228
ss(S'image'
p1229
g397
tp1230
(dp1231
S'suggests'
p1232
S'mkvmlinuz'
p1233
sS'install-stem'
p1234
S'vmlinux'
p1235
ss(S'image'
p1236
g84
NS'amd64'
p1237
tp1238
(dp1239
S'configs'
p1240
(lp1241
S'kernelarch-x86/config-arch-64'
p1242
asS'recommends'
p1243
S'libc6-i686'
p1244
ss(S'image'
p1245
g203
tp1246
(dp1247
S'suggests'
p1248
S'fdutils'
p1249
sS'configs'
p1250
(lp1251
S'kernelarch-arm/config'
p1252
aS'armhf/config'
p1253
asS'install-stem'
p1254
S'vmlinuz'
p1255
ss(S'abi'
p1256
tp1257
(dp1258
S'abiname'
p1259
S'10'
p1260
sS'ignore-changes'
p1261
(lp1262
S'module:arch/x86/kvm/kvm'
p1263
aS'module:arch/powerpc/kvm/kvm'
p1264
aS'module:drivers/edac/edac_mce_amd'
p1265
aS'module:drivers/hid/hid-sensor-hub'
p1266
aS'module:drivers/iio/**'
p1267
aS'module:drivers/md/dm-snapshot'
p1268
aS'module:drivers/mmc/host/*'
p1269
aS'module:drivers/misc/mei/*'
p1270
aS'module:drivers/mtd/spi-nor/spi-nor'
p1271
aS'module:drivers/net/can/can-dev'
p1272
aS'module:drivers/net/ethernet/**'
p1273
aS'module:drivers/net/wireless/**'
p1274
aS'module:drivers/s390/net/qeth'
p1275
aS'module:drivers/s390/net/qeth*'
p1276
aS'module:drivers/scsi/cxgbi/*'
p1277
aS'module:drivers/scsi/libiscs*'
p1278
aS'module:drivers/scsi/qla2xxx/qla2xxx'
p1279
aS'module:drivers/staging/usbip/*'
p1280
aS'module:drivers/target/iscsi/iscsi_target_mod'
p1281
aS'module:drivers/target/target_core_mod'
p1282
aS'module:drivers/usb/musb/*'
p1283
aS'module:drivers/vhost/vhost'
p1284
aS'module:fs/nfs/nfs'
p1285
aS'module:fs/ocfs2/**'
p1286
aS'module:net/ceph/libceph'
p1287
aS'module:net/l2tp/*'
p1288
aS'module:net/rds/rds'
p1289
aS'module:net/vmw_vsock/*'
p1290
aS'module:sound/firewire/snd-firewire-lib'
p1291
aS'module:sound/i2c/other/snd-ak4113'
p1292
aS'module:sound/i2c/other/snd-ak4114'
p1293
aS'module:sound/pci/emu10k1/*'
p1294
aS'module:sound/pci/hda/*'
p1295
aS'azx_alloc_cmd_io'
p1296
aS'azx_free_cmd_io'
p1297
aS'azx_get_response'
p1298
aS'azx_init_cmd_io'
p1299
aS'azx_send_cmd'
p1300
aS'can_rx_register'
p1301
aS'cfi_*'
p1302
aS'cpuidle_*'
p1303
aS'fuse_*'
p1304
aS'inet_add_protocol'
p1305
aS'inet_del_protocol'
p1306
aS'inet_frag_*'
p1307
aS'inet_frags_*'
p1308
aS'injectm'
p1309
aS'kvm_async_pf_task_wait'
p1310
aS'kvmppc_*'
p1311
aS'mtd_do_chip_probe'
p1312
aS'musb_*'
p1313
aS'nft_register_set'
p1314
aS'nft_unregister_set'
p1315
aS'perf_trace_*'
p1316
aS'sdhci_*'
p1317
aS'tcp_make_synack'
p1318
aS'tcp_parse_options'
p1319
aS'tcp_try_fastopen'
p1320
aS'__add_pages'
p1321
aS'__fib_lookup'
p1322
aS'__remove_pages'
p1323
aS'fib_table_lookup'
p1324
aS'nf_register_queue_handler'
p1325
aS'of_device_is_stdout_path'
p1326
aS'module:sound/soc/*'
p1327
aS'blk_rq_check_limits'
p1328
aS'clk_divider_ro_ops'
p1329
aS'tick_nohz_idle_enter'
p1330
aS'tick_nohz_idle_exit'
p1331
aS'skb_copy_and_csum_datagram_iovec'
p1332
aS'module:net/dccp/dccp'
p1333
aS'fl6_*'
p1334
aS'inet_sk_diag_fill'
p1335
aS'ip6_append_data'
p1336
aS'ip6_datagram_send_ctl'
p1337
aS'ip6_xmit'
p1338
aS'ipv6_dup_options'
p1339
aS'ipv6_fixup_options'
p1340
aS'ipv6_push_nfrag_opts'
p1341
aS'tcp_cong_avoid_ai'
p1342
aS'tcp_slow_start'
p1343
aS'__scm_destroy'
p1344
aS'__scm_send'
p1345
aS'scm_detach_fds'
p1346
aS'scm_fp_dup'
p1347
aS'af_alg_*'
p1348
aS'xt_compat_match_from_user'
p1349
aS'efivar_validate'
p1350
aS'zpci_disable_device'
p1351
aS'zpci_enable_device'
p1352
aS'zpci_stop_device'
p1353
aS'fsnotify_*_group'
p1354
aS'fsnotify_*_mark'
p1355
aS'module:drivers/infiniband/**'
p1356
aS'register_kretprobe'
p1357
aS'register_kretprobes'
p1358
aS'unregister_kretprobe'
p1359
aS'unregister_kretprobes'
p1360
ass(S'relations'
p1361
g133
tp1362
(dp1363
S'gcc-4.8'
p1364
S'gcc-4.8 (>= 4.8.2-21)'
p1365
ss(S'description'
p1366
g51
NS'4kc-malta'
p1367
tp1368
(dp1369
S'hardware'
p1370
S'MIPS Malta'
p1371
sS'hardware-long'
p1372
S'MIPS Malta boards'
p1373
ss(g132
g397
g134
tp1374
(dp1375
g137
I01
sg138
(lp1376
S'powerpcspe'
p1377
ass(g132
g855
g134
tp1378
(dp1379
g137
I01
sg138
(lp1380
S'm68k'
p1381
ass(S'image'
p1382
g26
NS'sb1-bcm91250a'
p1383
tp1384
(dp1385
S'configs'
p1386
(lp1387
S'kernelarch-mips/config.sb1-bcm91250a'
p1388
ass(S'base'
p1389
g84
g167
tp1390
(dp1391
S'flavours'
p1392
(lp1393
S'586'
p1394
aS'686-pae'
p1395
aS'amd64'
p1396
ass(S'base'
p1397
tp1398
(dp1399
S'arches'
p1400
(lp1401
S'alpha'
p1402
aS'amd64'
p1403
aS'arm64'
p1404
aS'armel'
p1405
aS'armhf'
p1406
aS'hppa'
p1407
aS'i386'
p1408
aS'ia64'
p1409
aS'm68k'
p1410
aS'mips'
p1411
aS'mipsel'
p1412
aS'mips64'
p1413
aS'mips64el'
p1414
aS'or1k'
p1415
aS'powerpc'
p1416
aS'powerpcspe'
p1417
aS'ppc64'
p1418
aS'ppc64el'
p1419
aS's390'
p1420
aS's390x'
p1421
aS'sh4'
p1422
aS'sparc'
p1423
aS'sparc64'
p1424
aS'x32'
p1425
asS'featuresets'
p1426
(lp1427
S'none'
p1428
aS'rt'
p1429
asS'compiler'
p1430
S'gcc-4.8'
p1431
ss(S'build'
p1432
g855
tp1433
(dp1434
S'image-file'
p1435
S'vmlinux.gz'
p1436
ss(S'build'
p1437
g315
tp1438
(dp1439
S'image-file'
p1440
S'arch/arm/boot/zImage'
p1441
ss(S'image'
p1442
g445
NS'sparc64'
p1443
tp1444
(dp1445
S'configs'
p1446
(lp1447
S'kernelarch-sparc/config-up'
p1448
ass(S'image'
p1449
g274
tp1450
(dp1451
S'suggests'
p1452
S'silo, fdutils'
p1453
sS'configs'
p1454
(lp1455
sS'install-stem'
p1456
S'vmlinuz'
p1457
ss(S'build'
p1458
g203
tp1459
(dp1460
S'image-file'
p1461
S'arch/arm/boot/zImage'
p1462
ss(S'build'
p1463
g575
NS's390x'
p1464
tp1465
(dp1466
S'debug-info'
p1467
I01
ss(S'image'
p1468
g358
NS's390x'
p1469
tp1470
(dp1471
S'configs'
p1472
(lp1473
S'kernelarch-s390/config-arch-64'
p1474
ass(S'base'
p1475
g288
tp1476
(dp1477
S'kernel-arch'
p1478
S'powerpc'
p1479
sg186
(lp1480
g134
ass(S'base'
p1481
g18
tp1482
(dp1483
S'kernel-arch'
p1484
S'mips'
p1485
sg186
(lp1486
g134
ass(S'base'
p1487
g445
tp1488
(dp1489
S'kernel-arch'
p1490
S'sparc'
p1491
sg186
(lp1492
g134
ass(S'base'
p1493
g855
tp1494
(dp1495
S'kernel-arch'
p1496
S'm68k'
p1497
sg186
(lp1498
g134
asS'cflags'
p1499
S'-ffreestanding'
p1500
sS'compiler'
p1501
S'gcc-4.8'
p1502
ss(S'description'
p1503
g221
NS'loongson-2e'
p1504
tp1505
(dp1506
S'hardware'
p1507
S'Loongson 2E'
p1508
sS'hardware-long'
p1509
S'Lemote Loongson 2E systems'
p1510
ss(S'image'
p1511
tp1512
(dp1513
S'initramfs-generators'
p1514
(lp1515
S'initramfs-tools'
p1516
aS'initramfs-fallback'
p1517
asS'type'
p1518
S'plain'
p1519
ss(S'image'
p1520
g221
NS'loongson-2e'
p1521
tp1522
(dp1523
S'configs'
p1524
(lp1525
S'kernelarch-mips/config.loongson-2e'
p1526
ass(g132
g274
g134
tp1527
(dp1528
g137
I01
sg138
(lp1529
S'sparc64'
p1530
aS'sparc64-smp'
p1531
ass(S'image'
p1532
g18
tp1533
(dp1534
S'install-stem'
p1535
S'vmlinux'
p1536
ss(S'description'
p1537
g315
NS'orion5x'
p1538
tp1539
(dp1540
S'hardware'
p1541
S'Marvell Orion'
p1542
sS'hardware-long'
p1543
S'Marvell Orion 5181, 5182 and 5281 based systems (QNAP TS-109/TS-209, etc)'
p1544
ss(S'description'
p1545
g445
NS'sparc32'
p1546
tp1547
(dp1548
S'hardware'
p1549
S'uniprocessor sparc32 (sun4m)'
p1550
ss(S'image'
p1551
g51
NS'5kc-malta'
p1552
tp1553
(dp1554
S'configs'
p1555
(lp1556
S'kernelarch-mips/config.5kc-malta'
p1557
ass(S'description'
p1558
g133
NS'powerpc64'
p1559
tp1560
(dp1561
S'hardware'
p1562
S'64-bit PowerPC'
p1563
ss(S'image'
p1564
g274
NS'sparc64'
p1565
tp1566
(dp1567
S'configs'
p1568
(lp1569
S'kernelarch-sparc/config-up'
p1570
ass(S'description'
p1571
Ng77
tp1572
(dp1573
S'part-long-rt'
p1574
S'This kernel includes the PREEMPT_RT realtime patch set.'
p1575
sS'parts'
p1576
(lp1577
S'rt'
p1578
asS'part-short-rt'
p1579
S'PREEMPT_RT'
p1580
ss(S'image'
p1581
g575
tp1582
(dp1583
S'install-stem'
p1584
S'vmlinuz'
p1585
sS'configs'
p1586
(lp1587
sS'bootloaders'
p1588
(lp1589
S's390-tools'
p1590
ass(S'image'
p1591
g93
tp1592
(dp1593
S'install-stem'
p1594
S'vmlinuz'
p1595
ss(S'image'
p1596
g18
NS'octeon'
p1597
tp1598
(dp1599
S'configs'
p1600
(lp1601
S'kernelarch-mips/config.octeon'
p1602
ass(S'description'
p1603
g203
NS'armmp-lpae'
p1604
tp1605
(dp1606
S'hardware'
p1607
S'ARMv7 multiplatform compatible SoCs supporting LPAE'
p1608
sS'hardware-long'
p1609
S'ARMv7 multiplatform kernel supporting LPAE. See\nhttps://wiki.debian.org/DebianKernel/ARMMP for details of supported\nplatforms.'
p1610
ss(S'build'
p1611
g84
tp1612
(dp1613
S'image-file'
p1614
S'arch/x86/boot/bzImage'
p1615
ss(g132
g288
g134
tp1616
(dp1617
g137
I01
sg138
(lp1618
S'powerpc64le'
p1619
ass(S'image'
p1620
g5
NS'amd64'
p1621
tp1622
(dp1623
S'configs'
p1624
(lp1625
S'kernelarch-x86/config-arch-64'
p1626
asstp1627
Rp1628
.