ccopy_reg
_reconstructor
p1
(cdebian_linux.config
ConfigCore
p2
c__builtin__
dict
p3
(dp4
(S'build'
S's390x'
p5
NS's390x'
tp6
(dp7
S'debug-info'
p8
I01
ss(S'image'
S'amd64'
p9
tp10
(dp11
S'configs'
p12
(lp13
S'kernelarch-x86/config'
p14
asS'bootloaders'
p15
(lp16
S'grub-pc'
p17
aS'extlinux'
p18
aS'lilo'
p19
ass(S'build'
S'armel'
p20
NS'ixp4xx'
tp21
(dp22
S'image-file'
p23
S'arch/arm/boot/zImage'
p24
ss(S'base'
g9
S'none'
p25
tp26
(dp27
S'flavours'
p28
(lp29
S'amd64'
p30
ass(S'base'
S'hppa'
p31
NS'parisc64-smp'
tp32
(dp33
S'override-host-type'
p34
S'hppa64-linux-gnu'
p35
sS'cflags'
p36
S'-fno-cse-follow-jumps'
p37
ss(S'build'
g20
NS'iop32x'
tp38
(dp39
S'image-file'
p40
S'arch/arm/boot/zImage'
p41
ss(S'image'
S'sparc'
p42
NS'sparc32'
tp43
(dp44
S'image-postproc'
p45
S'sparc32-image-postproc'
p46
ss(S'image'
S'ia64'
p47
tp48
(dp49
S'suggests'
p50
S'fdutils'
p51
sS'bootloaders'
p52
(lp53
S'elilo'
p54
ass(S'image'
g5
NS's390x'
tp55
(dp56
S'configs'
p57
(lp58
S's390/config.s390x'
p59
ass(S'xen'
S'i386'
p60
S'none'
p61
S'amd64'
tp62
(dp63
S'flavours'
p64
(lp65
S'amd64'
p66
asS'dom0-support'
p67
I01
ss(S'version'
p68
tp69
(dp70
S'abiname'
p71
S'3.2.0-4'
p72
sS'source'
p73
V3.2.51-1
p74
ss(S'description'
g9
g25
S'amd64'
tp75
(dp76
S'parts'
p77
(lp78
S'xen'
p79
ass(S'description'
S'sparc64'
p80
NS'sparc64-smp'
tp81
(dp82
S'hardware'
p83
S'multiprocessor 64-bit UltraSPARC'
p84
ss(S'description'
g31
NS'parisc-smp'
tp85
(dp86
S'hardware'
p87
S'multiprocessor 32-bit PA-RISC'
p88
ss(S'build'
S's390'
p89
NS's390-tape'
tp90
(dp91
S'modules'
p92
I00
ss(S'image'
S'armhf'
p93
NS'omap'
tp94
(dp95
S'recommends'
p96
S'uboot-mkimage'
p97
ss(S'description'
S'ppc64'
p98
NS'powerpc64'
tp99
(dp100
S'hardware'
p101
S'64-bit PowerPC'
p102
ss(S'base'
p103
g93
S'none'
p104
tp105
(dp106
S'implicit-flavour'
p107
I01
sS'flavours'
p108
(lp109
S'mx5'
p110
aS'omap'
p111
aS'vexpress'
p112
ass(S'description'
g20
NS'iop32x'
tp113
(dp114
S'hardware'
p115
S'IOP32x'
p116
sS'hardware-long'
p117
S'IOP32x based systems (Thecus N2100, etc)'
p118
ss(S'base'
g60
S'rt'
tp119
(dp120
S'flavours'
p121
(lp122
S'686-pae'
p123
ass(S'description'
S'sh4'
p124
NS'sh7785lcr'
tp125
(dp126
S'hardware'
p127
S'sh7785lcr'
p128
sS'hardware-long'
p129
S'Renesas SH7785 reference board'
p130
ss(S'image'
g20
NS'ixp4xx'
tp131
(dp132
S'check-size'
p133
S'1441760'
p134
ss(g103
S'powerpc'
p135
g104
tp136
(dp137
g107
I01
sg108
(lp138
S'powerpc'
p139
aS'powerpc-smp'
p140
aS'powerpc64'
p141
ass(S'image'
g135
tp142
(dp143
S'suggests'
p144
S'mkvmlinuz'
p145
ss(S'description'
g135
NS'powerpc-smp'
tp146
(dp147
S'hardware'
p148
S'multiprocessor 32-bit PowerPC'
p149
ss(S'image'
g5
NS's390x-tape'
tp150
(dp151
S'configs'
p152
(lp153
S's390/config.s390x-tape'
p154
asS'override-localversion'
p155
S's390x'
p156
sS'type'
p157
S'plain-s390-tape'
p158
sS'initramfs'
p159
I00
ss(S'base'
g9
S'rt'
tp160
(dp161
S'flavours'
p162
(lp163
S'amd64'
p164
ass(S'description'
g60
g61
S'amd64'
tp165
(dp166
S'parts'
p167
(lp168
S'xen'
p169
ass(S'description'
g80
NS'sparc64'
tp170
(dp171
S'hardware'
p172
S'uniprocessor 64-bit UltraSPARC'
p173
ss(S'base'
g60
tp174
(dp175
S'kernel-arch'
p176
S'x86'
p177
sS'featuresets'
p178
(lp179
S'none'
p180
aS'rt'
p181
ass(S'description'
g31
NS'parisc64'
tp182
(dp183
S'hardware'
p184
S'64-bit PA-RISC'
p185
ss(S'base'
S'mipsel'
p186
tp187
(dp188
S'kernel-arch'
p189
S'mips'
p190
sS'featuresets'
p191
(lp192
g104
ass(S'description'
S'm68k'
p193
NS'mac'
tp194
(dp195
S'hardware'
p196
S'Macintosh'
p197
ss(S'image'
g20
NS'orion5x'
tp198
(dp199
S'check-size'
p200
S'1572792'
p201
sS'recommends'
p202
S'uboot-mkimage'
p203
ss(g103
g186
g104
tp204
(dp205
g107
I01
sg108
(lp206
S'r5k-cobalt'
p207
aS'sb1-bcm91250a'
p208
aS'sb1a-bcm91480b'
p209
aS'4kc-malta'
p210
aS'5kc-malta'
p211
aS'loongson-2f'
p212
ass(S'image'
g9
NS'amd64'
tp213
(dp214
S'configs'
p215
(lp216
S'kernelarch-x86/config-arch-64'
p217
ass(S'base'
g31
NS'parisc64'
tp218
(dp219
S'override-host-type'
p220
S'hppa64-linux-gnu'
p221
sS'cflags'
p222
S'-fno-cse-follow-jumps'
p223
ss(S'image'
g80
NS'sparc64'
tp224
(dp225
S'configs'
p226
(lp227
S'sparc/config.sparc64'
p228
ass(S'description'
g186
NS'sb1-bcm91250a'
tp229
(dp230
S'hardware'
p231
S'BCM91250A'
p232
sS'hardware-long'
p233
S'Broadcom BCM91250A systems (aka SWARM)'
p234
ss(S'build'
g20
NS'orion5x'
tp235
(dp236
S'image-file'
p237
S'arch/arm/boot/zImage'
p238
ss(S'description'
S'mips'
p239
NS'r5k-ip32'
tp240
(dp241
S'hardware'
p242
S'SGI IP32'
p243
sS'hardware-long'
p244
S'SGI IP32 systems (O2)'
p245
ss(S'description'
g47
NS'mckinley'
tp246
(dp247
S'hardware'
p248
S'Itanium II'
p249
ss(S'description'
S'alpha'
p250
NS'alpha-smp'
tp251
(dp252
S'hardware'
p253
S'Alpha SMP'
p254
sS'hardware-long'
p255
S'DEC Alpha SMP systems with extended kernel start address (Wildfire, Titan, Marvel)'
p256
ss(g103
g124
g104
tp257
(dp258
g107
I01
sg108
(lp259
S'sh7751r'
p260
aS'sh7785lcr'
p261
ass(S'build'
g124
NS'sh7751r'
tp262
(dp263
S'image-file'
p264
S'arch/sh/boot/zImage'
p265
ss(S'description'
g20
NS'mv78xx0'
tp266
(dp267
S'hardware'
p268
S'Marvell 78xx0'
p269
sS'hardware-long'
p270
S'Marvell DB-78xx0-BP Development Board'
p271
ss(S'description'
g5
NS's390x-tape'
tp272
(dp273
S'hardware'
p274
S'IBM zSeries'
p275
sS'parts'
p276
(lp277
S'tape'
p278
ass(S'image'
g60
NS'amd64'
tp279
(dp280
S'configs'
p281
(lp282
S'kernelarch-x86/config-arch-64'
p283
asS'recommends'
p284
S'libc6-i686'
p285
ss(S'base'
g20
tp286
(dp287
S'kernel-arch'
p288
S'arm'
p289
sg191
(lp290
g104
ass(S'image'
g80
NS'sparc64-smp'
tp291
(dp292
S'configs'
p293
(lp294
S'sparc/config.sparc64-smp'
p295
ass(S'base'
g42
tp296
(dp297
S'kernel-arch'
p298
S'sparc'
p299
sg191
(lp300
g104
ass(S'image'
g89
NS's390-tape'
tp301
(dp302
S'override-localversion'
p303
S's390'
p304
sS'type'
p305
S'plain-s390-tape'
p306
sS'initramfs'
p307
I00
ss(S'description'
g9
NS'amd64'
tp308
(dp309
S'hardware'
p310
S'64-bit PCs'
p311
sS'hardware-long'
p312
S'PCs with AMD64, Intel 64 or VIA Nano processors'
p313
ss(S'base'
g250
tp314
(dp315
S'kernel-arch'
p316
S'alpha'
p317
sg191
(lp318
g104
ass(S'base'
g93
tp319
(dp320
S'kernel-arch'
p321
S'arm'
p322
sg191
(lp323
g104
ass(S'description'
g239
NS'4kc-malta'
tp324
(dp325
S'hardware'
p326
S'MIPS Malta'
p327
sS'hardware-long'
p328
S'MIPS Malta boards'
p329
ss(S'description'
NS'rt'
p330
tp331
(dp332
S'part-long-rt'
p333
S'This kernel includes the PREEMPT_RT realtime patch set.'
p334
sS'parts'
p335
(lp336
S'rt'
p337
asS'part-short-rt'
p338
S'PREEMPT_RT'
p339
ss(g103
g89
g104
tp340
(dp341
g107
I01
sg108
(lp342
S's390x'
p343
aS's390x-tape'
p344
ass(g103
g5
g104
tp345
(dp346
g107
I01
sg108
(lp347
S's390x'
p348
aS's390x-tape'
p349
ass(S'base'
g239
tp350
(dp351
S'kernel-arch'
p352
S'mips'
p353
sg191
(lp354
g104
ass(S'description'
g89
NS's390'
tp355
(dp356
S'hardware'
p357
S'IBM S/390'
p358
sS'parts'
p359
(lp360
S'reader'
p361
ass(S'build'
g9
tp362
(dp363
S'debug-info'
p364
I01
ss(S'image'
g60
NS'486'
tp365
(dp366
S'configs'
p367
(lp368
S'kernelarch-x86/config-arch-32'
p369
ass(S'build'
g124
NS'sh7785lcr'
tp370
(dp371
S'image-file'
p372
S'arch/sh/boot/zImage'
p373
ss(S'description'
g47
NS'itanium'
tp374
(dp375
S'hardware'
p376
S'Itanium'
p377
ss(S'image'
g186
tp378
(dp379
S'configs'
p380
(lp381
S'kernelarch-mips/config'
p382
aS'mipsel/config'
p383
asS'initramfs'
p384
I00
ss(S'xen'
g60
g61
S'686-pae'
tp385
(dp386
S'flavours'
p387
(lp388
S'i386'
p389
aS'amd64'
p390
asS'dom0-support'
p391
I01
ss(S'description'
g135
NS'powerpc64'
tp392
(dp393
S'hardware'
p394
S'64-bit PowerPC'
p395
ss(S'build'
g93
NS'omap'
tp396
(dp397
S'image-file'
p398
S'arch/arm/boot/zImage'
p399
ss(S'description'
g239
NS'5kc-malta'
tp400
(dp401
S'hardware'
p402
S'MIPS Malta (64-bit)'
p403
sS'hardware-long'
p404
S'MIPS Malta boards (64-bit)'
p405
ss(S'base'
g9
tp406
(dp407
S'kernel-arch'
p408
S'x86'
p409
sS'featuresets'
p410
(lp411
S'none'
p412
aS'rt'
p413
ass(S'base'
g47
tp414
(dp415
S'kernel-arch'
p416
S'ia64'
p417
sg191
(lp418
g104
ass(S'description'
g42
NS'sparc32'
tp419
(dp420
S'hardware'
p421
S'uniprocessor sparc32 (sun4m)'
p422
ss(S'description'
g93
NS'omap'
tp423
(dp424
S'hardware'
p425
S'TI OMAP3+'
p426
sS'hardware-long'
p427
S'Texas Instruments OMAP3 or OMAP4 based systems'
p428
ss(S'description'
g60
NS'amd64'
tp429
(dp430
S'hardware'
p431
S'64-bit PCs'
p432
sS'hardware-long'
p433
S'PCs with AMD64, Intel 64 or VIA Nano processors'
p434
ss(g103
g98
g104
tp435
(dp436
g107
I01
sg108
(lp437
S'powerpc64'
p438
ass(S'description'
g193
NS'mvme16x'
tp439
(dp440
S'hardware'
p441
S'Motorola MVME162/6/7, MVME172/7'
p442
ss(g103
g20
g104
tp443
(dp444
g107
I01
sg108
(lp445
S'iop32x'
p446
aS'ixp4xx'
p447
aS'kirkwood'
p448
aS'mv78xx0'
p449
aS'orion5x'
p450
aS'versatile'
p451
ass(S'description'
g5
NS's390x'
tp452
(dp453
S'hardware'
p454
S'IBM zSeries'
p455
sS'parts'
p456
(lp457
S'reader'
p458
ass(S'image'
g20
NS'iop32x'
tp459
(dp460
S'check-size'
p461
S'1441784'
p462
ss(S'description'
g239
NS'sb1a-bcm91480b'
tp463
(dp464
S'hardware'
p465
S'BCM91480B'
p466
sS'hardware-long'
p467
S'Broadcom BCM91480B systems (aka BigSur)'
p468
ss(S'description'
g60
tp469
(dp470
S'part-long-pae'
p471
S'This kernel requires PAE (Physical Address Extension).\nThis feature is supported by the Intel Pentium Pro/II/III/4/4M/D, Xeon,\nCore and Atom; AMD Geode NX, Athlon (K7), Duron, Opteron, Sempron,\nTurion or Phenom; Transmeta Efficeon; VIA C7; and some other processors.'
p472
ss(S'relations'
tp473
(dp474
S'initramfs-fallback'
p475
S'linux-initramfs-tool'
p476
sS'gcc-4.5'
p477
S'gcc-4.5'
p478
sS'gcc-4.6'
p479
S'gcc-4.6'
p480
sS'initramfs-tools'
p481
S'initramfs-tools (>= 0.99~)'
p482
sS'gcc-4.4'
p483
S'gcc-4.4'
p484
ss(S'image'
g93
tp485
(dp486
S'suggests'
p487
S'fdutils'
p488
sS'configs'
p489
(lp490
S'armel/config'
p491
aS'armhf/config'
p492
ass(S'xen'
g9
g25
S'amd64'
tp493
(dp494
S'flavours'
p495
(lp496
S'amd64'
p497
asS'dom0-support'
p498
I01
ss(S'image'
g20
tp499
(dp500
S'suggests'
p501
S'fdutils'
p502
ss(S'image'
g89
tp503
(dp504
S'bootloaders'
p505
(lp506
S's390-tools'
p507
ass(S'abi'
g5
tp508
(dp509
S'ignore-changes'
p510
(lp511
S'arch_pick_mmap_layout'
p512
ass(S'abi'
g9
tp513
(dp514
S'ignore-changes'
p515
(lp516
S'module:arch/x86/kvm/kvm'
p517
ass(S'image'
g31
tp518
(dp519
S'suggests'
p520
S'palo'
p521
ss(S'abi'
g239
tp522
(dp523
S'ignore-changes'
p524
(lp525
S'vgacon_*'
p526
ass(S'relations'
g31
tp527
(dp528
S'gcc-4.4'
p529
S'gcc-4.4, binutils-hppa64, gcc-4.4-hppa64'
p530
ss(S'image'
g186
NS'loongson-2f'
tp531
(dp532
S'recommends'
p533
S'libc6-loongson2f'
p534
ss(S'abi'
g89
tp535
(dp536
S'ignore-changes'
p537
(lp538
S'arch_pick_mmap_layout'
p539
ass(S'image'
g186
NS'sb1a-bcm91480b'
tp540
(dp541
S'configs'
p542
(lp543
S'mips/config.sb1a-bcm91480b'
p544
ass(S'build'
g89
NS's390x'
tp545
(dp546
S'debug-info'
p547
I01
ss(S'description'
g186
NS'5kc-malta'
tp548
(dp549
S'hardware'
p550
S'MIPS Malta (64-bit)'
p551
sS'hardware-long'
p552
S'MIPS Malta boards (64-bit)'
p553
ss(g103
g31
g104
tp554
(dp555
g107
I01
sg108
(lp556
S'parisc'
p557
aS'parisc-smp'
p558
aS'parisc64'
p559
aS'parisc64-smp'
p560
ass(S'description'
g93
NS'vexpress'
tp561
(dp562
S'hardware'
p563
S'ARM Ltd. Versatile Express'
p564
sS'hardware-long'
p565
S'ARM Ltd. Versatile Express family of processors'
p566
ss(S'image'
g250
tp567
(dp568
S'suggests'
p569
S'aboot, fdutils'
p570
ss(S'description'
g89
NS's390-tape'
tp571
(dp572
S'hardware'
p573
S'IBM S/390'
p574
sS'parts'
p575
(lp576
S'tape'
p577
ass(S'description'
g42
NS'sparc64-smp'
tp578
(dp579
S'hardware'
p580
S'multiprocessor 64-bit UltraSPARC'
p581
ss(S'image'
g60
NS'686-pae'
tp582
(dp583
S'configs'
p584
(lp585
S'kernelarch-x86/config-arch-32'
p586
asS'recommends'
p587
S'libc6-i686'
p588
ss(S'base'
g80
tp589
(dp590
S'kernel-arch'
p591
S'sparc'
p592
sg191
(lp593
g104
ass(S'description'
g20
NS'versatile'
tp594
(dp595
S'hardware'
p596
S'Versatile'
p597
sS'hardware-long'
p598
S'Versatile systems (PB, AB, Qemu)'
p599
ss(S'base'
g5
tp600
(dp601
S'kernel-arch'
p602
S's390'
p603
sg191
(lp604
g104
ass(S'build'
g93
NS'vexpress'
tp605
(dp606
S'image-file'
p607
S'arch/arm/boot/zImage'
p608
ss(S'description'
g186
NS'r5k-cobalt'
tp609
(dp610
S'hardware'
p611
S'Cobalt'
p612
sS'hardware-long'
p613
S'Cobalt systems (Qube, RaQ, Qube2, RaQ2)'
p614
ss(S'description'
g250
NS'alpha-generic'
tp615
(dp616
S'hardware'
p617
S'Alpha'
p618
sS'hardware-long'
p619
S'DEC Alpha systems with extended kernel start address (Wildfire, Titan, Marvel)'
p620
ss(S'image'
g98
tp621
(dp622
S'suggests'
p623
S'mkvmlinuz'
p624
sS'configs'
p625
(lp626
S'powerpc/config'
p627
ass(S'description'
g193
NS'mvme147'
tp628
(dp629
S'hardware'
p630
S'Motorola MVME147'
p631
ss(S'image'
g60
tp632
(dp633
S'configs'
p634
(lp635
S'kernelarch-x86/config'
p636
asS'bootloaders'
p637
(lp638
S'grub-pc'
p639
aS'extlinux'
p640
aS'lilo'
p641
ass(g103
g42
g104
tp642
(dp643
g107
I01
sg108
(lp644
S'sparc64'
p645
aS'sparc64-smp'
p646
ass(S'description'
g20
NS'orion5x'
tp647
(dp648
S'hardware'
p649
S'Marvell Orion'
p650
sS'hardware-long'
p651
S'Marvell Orion 5181, 5182 and 5281 based systems (QNAP TS-109/TS-209, etc)'
p652
ss(S'base'
g98
tp653
(dp654
S'kernel-arch'
p655
S'powerpc'
p656
sg191
(lp657
g104
ass(g103
g250
g104
tp658
(dp659
g107
I01
sg108
(lp660
S'alpha-generic'
p661
aS'alpha-smp'
p662
aS'alpha-legacy'
p663
ass(S'description'
g60
g61
S'686-pae'
tp664
(dp665
S'parts'
p666
(lp667
S'xen'
p668
ass(g103
g47
g104
tp669
(dp670
g107
I01
sg108
(lp671
S'itanium'
p672
aS'mckinley'
p673
ass(S'description'
g89
tp674
(dp675
S'part-short-tape'
p676
S'IPL from tape'
p677
sS'part-long-tape'
p678
S'This kernel has support to IPL (boot) from a tape.'
p679
sS'part-long-reader'
p680
S'This kernel has support to IPL (boot) from a VM reader or DASD device.'
p681
ss(S'build'
g89
NS's390x-tape'
tp682
(dp683
S'modules'
p684
I00
ss(g103
g239
g104
tp685
(dp686
g107
I01
sg108
(lp687
S'r4k-ip22'
p688
aS'r5k-ip32'
p689
aS'sb1-bcm91250a'
p690
aS'sb1a-bcm91480b'
p691
aS'4kc-malta'
p692
aS'5kc-malta'
p693
aS'octeon'
p694
ass(S'image'
g20
NS'kirkwood'
tp695
(dp696
S'check-size'
p697
S'2097080'
p698
sS'recommends'
p699
S'uboot-mkimage'
p700
ss(S'description'
g239
NS'sb1-bcm91250a'
tp701
(dp702
S'hardware'
p703
S'BCM91250A'
p704
sS'hardware-long'
p705
S'Broadcom BCM91250A systems (aka SWARM)'
p706
ss(S'image'
g135
NS'powerpc-smp'
tp707
(dp708
S'configs'
p709
(lp710
S'powerpc/config.powerpc'
p711
aS'powerpc/config.powerpc-smp'
p712
ass(S'description'
g193
NS'amiga'
tp713
(dp714
S'hardware'
p715
S'Amiga'
p716
ss(S'base'
NS'rt'
tp717
(dp718
S'enabled'
p719
I01
ss(S'image'
g193
tp720
(dp721
S'suggests'
p722
S'vmelilo, fdutils'
p723
sS'initramfs'
p724
I00
ss(S'description'
g20
NS'ixp4xx'
tp725
(dp726
S'hardware'
p727
S'IXP4xx'
p728
sS'hardware-long'
p729
S'IXP4xx based systems (Linksys NSLU2, etc)'
p730
ss(S'description'
g193
NS'bvme6000'
tp731
(dp732
S'hardware'
p733
S'BVM BVME4000 and BVME6000'
p734
ss(S'description'
g31
NS'parisc64-smp'
tp735
(dp736
S'hardware'
p737
S'multiprocessor 64-bit PA-RISC'
p738
ss(S'image'
g239
tp739
(dp740
S'configs'
p741
(lp742
S'kernelarch-mips/config'
p743
aS'mips/config'
p744
asS'initramfs'
p745
I00
ss(S'description'
g124
NS'sh7751r'
tp746
(dp747
S'hardware'
p748
S'sh7751r'
p749
sS'hardware-long'
p750
S'Renesas SH7751R R2D plus board'
p751
ss(S'description'
g186
NS'4kc-malta'
tp752
(dp753
S'hardware'
p754
S'MIPS Malta'
p755
sS'hardware-long'
p756
S'MIPS Malta boards'
p757
ss(S'image'
g186
NS'sb1-bcm91250a'
tp758
(dp759
S'configs'
p760
(lp761
S'mips/config.sb1-bcm91250a'
p762
ass(S'description'
g239
NS'octeon'
tp763
(dp764
S'hardware'
p765
S'Octeon'
p766
sS'hardware-long'
p767
S'Cavium Networks Octeon'
p768
ss(S'image'
g124
tp769
(dp770
S'suggests'
p771
S'fdutils'
p772
ss(S'base'
g31
tp773
(dp774
S'kernel-arch'
p775
S'parisc'
p776
sg191
(lp777
g104
asS'compiler'
p778
S'gcc-4.4'
p779
ss(S'base'
g124
tp780
(dp781
S'kernel-arch'
p782
S'sh'
p783
sg191
(lp784
g104
ass(S'abi'
g186
tp785
(dp786
S'ignore-changes'
p787
(lp788
S'vgacon_*'
p789
ass(S'image'
g42
tp790
(dp791
S'suggests'
p792
S'silo, fdutils'
p793
ss(S'description'
tp794
(dp795
S'part-long-up'
p796
S'This kernel is not suitable for SMP (multi-processor,\nmulti-core or hyper-threaded) systems.'
p797
sS'part-long-xen'
p798
S'This kernel also runs on a Xen hypervisor.\nIt supports both privileged (dom0) and unprivileged (domU) operation.'
p799
ss(S'description'
g186
NS'loongson-2f'
tp800
(dp801
S'hardware'
p802
S'Loongson 2F'
p803
sS'hardware-long'
p804
S'Lemote Loongson 2F systems'
p805
ss(S'description'
g42
NS'sparc64'
tp806
(dp807
S'hardware'
p808
S'uniprocessor 64-bit UltraSPARC'
p809
ss(S'description'
g135
NS'powerpc'
tp810
(dp811
S'hardware'
p812
S'uniprocessor 32-bit PowerPC'
p813
ss(S'build'
g93
NS'mx5'
tp814
(dp815
S'image-file'
p816
S'arch/arm/boot/zImage'
p817
ss(S'base'
g89
tp818
(dp819
S'kernel-arch'
p820
S's390'
p821
sg191
(lp822
g104
ass(S'image'
g80
tp823
(dp824
S'suggests'
p825
S'silo, fdutils'
p826
sS'configs'
p827
(lp828
S'sparc/config'
p829
ass(S'description'
g60
NS'686-pae'
tp830
(dp831
S'hardware'
p832
S'modern PCs'
p833
sS'parts'
p834
(lp835
S'pae'
p836
asS'hardware-long'
p837
S'PCs with one or more processors supporting PAE'
p838
ss(S'base'
g135
tp839
(dp840
S'kernel-arch'
p841
S'powerpc'
p842
sg191
(lp843
g104
ass(S'abi'
tp844
(dp845
S'abiname'
p846
S'4'
sS'ignore-changes'
p847
(lp848
S'module:net/l2tp/*'
p849
aS'__rpc_wait_for_completion_task'
p850
aS'bc_svc_process'
p851
aS'nfs4*'
p852
aS'nfs_*'
p853
aS'nlmclnt_*'
p854
aS'nlmsvc_*'
p855
aS'pnfs_*'
p856
aS'put_lseg'
p857
aS'put_rpccred'
p858
aS'rpc_*'
p859
aS'rpcauth_*'
p860
aS'rpcb_getport_async'
p861
aS'svc_*'
p862
aS'svcauth_unix_set_client'
p863
aS'unix_domain_find'
p864
aS'xprt_*'
p865
aS'get_write_access'
p866
aS'module:drivers/gpu/drm/*'
p867
aS'drm_sman_*'
p868
aS'intel_agp_enabled'
p869
aS'intel_gmch_*'
p870
aS'intel_gtt_*'
p871
aS'module:drivers/net/wan/cycx_drv'
p872
aS'module:net/wanrouter/wanrouter'
p873
aS'register_virtio_*'
p874
aS'unregister_virtio_*'
p875
aS'virtio_*'
p876
aS'virtqueue_*'
p877
aS'vring_*'
p878
aS'module:drivers/staging/*'
p879
aS'module:drivers/net/wireless/ath/*'
p880
aS'module:drivers/net/wireless/rtlwifi/*'
p881
aS'kmsg_dump_register'
p882
aS'kmsg_dump_unregister'
p883
aS'register_efivars'
p884
aS'unregister_efivars'
p885
aS'module:drivers/usb/serial/*'
p886
aS'module:arch/s390/kvm/kvm'
p887
ass(S'description'
g31
NS'parisc'
tp888
(dp889
S'hardware'
p890
S'32-bit PA-RISC'
p891
ss(S'description'
g5
tp892
(dp893
S'part-short-tape'
p894
S'IPL from tape'
p895
sS'part-long-tape'
p896
S'This kernel has support to IPL (boot) from a tape.'
p897
sS'part-long-reader'
p898
S'This kernel has support to IPL (boot) from a VM reader or DASD device.'
p899
ss(S'description'
g250
NS'alpha-legacy'
tp900
(dp901
S'hardware'
p902
S'Alpha Legacy'
p903
sS'hardware-long'
p904
S'DEC Alpha systems with legacy kernel start address'
p905
ss(S'build'
g20
NS'kirkwood'
tp906
(dp907
S'image-file'
p908
S'arch/arm/boot/zImage'
p909
ss(S'description'
g193
NS'atari'
tp910
(dp911
S'hardware'
p912
S'Atari'
p913
ss(S'description'
g239
NS'r4k-ip22'
tp914
(dp915
S'hardware'
p916
S'SGI IP22'
p917
sS'hardware-long'
p918
S'SGI IP22 systems (Indy, Indigo2)'
p919
ss(g103
g193
g104
tp920
(dp921
g107
I01
sg108
(lp922
S'amiga'
p923
aS'atari'
p924
aS'bvme6000'
p925
aS'mac'
p926
aS'mvme147'
p927
aS'mvme16x'
p928
ass(S'abi'
g60
tp929
(dp930
S'ignore-changes'
p931
(lp932
S'disable_hlt'
p933
aS'enable_hlt'
p934
aS'module:arch/x86/kvm/kvm'
p935
ass(S'base'
g60
g61
tp936
(dp937
S'flavours'
p938
(lp939
S'486'
p940
aS'686-pae'
p941
aS'amd64'
p942
ass(S'base'
tp943
(dp944
S'arches'
p945
(lp946
S'alpha'
p947
aS'amd64'
p948
aS'armel'
p949
aS'armhf'
p950
aS'hppa'
p951
aS'i386'
p952
aS'ia64'
p953
aS'm68k'
p954
aS'mips'
p955
aS'mipsel'
p956
aS'powerpc'
p957
aS'ppc64'
p958
aS's390'
p959
aS's390x'
p960
aS'sh4'
p961
aS'sparc'
p962
aS'sparc64'
p963
asS'featuresets'
p964
(lp965
S'none'
p966
aS'rt'
p967
asS'compiler'
p968
S'gcc-4.6'
p969
ss(S'description'
g89
NS's390x-tape'
tp970
(dp971
S'hardware'
p972
S'IBM zSeries'
p973
sS'parts'
p974
(lp975
S'tape'
p976
ass(S'build'
g5
NS's390x-tape'
tp977
(dp978
S'modules'
p979
I00
ss(S'description'
g60
NS'486'
tp980
(dp981
S'hardware'
p982
S'older PCs'
p983
sS'parts'
p984
(lp985
S'up'
p986
asS'hardware-long'
p987
S'PCs with a single processor not supporting PAE'
p988
ss(S'description'
g93
NS'mx5'
tp989
(dp990
S'hardware'
p991
S'Freescale i.MX51/53'
p992
sS'hardware-long'
p993
S'Freescale i.MX51 or i.MX53 based systems'
p994
ss(S'base'
g193
tp995
(dp996
S'kernel-arch'
p997
S'm68k'
p998
sg191
(lp999
g104
asS'cflags'
p1000
S'-ffreestanding'
p1001
sS'compiler'
p1002
S'gcc-4.6'
p1003
ss(S'image'
tp1004
(dp1005
S'initramfs-generators'
p1006
(lp1007
S'initramfs-tools'
p1008
aS'initramfs-fallback'
p1009
asS'type'
p1010
S'plain'
p1011
ss(S'image'
g124
NS'sh7785lcr'
tp1012
(dp1013
S'check-size'
p1014
S'4194304'
p1015
sS'recommends'
p1016
S'uboot-mkimage'
p1017
ss(g103
g80
g104
tp1018
(dp1019
g107
I01
sg108
(lp1020
S'sparc64'
p1021
aS'sparc64-smp'
p1022
ass(S'description'
g186
NS'sb1a-bcm91480b'
tp1023
(dp1024
S'hardware'
p1025
S'BCM91480B'
p1026
sS'hardware-long'
p1027
S'Broadcom BCM91480B systems (aka BigSur)'
p1028
ss(S'build'
g20
NS'mv78xx0'
tp1029
(dp1030
S'image-file'
p1031
S'arch/arm/boot/zImage'
p1032
ss(S'abi'
Ng330
tp1033
(dp1034
S'ignore-changes'
p1035
(lp1036
S'*'
ass(S'image'
g186
NS'4kc-malta'
tp1037
(dp1038
S'configs'
p1039
(lp1040
S'mips/config.4kc-malta'
p1041
ass(S'image'
g5
tp1042
(dp1043
S'configs'
p1044
(lp1045
S's390/config'
p1046
asS'bootloaders'
p1047
(lp1048
S's390-tools'
p1049
ass(S'description'
g20
NS'kirkwood'
tp1050
(dp1051
S'hardware'
p1052
S'Marvell Kirkwood'
p1053
sS'hardware-long'
p1054
S'Marvell Kirkwood based systems (SheevaPlug, QNAP TS-119/TS-219, etc)'
p1055
ss(S'image'
g89
NS's390x-tape'
tp1056
(dp1057
S'override-localversion'
p1058
S's390x'
p1059
sS'type'
p1060
S'plain-s390-tape'
p1061
sS'initramfs'
p1062
I00
ss(S'image'
g186
NS'5kc-malta'
tp1063
(dp1064
S'configs'
p1065
(lp1066
S'mips/config.5kc-malta'
p1067
ass(S'build'
g60
NS'686-pae'
tp1068
(dp1069
S'debug-info'
p1070
I01
ss(S'image'
g98
NS'powerpc64'
tp1071
(dp1072
S'configs'
p1073
(lp1074
S'powerpc/config.powerpc64'
p1075
ass(S'description'
g89
NS's390x'
tp1076
(dp1077
S'hardware'
p1078
S'IBM zSeries'
p1079
sS'parts'
p1080
(lp1081
S'reader'
p1082
asstRp1083
.