cdebian_linux.config
ConfigCore
p0
(tRp1
(Vbase
p2
tp3
(dp4
Varches
p5
(lp6
Valpha
p7
aVamd64
p8
aVarm64
p9
aVarm64ilp32
p10
aVarmel
p11
aVarmhf
p12
aVhppa
p13
aVi386
p14
aVm68k
p15
aVmips
p16
aVmips64
p17
aVmips64el
p18
aVmips64r6
p19
aVmips64r6el
p20
aVmipsel
p21
aVmipsn32
p22
aVmipsn32el
p23
aVmipsn32r6
p24
aVmipsn32r6el
p25
aVmipsr6
p26
aVmipsr6el
p27
aVpowerpc
p28
aVpowerpcspe
p29
aVppc64
p30
aVppc64el
p31
aVs390
p32
aVs390x
p33
aVsh3
p34
aVsh4
p35
aVsparc
p36
aVsparc64
p37
aVtilegx
p38
aVx32
p39
asVfeaturesets
p40
(lp41
Vnone
p42
aVrt
p43
asVcompiler
p44
Vgcc-7
p45
ss(Vbuild
p46
tp47
(dp48
Vsigned-modules
p49
I00
sVdebug-info
p50
I01
ss(Vbase
p51
NVrt
p52
tp53
(dp54
Venabled
p55
I00
ss(Vdescription
p56
tp57
(dp58
Vpart-long-up
p59
VThis kernel is not suitable for SMP (multi-processor,\u000amulti-core or hyper-threaded) systems.
p60
sVpart-long-xen
p61
VThis kernel also runs on a Xen hypervisor.\u000aIt supports both privileged (dom0) and unprivileged (domU) operation.
p62
ss(Vrelations
p63
tp64
(dp65
Vinitramfs-tools
p66
Vinitramfs-tools (>= 0.120+deb8u2)
p67
sVgcc-7
p68
Vgcc-7 <!stage1 !cross>, gcc-7-@gnu-type-package@ <!stage1 cross>
p69
sVinitramfs-fallback
p70
Vlinux-initramfs-tool
p71
ss(Vimage
p72
tp73
(dp74
Vinitramfs-generators
p75
(lp76
Vinitramfs-tools
p77
aVinitramfs-fallback
p78
asVrecommends
p79
Vapparmor
p80
ss(Vabi
p81
tp82
(dp83
Vabiname
p84
V1
p85
sVignore-changes
p86
(lp87
V__cpuhp_*
p88
aV__xive_vm_h_*
p89
aVbpf_analyzer
p90
aVcxl_*
p91
aVdax_flush
p92
aVieee80211_nullfunc_get
p93
aVinet_add_protocol
p94
aVinet_del_protocol
p95
aViommu_device_*
p96
aVkvm_async_pf_task_wait
p97
aVkvmppc_*
p98
aVmm_iommu_*
p99
aVmv_mbus_*
p100
aVperf_*
p101
aVregister_cxl_calls
p102
aVregister_key_type
p103
aVunregister_cxl_calls
p104
aV*_hw_breakpoint
p105
aVmodule:arch/x86/kvm/*
p106
aVmodule:drivers/crypto/ccp/*
p107
aVmodule:drivers/hv/*
p108
aVmodule:drivers/iio/common/hid-sensors/*
p109
aVmodule:drivers/iio/common/st_sensors/**
p110
aVmodule:drivers/mtd/nand/*
p111
aVmodule:drivers/net/wireless/**
p112
aVmodule:drivers/nvdimm/*
p113
aVmodule:drivers/power/supply/bq27xxx_battery
p114
aVmodule:drivers/scsi/cxgbi/*
p115
aVmodule:drivers/scsi/libiscs*
p116
aVmodule:drivers/scsi/qla2xxx/qla2xxx
p117
aVmodule:drivers/scsi/ufs/*
p118
aVmodule:drivers/target/**
p119
aVmodule:drivers/usb/chipidea/**
p120
aVmodule:drivers/usb/gadget/**
p121
aVmodule:drivers/usb/host/**
p122
aVmodule:drivers/usb/musb/**
p123
aVmodule:fs/nfs/**
p124
aVmodule:net/ceph/libceph
p125
aVmodule:net/l2tp/**
p126
aVmodule:net/rxrpc/rxrpc
p127
aVmodule:sound/core/seq/**
p128
aVmodule:sound/firewire/snd-firewire-lib
p129
aVbtree_*
p130
aVvisitor*
p131
aVcan_rx_register
p132
aVip6_xmit
p133
aVmodule:net/dccp/dccp
p134
aVmodule:net/rds/rds
p135
aVdevfreq_*
p136
aVdevm_devfreq_*
p137
aVupdate_devfreq
p138
aVmodule:drivers/infiniband/**
p139
aVacpi_ec_add_query_handler
p140
aVacpi_ec_remove_query_handler
p141
aVfirst_ec
p142
aVdebugfs_create_automount
p143
aVmodule:drivers/iio/imu/inv_mpu6050/*
p144
ass(Vbase
p145
Valpha
p146
tp147
(dp148
Vfeaturesets
p149
(lp150
Vnone
p151
asVkernel-arch
p152
Valpha
p153
ss(Vdescription
p154
g146
NValpha-smp
p155
tp156
(dp157
Vhardware
p158
VAlpha SMP
p159
sVhardware-long
p160
VDEC Alpha SMP systems with extended kernel start address (Wildfire, Titan, Marvel)
p161
ss(Vbuild
p162
g146
tp163
(dp164
Vsigned-modules
p165
I00
sVimage-file
p166
Varch/alpha/boot/vmlinux.gz
p167
ss(Vdescription
p168
g146
NValpha-generic
p169
tp170
(dp171
Vhardware
p172
VAlpha
p173
sVhardware-long
p174
VDEC Alpha systems with extended kernel start address (Wildfire, Titan, Marvel)
p175
ss(Vimage
p176
g146
tp177
(dp178
Vsuggests
p179
Vaboot, fdutils
p180
sVinstall-stem
p181
Vvmlinuz
p182
ss(Vbase
p183
g146
g151
tp184
(dp185
Vflavours
p186
(lp187
Valpha-generic
p188
aValpha-smp
p189
asVimplicit-flavour
p190
I01
ss(Vbase
p191
Vamd64
p192
tp193
(dp194
Vfeaturesets
p195
(lp196
Vnone
p197
aVrt
p198
asVkernel-arch
p199
Vx86
p200
ss(Vbuild
p201
g192
tp202
(dp203
Vvdso
p204
I01
sVimage-file
p205
Varch/x86/boot/bzImage
p206
sVdebug-info
p207
I01
ss(Vdescription
p208
g192
NVamd64
p209
tp210
(dp211
Vhardware
p212
V64-bit PCs
p213
sVhardware-long
p214
VPCs with AMD64, Intel 64 or VIA Nano processors
p215
ss(Vrelations
p216
g192
tp217
(dp218
Vgcc-7
p219
Vgcc-7 (>= 7.2.0-20~) <!stage1 !cross>, gcc-7-x86-64-linux-gnu (>= 7.2.0-20~) <!stage1 cross>
p220
sVheaders%gcc-7
p221
Vlinux-compiler-gcc-7-x86 (>= 4.14.17-1~)
p222
ss(Vdescription
p223
g192
NVcloud-amd64
p224
tp225
(dp226
Vhardware
p227
Vx86-64 cloud
p228
sVhardware-long
p229
VAmazon EC2, Google Compute Engine and Microsoft Azure cloud platforms
p230
ss(Vimage
p231
g192
tp232
(dp233
Vbreaks
p234
Vxserver-xorg-input-vmmouse (<< 1:13.0.99)
p235
sVinstall-stem
p236
Vvmlinuz
p237
sVbootloaders
p238
(lp239
Vgrub-pc
p240
aVgrub-efi-amd64
p241
aVextlinux
p242
ass(Vbase
p243
g192
Vnone
p244
tp245
(dp246
Vflavours
p247
(lp248
Vamd64
p249
aVcloud-amd64
p250
ass(Vdescription
p251
g192
g244
Vamd64
p252
tp253
(dp254
Vparts
p255
(lp256
Vxen
p257
ass(Vbase
p258
g192
Vrt
p259
tp260
(dp261
Vflavours
p262
(lp263
Vamd64
p264
ass(Vbase
p265
Varm64
p266
tp267
(dp268
Vfeaturesets
p269
(lp270
Vnone
p271
asVkernel-arch
p272
Varm64
p273
ss(Vdescription
p274
g266
NVarm64
p275
tp276
(dp277
Vhardware
p278
V64-bit ARMv8 machines
p279
ss(Vbuild
p280
g266
tp281
(dp282
Vvdso
p283
I01
sVimage-file
p284
Varch/arm64/boot/Image
p285
sVdebug-info
p286
I01
ss(Vimage
p287
g266
NVarm64
p288
tp289
(dp290
s(Vimage
p291
g266
tp292
(dp293
Vbreaks
p294
Vlibmozjs185-1.0, libmozjs-24-0 (<< 24.2.0-5.1~)
p295
sVinstall-stem
p296
Vvmlinuz
p297
ss(Vbase
p298
g266
Vnone
p299
tp300
(dp301
Vflavours
p302
(lp303
Varm64
p304
ass(Vbase
p305
Varm64ilp32
p306
tp307
(dp308
Vfeaturesets
p309
(lp310
sVkernel-arch
p311
Varm64
p312
ss(Vbase
p313
Varmel
p314
tp315
(dp316
Vflavours
p317
(lp318
sVkernel-arch
p319
Varm
p320
ss(Vbuild
p321
g314
tp322
(dp323
Vsigned-modules
p324
I00
sVimage-file
p325
Varch/arm/boot/zImage
p326
sVuncompressed-image-file
p327
Varch/arm/boot/Image
p328
ss(Vimage
p329
g314
NVmarvell
p330
tp331
(dp332
Vrecommends
p333
Vu-boot-tools
p334
sVbreaks
p335
Vflash-kernel (<< 3.57~)
p336
sVcheck-size-with-dtb
p337
I01
sVcheck-size
p338
L2097080L
sVcheck-uncompressed-size
p339
L7340032L
ss(Vdescription
p340
g314
NVmarvell
p341
tp342
(dp343
Vhardware
p344
VMarvell Kirkwood/Orion
p345
sVhardware-long
p346
VMarvell Kirkwood based systems (SheevaPlug, QNAP TS-119/TS-219, etc)\u000aand Orion 5181, 5182 and 5281 based systems (QNAP TS-109/TS-209, etc)
p347
ss(Vrelations
p348
g314
tp349
(dp350
Vheaders%gcc-7
p351
Vlinux-compiler-gcc-7-arm
p352
ss(Vimage
p353
g314
tp354
(dp355
Vinstall-stem
p356
Vvmlinuz
p357
ss(Vbase
p358
Varmhf
p359
tp360
(dp361
Vfeaturesets
p362
(lp363
sVkernel-arch
p364
Varm
p365
ss(Vbase
p366
Vhppa
p367
tp368
(dp369
g149
(lp370
g151
asVkernel-arch
p371
Vparisc
p372
ss(Vbuild
p373
g367
tp374
(dp375
Vsigned-modules
p376
I00
sVimage-file
p377
Vvmlinux
p378
ss(Vdescription
p379
g367
NVparisc64-smp
p380
tp381
(dp382
Vhardware
p383
Vmultiprocessor 64-bit PA-RISC
p384
sVhardware-long
p385
VHP PA-RISC 64-bit SMP systems with support for more than 4 GB RAM
p386
ss(Vbase
p387
g367
NVparisc64-smp
p388
tp389
(dp390
Vcflags
p391
V-fno-cse-follow-jumps
p392
sVoverride-host-type
p393
Vhppa64-linux-gnu
p394
ss(Vrelations
p395
g367
tp396
(dp397
Vgcc-7
p398
Vgcc-7 <!stage1 !cross>, binutils-hppa64-linux-gnu <!stage1 !cross>, gcc-7-hppa64-linux-gnu <!stage1 !cross>, gcc-7-hppa-linux-gnu <!stage1 cross>, binutils-hppa64-linux-gnu <!stage1 cross>, gcc-7-hppa64-linux-gnu <!stage1 cross>
p399
ss(Vdescription
p400
g367
NVparisc
p401
tp402
(dp403
Vhardware
p404
V32-bit PA-RISC
p405
sVhardware-long
p406
VHP PA-RISC 32-bit systems with max 4 GB RAM
p407
ss(Vimage
p408
g367
tp409
(dp410
Vsuggests
p411
Vpalo
p412
sVinstall-stem
p413
Vvmlinux
p414
ss(g183
g367
g151
tp415
(dp416
g186
(lp417
Vparisc
p418
aVparisc64-smp
p419
asg190
I01
ss(Vbase
p420
Vi386
p421
tp422
(dp423
Vfeaturesets
p424
(lp425
Vnone
p426
aVrt
p427
asVkernel-arch
p428
Vx86
p429
ss(Vbuild
p430
g421
tp431
(dp432
Vvdso
p433
I01
sVimage-file
p434
Varch/x86/boot/bzImage
p435
ss(Vdescription
p436
g421
NV686-pae
p437
tp438
(dp439
Vhardware
p440
Vmodern PCs
p441
sVhardware-long
p442
VPCs with one or more processors supporting PAE
p443
sVparts
p444
(lp445
Vpae
p446
ass(Vdescription
p447
g421
tp448
(dp449
Vpart-long-pae
p450
VThis kernel requires PAE (Physical Address Extension).\u000aThis feature is supported by the Intel Pentium Pro/II/III/4/4M/D, Xeon,\u000aCore and Atom; AMD Geode NX, Athlon (K7), Duron, Opteron, Sempron,\u000aTurion or Phenom; Transmeta Efficeon; VIA C7; and some other processors.
p451
ss(Vbuild
p452
g421
NV686-pae
p453
tp454
(dp455
Vdebug-info
p456
I01
ss(Vdescription
p457
g421
NV686
p458
tp459
(dp460
Vhardware
p461
Volder PCs
p462
sVhardware-long
p463
VPCs with one or more processors not supporting PAE
p464
ss(Vrelations
p465
g421
tp466
(dp467
Vgcc-7
p468
Vgcc-7 (>= 7.2.0-20~) <!stage1 !cross>, gcc-7-i686-linux-gnu (>= 7.2.0-20~) <!stage1 cross>
p469
sVheaders%gcc-7
p470
Vlinux-compiler-gcc-7-x86 (>= 4.14.17-1~)
p471
ss(Vimage
p472
g421
tp473
(dp474
Vbreaks
p475
Vxserver-xorg-input-vmmouse (<< 1:13.0.99)
p476
sVinstall-stem
p477
Vvmlinuz
p478
sVbootloaders
p479
(lp480
Vgrub-pc
p481
aVextlinux
p482
ass(Vbase
p483
g421
Vnone
p484
tp485
(dp486
Vflavours
p487
(lp488
V686
p489
aV686-pae
p490
ass(Vdescription
p491
g421
g484
V686-pae
p492
tp493
(dp494
Vparts
p495
(lp496
Vxen
p497
ass(Vbase
p498
g421
Vrt
p499
tp500
(dp501
Vflavours
p502
(lp503
V686-pae
p504
ass(Vbase
p505
Vm68k
p506
tp507
(dp508
Vcflags
p509
V-ffreestanding
p510
sg149
(lp511
g151
asVkernel-arch
p512
Vm68k
p513
ss(Vbuild
p514
g506
tp515
(dp516
Vsigned-modules
p517
I00
sVimage-file
p518
Vvmlinux
p519
ss(Vdescription
p520
g506
NVm68k
p521
tp522
(dp523
Vhardware
p524
VMotorola MC68020+ family
p525
ss(Vimage
p526
g506
tp527
(dp528
Vsuggests
p529
Vvmelilo, fdutils
p530
sVinstall-stem
p531
Vvmlinux
p532
ss(g183
g506
g151
tp533
(dp534
g186
(lp535
Vm68k
p536
asg190
I01
ss(Vbase
p537
Vmips
p538
tp539
(dp540
g149
(lp541
g151
asVkernel-arch
p542
Vmips
p543
ss(Vbuild
p544
g538
tp545
(dp546
Vsigned-modules
p547
I00
sVimage-file
p548
Vvmlinux
p549
ss(Vimage
p550
g538
NV4kc-malta
p551
tp552
(dp553
Vconfigs
p554
(lp555
Vkernelarch-mips/config.malta
p556
aVkernelarch-mips/config.mips32r2
p557
ass(Vimage
p558
g538
NV5kc-malta
p559
tp560
(dp561
Vconfigs
p562
(lp563
Vkernelarch-mips/config.malta
p564
aVkernelarch-mips/config.mips64r2
p565
ass(Vdescription
p566
g538
NVocteon
p567
tp568
(dp569
Vhardware
p570
VOcteon
p571
sVhardware-long
p572
VCavium Networks Octeon
p573
ss(Vimage
p574
g538
NVocteon
p575
tp576
(dp577
Vconfigs
p578
(lp579
Vkernelarch-mips/config.octeon
p580
ass(Vimage
p581
g538
tp582
(dp583
Vinstall-stem
p584
Vvmlinux
p585
ss(Vdescription
p586
g538
NV5kc-malta
p587
tp588
(dp589
Vhardware
p590
VMIPS Malta (64-bit)
p591
sVhardware-long
p592
VMIPS Malta boards (64-bit)
p593
ss(Vdescription
p594
g538
NV4kc-malta
p595
tp596
(dp597
Vhardware
p598
VMIPS Malta
p599
sVhardware-long
p600
VMIPS Malta boards
p601
ss(g183
g538
g151
tp602
(dp603
g186
(lp604
V4kc-malta
p605
aV5kc-malta
p606
aVocteon
p607
asg190
I01
ss(Vbase
p608
Vmips64
p609
tp610
(dp611
g149
(lp612
g151
asVkernel-arch
p613
Vmips
p614
ss(Vbuild
p615
g609
tp616
(dp617
Vsigned-modules
p618
I00
sVimage-file
p619
Vvmlinux
p620
ss(Vimage
p621
g609
NV5kc-malta
p622
tp623
(dp624
Vconfigs
p625
(lp626
Vkernelarch-mips/config.malta
p627
aVkernelarch-mips/config.mips64r2
p628
ass(Vdescription
p629
g609
NVocteon
p630
tp631
(dp632
Vhardware
p633
VOcteon
p634
sVhardware-long
p635
VCavium Networks Octeon
p636
ss(Vimage
p637
g609
tp638
(dp639
Vinstall-stem
p640
Vvmlinux
p641
ss(Vdescription
p642
g609
NV5kc-malta
p643
tp644
(dp645
Vhardware
p646
VMIPS Malta
p647
sVhardware-long
p648
VMIPS Malta boards
p649
ss(Vimage
p650
g609
NVocteon
p651
tp652
(dp653
Vconfigs
p654
(lp655
Vkernelarch-mips/config.octeon
p656
ass(g183
g609
g151
tp657
(dp658
g186
(lp659
V5kc-malta
p660
aVocteon
p661
asg190
I01
ss(Vbase
p662
Vmips64el
p663
tp664
(dp665
g149
(lp666
g151
asVkernel-arch
p667
Vmips
p668
ss(Vimage
p669
g663
NVloongson-3
p670
tp671
(dp672
Vconfigs
p673
(lp674
Vkernelarch-mips/config.loongson-3
p675
ass(Vbuild
p676
g663
tp677
(dp678
Vsigned-modules
p679
I00
sVimage-file
p680
Vvmlinux
p681
ss(Vimage
p682
g663
NV5kc-malta
p683
tp684
(dp685
Vconfigs
p686
(lp687
Vkernelarch-mips/config.malta
p688
aVkernelarch-mips/config.mips64r2
p689
ass(Vdescription
p690
g663
NVocteon
p691
tp692
(dp693
Vhardware
p694
VOcteon
p695
sVhardware-long
p696
VCavium Networks Octeon
p697
ss(Vdescription
p698
g663
NVloongson-3
p699
tp700
(dp701
Vhardware
p702
VLoongson 3A/3B
p703
sVhardware-long
p704
VLoongson 3A or 3B based systems (e.g. from Loongson or Lemote)
p705
ss(Vimage
p706
g663
tp707
(dp708
Vinstall-stem
p709
Vvmlinux
p710
ss(Vdescription
p711
g663
NV5kc-malta
p712
tp713
(dp714
Vhardware
p715
VMIPS Malta
p716
sVhardware-long
p717
VMIPS Malta boards
p718
ss(Vimage
p719
g663
NVocteon
p720
tp721
(dp722
Vconfigs
p723
(lp724
Vkernelarch-mips/config.octeon
p725
ass(g183
g663
g151
tp726
(dp727
g186
(lp728
V5kc-malta
p729
aVloongson-3
p730
aVocteon
p731
asg190
I01
ss(Vbase
p732
Vmips64r6
p733
tp734
(dp735
g149
(lp736
g151
asVkernel-arch
p737
Vmips
p738
ss(Vbuild
p739
g733
tp740
(dp741
Vsigned-modules
p742
I00
sVimage-file
p743
Vvmlinux
p744
ss(Vimage
p745
g733
tp746
(dp747
Vinstall-stem
p748
Vvmlinux
p749
ss(Vimage
p750
g733
NVmips64r6
p751
tp752
(dp753
Vconfigs
p754
(lp755
Vkernelarch-mips/config.malta
p756
aVkernelarch-mips/config.mips64r6
p757
ass(Vdescription
p758
g733
NVmips64r6
p759
tp760
(dp761
Vhardware
p762
VMIPS R6 (64 bit, big endian)
p763
sVhardware-long
p764
VMIPS R6 (64 bit, big endian)
p765
ss(g183
g733
g151
tp766
(dp767
g186
(lp768
Vmips64r6
p769
asg190
I01
ss(Vbase
p770
Vmips64r6el
p771
tp772
(dp773
g149
(lp774
g151
asVkernel-arch
p775
Vmips
p776
ss(Vimage
p777
g771
NVmips64r6el
p778
tp779
(dp780
Vconfigs
p781
(lp782
Vkernelarch-mips/config.malta
p783
aVkernelarch-mips/config.mips64r6
p784
ass(Vbuild
p785
g771
tp786
(dp787
Vsigned-modules
p788
I00
sVimage-file
p789
Vvmlinux
p790
ss(Vdescription
p791
g771
NVmips64r6el
p792
tp793
(dp794
Vhardware
p795
VMIPS R6 (64 bit, little endian)
p796
sVhardware-long
p797
VMIPS R6 (64 bit, little endian)
p798
ss(Vimage
p799
g771
tp800
(dp801
Vinstall-stem
p802
Vvmlinux
p803
ss(g183
g771
g151
tp804
(dp805
g186
(lp806
Vmips64r6el
p807
asg190
I01
ss(Vbase
p808
Vmipsel
p809
tp810
(dp811
g149
(lp812
g151
asVkernel-arch
p813
Vmips
p814
ss(Vimage
p815
g809
NVloongson-3
p816
tp817
(dp818
Vconfigs
p819
(lp820
Vkernelarch-mips/config.loongson-3
p821
ass(Vbuild
p822
g809
tp823
(dp824
Vsigned-modules
p825
I00
sVimage-file
p826
Vvmlinux
p827
ss(Vimage
p828
g809
NV4kc-malta
p829
tp830
(dp831
Vconfigs
p832
(lp833
Vkernelarch-mips/config.malta
p834
aVkernelarch-mips/config.mips32r2
p835
ass(Vimage
p836
g809
NV5kc-malta
p837
tp838
(dp839
Vconfigs
p840
(lp841
Vkernelarch-mips/config.malta
p842
aVkernelarch-mips/config.mips64r2
p843
ass(Vdescription
p844
g809
NVocteon
p845
tp846
(dp847
Vhardware
p848
VOcteon
p849
sVhardware-long
p850
VCavium Networks Octeon
p851
ss(Vdescription
p852
g809
NVloongson-3
p853
tp854
(dp855
Vhardware
p856
VLoongson 3A/3B
p857
sVhardware-long
p858
VLoongson 3A or 3B based systems (e.g. from Loongson or Lemote)
p859
ss(Vimage
p860
g809
NVocteon
p861
tp862
(dp863
Vconfigs
p864
(lp865
Vkernelarch-mips/config.octeon
p866
ass(Vimage
p867
g809
tp868
(dp869
Vinstall-stem
p870
Vvmlinux
p871
ss(Vdescription
p872
g809
NV5kc-malta
p873
tp874
(dp875
Vhardware
p876
VMIPS Malta (64-bit)
p877
sVhardware-long
p878
VMIPS Malta boards (64-bit)
p879
ss(Vdescription
p880
g809
NV4kc-malta
p881
tp882
(dp883
Vhardware
p884
VMIPS Malta
p885
sVhardware-long
p886
VMIPS Malta boards
p887
ss(g183
g809
g151
tp888
(dp889
g186
(lp890
V4kc-malta
p891
aV5kc-malta
p892
aVloongson-3
p893
aVocteon
p894
asg190
I01
ss(Vbase
p895
Vmipsn32
p896
tp897
(dp898
Vfeaturesets
p899
(lp900
sVkernel-arch
p901
Vmips
p902
ss(Vbase
p903
Vmipsn32el
p904
tp905
(dp906
Vfeaturesets
p907
(lp908
sVkernel-arch
p909
Vmips
p910
ss(Vbase
p911
Vmipsn32r6
p912
tp913
(dp914
Vfeaturesets
p915
(lp916
sVkernel-arch
p917
Vmips
p918
ss(Vbase
p919
Vmipsn32r6el
p920
tp921
(dp922
Vfeaturesets
p923
(lp924
sVkernel-arch
p925
Vmips
p926
ss(Vbase
p927
Vmipsr6
p928
tp929
(dp930
g149
(lp931
g151
asVkernel-arch
p932
Vmips
p933
ss(Vbuild
p934
g928
tp935
(dp936
Vsigned-modules
p937
I00
sVimage-file
p938
Vvmlinux
p939
ss(Vdescription
p940
g928
NVmips32r6
p941
tp942
(dp943
Vhardware
p944
VMIPS R6 (32 bit, big endian)
p945
sVhardware-long
p946
VMIPS R6 (32 bit, big endian)
p947
ss(Vdescription
p948
g928
NVmips64r6
p949
tp950
(dp951
Vhardware
p952
VMIPS R6 (64 bit, big endian)
p953
sVhardware-long
p954
VMIPS R6 (64 bit, big endian)
p955
ss(Vimage
p956
g928
NVmips64r6
p957
tp958
(dp959
Vconfigs
p960
(lp961
Vkernelarch-mips/config.malta
p962
aVkernelarch-mips/config.mips64r6
p963
ass(Vimage
p964
g928
tp965
(dp966
Vinstall-stem
p967
Vvmlinux
p968
ss(Vimage
p969
g928
NVmips32r6
p970
tp971
(dp972
Vconfigs
p973
(lp974
Vkernelarch-mips/config.malta
p975
aVkernelarch-mips/config.mips32r6
p976
ass(g183
g928
g151
tp977
(dp978
g186
(lp979
Vmips32r6
p980
aVmips64r6
p981
asg190
I01
ss(Vbase
p982
Vmipsr6el
p983
tp984
(dp985
g149
(lp986
g151
asVkernel-arch
p987
Vmips
p988
ss(Vimage
p989
g983
NVmips32r6el
p990
tp991
(dp992
Vconfigs
p993
(lp994
Vkernelarch-mips/config.malta
p995
aVkernelarch-mips/config.mips32r6
p996
ass(Vdescription
p997
g983
NVmips64r6el
p998
tp999
(dp1000
Vhardware
p1001
VMIPS R6 (64 bit, little endian)
p1002
sVhardware-long
p1003
VMIPS R6 (64 bit, little endian)
p1004
ss(Vdescription
p1005
g983
NVmips32r6el
p1006
tp1007
(dp1008
Vhardware
p1009
VMIPS R6 (32 bit, little endian)
p1010
sVhardware-long
p1011
VMIPS R6 (32 bit, little endian)
p1012
ss(Vimage
p1013
g983
NVmips64r6el
p1014
tp1015
(dp1016
Vconfigs
p1017
(lp1018
Vkernelarch-mips/config.malta
p1019
aVkernelarch-mips/config.mips64r6
p1020
ass(Vbuild
p1021
g983
tp1022
(dp1023
Vsigned-modules
p1024
I00
sVimage-file
p1025
Vvmlinux
p1026
ss(Vimage
p1027
g983
tp1028
(dp1029
Vinstall-stem
p1030
Vvmlinux
p1031
ss(g183
g983
g151
tp1032
(dp1033
g186
(lp1034
Vmips32r6el
p1035
aVmips64r6el
p1036
asg190
I01
ss(Vbase
p1037
Vpowerpc
p1038
tp1039
(dp1040
g149
(lp1041
g151
asVkernel-arch
p1042
Vpowerpc
p1043
ss(Vdescription
p1044
g1038
NVpowerpc64
p1045
tp1046
(dp1047
Vhardware
p1048
V64-bit PowerPC
p1049
ss(Vbuild
p1050
g1038
tp1051
(dp1052
Vvdso
p1053
I01
sVimage-file
p1054
Vvmlinux
p1055
ss(Vimage
p1056
g1038
NVpowerpc-smp
p1057
tp1058
(dp1059
Vconfigs
p1060
(lp1061
Vpowerpc/config.powerpc
p1062
aVpowerpc/config.powerpc-smp
p1063
ass(Vdescription
p1064
g1038
NVpowerpc
p1065
tp1066
(dp1067
Vhardware
p1068
Vuniprocessor 32-bit PowerPC
p1069
ss(Vimage
p1070
g1038
NVpowerpc64
p1071
tp1072
(dp1073
Vconfigs
p1074
(lp1075
Vkernelarch-powerpc/config-arch-64
p1076
aVkernelarch-powerpc/config-arch-64-be
p1077
ass(Vdescription
p1078
g1038
NVpowerpc-smp
p1079
tp1080
(dp1081
Vhardware
p1082
Vmultiprocessor 32-bit PowerPC
p1083
ss(Vimage
p1084
g1038
tp1085
(dp1086
Vsuggests
p1087
Vmkvmlinuz
p1088
sVinstall-stem
p1089
Vvmlinux
p1090
sVconfigs
p1091
(lp1092
ss(g183
g1038
g151
tp1093
(dp1094
g186
(lp1095
Vpowerpc
p1096
aVpowerpc-smp
p1097
aVpowerpc64
p1098
asg190
I01
ss(Vbase
p1099
Vpowerpcspe
p1100
tp1101
(dp1102
g149
(lp1103
g151
asVkernel-arch
p1104
Vpowerpc
p1105
ss(Vbuild
p1106
g1100
tp1107
(dp1108
Vsigned-modules
p1109
I00
sVimage-file
p1110
Vvmlinux
p1111
sVvdso
p1112
I01
ss(Vimage
p1113
g1100
tp1114
(dp1115
Vsuggests
p1116
Vmkvmlinuz
p1117
sVinstall-stem
p1118
Vvmlinux
p1119
ss(Vdescription
p1120
g1100
tp1121
(dp1122
Vhardware
p1123
V32-bit PowerPC with SPE (instead of AltiVec) with SMP support
p1124
ss(g183
g1100
g151
tp1125
(dp1126
g186
(lp1127
Vpowerpcspe
p1128
asg190
I01
ss(Vbase
p1129
Vppc64
p1130
tp1131
(dp1132
g149
(lp1133
g151
asVkernel-arch
p1134
Vpowerpc
p1135
ss(Vdescription
p1136
g1130
NVpowerpc64
p1137
tp1138
(dp1139
Vhardware
p1140
V64-bit PowerPC
p1141
ss(Vbuild
p1142
g1130
tp1143
(dp1144
Vsigned-modules
p1145
I00
sVimage-file
p1146
Vvmlinux
p1147
sVvdso
p1148
I01
ss(Vimage
p1149
g1130
NVpowerpc64
p1150
tp1151
(dp1152
Vconfigs
p1153
(lp1154
Vkernelarch-powerpc/config-arch-64
p1155
aVkernelarch-powerpc/config-arch-64-be
p1156
ass(Vimage
p1157
g1130
tp1158
(dp1159
Vsuggests
p1160
Vmkvmlinuz
p1161
sVinstall-stem
p1162
Vvmlinux
p1163
sVconfigs
p1164
(lp1165
ss(g183
g1130
g151
tp1166
(dp1167
g186
(lp1168
Vpowerpc64
p1169
asg190
I01
ss(Vbase
p1170
Vppc64el
p1171
tp1172
(dp1173
g149
(lp1174
g151
asVkernel-arch
p1175
Vpowerpc
p1176
ss(Vdescription
p1177
g1171
NVpowerpc64le
p1178
tp1179
(dp1180
Vhardware
p1181
VLittle-endian 64-bit PowerPC
p1182
ss(Vbuild
p1183
g1171
tp1184
(dp1185
Vvdso
p1186
I01
sVimage-file
p1187
Vvmlinux
p1188
ss(Vimage
p1189
g1171
tp1190
(dp1191
Vsuggests
p1192
Vmkvmlinuz
p1193
sVinstall-stem
p1194
Vvmlinux
p1195
sVconfigs
p1196
(lp1197
ss(Vimage
p1198
g1171
NVpowerpc64le
p1199
tp1200
(dp1201
Vconfigs
p1202
(lp1203
Vkernelarch-powerpc/config-arch-64
p1204
aVkernelarch-powerpc/config-arch-64-le
p1205
ass(g183
g1171
g151
tp1206
(dp1207
g186
(lp1208
Vpowerpc64le
p1209
asg190
I01
ss(Vbase
p1210
Vs390
p1211
tp1212
(dp1213
Vfeaturesets
p1214
(lp1215
sVkernel-arch
p1216
Vs390
p1217
ss(Vbase
p1218
Vs390x
p1219
tp1220
(dp1221
g149
(lp1222
g151
asVkernel-arch
p1223
Vs390
p1224
ss(Vdescription
p1225
g1219
NVs390x
p1226
tp1227
(dp1228
Vhardware
p1229
VIBM zSeries
p1230
ss(Vbuild
p1231
g1219
tp1232
(dp1233
Vvdso
p1234
I01
sVimage-file
p1235
Varch/s390/boot/image
p1236
ss(Vbuild
p1237
g1219
NVs390x
p1238
tp1239
(dp1240
Vdebug-info
p1241
I01
ss(Vrelations
p1242
g1219
tp1243
(dp1244
Vheaders%gcc-7
p1245
Vlinux-compiler-gcc-7-s390
p1246
ss(Vimage
p1247
g1219
tp1248
(dp1249
Vinstall-stem
p1250
Vvmlinuz
p1251
sVbootloaders
p1252
(lp1253
Vs390-tools
p1254
ass(g183
g1219
g151
tp1255
(dp1256
g186
(lp1257
Vs390x
p1258
asg190
I01
ss(Vbase
p1259
Vsh3
p1260
tp1261
(dp1262
Vfeaturesets
p1263
(lp1264
sVkernel-arch
p1265
Vsh
p1266
ss(Vbase
p1267
Vsh4
p1268
tp1269
(dp1270
g149
(lp1271
g151
asVkernel-arch
p1272
Vsh
p1273
ss(Vbuild
p1274
g1268
tp1275
(dp1276
Vsigned-modules
p1277
I00
sVimage-file
p1278
Varch/sh/boot/zImage
p1279
ss(Vdescription
p1280
g1268
NVsh7751r
p1281
tp1282
(dp1283
Vhardware
p1284
Vsh7751r
p1285
sVhardware-long
p1286
VRenesas SH7751R R2D plus board
p1287
ss(Vdescription
p1288
g1268
NVsh7785lcr
p1289
tp1290
(dp1291
Vhardware
p1292
Vsh7785lcr
p1293
sVhardware-long
p1294
VRenesas SH7785 reference board
p1295
ss(Vimage
p1296
g1268
tp1297
(dp1298
Vinstall-stem
p1299
Vvmlinuz
p1300
ss(Vimage
p1301
g1268
NVsh7785lcr
p1302
tp1303
(dp1304
Vrecommends
p1305
Vu-boot-tools
p1306
sVcheck-size
p1307
L4194304L
ss(g183
g1268
g151
tp1308
(dp1309
g186
(lp1310
Vsh7751r
p1311
aVsh7785lcr
p1312
asg190
I01
ss(Vbase
p1313
Vsparc
p1314
tp1315
(dp1316
Vfeaturesets
p1317
(lp1318
sVkernel-arch
p1319
Vsparc
p1320
ss(Vbase
p1321
Vsparc64
p1322
tp1323
(dp1324
g149
(lp1325
g151
asVkernel-arch
p1326
Vsparc
p1327
ss(Vbuild
p1328
g1322
tp1329
(dp1330
Vsigned-modules
p1331
I00
sVimage-file
p1332
Varch/sparc/boot/zImage
p1333
ss(Vimage
p1334
g1322
NVsparc64
p1335
tp1336
(dp1337
Vconfigs
p1338
(lp1339
Vkernelarch-sparc/config-up
p1340
ass(Vimage
p1341
g1322
NVsparc64-smp
p1342
tp1343
(dp1344
Vconfigs
p1345
(lp1346
Vkernelarch-sparc/config-smp
p1347
ass(Vimage
p1348
g1322
tp1349
(dp1350
Vsuggests
p1351
Vsilo, fdutils
p1352
sVinstall-stem
p1353
Vvmlinuz
p1354
sVconfigs
p1355
(lp1356
ss(Vdescription
p1357
g1322
NVsparc64-smp
p1358
tp1359
(dp1360
Vhardware
p1361
Vmultiprocessor 64-bit UltraSPARC
p1362
ss(Vdescription
p1363
g1322
NVsparc64
p1364
tp1365
(dp1366
Vhardware
p1367
Vuniprocessor 64-bit UltraSPARC
p1368
ss(g183
g1322
g151
tp1369
(dp1370
g186
(lp1371
Vsparc64
p1372
aVsparc64-smp
p1373
asg190
I01
ss(Vbase
p1374
Vtilegx
p1375
tp1376
(dp1377
Vfeaturesets
p1378
(lp1379
sVkernel-arch
p1380
Vtile
p1381
ss(Vbase
p1382
Vx32
p1383
tp1384
(dp1385
Vfeaturesets
p1386
(lp1387
sVkernel-arch
p1388
Vx86
p1389
ss(Vdescription
p1390
NVrt
p1391
tp1392
(dp1393
Vparts
p1394
(lp1395
Vrt
p1396
asVpart-long-rt
p1397
VThis kernel includes the PREEMPT_RT realtime patch set.
p1398
sVpart-short-rt
p1399
VPREEMPT_RT
p1400
ss(Vabi
p1401
Ng1391
tp1402
(dp1403
Vignore-changes
p1404
(lp1405
V*
p1406
ass(Vversion
p1407
tp1408
(dp1409
Vupstream
p1410
V4.15
p1411
sVsource
p1412
V4.15.4-1+rpi1
p1413
sVabiname
p1414
V4.15.0-1
p1415
sVabiname_base
p1416
V4.15.0
p1417
ss.