cdebian_linux.config
ConfigCore
p0
(tRp1
(Vabi
p2
tp3
(dp4
Vabiname
p5
V2
p6
sVignore-changes
p7
(lp8
V__cpuhp_*
p9
aVbpf_analyzer
p10
aVcxl_*
p11
aVdax_flush
p12
aVieee80211_nullfunc_get
p13
aVinet_add_protocol
p14
aVinet_del_protocol
p15
aViommu_device_*
p16
aVmm_iommu_*
p17
aVmv_mbus_*
p18
aVperf_*
p19
aVregister_cxl_calls
p20
aVregister_key_type
p21
aVunregister_cxl_calls
p22
aV*_hw_breakpoint
p23
aVmodule:drivers/crypto/ccp/*
p24
aVmodule:drivers/hv/*
p25
aVmodule:drivers/gpu/drm/sun4i/*
p26
aVmodule:drivers/iio/**
p27
aVmodule:drivers/misc/cxl/*
p28
aVmodule:drivers/mtd/nand/*
p29
aVmodule:drivers/net/ethernet/**
p30
aVmodule:drivers/net/wireless/**
p31
aVmodule:drivers/nvdimm/*
p32
aVmodule:drivers/nvme/**
p33
aVmodule:drivers/power/supply/bq27xxx_battery
p34
aVmodule:drivers/scsi/cxgbi/*
p35
aVmodule:drivers/scsi/libiscs*
p36
aVmodule:drivers/scsi/qla2xxx/qla2xxx
p37
aVmodule:drivers/scsi/ufs/*
p38
aVmodule:drivers/target/**
p39
aVmodule:drivers/usb/chipidea/**
p40
aVmodule:drivers/usb/gadget/**
p41
aVmodule:drivers/usb/host/**
p42
aVmodule:drivers/usb/musb/**
p43
aVmodule:fs/nfs/**
p44
aVmodule:net/ceph/libceph
p45
aVmodule:net/l2tp/**
p46
aVmodule:net/rxrpc/rxrpc
p47
aVmodule:net/sctp/**
p48
aVmodule:sound/core/seq/**
p49
aVmodule:sound/firewire/snd-firewire-lib
p50
aVmodule:sound/pci/hda/*
p51
aVbtree_*
p52
aVvisitor*
p53
aVcan_rx_register
p54
aVip6_xmit
p55
aVmodule:net/dccp/dccp
p56
aVmodule:net/rds/rds
p57
aVdevfreq_*
p58
aVdevm_devfreq_*
p59
aVupdate_devfreq
p60
aVmodule:drivers/infiniband/**
p61
aVacpi_ec_add_query_handler
p62
aVacpi_ec_remove_query_handler
p63
aVfirst_ec
p64
aVdebugfs_create_automount
p65
aVmodule:drivers/iio/imu/inv_mpu6050/*
p66
aVdrm_crtc_accurate_vblank_count
p67
aVacpi_nfit_desc_init
p68
aVacpi_nfit_init
p69
aVloop_register_transfer
p70
aVxen_xlate_*
p71
aVnf_nat_masquerade_ipv4_register_notifier
p72
aVnf_nat_masquerade_ipv6_register_notifier
p73
aVmodule:drivers/scsi/hisi_sas/*
p74
aV__gfn_*
p75
aV__kvmhv_*
p76
aV__kvm_*
p77
aV__xive_vm_h_*
p78
aVgfn_*
p79
aVh_ipi_redirect
p80
aVhalt_poll_ns*
p81
aVkvm_*
p82
aVkvmhv_*
p83
aVkvmppc_*
p84
aVmark_page_dirty
p85
aVvcpu_*
p86
aVmodule:arch/powerpc/kvm/*
p87
aVmodule:arch/s390/kvm/*
p88
aVmodule:arch/x86/kvm/*
p89
ass(Vbase
p90
tp91
(dp92
Varches
p93
(lp94
Valpha
p95
aVamd64
p96
aVarm64
p97
aVarm64ilp32
p98
aVarmel
p99
aVarmhf
p100
aVhppa
p101
aVi386
p102
aVia64
p103
aVm68k
p104
aVmips
p105
aVmips64
p106
aVmips64el
p107
aVmips64r6
p108
aVmips64r6el
p109
aVmipsel
p110
aVmipsn32
p111
aVmipsn32el
p112
aVmipsn32r6
p113
aVmipsn32r6el
p114
aVmipsr6
p115
aVmipsr6el
p116
aVpowerpc
p117
aVppc64
p118
aVppc64el
p119
aVriscv64
p120
aVs390
p121
aVs390x
p122
aVsh3
p123
aVsh4
p124
aVsparc
p125
aVsparc64
p126
aVx32
p127
asVcompiler
p128
Vgcc-9
p129
sVfeaturesets
p130
(lp131
Vnone
p132
aVrt
p133
ass(Vbuild
p134
tp135
(dp136
Vdebug-info
p137
I01
sVsigned-code
p138
I00
ss(Vbase
p139
NVrt
p140
tp141
(dp142
Venabled
p143
I00
ss(Vdescription
p144
tp145
(dp146
Vpart-long-up
p147
VThis kernel is not suitable for SMP (multi-processor,\u000amulti-core or hyper-threaded) systems.
p148
ss(Vimage
p149
tp150
(dp151
Vinitramfs-generators
p152
(lp153
Vinitramfs-tools
p154
aVinitramfs-fallback
p155
asVbreaks
p156
(lp157
Vwireless-regdb (<< 2019.06.03-1~)
p158
asVrecommends
p159
(lp160
Vapparmor
p161
ass(Vrelations
p162
tp163
(dp164
Vgcc-9
p165
Vgcc-9 <!stage1 !cross !pkg.linux.nokernel>, gcc-9-@gnu-type-package@ <!stage1 cross !pkg.linux.nokernel>
p166
sVinitramfs-fallback
p167
Vlinux-initramfs-tool
p168
sVinitramfs-tools
p169
Vinitramfs-tools (>= 0.120+deb8u2)
p170
ss(Vbase
p171
Valpha
p172
tp173
(dp174
Vkernel-arch
p175
Valpha
p176
sVfeaturesets
p177
(lp178
Vnone
p179
ass(Vbuild
p180
g172
tp181
(dp182
Vimage-file
p183
Varch/alpha/boot/vmlinux.gz
p184
ss(Vimage
p185
g172
tp186
(dp187
Vsuggests
p188
(lp189
Vaboot
p190
aVfdutils
p191
asVinstall-stem
p192
Vvmlinuz
p193
ss(Vdescription
p194
g172
NValpha-generic
p195
tp196
(dp197
Vhardware
p198
VAlpha
p199
sVhardware-long
p200
VDEC Alpha systems with extended kernel start address (Wildfire, Titan, Marvel)
p201
ss(Vdescription
p202
g172
NValpha-smp
p203
tp204
(dp205
Vhardware
p206
VAlpha SMP
p207
sVhardware-long
p208
VDEC Alpha SMP systems with extended kernel start address (Wildfire, Titan, Marvel)
p209
ss(Vbase
p210
g172
g179
tp211
(dp212
Vflavours
p213
(lp214
Valpha-generic
p215
aValpha-smp
p216
asVimplicit-flavour
p217
I01
ss(Vbase
p218
Vamd64
p219
tp220
(dp221
Vfeaturesets
p222
(lp223
Vnone
p224
aVrt
p225
asVkernel-arch
p226
Vx86
p227
ss(Vbuild
p228
g219
tp229
(dp230
Vimage-file
p231
Varch/x86/boot/bzImage
p232
sVsigned-code
p233
I01
sVvdso
p234
I01
ss(Vimage
p235
g219
tp236
(dp237
Vbootloaders
p238
(lp239
Vgrub-pc
p240
aVgrub-efi-amd64
p241
aVextlinux
p242
asVinstall-stem
p243
Vvmlinuz
p244
sVbreaks
p245
(lp246
Vxserver-xorg-input-vmmouse (<< 1:13.0.99)
p247
ass(Vrelations
p248
g219
tp249
(dp250
Vheaders%gcc-9
p251
Vlinux-compiler-gcc-9-x86
p252
ss(Vdescription
p253
g219
NVamd64
p254
tp255
(dp256
Vhardware
p257
V64-bit PCs
p258
sVhardware-long
p259
VPCs with AMD64, Intel 64 or VIA Nano processors
p260
ss(Vdescription
p261
g219
NVcloud-amd64
p262
tp263
(dp264
Vhardware
p265
Vx86-64 cloud
p266
sVhardware-long
p267
VAmazon EC2, Google Compute Engine and Microsoft Azure cloud platforms
p268
ss(Vbase
p269
g219
Vnone
p270
tp271
(dp272
Vflavours
p273
(lp274
Vamd64
p275
aVcloud-amd64
p276
ass(Vimage
p277
g219
g270
Vcloud-amd64
p278
tp279
(dp280
Vconfigs
p281
(lp282
Vconfig.cloud
p283
aVamd64/config.cloud-amd64
p284
ass(Vbase
p285
g219
Vrt
p286
tp287
(dp288
Vflavours
p289
(lp290
Vamd64
p291
ass(Vbase
p292
Varm64
p293
tp294
(dp295
Vcross-compile-compat
p296
Varm-linux-gnueabihf-
p297
sVkernel-arch
p298
Varm64
p299
sVfeaturesets
p300
(lp301
Vnone
p302
aVrt
p303
ass(Vbuild
p304
g293
tp305
(dp306
Vimage-file
p307
Varch/arm64/boot/Image
p308
sVsigned-code
p309
I01
sVvdso
p310
I01
ss(Vimage
p311
g293
tp312
(dp313
Vinstall-stem
p314
Vvmlinuz
p315
sVbreaks
p316
(lp317
Vlibmozjs185-1.0
p318
aVlibmozjs-24-0 (<< 24.2.0-5.1~)
p319
ass(Vdescription
p320
g293
NVarm64
p321
tp322
(dp323
Vhardware
p324
V64-bit ARMv8 machines
p325
ss(Vdescription
p326
g293
NVcloud-arm64
p327
tp328
(dp329
Vhardware
p330
Varm64 cloud
p331
sVhardware-long
p332
Vcloud platforms supporting arm64 virtual machines
p333
ss(Vimage
p334
g293
NVarm64
p335
tp336
(dp337
s(Vrelations
p338
g293
tp339
(dp340
Vgcc-9
p341
Vgcc-9 <!stage1 !cross !pkg.linux.nokernel>, gcc-9-aarch64-linux-gnu <!stage1 cross !pkg.linux.nokernel>, gcc-arm-linux-gnueabihf <!stage1 !pkg.linux.nokernel>
p342
sVheaders%gcc-9
p343
Vgcc-9
p344
ss(Vbase
p345
g293
Vnone
p346
tp347
(dp348
Vflavours
p349
(lp350
Varm64
p351
aVcloud-arm64
p352
ass(Vimage
p353
g293
g346
Vcloud-arm64
p354
tp355
(dp356
Vconfigs
p357
(lp358
Vconfig.cloud
p359
aVarm64/config.cloud-arm64
p360
ass(Vbase
p361
g293
Vrt
p362
tp363
(dp364
Vflavours
p365
(lp366
Varm64
p367
ass(Vbase
p368
Varm64ilp32
p369
tp370
(dp371
Vkernel-arch
p372
Varm64
p373
sVfeaturesets
p374
(lp375
ss(Vbase
p376
Varmel
p377
tp378
(dp379
Vkernel-arch
p380
Varm
p381
sg177
(lp382
g179
ass(Vbuild
p383
g377
tp384
(dp385
Vimage-file
p386
Varch/arm/boot/zImage
p387
sVuncompressed-image-file
p388
Varch/arm/boot/Image
p389
ss(Vimage
p390
g377
tp391
(dp392
Vinstall-stem
p393
Vvmlinuz
p394
ss(Vrelations
p395
g377
tp396
(dp397
Vheaders%gcc-9
p398
Vlinux-compiler-gcc-9-arm
p399
ss(Vdescription
p400
g377
NVmarvell
p401
tp402
(dp403
Vhardware
p404
VMarvell Kirkwood/Orion
p405
sVhardware-long
p406
VMarvell Kirkwood and Orion based systems (https://wiki.debian.org/ArmEabiPort#Supported_hardware)
p407
ss(Vdescription
p408
g377
NVrpi
p409
tp410
(dp411
Vhardware
p412
VRaspberry Pi and Pi Zero
p413
sVhardware-long
p414
VRaspberry Pi, Raspberry Pi Zero based systems
p415
ss(Vimage
p416
g377
NVmarvell
p417
tp418
(dp419
Vrecommends
p420
(lp421
Vu-boot-tools
p422
asVcheck-size
p423
I2729712
sVcheck-size-with-dtb
p424
I01
sVcheck-uncompressed-size
p425
I7340032
sVbreaks
p426
(lp427
Vflash-kernel (<< 3.57~)
p428
ass(g210
g377
g179
tp429
(dp430
g213
(lp431
Vmarvell
p432
aVrpi
p433
asg217
I01
ss(Vbase
p434
Varmhf
p435
tp436
(dp437
Vfeaturesets
p438
(lp439
sVkernel-arch
p440
Varm
p441
ss(Vbase
p442
Vhppa
p443
tp444
(dp445
Vkernel-arch
p446
Vparisc
p447
sg177
(lp448
g179
ass(Vbuild
p449
g443
tp450
(dp451
Vimage-file
p452
Varch/parisc/boot/bzImage
p453
sVdebug-info
p454
I00
ss(Vimage
p455
g443
tp456
(dp457
Vsuggests
p458
(lp459
Vpalo
p460
asVinstall-stem
p461
Vvmlinuz
p462
ss(Vdescription
p463
g443
NVparisc
p464
tp465
(dp466
Vhardware
p467
V32-bit PA-RISC
p468
sVhardware-long
p469
VHP PA-RISC 32-bit systems with max 4 GB RAM
p470
ss(Vbase
p471
g443
NVparisc64
p472
tp473
(dp474
Vcflags
p475
V-fno-cse-follow-jumps
p476
sVoverride-host-type
p477
Vhppa64-linux-gnu
p478
ss(Vdescription
p479
g443
NVparisc64
p480
tp481
(dp482
Vhardware
p483
V64-bit PA-RISC
p484
sVhardware-long
p485
VHP PA-RISC 64-bit systems with support for more than 4 GB RAM
p486
ss(Vrelations
p487
g443
tp488
(dp489
Vgcc-9
p490
Vgcc-9 <!stage1 !cross !pkg.linux.nokernel>, gcc-9-hppa-linux-gnu <!stage1 cross !pkg.linux.nokernel>, binutils-hppa64-linux-gnu <!stage1 !pkg.linux.nokernel>, gcc-9-hppa64-linux-gnu <!stage1 !pkg.linux.nokernel>
p491
ss(g210
g443
g179
tp492
(dp493
g213
(lp494
Vparisc
p495
aVparisc64
p496
asg217
I01
ss(Vbase
p497
Vi386
p498
tp499
(dp500
Vfeaturesets
p501
(lp502
Vnone
p503
aVrt
p504
asVkernel-arch
p505
Vx86
p506
ss(Vbuild
p507
g498
tp508
(dp509
Vimage-file
p510
Varch/x86/boot/bzImage
p511
sVsigned-code
p512
I01
sVvdso
p513
I01
ss(Vdescription
p514
g498
tp515
(dp516
Vpart-long-pae
p517
VThis kernel requires PAE (Physical Address Extension).\u000aThis feature is supported by the Intel Pentium Pro/II/III/4/4M/D, Xeon,\u000aCore and Atom; AMD Geode NX, Athlon (K7), Duron, Opteron, Sempron,\u000aTurion or Phenom; Transmeta Efficeon; VIA C7; and some other processors.
p518
ss(Vimage
p519
g498
tp520
(dp521
Vbootloaders
p522
(lp523
Vgrub-pc
p524
aVgrub-efi-ia32
p525
aVextlinux
p526
asVinstall-stem
p527
Vvmlinuz
p528
sVbreaks
p529
(lp530
Vxserver-xorg-input-vmmouse (<< 1:13.0.99)
p531
ass(Vrelations
p532
g498
tp533
(dp534
Vheaders%gcc-9
p535
Vlinux-compiler-gcc-9-x86
p536
ss(Vdescription
p537
g498
NV686
p538
tp539
(dp540
Vhardware
p541
Volder PCs
p542
sVhardware-long
p543
VPCs with one or more processors not supporting PAE
p544
ss(Vdescription
p545
g498
NV686-pae
p546
tp547
(dp548
Vhardware
p549
Vmodern PCs
p550
sVhardware-long
p551
VPCs with one or more processors supporting PAE
p552
sVparts
p553
(lp554
Vpae
p555
ass(Vbase
p556
g498
Vnone
p557
tp558
(dp559
Vflavours
p560
(lp561
V686
p562
aV686-pae
p563
ass(Vbase
p564
g498
Vrt
p565
tp566
(dp567
Vflavours
p568
(lp569
V686-pae
p570
ass(Vbase
p571
Via64
p572
tp573
(dp574
Vkernel-arch
p575
Via64
p576
sg177
(lp577
g179
ass(Vbuild
p578
g572
tp579
(dp580
Vimage-file
p581
Vvmlinux.gz
p582
ss(Vimage
p583
g572
tp584
(dp585
Vbootloaders
p586
(lp587
Vgrub-efi-ia64
p588
asVinstall-stem
p589
Vvmlinuz
p590
ss(Vdescription
p591
g572
NVitanium
p592
tp593
(dp594
Vhardware
p595
VItanium (Merced)
p596
sVhardware-long
p597
Vsystems with original Itanium (Merced) processors
p598
ss(Vdescription
p599
g572
NVmckinley
p600
tp601
(dp602
Vhardware
p603
VItanium 2+
p604
sVhardware-long
p605
Vsystems with Itanium 2 or 9300/9500/9700-series processors
p606
ss(g210
g572
g179
tp607
(dp608
g213
(lp609
Vitanium
p610
aVmckinley
p611
asg217
I01
ss(Vbase
p612
Vm68k
p613
tp614
(dp615
Vcflags
p616
V-ffreestanding
p617
sVkernel-arch
p618
Vm68k
p619
sg177
(lp620
g179
ass(Vbuild
p621
g613
tp622
(dp623
Vimage-file
p624
Vvmlinux
p625
ss(Vimage
p626
g613
tp627
(dp628
Vsuggests
p629
(lp630
Vvmelilo
p631
aVfdutils
p632
asVinstall-stem
p633
Vvmlinux
p634
ss(Vdescription
p635
g613
NVm68k
p636
tp637
(dp638
Vhardware
p639
VMotorola MC68020+ family
p640
ss(g210
g613
g179
tp641
(dp642
g213
(lp643
Vm68k
p644
asg217
I01
ss(Vbase
p645
Vmips
p646
tp647
(dp648
Vkernel-arch
p649
Vmips
p650
sg177
(lp651
g179
ass(Vbuild
p652
g646
tp653
(dp654
Vimage-file
p655
Vvmlinuz
p656
ss(Vimage
p657
g646
tp658
(dp659
Vinstall-stem
p660
Vvmlinuz
p661
ss(Vdescription
p662
g646
NV4kc-malta
p663
tp664
(dp665
Vhardware
p666
VMIPS Malta
p667
sVhardware-long
p668
VMIPS Malta boards
p669
ss(Vimage
p670
g646
NV4kc-malta
p671
tp672
(dp673
Vconfigs
p674
(lp675
Vkernelarch-mips/config.malta
p676
aVkernelarch-mips/config.mips32r2
p677
ass(Vdescription
p678
g646
NV5kc-malta
p679
tp680
(dp681
Vhardware
p682
VMIPS Malta (64-bit)
p683
sVhardware-long
p684
VMIPS Malta boards (64-bit)
p685
ss(Vimage
p686
g646
NV5kc-malta
p687
tp688
(dp689
Vconfigs
p690
(lp691
Vkernelarch-mips/config.malta
p692
aVkernelarch-mips/config.mips64r2
p693
ass(Vdescription
p694
g646
NVocteon
p695
tp696
(dp697
Vhardware
p698
VOcteon
p699
sVhardware-long
p700
VCavium Networks Octeon
p701
ss(Vbuild
p702
g646
NVocteon
p703
tp704
(dp705
Vimage-file
p706
Vvmlinux
p707
ss(Vimage
p708
g646
NVocteon
p709
tp710
(dp711
Vinstall-stem
p712
Vvmlinux
p713
sVconfigs
p714
(lp715
Vkernelarch-mips/config.octeon
p716
ass(g210
g646
g179
tp717
(dp718
g213
(lp719
V4kc-malta
p720
aV5kc-malta
p721
aVocteon
p722
asg217
I01
ss(Vbase
p723
Vmips64
p724
tp725
(dp726
Vkernel-arch
p727
Vmips
p728
sg177
(lp729
g179
ass(Vbuild
p730
g724
tp731
(dp732
Vimage-file
p733
Vvmlinuz
p734
ss(Vimage
p735
g724
tp736
(dp737
Vinstall-stem
p738
Vvmlinuz
p739
ss(Vdescription
p740
g724
NV5kc-malta
p741
tp742
(dp743
Vhardware
p744
VMIPS Malta
p745
sVhardware-long
p746
VMIPS Malta boards
p747
ss(Vimage
p748
g724
NV5kc-malta
p749
tp750
(dp751
Vconfigs
p752
(lp753
Vkernelarch-mips/config.malta
p754
aVkernelarch-mips/config.mips64r2
p755
ass(Vdescription
p756
g724
NVocteon
p757
tp758
(dp759
Vhardware
p760
VOcteon
p761
sVhardware-long
p762
VCavium Networks Octeon
p763
ss(Vbuild
p764
g724
NVocteon
p765
tp766
(dp767
Vimage-file
p768
Vvmlinux
p769
ss(Vimage
p770
g724
NVocteon
p771
tp772
(dp773
Vinstall-stem
p774
Vvmlinux
p775
sVconfigs
p776
(lp777
Vkernelarch-mips/config.octeon
p778
ass(g210
g724
g179
tp779
(dp780
g213
(lp781
V5kc-malta
p782
aVocteon
p783
asg217
I01
ss(Vbase
p784
Vmips64el
p785
tp786
(dp787
Vkernel-arch
p788
Vmips
p789
sg177
(lp790
g179
ass(Vbuild
p791
g785
tp792
(dp793
Vimage-file
p794
Vvmlinuz
p795
ss(Vimage
p796
g785
tp797
(dp798
Vinstall-stem
p799
Vvmlinuz
p800
ss(Vdescription
p801
g785
NV5kc-malta
p802
tp803
(dp804
Vhardware
p805
VMIPS Malta
p806
sVhardware-long
p807
VMIPS Malta boards
p808
ss(Vimage
p809
g785
NV5kc-malta
p810
tp811
(dp812
Vconfigs
p813
(lp814
Vkernelarch-mips/config.malta
p815
aVkernelarch-mips/config.mips64r2
p816
ass(Vdescription
p817
g785
NVloongson-3
p818
tp819
(dp820
Vhardware
p821
VLoongson 3A/3B
p822
sVhardware-long
p823
VLoongson 3A or 3B based systems (e.g. from Loongson or Lemote)
p824
ss(Vimage
p825
g785
NVloongson-3
p826
tp827
(dp828
Vconfigs
p829
(lp830
Vkernelarch-mips/config.loongson-3
p831
ass(Vdescription
p832
g785
NVocteon
p833
tp834
(dp835
Vhardware
p836
VOcteon
p837
sVhardware-long
p838
VCavium Networks Octeon
p839
ss(Vbuild
p840
g785
NVocteon
p841
tp842
(dp843
Vimage-file
p844
Vvmlinux
p845
ss(Vimage
p846
g785
NVocteon
p847
tp848
(dp849
Vinstall-stem
p850
Vvmlinux
p851
sVconfigs
p852
(lp853
Vkernelarch-mips/config.octeon
p854
ass(g210
g785
g179
tp855
(dp856
g213
(lp857
V5kc-malta
p858
aVloongson-3
p859
aVocteon
p860
asg217
I01
ss(Vbase
p861
Vmips64r6
p862
tp863
(dp864
Vkernel-arch
p865
Vmips
p866
sg177
(lp867
g179
ass(Vbuild
p868
g862
tp869
(dp870
Vimage-file
p871
Vvmlinux
p872
ss(Vimage
p873
g862
tp874
(dp875
Vinstall-stem
p876
Vvmlinux
p877
ss(Vdescription
p878
g862
NVmips64r6
p879
tp880
(dp881
Vhardware
p882
VMIPS R6 (64 bit, big endian)
p883
sVhardware-long
p884
VMIPS R6 (64 bit, big endian)
p885
ss(Vimage
p886
g862
NVmips64r6
p887
tp888
(dp889
Vconfigs
p890
(lp891
Vkernelarch-mips/config.boston
p892
aVkernelarch-mips/config.mips64r6
p893
ass(g210
g862
g179
tp894
(dp895
g213
(lp896
Vmips64r6
p897
asg217
I01
ss(Vbase
p898
Vmips64r6el
p899
tp900
(dp901
Vkernel-arch
p902
Vmips
p903
sg177
(lp904
g179
ass(Vbuild
p905
g899
tp906
(dp907
Vimage-file
p908
Vvmlinux
p909
ss(Vimage
p910
g899
tp911
(dp912
Vinstall-stem
p913
Vvmlinux
p914
ss(Vdescription
p915
g899
NVmips64r6el
p916
tp917
(dp918
Vhardware
p919
VMIPS R6 (64 bit, little endian)
p920
sVhardware-long
p921
VMIPS R6 (64 bit, little endian)
p922
ss(Vimage
p923
g899
NVmips64r6el
p924
tp925
(dp926
Vconfigs
p927
(lp928
Vkernelarch-mips/config.boston
p929
aVkernelarch-mips/config.mips64r6
p930
ass(g210
g899
g179
tp931
(dp932
g213
(lp933
Vmips64r6el
p934
asg217
I01
ss(Vbase
p935
Vmipsel
p936
tp937
(dp938
Vkernel-arch
p939
Vmips
p940
sg177
(lp941
g179
ass(Vbuild
p942
g936
tp943
(dp944
Vimage-file
p945
Vvmlinuz
p946
ss(Vimage
p947
g936
tp948
(dp949
Vinstall-stem
p950
Vvmlinuz
p951
ss(Vdescription
p952
g936
NV4kc-malta
p953
tp954
(dp955
Vhardware
p956
VMIPS Malta
p957
sVhardware-long
p958
VMIPS Malta boards
p959
ss(Vimage
p960
g936
NV4kc-malta
p961
tp962
(dp963
Vconfigs
p964
(lp965
Vkernelarch-mips/config.malta
p966
aVkernelarch-mips/config.mips32r2
p967
ass(Vdescription
p968
g936
NV5kc-malta
p969
tp970
(dp971
Vhardware
p972
VMIPS Malta (64-bit)
p973
sVhardware-long
p974
VMIPS Malta boards (64-bit)
p975
ss(Vimage
p976
g936
NV5kc-malta
p977
tp978
(dp979
Vconfigs
p980
(lp981
Vkernelarch-mips/config.malta
p982
aVkernelarch-mips/config.mips64r2
p983
ass(Vdescription
p984
g936
NVloongson-3
p985
tp986
(dp987
Vhardware
p988
VLoongson 3A/3B
p989
sVhardware-long
p990
VLoongson 3A or 3B based systems (e.g. from Loongson or Lemote)
p991
ss(Vimage
p992
g936
NVloongson-3
p993
tp994
(dp995
Vconfigs
p996
(lp997
Vkernelarch-mips/config.loongson-3
p998
ass(Vdescription
p999
g936
NVocteon
p1000
tp1001
(dp1002
Vhardware
p1003
VOcteon
p1004
sVhardware-long
p1005
VCavium Networks Octeon
p1006
ss(Vbuild
p1007
g936
NVocteon
p1008
tp1009
(dp1010
Vimage-file
p1011
Vvmlinux
p1012
ss(Vimage
p1013
g936
NVocteon
p1014
tp1015
(dp1016
Vinstall-stem
p1017
Vvmlinux
p1018
sVconfigs
p1019
(lp1020
Vkernelarch-mips/config.octeon
p1021
ass(g210
g936
g179
tp1022
(dp1023
g213
(lp1024
V4kc-malta
p1025
aV5kc-malta
p1026
aVloongson-3
p1027
aVocteon
p1028
asg217
I01
ss(Vbase
p1029
Vmipsn32
p1030
tp1031
(dp1032
Vkernel-arch
p1033
Vmips
p1034
sVfeaturesets
p1035
(lp1036
ss(Vbase
p1037
Vmipsn32el
p1038
tp1039
(dp1040
Vkernel-arch
p1041
Vmips
p1042
sVfeaturesets
p1043
(lp1044
ss(Vbase
p1045
Vmipsn32r6
p1046
tp1047
(dp1048
Vkernel-arch
p1049
Vmips
p1050
sVfeaturesets
p1051
(lp1052
ss(Vbase
p1053
Vmipsn32r6el
p1054
tp1055
(dp1056
Vkernel-arch
p1057
Vmips
p1058
sVfeaturesets
p1059
(lp1060
ss(Vbase
p1061
Vmipsr6
p1062
tp1063
(dp1064
Vkernel-arch
p1065
Vmips
p1066
sg177
(lp1067
g179
ass(Vbuild
p1068
g1062
tp1069
(dp1070
Vimage-file
p1071
Vvmlinux
p1072
ss(Vimage
p1073
g1062
tp1074
(dp1075
Vinstall-stem
p1076
Vvmlinux
p1077
ss(Vdescription
p1078
g1062
NVmips32r6
p1079
tp1080
(dp1081
Vhardware
p1082
VMIPS R6 (32 bit, big endian)
p1083
sVhardware-long
p1084
VMIPS R6 (32 bit, big endian)
p1085
ss(Vimage
p1086
g1062
NVmips32r6
p1087
tp1088
(dp1089
Vconfigs
p1090
(lp1091
Vkernelarch-mips/config.boston
p1092
aVkernelarch-mips/config.mips32r6
p1093
ass(Vdescription
p1094
g1062
NVmips64r6
p1095
tp1096
(dp1097
Vhardware
p1098
VMIPS R6 (64 bit, big endian)
p1099
sVhardware-long
p1100
VMIPS R6 (64 bit, big endian)
p1101
ss(Vimage
p1102
g1062
NVmips64r6
p1103
tp1104
(dp1105
Vconfigs
p1106
(lp1107
Vkernelarch-mips/config.boston
p1108
aVkernelarch-mips/config.mips64r6
p1109
ass(g210
g1062
g179
tp1110
(dp1111
g213
(lp1112
Vmips32r6
p1113
aVmips64r6
p1114
asg217
I01
ss(Vbase
p1115
Vmipsr6el
p1116
tp1117
(dp1118
Vkernel-arch
p1119
Vmips
p1120
sg177
(lp1121
g179
ass(Vbuild
p1122
g1116
tp1123
(dp1124
Vimage-file
p1125
Vvmlinux
p1126
ss(Vimage
p1127
g1116
tp1128
(dp1129
Vinstall-stem
p1130
Vvmlinux
p1131
ss(Vdescription
p1132
g1116
NVmips32r6el
p1133
tp1134
(dp1135
Vhardware
p1136
VMIPS R6 (32 bit, little endian)
p1137
sVhardware-long
p1138
VMIPS R6 (32 bit, little endian)
p1139
ss(Vimage
p1140
g1116
NVmips32r6el
p1141
tp1142
(dp1143
Vconfigs
p1144
(lp1145
Vkernelarch-mips/config.boston
p1146
aVkernelarch-mips/config.mips32r6
p1147
ass(Vdescription
p1148
g1116
NVmips64r6el
p1149
tp1150
(dp1151
Vhardware
p1152
VMIPS R6 (64 bit, little endian)
p1153
sVhardware-long
p1154
VMIPS R6 (64 bit, little endian)
p1155
ss(Vimage
p1156
g1116
NVmips64r6el
p1157
tp1158
(dp1159
Vconfigs
p1160
(lp1161
Vkernelarch-mips/config.boston
p1162
aVkernelarch-mips/config.mips64r6
p1163
ass(g210
g1116
g179
tp1164
(dp1165
g213
(lp1166
Vmips32r6el
p1167
aVmips64r6el
p1168
asg217
I01
ss(Vbase
p1169
Vpowerpc
p1170
tp1171
(dp1172
Vkernel-arch
p1173
Vpowerpc
p1174
sg177
(lp1175
g179
ass(Vbuild
p1176
g1170
tp1177
(dp1178
Vimage-file
p1179
Vvmlinux
p1180
sVvdso
p1181
I01
ss(Vimage
p1182
g1170
tp1183
(dp1184
Vconfigs
p1185
(lp1186
sVbootloaders
p1187
(lp1188
Vgrub-ieee1275
p1189
asVsuggests
p1190
(lp1191
Vmkvmlinuz
p1192
asVinstall-stem
p1193
Vvmlinux
p1194
ss(Vdescription
p1195
g1170
NVpowerpc
p1196
tp1197
(dp1198
Vhardware
p1199
Vuniprocessor 32-bit PowerPC
p1200
ss(Vdescription
p1201
g1170
NVpowerpc-smp
p1202
tp1203
(dp1204
Vhardware
p1205
Vmultiprocessor 32-bit PowerPC
p1206
ss(Vimage
p1207
g1170
NVpowerpc-smp
p1208
tp1209
(dp1210
Vconfigs
p1211
(lp1212
Vpowerpc/config.powerpc
p1213
aVpowerpc/config.powerpc-smp
p1214
ass(Vdescription
p1215
g1170
NVpowerpc64
p1216
tp1217
(dp1218
Vhardware
p1219
V64-bit PowerPC
p1220
ss(Vimage
p1221
g1170
NVpowerpc64
p1222
tp1223
(dp1224
Vconfigs
p1225
(lp1226
Vkernelarch-powerpc/config-arch-64
p1227
aVkernelarch-powerpc/config-arch-64-be
p1228
ass(g210
g1170
g179
tp1229
(dp1230
g213
(lp1231
Vpowerpc
p1232
aVpowerpc-smp
p1233
aVpowerpc64
p1234
asg217
I01
ss(Vbase
p1235
Vppc64
p1236
tp1237
(dp1238
Vkernel-arch
p1239
Vpowerpc
p1240
sg177
(lp1241
g179
ass(Vbuild
p1242
g1236
tp1243
(dp1244
Vimage-file
p1245
Vvmlinux
p1246
sVvdso
p1247
I01
ss(Vimage
p1248
g1236
tp1249
(dp1250
Vconfigs
p1251
(lp1252
sVbootloaders
p1253
(lp1254
Vgrub-ieee1275
p1255
asVsuggests
p1256
(lp1257
Vmkvmlinuz
p1258
asVinstall-stem
p1259
Vvmlinux
p1260
ss(Vdescription
p1261
g1236
NVpowerpc64
p1262
tp1263
(dp1264
Vhardware
p1265
V64-bit PowerPC
p1266
ss(Vimage
p1267
g1236
NVpowerpc64
p1268
tp1269
(dp1270
Vconfigs
p1271
(lp1272
Vkernelarch-powerpc/config-arch-64
p1273
aVkernelarch-powerpc/config-arch-64-be
p1274
ass(g210
g1236
g179
tp1275
(dp1276
g213
(lp1277
Vpowerpc64
p1278
asg217
I01
ss(Vbase
p1279
Vppc64el
p1280
tp1281
(dp1282
Vkernel-arch
p1283
Vpowerpc
p1284
sg177
(lp1285
g179
ass(Vbuild
p1286
g1280
tp1287
(dp1288
Vimage-file
p1289
Vvmlinux
p1290
sVvdso
p1291
I01
ss(Vimage
p1292
g1280
tp1293
(dp1294
Vconfigs
p1295
(lp1296
sVbootloaders
p1297
(lp1298
Vgrub-ieee1275
p1299
asVsuggests
p1300
(lp1301
Vmkvmlinuz
p1302
asVinstall-stem
p1303
Vvmlinux
p1304
ss(Vdescription
p1305
g1280
NVpowerpc64le
p1306
tp1307
(dp1308
Vhardware
p1309
VLittle-endian 64-bit PowerPC
p1310
ss(Vimage
p1311
g1280
NVpowerpc64le
p1312
tp1313
(dp1314
Vconfigs
p1315
(lp1316
Vkernelarch-powerpc/config-arch-64
p1317
aVkernelarch-powerpc/config-arch-64-le
p1318
ass(g210
g1280
g179
tp1319
(dp1320
g213
(lp1321
Vpowerpc64le
p1322
asg217
I01
ss(Vbase
p1323
Vriscv64
p1324
tp1325
(dp1326
Vkernel-arch
p1327
Vriscv
p1328
sVfeaturesets
p1329
(lp1330
Vnone
p1331
ass(Vbuild
p1332
g1324
tp1333
(dp1334
Vimage-file
p1335
Varch/riscv/boot/Image
p1336
sVvdso
p1337
I01
ss(Vimage
p1338
g1324
tp1339
(dp1340
Vinstall-stem
p1341
Vvmlinux
p1342
ss(Vdescription
p1343
g1324
NVriscv64
p1344
tp1345
(dp1346
Vhardware
p1347
V64-bit RISC-V platforms
p1348
sVhardware-long
p1349
V64-bit RISC-V platforms
p1350
ss(Vbase
p1351
g1324
Vnone
p1352
tp1353
(dp1354
Vflavours
p1355
(lp1356
Vriscv64
p1357
ass(Vbase
p1358
Vs390
p1359
tp1360
(dp1361
Vkernel-arch
p1362
Vs390
p1363
sVfeaturesets
p1364
(lp1365
ss(Vbase
p1366
Vs390x
p1367
tp1368
(dp1369
Vkernel-arch
p1370
Vs390
p1371
sg177
(lp1372
g179
ass(Vbuild
p1373
g1367
tp1374
(dp1375
Vimage-file
p1376
Varch/s390/boot/bzImage
p1377
sVvdso
p1378
I01
ss(Vimage
p1379
g1367
tp1380
(dp1381
Vbootloaders
p1382
(lp1383
Vs390-tools
p1384
asVinstall-stem
p1385
Vvmlinuz
p1386
ss(Vrelations
p1387
g1367
tp1388
(dp1389
Vheaders%gcc-9
p1390
Vlinux-compiler-gcc-9-s390
p1391
ss(Vdescription
p1392
g1367
NVs390x
p1393
tp1394
(dp1395
Vhardware
p1396
VIBM zSeries
p1397
ss(g210
g1367
g179
tp1398
(dp1399
g213
(lp1400
Vs390x
p1401
asg217
I01
ss(Vbase
p1402
Vsh3
p1403
tp1404
(dp1405
Vkernel-arch
p1406
Vsh
p1407
sVfeaturesets
p1408
(lp1409
ss(Vbase
p1410
Vsh4
p1411
tp1412
(dp1413
Vkernel-arch
p1414
Vsh
p1415
sg177
(lp1416
g179
ass(Vbuild
p1417
g1411
tp1418
(dp1419
Vimage-file
p1420
Varch/sh/boot/zImage
p1421
ss(Vimage
p1422
g1411
tp1423
(dp1424
Vinstall-stem
p1425
Vvmlinuz
p1426
ss(Vdescription
p1427
g1411
NVsh7751r
p1428
tp1429
(dp1430
Vhardware
p1431
Vsh7751r
p1432
sVhardware-long
p1433
VRenesas SH7751R R2D plus board
p1434
ss(Vdescription
p1435
g1411
NVsh7785lcr
p1436
tp1437
(dp1438
Vhardware
p1439
Vsh7785lcr
p1440
sVhardware-long
p1441
VRenesas SH7785 reference board
p1442
ss(Vimage
p1443
g1411
NVsh7785lcr
p1444
tp1445
(dp1446
Vrecommends
p1447
(lp1448
Vu-boot-tools
p1449
asVcheck-size
p1450
I4194304
ss(g210
g1411
g179
tp1451
(dp1452
g213
(lp1453
Vsh7751r
p1454
aVsh7785lcr
p1455
asg217
I01
ss(Vbase
p1456
Vsparc
p1457
tp1458
(dp1459
Vkernel-arch
p1460
Vsparc
p1461
sVfeaturesets
p1462
(lp1463
ss(Vbase
p1464
Vsparc64
p1465
tp1466
(dp1467
Vkernel-arch
p1468
Vsparc
p1469
sg177
(lp1470
g179
ass(Vbuild
p1471
g1465
tp1472
(dp1473
Vimage-file
p1474
Vvmlinux
p1475
ss(Vimage
p1476
g1465
tp1477
(dp1478
Vconfigs
p1479
(lp1480
sVbootloaders
p1481
(lp1482
Vgrub-ieee1275
p1483
asVsuggests
p1484
(lp1485
Vfdutils
p1486
asVinstall-stem
p1487
Vvmlinux
p1488
ss(Vdescription
p1489
g1465
NVsparc64
p1490
tp1491
(dp1492
Vhardware
p1493
Vuniprocessor 64-bit UltraSPARC
p1494
ss(Vimage
p1495
g1465
NVsparc64
p1496
tp1497
(dp1498
Vconfigs
p1499
(lp1500
Vkernelarch-sparc/config-up
p1501
ass(Vdescription
p1502
g1465
NVsparc64-smp
p1503
tp1504
(dp1505
Vhardware
p1506
Vmultiprocessor 64-bit UltraSPARC
p1507
ss(Vimage
p1508
g1465
NVsparc64-smp
p1509
tp1510
(dp1511
Vconfigs
p1512
(lp1513
Vkernelarch-sparc/config-smp
p1514
ass(g210
g1465
g179
tp1515
(dp1516
g213
(lp1517
Vsparc64
p1518
aVsparc64-smp
p1519
asg217
I01
ss(Vbase
p1520
Vx32
p1521
tp1522
(dp1523
Vkernel-arch
p1524
Vx86
p1525
sVfeaturesets
p1526
(lp1527
ss(Vabi
p1528
NVrt
p1529
tp1530
(dp1531
Vignore-changes
p1532
(lp1533
V*
p1534
ass(Vdescription
p1535
Ng1529
tp1536
(dp1537
Vpart-long-rt
p1538
VThis kernel includes the PREEMPT_RT realtime patch set.
p1539
sVpart-short-rt
p1540
VPREEMPT_RT
p1541
sVparts
p1542
(lp1543
Vrt
p1544
ass(Vversion
p1545
tp1546
(dp1547
Vsource
p1548
V5.7.10-1+rpi1
p1549
sVupstream
p1550
V5.7
p1551
sVabiname_base
p1552
V5.7.0
p1553
sVabiname
p1554
V5.7.0-2
p1555
ss.