ccopy_reg
_reconstructor
p0
(cdebian_linux.config
ConfigCore
p1
c__builtin__
dict
p2
(dp3
(S'image'
p4
S'amd64'
p5
tp6
(dp7
S'install-stem'
p8
S'vmlinuz'
p9
sS'configs'
p10
(lp11
sS'bootloaders'
p12
(lp13
S'grub-pc'
p14
aS'grub-efi'
p15
aS'extlinux'
p16
ass(S'base'
p17
S'hppa'
p18
NS'parisc64-smp'
p19
tp20
(dp21
S'override-host-type'
p22
S'hppa64-linux-gnu'
p23
sS'cflags'
p24
S'-fno-cse-follow-jumps'
p25
ss(S'base'
p26
g5
S'none'
p27
tp28
(dp29
S'flavours'
p30
(lp31
S'amd64'
p32
ass(S'description'
p33
S'armel'
p34
NS'kirkwood'
p35
tp36
(dp37
S'hardware'
p38
S'Marvell Kirkwood'
p39
sS'hardware-long'
p40
S'Marvell Kirkwood based systems (SheevaPlug, QNAP TS-119/TS-219, etc)'
p41
ss(S'image'
p42
S'mips64el'
p43
NS'5kc-malta'
p44
tp45
(dp46
S'configs'
p47
(lp48
S'kernelarch-mips/config.5kc-malta'
p49
ass(S'description'
p50
S'mips'
p51
NS'5kc-malta'
p52
tp53
(dp54
S'hardware'
p55
S'MIPS Malta (64-bit)'
p56
sS'hardware-long'
p57
S'MIPS Malta boards (64-bit)'
p58
ss(S'image'
p59
S'ia64'
p60
tp61
(dp62
S'suggests'
p63
S'fdutils'
p64
sS'bootloaders'
p65
(lp66
S'elilo'
p67
asS'install-stem'
p68
S'vmlinuz'
p69
ss(S'image'
p70
S'armhf'
p71
NS'armmp-lpae'
p72
tp73
(dp74
S'configs'
p75
(lp76
S'armhf/config.armmp'
p77
aS'armhf/config.lpae'
p78
ass(S'base'
p79
NS'rt'
p80
tp81
(dp82
S'enabled'
p83
I00
ss(S'image'
p84
S'sparc64'
p85
NS'sparc64'
p86
tp87
(dp88
S'configs'
p89
(lp90
S'kernelarch-sparc/config-up'
p91
ass(S'description'
p92
g5
g27
S'amd64'
p93
tp94
(dp95
S'parts'
p96
(lp97
S'xen'
p98
ass(S'image'
p99
g34
NS'orion5x'
p100
tp101
(dp102
S'check-size'
p103
S'1572792'
p104
sS'configs'
p105
(lp106
S'armel/config-reduced'
p107
aS'armel/config.orion5x'
p108
asS'recommends'
p109
S'u-boot-tools'
p110
ss(S'image'
p111
S'arm64'
p112
NS'arm64'
p113
tp114
(dp115
s(S'description'
p116
S'm68k'
p117
NS'm68k'
p118
tp119
(dp120
S'hardware'
p121
S'Motorola MC68020+ family'
p122
ss(S'base'
p123
S'ppc64'
p124
S'none'
p125
tp126
(dp127
S'implicit-flavour'
p128
I01
sS'flavours'
p129
(lp130
S'powerpc64'
p131
ass(S'description'
p132
S'mips64'
p133
NS'5kc-malta'
p134
tp135
(dp136
S'hardware'
p137
S'MIPS Malta'
p138
sS'hardware-long'
p139
S'MIPS Malta boards'
p140
ss(S'description'
p141
S's390x'
p142
NS's390x'
p143
tp144
(dp145
S'hardware'
p146
S'IBM zSeries'
p147
ss(S'description'
p148
g34
NS'versatile'
p149
tp150
(dp151
S'hardware'
p152
S'Versatile'
p153
sS'hardware-long'
p154
S'Versatile systems (PB, AB, Qemu)'
p155
ss(g123
g71
g125
tp156
(dp157
g128
I01
sg129
(lp158
S'armmp'
p159
aS'armmp-lpae'
p160
ass(S'image'
p161
S'mipsel'
p162
NS'sb1-bcm91250a'
p163
tp164
(dp165
S'configs'
p166
(lp167
S'kernelarch-mips/config.sb1-bcm91250a'
p168
ass(S'build'
p169
g5
tp170
(dp171
S'debug-info'
p172
I01
sS'image-file'
p173
S'arch/x86/boot/bzImage'
p174
ss(S'base'
p175
S'i386'
p176
S'rt'
p177
tp178
(dp179
S'flavours'
p180
(lp181
S'686-pae'
p182
ass(g123
g133
g125
tp183
(dp184
g128
I01
sg129
(lp185
S'sb1-bcm91250a'
p186
aS'5kc-malta'
p187
aS'octeon'
p188
ass(g123
g117
g125
tp189
(dp190
g128
I01
sg129
(lp191
S'm68k'
p192
ass(S'image'
p193
S'ppc64el'
p194
tp195
(dp196
S'suggests'
p197
S'mkvmlinuz'
p198
sS'configs'
p199
(lp200
sS'install-stem'
p201
S'vmlinux'
p202
ss(S'description'
p203
g43
NS'5kc-malta'
p204
tp205
(dp206
S'hardware'
p207
S'MIPS Malta'
p208
sS'hardware-long'
p209
S'MIPS Malta boards'
p210
ss(S'description'
p211
g124
NS'powerpc64'
p212
tp213
(dp214
S'hardware'
p215
S'64-bit PowerPC'
p216
ss(S'relations'
p217
g176
tp218
(dp219
S'headers%gcc-4.8'
p220
S'linux-compiler-gcc-4.8-x86'
p221
ss(S'image'
p222
S'powerpc'
p223
tp224
(dp225
S'suggests'
p226
S'mkvmlinuz'
p227
sS'configs'
p228
(lp229
sS'install-stem'
p230
S'vmlinux'
p231
ss(S'image'
p232
g162
NS'loongson-2e'
p233
tp234
(dp235
S'configs'
p236
(lp237
S'kernelarch-mips/config.loongson-2e'
p238
ass(S'description'
p239
g176
NS'586'
p240
tp241
(dp242
S'hardware'
p243
S'older PCs'
p244
sS'parts'
p245
(lp246
S'up'
p247
asS'hardware-long'
p248
S'PCs with a single processor not supporting PAE'
p249
ss(S'description'
p250
g162
NS'4kc-malta'
p251
tp252
(dp253
S'hardware'
p254
S'MIPS Malta'
p255
sS'hardware-long'
p256
S'MIPS Malta boards'
p257
ss(S'base'
p258
g5
S'rt'
p259
tp260
(dp261
S'flavours'
p262
(lp263
S'amd64'
p264
ass(S'image'
p265
S'sh4'
p266
NS'sh7785lcr'
p267
tp268
(dp269
S'check-size'
p270
S'4194304'
p271
sS'recommends'
p272
S'u-boot-tools'
p273
ss(S'build'
p274
g194
tp275
(dp276
S'image-file'
p277
S'vmlinux'
p278
ss(S'build'
p279
g124
tp280
(dp281
S'image-file'
p282
S'vmlinux'
p283
ss(S'description'
p284
g34
NS'ixp4xx'
p285
tp286
(dp287
S'hardware'
p288
S'IXP4xx'
p289
sS'hardware-long'
p290
S'IXP4xx based systems (Linksys NSLU2, etc)'
p291
ss(S'description'
p292
g176
S'none'
p293
S'amd64'
p294
tp295
(dp296
S'parts'
p297
(lp298
S'xen'
p299
ass(S'base'
p300
g112
tp301
(dp302
S'kernel-arch'
p303
S'arm64'
p304
sS'featuresets'
p305
(lp306
S'none'
p307
ass(S'description'
p308
g43
NS'sb1-bcm91250a'
p309
tp310
(dp311
S'hardware'
p312
S'BCM91250A'
p313
sS'hardware-long'
p314
S'Broadcom BCM91250A systems (aka SWARM)'
p315
ss(S'base'
p316
g176
tp317
(dp318
S'kernel-arch'
p319
S'x86'
p320
sS'featuresets'
p321
(lp322
S'none'
p323
aS'rt'
p324
ass(S'base'
p325
g162
tp326
(dp327
S'kernel-arch'
p328
S'mips'
p329
sS'featuresets'
p330
(lp331
g125
ass(S'description'
p332
g112
NS'arm64'
p333
tp334
(dp335
S'hardware'
p336
S'64-bit ARMv8 machines'
p337
ss(S'relations'
p338
g5
tp339
(dp340
S'headers%gcc-4.8'
p341
S'linux-compiler-gcc-4.8-x86'
p342
ss(S'description'
p343
S'sparc'
p344
NS'sparc64'
p345
tp346
(dp347
S'hardware'
p348
S'uniprocessor 64-bit UltraSPARC'
p349
ss(S'image'
p350
g176
NS'686-pae'
p351
tp352
(dp353
S'configs'
p354
(lp355
S'kernelarch-x86/config-arch-32'
p356
aS'i386/config.686-pae'
p357
asS'recommends'
p358
S'libc6-i686'
p359
ss(S'description'
p360
NS'rt'
p361
tp362
(dp363
S'part-long-rt'
p364
S'This kernel includes the PREEMPT_RT realtime patch set.'
p365
sS'parts'
p366
(lp367
S'rt'
p368
asS'part-short-rt'
p369
S'PREEMPT_RT'
p370
ss(S'relations'
p371
S's390'
p372
tp373
(dp374
S'headers%gcc-4.8'
p375
S'linux-compiler-gcc-4.8-s390'
p376
ss(S'image'
p377
g85
NS'sparc64-smp'
p378
tp379
(dp380
S'configs'
p381
(lp382
S'kernelarch-sparc/config-smp'
p383
ass(g123
g162
g125
tp384
(dp385
g128
I01
sg129
(lp386
S'sb1-bcm91250a'
p387
aS'4kc-malta'
p388
aS'5kc-malta'
p389
aS'loongson-2e'
p390
aS'loongson-2f'
p391
aS'loongson-3'
p392
ass(S'description'
p393
g266
NS'sh7751r'
p394
tp395
(dp396
S'hardware'
p397
S'sh7751r'
p398
sS'hardware-long'
p399
S'Renesas SH7751R R2D plus board'
p400
ss(S'description'
p401
S'powerpcspe'
p402
tp403
(dp404
S'hardware'
p405
S'32-bit PowerPC with SPE (instead of AltiVec) with SMP support'
p406
ss(S'relations'
p407
tp408
(dp409
S'gcc-4.8'
p410
S'gcc-4.8'
p411
sS'initramfs-fallback'
p412
S'linux-initramfs-tool'
p413
sS'gcc-4.7'
p414
S'gcc-4.7'
p415
sS'gcc-4.6'
p416
S'gcc-4.6'
p417
sS'gcc-4.4'
p418
S'gcc-4.4'
p419
sS'initramfs-tools'
p420
S'initramfs-tools (>= 0.110~)'
p421
ss(S'description'
p422
g71
NS'armmp-lpae'
p423
tp424
(dp425
S'hardware'
p426
S'ARMv7 multiplatform compatible SoCs supporting LPAE'
p427
sS'hardware-long'
p428
S'ARMv7 multiplatform kernel supporting LPAE. See\nhttps://wiki.debian.org/DebianKernel/ARMMP for details of supported\nplatforms.'
p429
ss(g123
g43
g125
tp430
(dp431
g128
I01
sg129
(lp432
S'sb1-bcm91250a'
p433
aS'5kc-malta'
p434
aS'loongson-3'
p435
aS'octeon'
p436
ass(S'image'
p437
g51
NS'4kc-malta'
p438
tp439
(dp440
S'configs'
p441
(lp442
S'kernelarch-mips/config.4kc-malta'
p443
ass(S'abi'
p444
g34
NS'kirkwood'
p445
tp446
(dp447
S'ignore-changes'
p448
(lp449
S'zs_create_pool'
p450
aS'zs_destroy_pool'
p451
aS'zs_free'
p452
aS'zs_get_total_size_bytes'
p453
aS'zs_malloc'
p454
aS'zs_map_object'
p455
aS'zs_unmap_object'
p456
aS'fips_enabled'
p457
aS'dcookie_register'
p458
aS'dcookie_unregister'
p459
aS'get_dcookie'
p460
aS'prof_on'
p461
aS'profile_event_register'
p462
aS'profile_event_unregister'
p463
aS'profile_hits'
p464
aS'ring_buffer_swap_cpu'
p465
aS'task_handoff_register'
p466
aS'task_handoff_unregister'
p467
aS'disable_kprobe'
p468
aS'enable_kprobe'
p469
aS'jprobe_return'
p470
aS'profile_hits'
p471
aS'register_jprobe'
p472
aS'register_jprobes'
p473
aS'register_kprobe'
p474
aS'register_kprobes'
p475
aS'register_kretprobe'
p476
aS'register_kretprobes'
p477
aS'unregister_jprobe'
p478
aS'unregister_jprobes'
p479
aS'unregister_kprobe'
p480
aS'unregister_kprobes'
p481
aS'unregister_kretprobe'
p482
aS'unregister_kretprobes'
p483
ass(g123
g266
g125
tp484
(dp485
g128
I01
sg129
(lp486
S'sh7751r'
p487
aS'sh7785lcr'
p488
ass(S'build'
p489
g18
tp490
(dp491
S'image-file'
p492
S'vmlinux'
p493
ss(S'description'
p494
g85
NS'sparc64'
p495
tp496
(dp497
S'hardware'
p498
S'uniprocessor 64-bit UltraSPARC'
p499
ss(S'image'
p500
g344
NS'sparc64'
p501
tp502
(dp503
S'configs'
p504
(lp505
S'kernelarch-sparc/config-up'
p506
ass(S'image'
p507
g372
NS's390x'
p508
tp509
(dp510
S'configs'
p511
(lp512
S'kernelarch-s390/config-arch-64'
p513
ass(S'base'
p514
g34
tp515
(dp516
S'kernel-arch'
p517
S'arm'
p518
sg330
(lp519
g125
ass(S'image'
p520
g133
NS'sb1-bcm91250a'
p521
tp522
(dp523
S'configs'
p524
(lp525
S'kernelarch-mips/config.sb1-bcm91250a'
p526
ass(S'image'
p527
g43
tp528
(dp529
S'install-stem'
p530
S'vmlinux'
p531
ss(S'base'
p532
g344
tp533
(dp534
S'kernel-arch'
p535
S'sparc'
p536
sg330
(lp537
g125
ass(S'base'
p538
g402
tp539
(dp540
S'kernel-arch'
p541
S'powerpc'
p542
sg330
(lp543
g125
ass(S'description'
p544
g162
NS'loongson-2f'
p545
tp546
(dp547
S'hardware'
p548
S'Loongson 2F'
p549
sS'hardware-long'
p550
S'Lemote Loongson 2F systems'
p551
ss(S'version'
p552
tp553
(dp554
S'abiname'
p555
S'3.16.0-4'
p556
sS'source'
p557
V3.16.43-2+deb8u1
p558
sS'abiname_base'
p559
S'3.16.0'
p560
sS'upstream'
p561
S'3.16'
p562
ss(S'description'
p563
g18
NS'parisc'
p564
tp565
(dp566
S'hardware'
p567
S'32-bit PA-RISC'
p568
sS'hardware-long'
p569
S'HP PA-RISC 32-bit systems with max 4 GB RAM'
p570
ss(g123
g372
g125
tp571
(dp572
g128
I01
sg129
(lp573
S's390x'
p574
ass(S'build'
p575
g51
tp576
(dp577
S'image-file'
p578
S'vmlinux'
p579
ss(S'description'
p580
g51
NS'r5k-ip32'
p581
tp582
(dp583
S'hardware'
p584
S'SGI IP32'
p585
sS'hardware-long'
p586
S'SGI IP32 systems (O2)'
p587
ss(S'description'
p588
g133
NS'sb1-bcm91250a'
p589
tp590
(dp591
S'hardware'
p592
S'BCM91250A'
p593
sS'hardware-long'
p594
S'Broadcom BCM91250A systems (aka SWARM)'
p595
ss(g123
g142
g125
tp596
(dp597
g128
I01
sg129
(lp598
S's390x'
p599
ass(S'base'
p600
S'alpha'
p601
tp602
(dp603
S'kernel-arch'
p604
S'alpha'
p605
sg330
(lp606
g125
ass(S'description'
p607
g223
NS'powerpc64'
p608
tp609
(dp610
S'hardware'
p611
S'64-bit PowerPC'
p612
ss(S'image'
p613
g133
NS'octeon'
p614
tp615
(dp616
S'configs'
p617
(lp618
S'kernelarch-mips/config.octeon'
p619
ass(S'build'
p620
g344
tp621
(dp622
S'image-file'
p623
S'arch/sparc/boot/zImage'
p624
ss(S'image'
p625
g162
tp626
(dp627
S'install-stem'
p628
S'vmlinux'
p629
ss(S'image'
p630
g71
tp631
(dp632
S'suggests'
p633
S'fdutils'
p634
sS'configs'
p635
(lp636
S'kernelarch-arm/config'
p637
aS'armhf/config'
p638
asS'install-stem'
p639
S'vmlinuz'
p640
ss(S'build'
p641
g142
NS's390x'
p642
tp643
(dp644
S'debug-info'
p645
I01
ss(S'build'
p646
g223
tp647
(dp648
S'image-file'
p649
S'vmlinux'
p650
ss(S'build'
p651
g112
tp652
(dp653
S'debug-info'
p654
I01
sS'image-file'
p655
S'arch/arm64/boot/Image'
p656
ss(S'description'
p657
g51
NS'r4k-ip22'
p658
tp659
(dp660
S'hardware'
p661
S'SGI IP22'
p662
sS'hardware-long'
p663
S'SGI IP22 systems (Indy, Indigo2)'
p664
ss(S'build'
p665
g162
tp666
(dp667
S'image-file'
p668
S'vmlinux'
p669
ss(S'base'
p670
g133
tp671
(dp672
S'kernel-arch'
p673
S'mips'
p674
sg330
(lp675
g125
ass(S'base'
p676
g5
tp677
(dp678
S'kernel-arch'
p679
S'x86'
p680
sS'featuresets'
p681
(lp682
S'none'
p683
aS'rt'
p684
ass(S'base'
p685
g60
tp686
(dp687
S'kernel-arch'
p688
S'ia64'
p689
sg330
(lp690
g125
asS'compiler'
p691
S'gcc-4.6'
p692
ss(S'image'
p693
g43
NS'sb1-bcm91250a'
p694
tp695
(dp696
S'configs'
p697
(lp698
S'kernelarch-mips/config.sb1-bcm91250a'
p699
ass(S'base'
p700
g51
tp701
(dp702
S'kernel-arch'
p703
S'mips'
p704
sg330
(lp705
g125
ass(S'image'
p706
g43
NS'octeon'
p707
tp708
(dp709
S'configs'
p710
(lp711
S'kernelarch-mips/config.octeon'
p712
ass(S'description'
p713
g51
NS'4kc-malta'
p714
tp715
(dp716
S'hardware'
p717
S'MIPS Malta'
p718
sS'hardware-long'
p719
S'MIPS Malta boards'
p720
ss(S'description'
p721
g34
NS'orion5x'
p722
tp723
(dp724
S'hardware'
p725
S'Marvell Orion'
p726
sS'hardware-long'
p727
S'Marvell Orion 5181, 5182 and 5281 based systems (QNAP TS-109/TS-209, etc)'
p728
ss(S'base'
p729
g372
tp730
(dp731
S'kernel-arch'
p732
S's390'
p733
sg330
(lp734
g125
ass(g123
g34
g125
tp735
(dp736
g128
I01
sg129
(lp737
S'ixp4xx'
p738
aS'kirkwood'
p739
aS'orion5x'
p740
aS'versatile'
p741
ass(S'description'
p742
g223
NS'powerpc'
p743
tp744
(dp745
S'hardware'
p746
S'uniprocessor 32-bit PowerPC'
p747
ss(S'description'
p748
g85
NS'sparc64-smp'
p749
tp750
(dp751
S'hardware'
p752
S'multiprocessor 64-bit UltraSPARC'
p753
ss(S'description'
p754
g162
NS'5kc-malta'
p755
tp756
(dp757
S'hardware'
p758
S'MIPS Malta (64-bit)'
p759
sS'hardware-long'
p760
S'MIPS Malta boards (64-bit)'
p761
ss(S'description'
p762
g162
NS'loongson-3'
p763
tp764
(dp765
S'hardware'
p766
S'Loongson 3A/3B'
p767
sS'hardware-long'
p768
S'Loongson 3A or 3B based systems (e.g. from Loongson or Lemote)'
p769
ss(S'description'
p770
g344
NS'sparc64-smp'
p771
tp772
(dp773
S'hardware'
p774
S'multiprocessor 64-bit UltraSPARC'
p775
ss(S'image'
p776
g162
NS'loongson-3'
p777
tp778
(dp779
S'configs'
p780
(lp781
S'kernelarch-mips/config.loongson-3'
p782
ass(S'description'
p783
g176
tp784
(dp785
S'part-long-pae'
p786
S'This kernel requires PAE (Physical Address Extension).\nThis feature is supported by the Intel Pentium Pro/II/III/4/4M/D, Xeon,\nCore and Atom; AMD Geode NX, Athlon (K7), Duron, Opteron, Sempron,\nTurion or Phenom; Transmeta Efficeon; VIA C7; and some other processors.'
p787
ss(S'build'
p788
g43
tp789
(dp790
S'image-file'
p791
S'vmlinux'
p792
ss(S'xen'
p793
g5
g27
S'amd64'
p794
tp795
(dp796
S'flavours'
p797
(lp798
S'amd64'
p799
ass(S'image'
p800
g34
tp801
(dp802
S'suggests'
p803
S'fdutils'
p804
sS'configs'
p805
(lp806
S'kernelarch-arm/config'
p807
aS'armel/config'
p808
asS'install-stem'
p809
S'vmlinuz'
p810
ss(S'image'
p811
g372
tp812
(dp813
S'install-stem'
p814
S'vmlinuz'
p815
sS'configs'
p816
(lp817
sS'bootloaders'
p818
(lp819
S's390-tools'
p820
ass(S'relations'
p821
g34
tp822
(dp823
S'headers%gcc-4.8'
p824
S'linux-compiler-gcc-4.8-arm'
p825
ss(S'image'
p826
g18
tp827
(dp828
S'suggests'
p829
S'palo'
p830
sS'install-stem'
p831
S'vmlinux'
p832
ss(S'image'
p833
g402
tp834
(dp835
S'suggests'
p836
S'mkvmlinuz'
p837
sS'install-stem'
p838
S'vmlinux'
p839
ss(S'relations'
p840
g18
tp841
(dp842
S'gcc-4.8'
p843
S'gcc-4.8, binutils-hppa64, gcc-4.8-hppa64'
p844
ss(S'image'
p845
g5
NS'amd64'
p846
tp847
(dp848
S'configs'
p849
(lp850
S'kernelarch-x86/config-arch-64'
p851
ass(S'description'
p852
g601
NS'alpha-generic'
p853
tp854
(dp855
S'hardware'
p856
S'Alpha'
p857
sS'hardware-long'
p858
S'DEC Alpha systems with extended kernel start address (Wildfire, Titan, Marvel)'
p859
ss(S'description'
p860
g51
NS'sb1-bcm91250a'
p861
tp862
(dp863
S'hardware'
p864
S'BCM91250A'
p865
sS'hardware-long'
p866
S'Broadcom BCM91250A systems (aka SWARM)'
p867
ss(S'base'
p868
g223
tp869
(dp870
S'kernel-arch'
p871
S'powerpc'
p872
sg330
(lp873
g125
ass(g123
g18
g125
tp874
(dp875
g128
I01
sg129
(lp876
S'parisc'
p877
aS'parisc64-smp'
p878
ass(S'description'
p879
g601
NS'alpha-smp'
p880
tp881
(dp882
S'hardware'
p883
S'Alpha SMP'
p884
sS'hardware-long'
p885
S'DEC Alpha SMP systems with extended kernel start address (Wildfire, Titan, Marvel)'
p886
ss(S'image'
p887
g51
NS'5kc-malta'
p888
tp889
(dp890
S'configs'
p891
(lp892
S'kernelarch-mips/config.5kc-malta'
p893
ass(S'image'
p894
g601
tp895
(dp896
S'suggests'
p897
S'aboot, fdutils'
p898
sS'install-stem'
p899
S'vmlinuz'
p900
ss(S'base'
p901
g85
tp902
(dp903
S'kernel-arch'
p904
S'sparc'
p905
sg330
(lp906
g125
ass(S'description'
p907
g60
NS'itanium'
p908
tp909
(dp910
S'hardware'
p911
S'Itanium'
p912
ss(S'image'
p913
g51
NS'r4k-ip22'
p914
tp915
(dp916
S'configs'
p917
(lp918
S'kernelarch-mips/config.r4k-ip22'
p919
ass(S'image'
p920
g162
NS'5kc-malta'
p921
tp922
(dp923
S'configs'
p924
(lp925
S'kernelarch-mips/config.5kc-malta'
p926
ass(S'base'
p927
g142
tp928
(dp929
S'kernel-arch'
p930
S's390'
p931
sg330
(lp932
g125
ass(S'abi'
p933
g34
NS'orion5x'
p934
tp935
(dp936
S'ignore-changes'
p937
(lp938
S'__ring_buffer_alloc'
p939
aS'dcookie_register'
p940
aS'dcookie_unregister'
p941
aS'get_dcookie'
p942
aS'prof_on'
p943
aS'profile_event_register'
p944
aS'profile_event_unregister'
p945
aS'profile_hits'
p946
aS'ring_buffer_alloc_read_page'
p947
aS'ring_buffer_bytes_cpu'
p948
aS'ring_buffer_change_overwrite'
p949
aS'ring_buffer_commit_overrun_cpu'
p950
aS'ring_buffer_consume'
p951
aS'ring_buffer_discard_commit'
p952
aS'ring_buffer_dropped_events_cpu'
p953
aS'ring_buffer_empty'
p954
aS'ring_buffer_empty_cpu'
p955
aS'ring_buffer_entries'
p956
aS'ring_buffer_entries_cpu'
p957
aS'ring_buffer_event_data'
p958
aS'ring_buffer_event_length'
p959
aS'ring_buffer_free'
p960
aS'ring_buffer_free_read_page'
p961
aS'ring_buffer_iter_empty'
p962
aS'ring_buffer_iter_peek'
p963
aS'ring_buffer_iter_reset'
p964
aS'ring_buffer_lock_reserve'
p965
aS'ring_buffer_normalize_time_stamp'
p966
aS'ring_buffer_oldest_event_ts'
p967
aS'ring_buffer_overrun_cpu'
p968
aS'ring_buffer_overruns'
p969
aS'ring_buffer_peek'
p970
aS'ring_buffer_read'
p971
aS'ring_buffer_read_events_cpu'
p972
aS'ring_buffer_read_finish'
p973
aS'ring_buffer_read_page'
p974
aS'ring_buffer_read_prepare'
p975
aS'ring_buffer_read_prepare_sync'
p976
aS'ring_buffer_read_start'
p977
aS'ring_buffer_record_disable'
p978
aS'ring_buffer_record_disable_cpu'
p979
aS'ring_buffer_record_enable'
p980
aS'ring_buffer_record_enable_cpu'
p981
aS'ring_buffer_record_off'
p982
aS'ring_buffer_record_on'
p983
aS'ring_buffer_reset'
p984
aS'ring_buffer_reset_cpu'
p985
aS'ring_buffer_resize'
p986
aS'ring_buffer_size'
p987
aS'ring_buffer_swap_cpu'
p988
aS'ring_buffer_time_stamp'
p989
aS'ring_buffer_unlock_commit'
p990
aS'ring_buffer_write'
p991
aS'task_handoff_register'
p992
aS'task_handoff_unregister'
p993
aS'trace_clock_local'
p994
ass(S'description'
p995
g60
NS'mckinley'
p996
tp997
(dp998
S'hardware'
p999
S'Itanium II'
p1000
ss(S'image'
p1001
g124
tp1002
(dp1003
S'suggests'
p1004
S'mkvmlinuz'
p1005
sS'configs'
p1006
(lp1007
sS'install-stem'
p1008
S'vmlinux'
p1009
ss(S'image'
p1010
g51
tp1011
(dp1012
S'install-stem'
p1013
S'vmlinux'
p1014
ss(S'image'
p1015
g176
tp1016
(dp1017
S'install-stem'
p1018
S'vmlinuz'
p1019
sS'configs'
p1020
(lp1021
sS'bootloaders'
p1022
(lp1023
S'grub-pc'
p1024
aS'extlinux'
p1025
ass(S'image'
p1026
g162
NS'loongson-2f'
p1027
tp1028
(dp1029
S'configs'
p1030
(lp1031
S'kernelarch-mips/config.loongson-2f'
p1032
asS'recommends'
p1033
S'libc6-loongson2f'
p1034
ss(g123
g344
g125
tp1035
(dp1036
g128
I01
sg129
(lp1037
S'sparc64'
p1038
aS'sparc64-smp'
p1039
ass(S'relations'
p1040
g223
tp1041
(dp1042
S'gcc-4.8'
p1043
S'gcc-4.8 (>= 4.8.2-21)'
p1044
ss(g123
g601
g125
tp1045
(dp1046
g128
I01
sg129
(lp1047
S'alpha-generic'
p1048
aS'alpha-smp'
p1049
ass(S'description'
p1050
g176
g293
S'686-pae'
p1051
tp1052
(dp1053
S'parts'
p1054
(lp1055
S'xen'
p1056
ass(g123
g60
g125
tp1057
(dp1058
g128
I01
sg129
(lp1059
S'itanium'
p1060
aS'mckinley'
p1061
ass(S'base'
p1062
g124
tp1063
(dp1064
S'kernel-arch'
p1065
S'powerpc'
p1066
sg330
(lp1067
g125
ass(S'image'
p1068
g176
NS'amd64'
p1069
tp1070
(dp1071
S'configs'
p1072
(lp1073
S'kernelarch-x86/config-arch-64'
p1074
asS'recommends'
p1075
S'libc6-i686'
p1076
ss(S'build'
p1077
g142
tp1078
(dp1079
S'image-file'
p1080
S'arch/s390/boot/image'
p1081
ss(S'build'
p1082
g402
tp1083
(dp1084
S'image-file'
p1085
S'vmlinux'
p1086
ss(g123
g51
g125
tp1087
(dp1088
g128
I01
sg129
(lp1089
S'r4k-ip22'
p1090
aS'r5k-ip32'
p1091
aS'sb1-bcm91250a'
p1092
aS'4kc-malta'
p1093
aS'5kc-malta'
p1094
aS'octeon'
p1095
ass(S'build'
p1096
g601
tp1097
(dp1098
S'image-file'
p1099
S'arch/alpha/boot/vmlinux.gz'
p1100
ss(S'image'
p1101
g133
tp1102
(dp1103
S'install-stem'
p1104
S'vmlinux'
p1105
ss(S'abi'
p1106
Ng361
tp1107
(dp1108
S'ignore-changes'
p1109
(lp1110
S'*'
p1111
ass(S'image'
p1112
g133
NS'5kc-malta'
p1113
tp1114
(dp1115
S'configs'
p1116
(lp1117
S'kernelarch-mips/config.5kc-malta'
p1118
ass(S'base'
p1119
S'x32'
p1120
tp1121
(dp1122
S'kernel-arch'
p1123
S'x86'
p1124
sS'featuresets'
p1125
(lp1126
ss(S'build'
p1127
g266
tp1128
(dp1129
S'image-file'
p1130
S'arch/sh/boot/zImage'
p1131
ss(S'image'
p1132
g117
tp1133
(dp1134
S'suggests'
p1135
S'vmelilo, fdutils'
p1136
sS'install-stem'
p1137
S'vmlinuz'
p1138
ss(S'image'
p1139
g51
NS'sb1-bcm91250a'
p1140
tp1141
(dp1142
S'configs'
p1143
(lp1144
S'kernelarch-mips/config.sb1-bcm91250a'
p1145
ass(S'base'
p1146
g112
S'none'
p1147
tp1148
(dp1149
S'flavours'
p1150
(lp1151
S'arm64'
p1152
ass(S'build'
p1153
g133
tp1154
(dp1155
S'image-file'
p1156
S'vmlinux'
p1157
ss(S'build'
p1158
g71
tp1159
(dp1160
S'image-file'
p1161
S'arch/arm/boot/zImage'
p1162
ss(S'description'
p1163
g266
NS'sh7785lcr'
p1164
tp1165
(dp1166
S'hardware'
p1167
S'sh7785lcr'
p1168
sS'hardware-long'
p1169
S'Renesas SH7785 reference board'
p1170
ss(S'build'
p1171
g60
tp1172
(dp1173
S'image-file'
p1174
S'vmlinux.gz'
p1175
ss(S'base'
p1176
g71
tp1177
(dp1178
S'kernel-arch'
p1179
S'arm'
p1180
sg330
(lp1181
g125
ass(S'image'
p1182
g266
tp1183
(dp1184
S'suggests'
p1185
S'fdutils'
p1186
sS'install-stem'
p1187
S'vmlinuz'
p1188
ss(S'build'
p1189
g372
NS's390x'
p1190
tp1191
(dp1192
S'debug-info'
p1193
I01
ss(S'base'
p1194
g18
tp1195
(dp1196
S'kernel-arch'
p1197
S'parisc'
p1198
sg330
(lp1199
g125
ass(S'image'
p1200
g142
NS's390x'
p1201
tp1202
(dp1203
S'configs'
p1204
(lp1205
S'kernelarch-s390/config-arch-64'
p1206
ass(S'image'
p1207
g344
tp1208
(dp1209
S'suggests'
p1210
S'silo, fdutils'
p1211
sS'configs'
p1212
(lp1213
sS'install-stem'
p1214
S'vmlinuz'
p1215
ss(S'description'
p1216
tp1217
(dp1218
S'part-long-up'
p1219
S'This kernel is not suitable for SMP (multi-processor,\nmulti-core or hyper-threaded) systems.'
p1220
sS'part-long-xen'
p1221
S'This kernel also runs on a Xen hypervisor.\nIt supports both privileged (dom0) and unprivileged (domU) operation.'
p1222
ss(S'build'
p1223
g85
tp1224
(dp1225
S'image-file'
p1226
S'arch/sparc/boot/zImage'
p1227
ss(S'relations'
p1228
g71
tp1229
(dp1230
S'headers%gcc-4.8'
p1231
S'linux-compiler-gcc-4.8-arm'
p1232
ss(S'image'
p1233
g34
NS'ixp4xx'
p1234
tp1235
(dp1236
S'check-size'
p1237
S'1441760'
p1238
sS'configs'
p1239
(lp1240
S'armel/config-reduced'
p1241
aS'armel/config.ixp4xx'
p1242
ass(S'image'
p1243
g51
NS'r5k-ip32'
p1244
tp1245
(dp1246
S'configs'
p1247
(lp1248
S'kernelarch-mips/config.r5k-ip32'
p1249
ass(S'image'
p1250
g344
NS'sparc64-smp'
p1251
tp1252
(dp1253
S'configs'
p1254
(lp1255
S'kernelarch-sparc/config-smp'
p1256
ass(S'description'
p1257
g71
NS'armmp'
p1258
tp1259
(dp1260
S'hardware'
p1261
S'ARMv7 multiplatform compatible SoCs'
p1262
sS'hardware-long'
p1263
S'ARMv7 multiplatform kernel. See\nhttps://wiki.debian.org/DebianKernel/ARMMP for details of supported\nplatforms'
p1264
ss(S'image'
p1265
g85
tp1266
(dp1267
S'suggests'
p1268
S'silo, fdutils'
p1269
sS'configs'
p1270
(lp1271
sS'install-stem'
p1272
S'vmlinuz'
p1273
ss(S'description'
p1274
g162
NS'sb1-bcm91250a'
p1275
tp1276
(dp1277
S'hardware'
p1278
S'BCM91250A'
p1279
sS'hardware-long'
p1280
S'Broadcom BCM91250A systems (aka SWARM)'
p1281
ss(S'relations'
p1282
g142
tp1283
(dp1284
S'headers%gcc-4.8'
p1285
S'linux-compiler-gcc-4.8-s390'
p1286
ss(S'description'
p1287
g18
NS'parisc64-smp'
p1288
tp1289
(dp1290
S'hardware'
p1291
S'multiprocessor 64-bit PA-RISC'
p1292
sS'hardware-long'
p1293
S'HP PA-RISC 64-bit SMP systems with support for more than 4 GB RAM'
p1294
ss(S'image'
p1295
g176
NS'586'
p1296
tp1297
(dp1298
S'configs'
p1299
(lp1300
S'kernelarch-x86/config-arch-32'
p1301
aS'i386/config.586'
p1302
ass(S'image'
p1303
g124
NS'powerpc64'
p1304
tp1305
(dp1306
S'configs'
p1307
(lp1308
S'kernelarch-powerpc/config-arch-64'
p1309
aS'kernelarch-powerpc/config-arch-64-be'
p1310
ass(S'abi'
p1311
g34
NS'ixp4xx'
p1312
tp1313
(dp1314
S'ignore-changes'
p1315
(lp1316
S'__ring_buffer_alloc'
p1317
aS'dcookie_register'
p1318
aS'dcookie_unregister'
p1319
aS'get_dcookie'
p1320
aS'prof_on'
p1321
aS'profile_event_register'
p1322
aS'profile_event_unregister'
p1323
aS'profile_hits'
p1324
aS'ring_buffer_alloc_read_page'
p1325
aS'ring_buffer_bytes_cpu'
p1326
aS'ring_buffer_change_overwrite'
p1327
aS'ring_buffer_commit_overrun_cpu'
p1328
aS'ring_buffer_consume'
p1329
aS'ring_buffer_discard_commit'
p1330
aS'ring_buffer_dropped_events_cpu'
p1331
aS'ring_buffer_empty'
p1332
aS'ring_buffer_empty_cpu'
p1333
aS'ring_buffer_entries'
p1334
aS'ring_buffer_entries_cpu'
p1335
aS'ring_buffer_event_data'
p1336
aS'ring_buffer_event_length'
p1337
aS'ring_buffer_free'
p1338
aS'ring_buffer_free_read_page'
p1339
aS'ring_buffer_iter_empty'
p1340
aS'ring_buffer_iter_peek'
p1341
aS'ring_buffer_iter_reset'
p1342
aS'ring_buffer_lock_reserve'
p1343
aS'ring_buffer_normalize_time_stamp'
p1344
aS'ring_buffer_oldest_event_ts'
p1345
aS'ring_buffer_overrun_cpu'
p1346
aS'ring_buffer_overruns'
p1347
aS'ring_buffer_peek'
p1348
aS'ring_buffer_read'
p1349
aS'ring_buffer_read_events_cpu'
p1350
aS'ring_buffer_read_finish'
p1351
aS'ring_buffer_read_page'
p1352
aS'ring_buffer_read_prepare'
p1353
aS'ring_buffer_read_prepare_sync'
p1354
aS'ring_buffer_read_start'
p1355
aS'ring_buffer_record_disable'
p1356
aS'ring_buffer_record_disable_cpu'
p1357
aS'ring_buffer_record_enable'
p1358
aS'ring_buffer_record_enable_cpu'
p1359
aS'ring_buffer_record_off'
p1360
aS'ring_buffer_record_on'
p1361
aS'ring_buffer_reset'
p1362
aS'ring_buffer_reset_cpu'
p1363
aS'ring_buffer_resize'
p1364
aS'ring_buffer_size'
p1365
aS'ring_buffer_swap_cpu'
p1366
aS'ring_buffer_time_stamp'
p1367
aS'ring_buffer_unlock_commit'
p1368
aS'ring_buffer_write'
p1369
aS'task_handoff_register'
p1370
aS'task_handoff_unregister'
p1371
aS'trace_clock_local'
p1372
ass(S'relations'
p1373
g124
tp1374
(dp1375
S'gcc-4.8'
p1376
S'gcc-4.8 (>= 4.8.2-21)'
p1377
ss(S'image'
p1378
g34
NS'kirkwood'
p1379
tp1380
(dp1381
S'check-size'
p1382
S'2097080'
p1383
sS'breaks'
p1384
S'flash-kernel (<< 3.14~)'
p1385
sS'recommends'
p1386
S'u-boot-tools'
p1387
ss(S'image'
p1388
g142
tp1389
(dp1390
S'install-stem'
p1391
S'vmlinuz'
p1392
sS'configs'
p1393
(lp1394
sS'bootloaders'
p1395
(lp1396
S's390-tools'
p1397
ass(S'image'
p1398
g194
NS'powerpc64le'
p1399
tp1400
(dp1401
S'configs'
p1402
(lp1403
S'kernelarch-powerpc/config-arch-64'
p1404
aS'kernelarch-powerpc/config-arch-64-le'
p1405
ass(S'image'
p1406
g162
NS'4kc-malta'
p1407
tp1408
(dp1409
S'configs'
p1410
(lp1411
S'kernelarch-mips/config.4kc-malta'
p1412
ass(S'image'
p1413
g51
NS'octeon'
p1414
tp1415
(dp1416
S'configs'
p1417
(lp1418
S'kernelarch-mips/config.octeon'
p1419
ass(S'build'
p1420
g372
tp1421
(dp1422
S'image-file'
p1423
S'arch/s390/boot/image'
p1424
ss(S'description'
p1425
g51
NS'octeon'
p1426
tp1427
(dp1428
S'hardware'
p1429
S'Octeon'
p1430
sS'hardware-long'
p1431
S'Cavium Networks Octeon'
p1432
ss(S'base'
p1433
g176
g293
tp1434
(dp1435
S'flavours'
p1436
(lp1437
S'586'
p1438
aS'686-pae'
p1439
aS'amd64'
p1440
ass(S'abi'
p1441
tp1442
(dp1443
S'abiname'
p1444
S'4'
p1445
sS'ignore-changes'
p1446
(lp1447
S'module:arch/x86/kvm/kvm'
p1448
aS'module:arch/powerpc/kvm/kvm'
p1449
aS'module:drivers/md/dm-snapshot'
p1450
aS'module:drivers/misc/mei/*'
p1451
aS'module:drivers/mtd/spi-nor/spi-nor'
p1452
aS'module:drivers/net/can/can-dev'
p1453
aS'module:drivers/net/ethernet/**'
p1454
aS'module:drivers/net/wireless/**'
p1455
aS'module:drivers/scsi/qla2xxx/qla2xxx'
p1456
aS'module:drivers/target/iscsi/iscsi_target_mod'
p1457
aS'module:drivers/target/target_core_mod'
p1458
aS'module:drivers/usb/musb/*'
p1459
aS'module:net/ceph/libceph'
p1460
aS'module:sound/firewire/snd-firewire-lib'
p1461
aS'module:sound/i2c/other/snd-ak4113'
p1462
aS'module:sound/i2c/other/snd-ak4114'
p1463
aS'module:sound/pci/emu10k1/*'
p1464
aS'azx_alloc_cmd_io'
p1465
aS'azx_free_cmd_io'
p1466
aS'azx_get_response'
p1467
aS'azx_init_cmd_io'
p1468
aS'azx_send_cmd'
p1469
aS'can_rx_register'
p1470
aS'cpuidle_*'
p1471
aS'kvmppc_*'
p1472
aS'musb_*'
p1473
aS'tcp_make_synack'
p1474
aS'tcp_parse_options'
p1475
aS'tcp_try_fastopen'
p1476
aS'__add_pages'
p1477
aS'__remove_pages'
p1478
aS'nf_register_queue_handler'
p1479
aS'of_device_is_stdout_path'
p1480
aS'module:sound/soc/*'
p1481
aS'blk_rq_check_limits'
p1482
aS'clk_divider_ro_ops'
p1483
aS'tick_nohz_idle_enter'
p1484
aS'tick_nohz_idle_exit'
p1485
aS'skb_copy_and_csum_datagram_iovec'
p1486
aS'module:net/dccp/dccp'
p1487
aS'fl6_*'
p1488
aS'inet_sk_diag_fill'
p1489
aS'ip6_append_data'
p1490
aS'ip6_datagram_send_ctl'
p1491
aS'ip6_xmit'
p1492
aS'ipv6_dup_options'
p1493
aS'ipv6_fixup_options'
p1494
aS'ipv6_push_nfrag_opts'
p1495
aS'tcp_cong_avoid_ai'
p1496
aS'tcp_slow_start'
p1497
aS'__scm_destroy'
p1498
aS'__scm_send'
p1499
aS'scm_detach_fds'
p1500
aS'scm_fp_dup'
p1501
aS'af_alg_*'
p1502
aS'xt_compat_match_from_user'
p1503
aS'efivar_validate'
p1504
aS'zpci_disable_device'
p1505
aS'zpci_enable_device'
p1506
aS'zpci_stop_device'
p1507
aS'fsnotify_*_group'
p1508
aS'fsnotify_*_mark'
p1509
ass(S'image'
p1510
g223
NS'powerpc64'
p1511
tp1512
(dp1513
S'configs'
p1514
(lp1515
S'kernelarch-powerpc/config-arch-64'
p1516
aS'kernelarch-powerpc/config-arch-64-be'
p1517
ass(S'description'
p1518
g194
NS'powerpc64le'
p1519
tp1520
(dp1521
S'hardware'
p1522
S'Little-endian 64-bit PowerPC'
p1523
ss(g123
g402
g125
tp1524
(dp1525
g128
I01
sg129
(lp1526
S'powerpcspe'
p1527
ass(S'description'
p1528
g223
NS'powerpc-smp'
p1529
tp1530
(dp1531
S'hardware'
p1532
S'multiprocessor 32-bit PowerPC'
p1533
ss(S'description'
p1534
g372
NS's390x'
p1535
tp1536
(dp1537
S'hardware'
p1538
S'IBM zSeries'
p1539
ss(S'image'
p1540
g344
NS'sparc32'
p1541
tp1542
(dp1543
S'image-postproc'
p1544
S'sparc32-image-postproc'
p1545
ss(S'description'
p1546
g43
NS'loongson-3'
p1547
tp1548
(dp1549
S'hardware'
p1550
S'Loongson 3A/3B'
p1551
sS'hardware-long'
p1552
S'Loongson 3A or 3B based systems (e.g. from Loongson or Lemote)'
p1553
ss(S'base'
p1554
tp1555
(dp1556
S'arches'
p1557
(lp1558
S'alpha'
p1559
aS'amd64'
p1560
aS'arm64'
p1561
aS'armel'
p1562
aS'armhf'
p1563
aS'hppa'
p1564
aS'i386'
p1565
aS'ia64'
p1566
aS'm68k'
p1567
aS'mips'
p1568
aS'mipsel'
p1569
aS'mips64'
p1570
aS'mips64el'
p1571
aS'or1k'
p1572
aS'powerpc'
p1573
aS'powerpcspe'
p1574
aS'ppc64'
p1575
aS'ppc64el'
p1576
aS's390'
p1577
aS's390x'
p1578
aS'sh4'
p1579
aS'sparc'
p1580
aS'sparc64'
p1581
aS'x32'
p1582
asS'featuresets'
p1583
(lp1584
S'none'
p1585
aS'rt'
p1586
asS'compiler'
p1587
S'gcc-4.8'
p1588
ss(S'build'
p1589
g117
tp1590
(dp1591
S'image-file'
p1592
S'vmlinux.gz'
p1593
ss(S'build'
p1594
g34
tp1595
(dp1596
S'image-file'
p1597
S'arch/arm/boot/zImage'
p1598
ss(g123
g223
g125
tp1599
(dp1600
g128
I01
sg129
(lp1601
S'powerpc'
p1602
aS'powerpc-smp'
p1603
aS'powerpc64'
p1604
ass(S'description'
p1605
g5
NS'amd64'
p1606
tp1607
(dp1608
S'hardware'
p1609
S'64-bit PCs'
p1610
sS'hardware-long'
p1611
S'PCs with AMD64, Intel 64 or VIA Nano processors'
p1612
ss(S'base'
p1613
g194
tp1614
(dp1615
S'kernel-arch'
p1616
S'powerpc'
p1617
sg330
(lp1618
g125
ass(S'base'
p1619
g43
tp1620
(dp1621
S'kernel-arch'
p1622
S'mips'
p1623
sg330
(lp1624
g125
ass(S'base'
p1625
g117
tp1626
(dp1627
S'kernel-arch'
p1628
S'm68k'
p1629
sg330
(lp1630
g125
asS'cflags'
p1631
S'-ffreestanding'
p1632
sS'compiler'
p1633
S'gcc-4.8'
p1634
ss(S'image'
p1635
tp1636
(dp1637
S'initramfs-generators'
p1638
(lp1639
S'initramfs-tools'
p1640
aS'initramfs-fallback'
p1641
asS'type'
p1642
S'plain'
p1643
ss(S'description'
p1644
g133
NS'octeon'
p1645
tp1646
(dp1647
S'hardware'
p1648
S'Octeon'
p1649
sS'hardware-long'
p1650
S'Cavium Networks Octeon'
p1651
ss(g123
g85
g125
tp1652
(dp1653
g128
I01
sg129
(lp1654
S'sparc64'
p1655
aS'sparc64-smp'
p1656
ass(S'description'
p1657
g162
NS'loongson-2e'
p1658
tp1659
(dp1660
S'hardware'
p1661
S'Loongson 2E'
p1662
sS'hardware-long'
p1663
S'Lemote Loongson 2E systems'
p1664
ss(S'description'
p1665
g43
NS'octeon'
p1666
tp1667
(dp1668
S'hardware'
p1669
S'Octeon'
p1670
sS'hardware-long'
p1671
S'Cavium Networks Octeon'
p1672
ss(S'description'
p1673
g344
NS'sparc32'
p1674
tp1675
(dp1676
S'hardware'
p1677
S'uniprocessor sparc32 (sun4m)'
p1678
ss(S'description'
p1679
g176
NS'amd64'
p1680
tp1681
(dp1682
S'hardware'
p1683
S'64-bit PCs'
p1684
sS'parts'
p1685
(lp1686
S'xen'
p1687
asS'hardware-long'
p1688
S'PCs with AMD64, Intel 64 or VIA Nano processors'
p1689
ss(S'base'
p1690
S'or1k'
p1691
tp1692
(dp1693
S'kernel-arch'
p1694
S'openrisc'
p1695
sS'featuresets'
p1696
(lp1697
ss(S'base'
p1698
g266
tp1699
(dp1700
S'kernel-arch'
p1701
S'sh'
p1702
sg330
(lp1703
g125
ass(S'description'
p1704
g176
NS'686-pae'
p1705
tp1706
(dp1707
S'hardware'
p1708
S'modern PCs'
p1709
sS'parts'
p1710
(lp1711
S'pae'
p1712
asS'hardware-long'
p1713
S'PCs with one or more processors supporting PAE'
p1714
ss(S'build'
p1715
g176
NS'686-pae'
p1716
tp1717
(dp1718
S'debug-info'
p1719
I01
ss(S'image'
p1720
g112
tp1721
(dp1722
S'install-stem'
p1723
S'vmlinuz'
p1724
ss(S'image'
p1725
g223
NS'powerpc-smp'
p1726
tp1727
(dp1728
S'configs'
p1729
(lp1730
S'powerpc/config.powerpc'
p1731
aS'powerpc/config.powerpc-smp'
p1732
ass(S'build'
p1733
g176
tp1734
(dp1735
S'image-file'
p1736
S'arch/x86/boot/bzImage'
p1737
ss(g123
g194
g125
tp1738
(dp1739
g128
I01
sg129
(lp1740
S'powerpc64le'
p1741
ass(S'image'
p1742
g43
NS'loongson-3'
p1743
tp1744
(dp1745
S'configs'
p1746
(lp1747
S'kernelarch-mips/config.loongson-3'
p1748
asstp1749
Rp1750
.