cdebian_linux.config
ConfigCore
p0
(tRp1
(Vabi
p2
tp3
(dp4
Vabiname
p5
V22
p6
sVignore-changes
p7
(lp8
V__cpuhp_*
p9
aV__udp_gso_segment
p10
aVbpf_analyzer
p11
aVbpf_offload_dev_create
p12
aVbpf_verifier_log_write
p13
aVcxl_*
p14
aVdax_flush
p15
aVieee80211_nullfunc_get
p16
aVinet_add_protocol
p17
aVinet_del_protocol
p18
aViommu_device_*
p19
aVmm_iommu_*
p20
aVmv_mbus_*
p21
aVperf_*
p22
aVregister_cxl_calls
p23
aVregister_key_type
p24
aVunregister_cxl_calls
p25
aV*_hw_breakpoint
p26
aVmodule:drivers/crypto/ccp/*
p27
aVmodule:drivers/hv/*
p28
aVmodule:drivers/gpu/drm/sun4i/*
p29
aVmodule:drivers/iio/**
p30
aVmodule:drivers/misc/cxl/*
p31
aVmodule:drivers/misc/lis3lv02d/*
p32
aVmodule:drivers/mtd/nand/*
p33
aVmodule:drivers/net/ethernet/**
p34
aVmodule:drivers/net/wireless/**
p35
aVmodule:drivers/nvdimm/*
p36
aVmodule:drivers/nvme/**
p37
aVmodule:drivers/power/supply/bq27xxx_battery
p38
aVmodule:drivers/scsi/cxgbi/*
p39
aVmodule:drivers/scsi/libiscs*
p40
aVmodule:drivers/scsi/qla2xxx/qla2xxx
p41
aVmodule:drivers/scsi/ufs/*
p42
aVmodule:drivers/target/**
p43
aVmodule:drivers/usb/chipidea/**
p44
aVmodule:drivers/usb/gadget/**
p45
aVmodule:drivers/usb/host/**
p46
aVmodule:drivers/usb/musb/**
p47
aVmodule:fs/nfs/**
p48
aVmodule:net/ceph/libceph
p49
aVmodule:net/l2tp/**
p50
aVmodule:net/openvswitch/**
p51
aVmodule:net/rxrpc/rxrpc
p52
aVmodule:net/sctp/**
p53
aVmodule:sound/core/seq/**
p54
aVmodule:sound/firewire/snd-firewire-lib
p55
aVmodule:sound/pci/hda/*
p56
aVbtree_*
p57
aVvisitor*
p58
aVcan_rx_register
p59
aVip6_xmit
p60
aVmodule:net/dccp/dccp
p61
aVmodule:net/rds/rds
p62
aVdevfreq_*
p63
aVdevm_devfreq_*
p64
aVupdate_devfreq
p65
aVmodule:drivers/infiniband/**
p66
aVacpi_ec_add_query_handler
p67
aVacpi_ec_remove_query_handler
p68
aVfirst_ec
p69
aVdebugfs_create_automount
p70
aVmodule:drivers/iio/imu/inv_mpu6050/*
p71
aVdrm_crtc_accurate_vblank_count
p72
aVacpi_nfit_desc_init
p73
aVacpi_nfit_init
p74
aVloop_register_transfer
p75
aVxen_xlate_*
p76
aVnf_nat_masquerade_ipv4_register_notifier
p77
aVnf_nat_masquerade_ipv6_register_notifier
p78
aVdfltcc_*
p79
aVmodule:drivers/scsi/hisi_sas/*
p80
aV__gfn_*
p81
aV__kvmhv_*
p82
aV__kvm_*
p83
aV__xive_vm_h_*
p84
aVgfn_*
p85
aVh_ipi_redirect
p86
aVhalt_poll_ns*
p87
aVkvm_*
p88
aVkvmhv_*
p89
aVkvmppc_*
p90
aVmark_page_dirty
p91
aVvcpu_*
p92
aVmodule:arch/powerpc/kvm/*
p93
aVmodule:arch/s390/kvm/*
p94
aVmodule:arch/x86/kvm/*
p95
aVuv_info
p96
aVxhci_init_driver
p97
ass(Vbase
p98
tp99
(dp100
Varches
p101
(lp102
Valpha
p103
aVamd64
p104
aVarm64
p105
aVarm64ilp32
p106
aVarmel
p107
aVarmhf
p108
aVhppa
p109
aVi386
p110
aVia64
p111
aVm68k
p112
aVmips
p113
aVmips64
p114
aVmips64el
p115
aVmips64r6
p116
aVmips64r6el
p117
aVmipsel
p118
aVmipsn32
p119
aVmipsn32el
p120
aVmipsn32r6
p121
aVmipsn32r6el
p122
aVmipsr6
p123
aVmipsr6el
p124
aVpowerpc
p125
aVppc64
p126
aVppc64el
p127
aVriscv64
p128
aVs390
p129
aVs390x
p130
aVsh3
p131
aVsh4
p132
aVsparc
p133
aVsparc64
p134
aVx32
p135
asVcompiler
p136
Vgcc-12
p137
sVfeaturesets
p138
(lp139
Vnone
p140
aVrt
p141
ass(Vbuild
p142
tp143
(dp144
Vsigned-code
p145
I00
sVtrusted-certs
p146
Vdebian/certs/debian-uefi-certs.pem
p147
ss(Vbase
p148
NVrt
p149
tp150
(dp151
Venabled
p152
I01
ss(Vdescription
p153
tp154
(dp155
Vpart-long-up
p156
VThis kernel is not suitable for SMP (multi-processor, multi-core or hyper-threaded) systems.
p157
ss(Vimage
p158
tp159
(dp160
Vinitramfs-generators
p161
(lp162
Vinitramfs-tools
p163
aVinitramfs-fallback
p164
asVbreaks
p165
(lp166
Vfwupdate (<< 12-7)
p167
aVwireless-regdb (<< 2019.06.03-1~)
p168
asVrecommends
p169
(lp170
Vapparmor
p171
ass(Vrelations
p172
tp173
(dp174
Vgcc-12
p175
Vgcc-12 <!stage1 !cross !pkg.linux.nokernel>, gcc-12-@gnu-type-package@ <!stage1 cross !pkg.linux.nokernel>
p176
sVinitramfs-fallback
p177
Vlinux-initramfs-tool
p178
sVinitramfs-tools
p179
Vinitramfs-tools (>= 0.120+deb8u2)
p180
ss(Vbase
p181
Valpha
p182
tp183
(dp184
Vdefault-flavour
p185
Valpha-smp
p186
sVkernel-arch
p187
Valpha
p188
sVfeaturesets
p189
(lp190
Vnone
p191
ass(Vbuild
p192
g182
tp193
(dp194
Vimage-file
p195
Varch/alpha/boot/vmlinux.gz
p196
ss(Vimage
p197
g182
tp198
(dp199
Vsuggests
p200
(lp201
Vaboot
p202
aVfdutils
p203
asVinstall-stem
p204
Vvmlinuz
p205
ss(Vdescription
p206
g182
NValpha-generic
p207
tp208
(dp209
Vhardware
p210
VAlpha
p211
sVhardware-long
p212
VDEC Alpha systems with extended kernel start address (Wildfire, Titan, Marvel)
p213
ss(Vdescription
p214
g182
NValpha-smp
p215
tp216
(dp217
Vhardware
p218
VAlpha SMP
p219
sVhardware-long
p220
VDEC Alpha SMP systems with extended kernel start address (Wildfire, Titan, Marvel)
p221
ss(Vbase
p222
g182
g191
tp223
(dp224
Vflavours
p225
(lp226
Valpha-generic
p227
aValpha-smp
p228
asVimplicit-flavour
p229
I01
ss(Vbase
p230
Vamd64
p231
tp232
(dp233
Vfeaturesets
p234
(lp235
Vnone
p236
aVrt
p237
asVkernel-arch
p238
Vx86
p239
ss(Vbuild
p240
g231
tp241
(dp242
Vimage-file
p243
Varch/x86/boot/bzImage
p244
sVsigned-code
p245
I01
sVvdso
p246
I01
ss(Vimage
p247
g231
tp248
(dp249
Vbootloaders
p250
(lp251
Vgrub-pc
p252
aVgrub-efi-amd64
p253
aVextlinux
p254
asVinstall-stem
p255
Vvmlinuz
p256
ss(Vrelations
p257
g231
tp258
(dp259
Vheaders%gcc-12
p260
Vlinux-compiler-gcc-12-x86
p261
ss(Vdescription
p262
g231
NVamd64
p263
tp264
(dp265
Vhardware
p266
V64-bit PCs
p267
sVhardware-long
p268
VPCs with AMD64, Intel 64 or VIA Nano processors
p269
ss(Vdescription
p270
g231
NVcloud-amd64
p271
tp272
(dp273
Vhardware
p274
Vx86-64 cloud
p275
sVhardware-long
p276
Vcloud platforms including Amazon EC2, Microsoft Azure, and Google Compute Engine
p277
ss(Vbase
p278
g231
Vnone
p279
tp280
(dp281
Vflavours
p282
(lp283
Vamd64
p284
aVcloud-amd64
p285
asVdefault-flavour
p286
Vamd64
p287
sVquick-flavour
p288
Vcloud-amd64
p289
ss(Vimage
p290
g231
g279
Vcloud-amd64
p291
tp292
(dp293
Vconfigs
p294
(lp295
Vconfig.cloud
p296
aVamd64/config.cloud-amd64
p297
ass(Vbase
p298
g231
Vrt
p299
tp300
(dp301
Vflavours
p302
(lp303
Vamd64
p304
ass(Vbase
p305
Varm64
p306
tp307
(dp308
Vcross-compile-compat
p309
Varm-linux-gnueabihf-
p310
sVkernel-arch
p311
Varm64
p312
sVfeaturesets
p313
(lp314
Vnone
p315
aVrt
p316
ass(Vbuild
p317
g306
tp318
(dp319
Vimage-file
p320
Varch/arm64/boot/Image
p321
sVsigned-code
p322
I01
sVvdso
p323
I01
ss(Vimage
p324
g306
tp325
(dp326
Vinstall-stem
p327
Vvmlinuz
p328
ss(Vdescription
p329
g306
NVarm64
p330
tp331
(dp332
Vhardware
p333
V64-bit ARMv8 machines
p334
ss(Vdescription
p335
g306
NVcloud-arm64
p336
tp337
(dp338
Vhardware
p339
Varm64 cloud
p340
sVhardware-long
p341
Vcloud platforms supporting arm64 virtual machines
p342
ss(Vimage
p343
g306
NVarm64
p344
tp345
(dp346
s(Vrelations
p347
g306
tp348
(dp349
Vgcc-12
p350
Vgcc-12 <!stage1 !cross !pkg.linux.nokernel>, gcc-12-aarch64-linux-gnu <!stage1 cross !pkg.linux.nokernel>, gcc-arm-linux-gnueabihf <!stage1 !pkg.linux.nokernel>
p351
sVheaders%gcc-12
p352
Vgcc-12
p353
ss(Vbase
p354
g306
Vnone
p355
tp356
(dp357
Vflavours
p358
(lp359
Varm64
p360
aVcloud-arm64
p361
asVdefault-flavour
p362
Varm64
p363
sVquick-flavour
p364
Vcloud-arm64
p365
ss(Vimage
p366
g306
g355
Vcloud-arm64
p367
tp368
(dp369
Vconfigs
p370
(lp371
Vconfig.cloud
p372
aVarm64/config.cloud-arm64
p373
ass(Vbase
p374
g306
Vrt
p375
tp376
(dp377
Vflavours
p378
(lp379
Varm64
p380
ass(Vbase
p381
Varm64ilp32
p382
tp383
(dp384
Vkernel-arch
p385
Varm64
p386
sVfeaturesets
p387
(lp388
ss(Vbase
p389
Varmel
p390
tp391
(dp392
Vkernel-arch
p393
Varm
p394
sg189
(lp395
g191
ass(Vbuild
p396
g390
tp397
(dp398
Vimage-file
p399
Varch/arm/boot/zImage
p400
sVuncompressed-image-file
p401
Varch/arm/boot/Image
p402
ss(Vimage
p403
g390
tp404
(dp405
Vinstall-stem
p406
Vvmlinuz
p407
ss(Vrelations
p408
g390
tp409
(dp410
Vheaders%gcc-12
p411
Vlinux-compiler-gcc-12-arm
p412
ss(Vdescription
p413
g390
NVmarvell
p414
tp415
(dp416
Vhardware
p417
VMarvell Kirkwood/Orion
p418
sVhardware-long
p419
VMarvell Kirkwood and Orion based systems (https://wiki.debian.org/ArmEabiPort#Supported_hardware)
p420
ss(Vdescription
p421
g390
NVrpi
p422
tp423
(dp424
Vhardware
p425
VRaspberry Pi Zero, Zero W and 1
p426
sVhardware-long
p427
VRaspberry Pi Zero, Zero W and 1 based systems
p428
ss(Vimage
p429
g390
NVmarvell
p430
tp431
(dp432
Vrecommends
p433
(lp434
Vu-boot-tools
p435
asVcheck-size
p436
I2729712
sVcheck-size-with-dtb
p437
I01
ss(g222
g390
g191
tp438
(dp439
g225
(lp440
Vmarvell
p441
aVrpi
p442
asg229
I01
ss(Vbase
p443
Varmhf
p444
tp445
(dp446
Vfeaturesets
p447
(lp448
sVkernel-arch
p449
Varm
p450
ss(Vbase
p451
Vhppa
p452
tp453
(dp454
Vdefault-flavour
p455
Vparisc
p456
sVkernel-arch
p457
Vparisc
p458
sg189
(lp459
g191
ass(Vbuild
p460
g452
tp461
(dp462
Vimage-file
p463
Varch/parisc/boot/bzImage
p464
ss(Vimage
p465
g452
tp466
(dp467
Vsuggests
p468
(lp469
Vpalo
p470
asVinstall-stem
p471
Vvmlinuz
p472
ss(Vdescription
p473
g452
NVparisc
p474
tp475
(dp476
Vhardware
p477
V32-bit PA-RISC
p478
sVhardware-long
p479
VHP PA-RISC 32-bit systems with max 4 GB RAM
p480
ss(Vbase
p481
g452
NVparisc64
p482
tp483
(dp484
Vcflags
p485
V-fno-cse-follow-jumps
p486
sVoverride-host-type
p487
Vhppa64-linux-gnu
p488
ss(Vdescription
p489
g452
NVparisc64
p490
tp491
(dp492
Vhardware
p493
V64-bit PA-RISC
p494
sVhardware-long
p495
VHP PA-RISC 64-bit systems with support for more than 4 GB RAM
p496
ss(Vrelations
p497
g452
tp498
(dp499
Vgcc-12
p500
Vgcc-12 <!stage1 !cross !pkg.linux.nokernel>, gcc-12-hppa-linux-gnu <!stage1 cross !pkg.linux.nokernel>, binutils-hppa64-linux-gnu <!stage1 !pkg.linux.nokernel>, gcc-12-hppa64-linux-gnu <!stage1 !pkg.linux.nokernel>
p501
ss(g222
g452
g191
tp502
(dp503
g225
(lp504
Vparisc
p505
aVparisc64
p506
asg229
I01
ss(Vbase
p507
Vi386
p508
tp509
(dp510
Vfeaturesets
p511
(lp512
Vnone
p513
aVrt
p514
asVkernel-arch
p515
Vx86
p516
ss(Vbuild
p517
g508
tp518
(dp519
Vimage-file
p520
Varch/x86/boot/bzImage
p521
sVsigned-code
p522
I01
sVvdso
p523
I01
ss(Vdescription
p524
g508
tp525
(dp526
Vpart-long-pae
p527
VThis kernel requires PAE (Physical Address Extension). This feature is supported by the Intel Pentium Pro/II/III/4/4M/D, Xeon, Core and Atom; AMD Geode NX, Athlon (K7), Duron, Opteron, Sempron, Turion or Phenom; Transmeta Efficeon; VIA C7; and some other processors.
p528
ss(Vimage
p529
g508
tp530
(dp531
Vbootloaders
p532
(lp533
Vgrub-pc
p534
aVgrub-efi-ia32
p535
aVextlinux
p536
asVinstall-stem
p537
Vvmlinuz
p538
ss(Vrelations
p539
g508
tp540
(dp541
Vheaders%gcc-12
p542
Vlinux-compiler-gcc-12-x86
p543
ss(Vdescription
p544
g508
NV686
p545
tp546
(dp547
Vhardware
p548
Volder PCs
p549
sVhardware-long
p550
VPCs with one or more processors not supporting PAE
p551
ss(Vdescription
p552
g508
NV686-pae
p553
tp554
(dp555
Vhardware
p556
Vmodern PCs
p557
sVhardware-long
p558
VPCs with one or more processors supporting PAE
p559
sVparts
p560
(lp561
Vpae
p562
ass(Vbase
p563
g508
Vnone
p564
tp565
(dp566
Vflavours
p567
(lp568
V686
p569
aV686-pae
p570
asVdefault-flavour
p571
V686-pae
p572
ss(Vbase
p573
g508
Vrt
p574
tp575
(dp576
Vflavours
p577
(lp578
V686-pae
p579
ass(Vbase
p580
Via64
p581
tp582
(dp583
Vdefault-flavour
p584
Vitanium
p585
sVkernel-arch
p586
Via64
p587
sg189
(lp588
g191
ass(Vbuild
p589
g581
tp590
(dp591
Vimage-file
p592
Vvmlinux.gz
p593
ss(Vimage
p594
g581
tp595
(dp596
Vbootloaders
p597
(lp598
Vgrub-efi-ia64
p599
asVinstall-stem
p600
Vvmlinuz
p601
ss(Vdescription
p602
g581
NVitanium
p603
tp604
(dp605
Vhardware
p606
VItanium (Merced)
p607
sVhardware-long
p608
Vsystems with original Itanium (Merced) processors
p609
ss(Vdescription
p610
g581
NVmckinley
p611
tp612
(dp613
Vhardware
p614
VItanium 2+
p615
sVhardware-long
p616
Vsystems with Itanium 2 or 9300/9500/9700-series processors
p617
ss(g222
g581
g191
tp618
(dp619
g225
(lp620
Vitanium
p621
aVmckinley
p622
asg229
I01
ss(Vbase
p623
Vm68k
p624
tp625
(dp626
Vcflags
p627
V-ffreestanding
p628
sVdefault-flavour
p629
Vm68k
p630
sVkernel-arch
p631
Vm68k
p632
sg189
(lp633
g191
ass(Vbuild
p634
g624
tp635
(dp636
Vimage-file
p637
Vvmlinux
p638
ss(Vimage
p639
g624
tp640
(dp641
Vsuggests
p642
(lp643
Vvmelilo
p644
aVfdutils
p645
asVinstall-stem
p646
Vvmlinux
p647
ss(Vdescription
p648
g624
NVm68k
p649
tp650
(dp651
Vhardware
p652
VMotorola MC68020+ family
p653
ss(g222
g624
g191
tp654
(dp655
g225
(lp656
Vm68k
p657
asg229
I01
ss(Vbase
p658
Vmips
p659
tp660
(dp661
Vkernel-arch
p662
Vmips
p663
sg189
(lp664
g191
ass(Vbuild
p665
g659
tp666
(dp667
Vimage-file
p668
Vvmlinuz
p669
ss(Vimage
p670
g659
tp671
(dp672
Vinstall-stem
p673
Vvmlinuz
p674
ss(Vdescription
p675
g659
NV4kc-malta
p676
tp677
(dp678
Vhardware
p679
VMIPS Malta
p680
sVhardware-long
p681
VMIPS Malta boards
p682
ss(Vimage
p683
g659
NV4kc-malta
p684
tp685
(dp686
Vconfigs
p687
(lp688
Vkernelarch-mips/config.malta
p689
aVkernelarch-mips/config.mips32r2
p690
ass(Vdescription
p691
g659
NVmips32r2eb
p692
tp693
(dp694
Vhardware
p695
VMIPS Generic (mips32r2eb)
p696
sVhardware-long
p697
VMIPS Generic platform (mips32r2eb)
p698
ss(Vimage
p699
g659
NVmips32r2eb
p700
tp701
(dp702
Vconfigs
p703
(lp704
Vkernelarch-mips/config.boston
p705
aVkernelarch-mips/config.mips32r2
p706
ass(Vdescription
p707
g659
NVocteon
p708
tp709
(dp710
Vhardware
p711
VOcteon
p712
sVhardware-long
p713
VCavium Networks Octeon
p714
ss(Vbuild
p715
g659
NVocteon
p716
tp717
(dp718
Vimage-file
p719
Vvmlinux
p720
ss(Vimage
p721
g659
NVocteon
p722
tp723
(dp724
Vinstall-stem
p725
Vvmlinux
p726
sVconfigs
p727
(lp728
Vkernelarch-mips/config.octeon
p729
ass(g222
g659
g191
tp730
(dp731
g225
(lp732
V4kc-malta
p733
aVmips32r2eb
p734
aVocteon
p735
asg229
I01
ss(Vbase
p736
Vmips64
p737
tp738
(dp739
Vkernel-arch
p740
Vmips
p741
sg189
(lp742
g191
ass(Vbuild
p743
g737
tp744
(dp745
Vimage-file
p746
Vvmlinuz
p747
ss(Vimage
p748
g737
tp749
(dp750
Vinstall-stem
p751
Vvmlinuz
p752
ss(Vdescription
p753
g737
NV5kc-malta
p754
tp755
(dp756
Vhardware
p757
VMIPS Malta
p758
sVhardware-long
p759
VMIPS Malta boards
p760
ss(Vimage
p761
g737
NV5kc-malta
p762
tp763
(dp764
Vconfigs
p765
(lp766
Vkernelarch-mips/config.malta
p767
aVkernelarch-mips/config.mips64r2
p768
ass(Vdescription
p769
g737
NVmips64r2eb
p770
tp771
(dp772
Vhardware
p773
VMIPS Generic (mips64r2eb)
p774
sVhardware-long
p775
VMIPS Generic platform (mips64r2eb)
p776
ss(Vimage
p777
g737
NVmips64r2eb
p778
tp779
(dp780
Vconfigs
p781
(lp782
Vkernelarch-mips/config.boston
p783
aVkernelarch-mips/config.mips64r2
p784
ass(Vdescription
p785
g737
NVocteon
p786
tp787
(dp788
Vhardware
p789
VOcteon
p790
sVhardware-long
p791
VCavium Networks Octeon
p792
ss(Vbuild
p793
g737
NVocteon
p794
tp795
(dp796
Vimage-file
p797
Vvmlinux
p798
ss(Vimage
p799
g737
NVocteon
p800
tp801
(dp802
Vinstall-stem
p803
Vvmlinux
p804
sVconfigs
p805
(lp806
Vkernelarch-mips/config.octeon
p807
ass(g222
g737
g191
tp808
(dp809
g225
(lp810
V5kc-malta
p811
aVmips64r2eb
p812
aVocteon
p813
asg229
I01
ss(Vbase
p814
Vmips64el
p815
tp816
(dp817
Vkernel-arch
p818
Vmips
p819
sg189
(lp820
g191
ass(Vbuild
p821
g815
tp822
(dp823
Vimage-file
p824
Vvmlinuz
p825
ss(Vimage
p826
g815
tp827
(dp828
Vinstall-stem
p829
Vvmlinuz
p830
ss(Vdescription
p831
g815
NV5kc-malta
p832
tp833
(dp834
Vhardware
p835
VMIPS Malta
p836
sVhardware-long
p837
VMIPS Malta boards
p838
ss(Vimage
p839
g815
NV5kc-malta
p840
tp841
(dp842
Vconfigs
p843
(lp844
Vkernelarch-mips/config.malta
p845
aVkernelarch-mips/config.mips64r2
p846
ass(Vdescription
p847
g815
NVmips64r2el
p848
tp849
(dp850
Vhardware
p851
VMIPS Generic (mips64r2el)
p852
sVhardware-long
p853
VMIPS Generic platform (mips64r2el)
p854
ss(Vimage
p855
g815
NVmips64r2el
p856
tp857
(dp858
Vconfigs
p859
(lp860
Vkernelarch-mips/config.boston
p861
aVkernelarch-mips/config.mips64r2
p862
ass(Vdescription
p863
g815
NVloongson-3
p864
tp865
(dp866
Vhardware
p867
VLoongson 3A/3B
p868
sVhardware-long
p869
VLoongson 3A or 3B based systems (e.g. from Loongson or Lemote)
p870
ss(Vimage
p871
g815
NVloongson-3
p872
tp873
(dp874
Vrecommends
p875
(lp876
Vpmon-update
p877
asVconfigs
p878
(lp879
Vkernelarch-mips/config.loongson-3
p880
ass(Vdescription
p881
g815
NVocteon
p882
tp883
(dp884
Vhardware
p885
VOcteon
p886
sVhardware-long
p887
VCavium Networks Octeon
p888
ss(Vbuild
p889
g815
NVocteon
p890
tp891
(dp892
Vimage-file
p893
Vvmlinux
p894
ss(Vimage
p895
g815
NVocteon
p896
tp897
(dp898
Vinstall-stem
p899
Vvmlinux
p900
sVconfigs
p901
(lp902
Vkernelarch-mips/config.octeon
p903
ass(g222
g815
g191
tp904
(dp905
g225
(lp906
V5kc-malta
p907
aVmips64r2el
p908
aVloongson-3
p909
aVocteon
p910
asg229
I01
ss(Vbase
p911
Vmips64r6
p912
tp913
(dp914
Vkernel-arch
p915
Vmips
p916
sg189
(lp917
g191
ass(Vbuild
p918
g912
tp919
(dp920
Vimage-file
p921
Vvmlinuz
p922
ss(Vimage
p923
g912
tp924
(dp925
Vinstall-stem
p926
Vvmlinuz
p927
ss(Vdescription
p928
g912
NVmips64r6eb
p929
tp930
(dp931
Vhardware
p932
VMIPS Generic (mips64r6eb)
p933
sVhardware-long
p934
VMIPS Generic platform (mips64r6eb)
p935
ss(Vimage
p936
g912
NVmips64r6eb
p937
tp938
(dp939
Vconfigs
p940
(lp941
Vkernelarch-mips/config.boston
p942
aVkernelarch-mips/config.mips64r6
p943
ass(g222
g912
g191
tp944
(dp945
g225
(lp946
Vmips64r6eb
p947
asg229
I01
ss(Vbase
p948
Vmips64r6el
p949
tp950
(dp951
Vkernel-arch
p952
Vmips
p953
sg189
(lp954
g191
ass(Vbuild
p955
g949
tp956
(dp957
Vimage-file
p958
Vvmlinuz
p959
ss(Vimage
p960
g949
tp961
(dp962
Vinstall-stem
p963
Vvmlinuz
p964
ss(Vdescription
p965
g949
NVmips64r6el
p966
tp967
(dp968
Vhardware
p969
VMIPS Generic (mips64r6el)
p970
sVhardware-long
p971
VMIPS Generic platform (mips64r6el)
p972
ss(Vimage
p973
g949
NVmips64r6el
p974
tp975
(dp976
Vconfigs
p977
(lp978
Vkernelarch-mips/config.boston
p979
aVkernelarch-mips/config.mips64r6
p980
ass(g222
g949
g191
tp981
(dp982
g225
(lp983
Vmips64r6el
p984
asg229
I01
ss(Vbase
p985
Vmipsel
p986
tp987
(dp988
Vkernel-arch
p989
Vmips
p990
sg189
(lp991
g191
ass(Vbuild
p992
g986
tp993
(dp994
Vimage-file
p995
Vvmlinuz
p996
ss(Vimage
p997
g986
tp998
(dp999
Vinstall-stem
p1000
Vvmlinuz
p1001
ss(Vdescription
p1002
g986
NV4kc-malta
p1003
tp1004
(dp1005
Vhardware
p1006
VMIPS Malta
p1007
sVhardware-long
p1008
VMIPS Malta boards
p1009
ss(Vimage
p1010
g986
NV4kc-malta
p1011
tp1012
(dp1013
Vconfigs
p1014
(lp1015
Vkernelarch-mips/config.malta
p1016
aVkernelarch-mips/config.mips32r2
p1017
ass(Vdescription
p1018
g986
NVmips32r2el
p1019
tp1020
(dp1021
Vhardware
p1022
VMIPS Generic (mips32r2el)
p1023
sVhardware-long
p1024
VMIPS Generic platform (mips32r2el)
p1025
ss(Vimage
p1026
g986
NVmips32r2el
p1027
tp1028
(dp1029
Vconfigs
p1030
(lp1031
Vkernelarch-mips/config.boston
p1032
aVkernelarch-mips/config.mips32r2
p1033
ass(Vdescription
p1034
g986
NVloongson-3
p1035
tp1036
(dp1037
Vhardware
p1038
VLoongson 3A/3B
p1039
sVhardware-long
p1040
VLoongson 3A or 3B based systems (e.g. from Loongson or Lemote)
p1041
ss(Vimage
p1042
g986
NVloongson-3
p1043
tp1044
(dp1045
Vrecommends
p1046
(lp1047
Vpmon-update
p1048
asVconfigs
p1049
(lp1050
Vkernelarch-mips/config.loongson-3
p1051
ass(Vdescription
p1052
g986
NVocteon
p1053
tp1054
(dp1055
Vhardware
p1056
VOcteon
p1057
sVhardware-long
p1058
VCavium Networks Octeon
p1059
ss(Vbuild
p1060
g986
NVocteon
p1061
tp1062
(dp1063
Vimage-file
p1064
Vvmlinux
p1065
ss(Vimage
p1066
g986
NVocteon
p1067
tp1068
(dp1069
Vinstall-stem
p1070
Vvmlinux
p1071
sVconfigs
p1072
(lp1073
Vkernelarch-mips/config.octeon
p1074
ass(g222
g986
g191
tp1075
(dp1076
g225
(lp1077
V4kc-malta
p1078
aVmips32r2el
p1079
aVloongson-3
p1080
aVocteon
p1081
asg229
I01
ss(Vbase
p1082
Vmipsn32
p1083
tp1084
(dp1085
Vkernel-arch
p1086
Vmips
p1087
sVfeaturesets
p1088
(lp1089
ss(Vbase
p1090
Vmipsn32el
p1091
tp1092
(dp1093
Vkernel-arch
p1094
Vmips
p1095
sVfeaturesets
p1096
(lp1097
ss(Vbase
p1098
Vmipsn32r6
p1099
tp1100
(dp1101
Vkernel-arch
p1102
Vmips
p1103
sVfeaturesets
p1104
(lp1105
ss(Vbase
p1106
Vmipsn32r6el
p1107
tp1108
(dp1109
Vkernel-arch
p1110
Vmips
p1111
sVfeaturesets
p1112
(lp1113
ss(Vbase
p1114
Vmipsr6
p1115
tp1116
(dp1117
Vkernel-arch
p1118
Vmips
p1119
sg189
(lp1120
g191
ass(Vbuild
p1121
g1115
tp1122
(dp1123
Vimage-file
p1124
Vvmlinuz
p1125
ss(Vimage
p1126
g1115
tp1127
(dp1128
Vinstall-stem
p1129
Vvmlinuz
p1130
ss(Vdescription
p1131
g1115
NVmips32r6eb
p1132
tp1133
(dp1134
Vhardware
p1135
VMIPS Generic (mips32r6eb)
p1136
sVhardware-long
p1137
VMIPS Generic platform (mips32r6eb)
p1138
ss(Vimage
p1139
g1115
NVmips32r6eb
p1140
tp1141
(dp1142
Vconfigs
p1143
(lp1144
Vkernelarch-mips/config.boston
p1145
aVkernelarch-mips/config.mips32r6
p1146
ass(g222
g1115
g191
tp1147
(dp1148
g225
(lp1149
Vmips32r6eb
p1150
asg229
I01
ss(Vbase
p1151
Vmipsr6el
p1152
tp1153
(dp1154
Vkernel-arch
p1155
Vmips
p1156
sg189
(lp1157
g191
ass(Vbuild
p1158
g1152
tp1159
(dp1160
Vimage-file
p1161
Vvmlinuz
p1162
ss(Vimage
p1163
g1152
tp1164
(dp1165
Vinstall-stem
p1166
Vvmlinuz
p1167
ss(Vdescription
p1168
g1152
NVmips32r6el
p1169
tp1170
(dp1171
Vhardware
p1172
VMIPS Generic (mips32r6el)
p1173
sVhardware-long
p1174
VMIPS Generic platform (mips32r6el)
p1175
ss(Vimage
p1176
g1152
NVmips32r6el
p1177
tp1178
(dp1179
Vconfigs
p1180
(lp1181
Vkernelarch-mips/config.boston
p1182
aVkernelarch-mips/config.mips32r6
p1183
ass(g222
g1152
g191
tp1184
(dp1185
g225
(lp1186
Vmips32r6el
p1187
asg229
I01
ss(Vbase
p1188
Vpowerpc
p1189
tp1190
(dp1191
Vkernel-arch
p1192
Vpowerpc
p1193
sg189
(lp1194
g191
ass(Vbuild
p1195
g1189
tp1196
(dp1197
Vimage-file
p1198
Vvmlinux
p1199
ss(Vimage
p1200
g1189
tp1201
(dp1202
Vconfigs
p1203
(lp1204
sVbootloaders
p1205
(lp1206
Vgrub-ieee1275
p1207
asVsuggests
p1208
(lp1209
Vmkvmlinuz
p1210
asVinstall-stem
p1211
Vvmlinux
p1212
ss(Vdescription
p1213
g1189
NVpowerpc
p1214
tp1215
(dp1216
Vhardware
p1217
Vuniprocessor 32-bit PowerPC
p1218
ss(Vdescription
p1219
g1189
NVpowerpc-smp
p1220
tp1221
(dp1222
Vhardware
p1223
Vmultiprocessor 32-bit PowerPC
p1224
ss(Vimage
p1225
g1189
NVpowerpc-smp
p1226
tp1227
(dp1228
Vconfigs
p1229
(lp1230
Vpowerpc/config.powerpc
p1231
aVpowerpc/config.powerpc-smp
p1232
ass(Vdescription
p1233
g1189
NVpowerpc64
p1234
tp1235
(dp1236
Vhardware
p1237
V64-bit PowerPC
p1238
ss(Vimage
p1239
g1189
NVpowerpc64
p1240
tp1241
(dp1242
Vconfigs
p1243
(lp1244
Vkernelarch-powerpc/config-arch-64
p1245
aVkernelarch-powerpc/config-arch-64-be
p1246
ass(g222
g1189
g191
tp1247
(dp1248
g225
(lp1249
Vpowerpc
p1250
aVpowerpc-smp
p1251
aVpowerpc64
p1252
asg229
I01
ss(Vbase
p1253
Vppc64
p1254
tp1255
(dp1256
Vdefault-flavour
p1257
Vpowerpc64
p1258
sVkernel-arch
p1259
Vpowerpc
p1260
sg189
(lp1261
g191
ass(Vbuild
p1262
g1254
tp1263
(dp1264
Vimage-file
p1265
Vvmlinux
p1266
ss(Vimage
p1267
g1254
tp1268
(dp1269
Vconfigs
p1270
(lp1271
sVbootloaders
p1272
(lp1273
Vgrub-ieee1275
p1274
asVsuggests
p1275
(lp1276
Vmkvmlinuz
p1277
asVinstall-stem
p1278
Vvmlinux
p1279
ss(Vdescription
p1280
g1254
NVpowerpc64
p1281
tp1282
(dp1283
Vhardware
p1284
V64-bit PowerPC
p1285
ss(Vimage
p1286
g1254
NVpowerpc64
p1287
tp1288
(dp1289
Vconfigs
p1290
(lp1291
Vkernelarch-powerpc/config-arch-64
p1292
aVkernelarch-powerpc/config-arch-64-be
p1293
ass(g222
g1254
g191
tp1294
(dp1295
g225
(lp1296
Vpowerpc64
p1297
asg229
I01
ss(Vbase
p1298
Vppc64el
p1299
tp1300
(dp1301
Vdefault-flavour
p1302
Vpowerpc64le
p1303
sVkernel-arch
p1304
Vpowerpc
p1305
sg189
(lp1306
g191
ass(Vbuild
p1307
g1299
tp1308
(dp1309
Vimage-file
p1310
Vvmlinux
p1311
ss(Vimage
p1312
g1299
tp1313
(dp1314
Vconfigs
p1315
(lp1316
sVbootloaders
p1317
(lp1318
Vgrub-ieee1275
p1319
asVsuggests
p1320
(lp1321
Vmkvmlinuz
p1322
asVinstall-stem
p1323
Vvmlinux
p1324
ss(Vdescription
p1325
g1299
NVpowerpc64le
p1326
tp1327
(dp1328
Vhardware
p1329
VLittle-endian 64-bit PowerPC
p1330
ss(Vimage
p1331
g1299
NVpowerpc64le
p1332
tp1333
(dp1334
Vconfigs
p1335
(lp1336
Vkernelarch-powerpc/config-arch-64
p1337
aVkernelarch-powerpc/config-arch-64-le
p1338
ass(g222
g1299
g191
tp1339
(dp1340
g225
(lp1341
Vpowerpc64le
p1342
asg229
I01
ss(Vbase
p1343
Vriscv64
p1344
tp1345
(dp1346
Vkernel-arch
p1347
Vriscv
p1348
sVfeaturesets
p1349
(lp1350
Vnone
p1351
ass(Vbuild
p1352
g1344
tp1353
(dp1354
Vimage-file
p1355
Varch/riscv/boot/Image
p1356
sVvdso
p1357
I01
ss(Vimage
p1358
g1344
tp1359
(dp1360
Vinstall-stem
p1361
Vvmlinux
p1362
ss(Vdescription
p1363
g1344
NVriscv64
p1364
tp1365
(dp1366
Vhardware
p1367
V64-bit RISC-V platforms
p1368
sVhardware-long
p1369
V64-bit RISC-V platforms
p1370
ss(Vbase
p1371
g1344
Vnone
p1372
tp1373
(dp1374
Vflavours
p1375
(lp1376
Vriscv64
p1377
asVdefault-flavour
p1378
Vriscv64
p1379
ss(Vbase
p1380
Vs390
p1381
tp1382
(dp1383
Vkernel-arch
p1384
Vs390
p1385
sVfeaturesets
p1386
(lp1387
ss(Vbase
p1388
Vs390x
p1389
tp1390
(dp1391
Vdefault-flavour
p1392
Vs390x
p1393
sVkernel-arch
p1394
Vs390
p1395
sg189
(lp1396
g191
ass(Vbuild
p1397
g1389
tp1398
(dp1399
Vimage-file
p1400
Varch/s390/boot/bzImage
p1401
sVvdso
p1402
I01
ss(Vimage
p1403
g1389
tp1404
(dp1405
Vbootloaders
p1406
(lp1407
Vs390-tools
p1408
asVinstall-stem
p1409
Vvmlinuz
p1410
ss(Vrelations
p1411
g1389
tp1412
(dp1413
Vheaders%gcc-12
p1414
Vlinux-compiler-gcc-12-s390
p1415
ss(Vdescription
p1416
g1389
NVs390x
p1417
tp1418
(dp1419
Vhardware
p1420
VIBM zSeries
p1421
ss(g222
g1389
g191
tp1422
(dp1423
g225
(lp1424
Vs390x
p1425
asg229
I01
ss(Vbase
p1426
Vsh3
p1427
tp1428
(dp1429
Vkernel-arch
p1430
Vsh
p1431
sVfeaturesets
p1432
(lp1433
ss(Vbase
p1434
Vsh4
p1435
tp1436
(dp1437
Vkernel-arch
p1438
Vsh
p1439
sg189
(lp1440
g191
ass(Vbuild
p1441
g1435
tp1442
(dp1443
Vimage-file
p1444
Varch/sh/boot/zImage
p1445
ss(Vimage
p1446
g1435
tp1447
(dp1448
Vinstall-stem
p1449
Vvmlinuz
p1450
ss(Vdescription
p1451
g1435
NVsh7751r
p1452
tp1453
(dp1454
Vhardware
p1455
Vsh7751r
p1456
sVhardware-long
p1457
VRenesas SH7751R R2D plus board
p1458
ss(Vdescription
p1459
g1435
NVsh7785lcr
p1460
tp1461
(dp1462
Vhardware
p1463
Vsh7785lcr
p1464
sVhardware-long
p1465
VRenesas SH7785 reference board
p1466
ss(Vimage
p1467
g1435
NVsh7785lcr
p1468
tp1469
(dp1470
Vrecommends
p1471
(lp1472
Vu-boot-tools
p1473
asVcheck-size
p1474
I4194304
ss(g222
g1435
g191
tp1475
(dp1476
g225
(lp1477
Vsh7751r
p1478
aVsh7785lcr
p1479
asg229
I01
ss(Vbase
p1480
Vsparc
p1481
tp1482
(dp1483
Vkernel-arch
p1484
Vsparc
p1485
sVfeaturesets
p1486
(lp1487
ss(Vbase
p1488
Vsparc64
p1489
tp1490
(dp1491
Vdefault-flavour
p1492
Vsparc64-smp
p1493
sVkernel-arch
p1494
Vsparc
p1495
sg189
(lp1496
g191
ass(Vbuild
p1497
g1489
tp1498
(dp1499
Vimage-file
p1500
Vvmlinux
p1501
ss(Vimage
p1502
g1489
tp1503
(dp1504
Vconfigs
p1505
(lp1506
sVbootloaders
p1507
(lp1508
Vgrub-ieee1275
p1509
asVsuggests
p1510
(lp1511
Vfdutils
p1512
asVinstall-stem
p1513
Vvmlinux
p1514
ss(Vdescription
p1515
g1489
NVsparc64
p1516
tp1517
(dp1518
Vhardware
p1519
Vuniprocessor 64-bit UltraSPARC
p1520
ss(Vimage
p1521
g1489
NVsparc64
p1522
tp1523
(dp1524
Vconfigs
p1525
(lp1526
Vkernelarch-sparc/config-up
p1527
ass(Vdescription
p1528
g1489
NVsparc64-smp
p1529
tp1530
(dp1531
Vhardware
p1532
Vmultiprocessor 64-bit UltraSPARC
p1533
ss(Vimage
p1534
g1489
NVsparc64-smp
p1535
tp1536
(dp1537
Vconfigs
p1538
(lp1539
Vkernelarch-sparc/config-smp
p1540
ass(g222
g1489
g191
tp1541
(dp1542
g225
(lp1543
Vsparc64
p1544
aVsparc64-smp
p1545
asg229
I01
ss(Vbase
p1546
Vx32
p1547
tp1548
(dp1549
Vkernel-arch
p1550
Vx86
p1551
sVfeaturesets
p1552
(lp1553
ss(Vabi
p1554
NVrt
p1555
tp1556
(dp1557
Vignore-changes
p1558
(lp1559
V*
p1560
ass(Vdescription
p1561
Ng1555
tp1562
(dp1563
Vpart-long-rt
p1564
VThis kernel includes the PREEMPT_RT realtime patch set.
p1565
sVpart-short-rt
p1566
VPREEMPT_RT
p1567
sVparts
p1568
(lp1569
Vrt
p1570
ass(Vversion
p1571
tp1572
(dp1573
Vsource
p1574
V6.1.94-1+rpi1
p1575
sVupstream
p1576
V6.1
p1577
sVabiname_base
p1578
V6.1.0
p1579
sVabiname
p1580
V6.1.0-22
p1581
ss.