cdebian_linux.config
ConfigCore
p0
(tRp1
(Vabi
p2
tp3
(dp4
Vabiname
p5
V1
p6
sVignore-changes
p7
(lp8
V__cpuhp_*
p9
aV__udp_gso_segment
p10
aVbpf_analyzer
p11
aVbpf_offload_dev_create
p12
aVbpf_verifier_log_write
p13
aVcxl_*
p14
aVdax_flush
p15
aVieee80211_nullfunc_get
p16
aVinet_add_protocol
p17
aVinet_del_protocol
p18
aViommu_device_*
p19
aVmm_iommu_*
p20
aVmv_mbus_*
p21
aVperf_*
p22
aVregister_cxl_calls
p23
aVregister_key_type
p24
aVunregister_cxl_calls
p25
aV*_hw_breakpoint
p26
aVmodule:drivers/crypto/ccp/*
p27
aVmodule:drivers/hv/*
p28
aVmodule:drivers/gpu/drm/sun4i/*
p29
aVmodule:drivers/iio/**
p30
aVmodule:drivers/misc/cxl/*
p31
aVmodule:drivers/misc/lis3lv02d/*
p32
aVmodule:drivers/mtd/nand/*
p33
aVmodule:drivers/net/ethernet/**
p34
aVmodule:drivers/net/wireless/**
p35
aVmodule:drivers/nvdimm/*
p36
aVmodule:drivers/nvme/**
p37
aVmodule:drivers/power/supply/bq27xxx_battery
p38
aVmodule:drivers/scsi/cxgbi/*
p39
aVmodule:drivers/scsi/libiscs*
p40
aVmodule:drivers/scsi/qla2xxx/qla2xxx
p41
aVmodule:drivers/scsi/ufs/*
p42
aVmodule:drivers/target/**
p43
aVmodule:drivers/usb/chipidea/**
p44
aVmodule:drivers/usb/gadget/**
p45
aVmodule:drivers/usb/host/**
p46
aVmodule:drivers/usb/musb/**
p47
aVmodule:fs/nfs/**
p48
aVmodule:net/ceph/libceph
p49
aVmodule:net/l2tp/**
p50
aVmodule:net/openvswitch/**
p51
aVmodule:net/rxrpc/rxrpc
p52
aVmodule:net/sctp/**
p53
aVmodule:sound/core/seq/**
p54
aVmodule:sound/firewire/snd-firewire-lib
p55
aVmodule:sound/pci/hda/*
p56
aVbtree_*
p57
aVvisitor*
p58
aVcan_rx_register
p59
aVip6_xmit
p60
aVmodule:net/dccp/dccp
p61
aVmodule:net/rds/rds
p62
aVdevfreq_*
p63
aVdevm_devfreq_*
p64
aVupdate_devfreq
p65
aVmodule:drivers/infiniband/**
p66
aVacpi_ec_add_query_handler
p67
aVacpi_ec_remove_query_handler
p68
aVfirst_ec
p69
aVdebugfs_create_automount
p70
aVmodule:drivers/iio/imu/inv_mpu6050/*
p71
aVdrm_crtc_accurate_vblank_count
p72
aVacpi_nfit_desc_init
p73
aVacpi_nfit_init
p74
aVloop_register_transfer
p75
aVxen_xlate_*
p76
aVnf_nat_masquerade_ipv4_register_notifier
p77
aVnf_nat_masquerade_ipv6_register_notifier
p78
aVdfltcc_*
p79
aVmodule:drivers/scsi/hisi_sas/*
p80
aV__gfn_*
p81
aV__kvmhv_*
p82
aV__kvm_*
p83
aV__xive_vm_h_*
p84
aVgfn_*
p85
aVh_ipi_redirect
p86
aVhalt_poll_ns*
p87
aVkvm_*
p88
aVkvmhv_*
p89
aVkvmppc_*
p90
aVmark_page_dirty
p91
aVvcpu_*
p92
aVmodule:arch/powerpc/kvm/*
p93
aVmodule:arch/s390/kvm/*
p94
aVmodule:arch/x86/kvm/*
p95
aVuv_info
p96
aVxhci_init_driver
p97
ass(Vbase
p98
tp99
(dp100
Varches
p101
(lp102
Valpha
p103
aVamd64
p104
aVarm64
p105
aVarm64ilp32
p106
aVarmel
p107
aVarmhf
p108
aVhppa
p109
aVi386
p110
aVia64
p111
aVm68k
p112
aVmips
p113
aVmips64
p114
aVmips64el
p115
aVmips64r6
p116
aVmips64r6el
p117
aVmipsel
p118
aVmipsn32
p119
aVmipsn32el
p120
aVmipsn32r6
p121
aVmipsn32r6el
p122
aVmipsr6
p123
aVmipsr6el
p124
aVpowerpc
p125
aVppc64
p126
aVppc64el
p127
aVriscv64
p128
aVs390
p129
aVs390x
p130
aVsh3
p131
aVsh4
p132
aVsparc
p133
aVsparc64
p134
aVx32
p135
asVcompiler
p136
Vgcc-11
p137
sVfeaturesets
p138
(lp139
Vnone
p140
aVrt
p141
ass(Vbuild
p142
tp143
(dp144
Vsigned-code
p145
I00
sVtrusted-certs
p146
Vdebian/certs/debian-uefi-certs.pem
p147
ss(Vbase
p148
NVrt
p149
tp150
(dp151
Venabled
p152
I01
ss(Vdescription
p153
tp154
(dp155
Vpart-long-up
p156
VThis kernel is not suitable for SMP (multi-processor,\u000amulti-core or hyper-threaded) systems.
p157
ss(Vimage
p158
tp159
(dp160
Vinitramfs-generators
p161
(lp162
Vinitramfs-tools
p163
aVinitramfs-fallback
p164
asVbreaks
p165
(lp166
Vfwupdate (<< 12-7)
p167
aVwireless-regdb (<< 2019.06.03-1~)
p168
asVrecommends
p169
(lp170
Vapparmor
p171
ass(Vrelations
p172
tp173
(dp174
Vgcc-11
p175
Vgcc-11 <!stage1 !cross !pkg.linux.nokernel>, gcc-11-@gnu-type-package@ <!stage1 cross !pkg.linux.nokernel>
p176
sVinitramfs-fallback
p177
Vlinux-initramfs-tool
p178
sVinitramfs-tools
p179
Vinitramfs-tools (>= 0.120+deb8u2)
p180
ss(Vbase
p181
Valpha
p182
tp183
(dp184
Vdefault-flavour
p185
Valpha-smp
p186
sVkernel-arch
p187
Valpha
p188
sVfeaturesets
p189
(lp190
Vnone
p191
ass(Vbuild
p192
g182
tp193
(dp194
Vimage-file
p195
Varch/alpha/boot/vmlinux.gz
p196
ss(Vimage
p197
g182
tp198
(dp199
Vsuggests
p200
(lp201
Vaboot
p202
aVfdutils
p203
asVinstall-stem
p204
Vvmlinuz
p205
ss(Vdescription
p206
g182
NValpha-generic
p207
tp208
(dp209
Vhardware
p210
VAlpha
p211
sVhardware-long
p212
VDEC Alpha systems with extended kernel start address (Wildfire, Titan, Marvel)
p213
ss(Vdescription
p214
g182
NValpha-smp
p215
tp216
(dp217
Vhardware
p218
VAlpha SMP
p219
sVhardware-long
p220
VDEC Alpha SMP systems with extended kernel start address (Wildfire, Titan, Marvel)
p221
ss(Vbase
p222
g182
g191
tp223
(dp224
Vflavours
p225
(lp226
Valpha-generic
p227
aValpha-smp
p228
asVimplicit-flavour
p229
I01
ss(Vbase
p230
Vamd64
p231
tp232
(dp233
Vfeaturesets
p234
(lp235
Vnone
p236
aVrt
p237
asVkernel-arch
p238
Vx86
p239
ss(Vbuild
p240
g231
tp241
(dp242
Vimage-file
p243
Varch/x86/boot/bzImage
p244
sVsigned-code
p245
I01
sVvdso
p246
I01
ss(Vimage
p247
g231
tp248
(dp249
Vbootloaders
p250
(lp251
Vgrub-pc
p252
aVgrub-efi-amd64
p253
aVextlinux
p254
asVinstall-stem
p255
Vvmlinuz
p256
sVbreaks
p257
(lp258
Vxserver-xorg-input-vmmouse (<< 1:13.0.99)
p259
ass(Vrelations
p260
g231
tp261
(dp262
Vheaders%gcc-11
p263
Vlinux-compiler-gcc-11-x86
p264
ss(Vdescription
p265
g231
NVamd64
p266
tp267
(dp268
Vhardware
p269
V64-bit PCs
p270
sVhardware-long
p271
VPCs with AMD64, Intel 64 or VIA Nano processors
p272
ss(Vdescription
p273
g231
NVcloud-amd64
p274
tp275
(dp276
Vhardware
p277
Vx86-64 cloud
p278
sVhardware-long
p279
Vcloud platforms including Amazon EC2, Microsoft Azure, and Google Compute Engine
p280
ss(Vbase
p281
g231
Vnone
p282
tp283
(dp284
Vflavours
p285
(lp286
Vamd64
p287
aVcloud-amd64
p288
asVdefault-flavour
p289
Vamd64
p290
sVquick-flavour
p291
Vcloud-amd64
p292
ss(Vimage
p293
g231
g282
Vcloud-amd64
p294
tp295
(dp296
Vconfigs
p297
(lp298
Vconfig.cloud
p299
aVamd64/config.cloud-amd64
p300
ass(Vbase
p301
g231
Vrt
p302
tp303
(dp304
Vflavours
p305
(lp306
Vamd64
p307
ass(Vbase
p308
Varm64
p309
tp310
(dp311
Vcross-compile-compat
p312
Varm-linux-gnueabihf-
p313
sVkernel-arch
p314
Varm64
p315
sVfeaturesets
p316
(lp317
Vnone
p318
aVrt
p319
ass(Vbuild
p320
g309
tp321
(dp322
Vimage-file
p323
Varch/arm64/boot/Image
p324
sVsigned-code
p325
I01
sVvdso
p326
I01
ss(Vimage
p327
g309
tp328
(dp329
Vinstall-stem
p330
Vvmlinuz
p331
sVbreaks
p332
(lp333
Vlibmozjs185-1.0
p334
aVlibmozjs-24-0 (<< 24.2.0-5.1~)
p335
ass(Vdescription
p336
g309
NVarm64
p337
tp338
(dp339
Vhardware
p340
V64-bit ARMv8 machines
p341
ss(Vdescription
p342
g309
NVcloud-arm64
p343
tp344
(dp345
Vhardware
p346
Varm64 cloud
p347
sVhardware-long
p348
Vcloud platforms supporting arm64 virtual machines
p349
ss(Vimage
p350
g309
NVarm64
p351
tp352
(dp353
s(Vrelations
p354
g309
tp355
(dp356
Vgcc-11
p357
Vgcc-11 <!stage1 !cross !pkg.linux.nokernel>, gcc-11-aarch64-linux-gnu <!stage1 cross !pkg.linux.nokernel>, gcc-arm-linux-gnueabihf <!stage1 !pkg.linux.nokernel>
p358
sVheaders%gcc-11
p359
Vgcc-11
p360
ss(Vbase
p361
g309
Vnone
p362
tp363
(dp364
Vflavours
p365
(lp366
Varm64
p367
aVcloud-arm64
p368
asVdefault-flavour
p369
Varm64
p370
sVquick-flavour
p371
Vcloud-arm64
p372
ss(Vimage
p373
g309
g362
Vcloud-arm64
p374
tp375
(dp376
Vconfigs
p377
(lp378
Vconfig.cloud
p379
aVarm64/config.cloud-arm64
p380
ass(Vbase
p381
g309
Vrt
p382
tp383
(dp384
Vflavours
p385
(lp386
Varm64
p387
ass(Vbase
p388
Varm64ilp32
p389
tp390
(dp391
Vkernel-arch
p392
Varm64
p393
sVfeaturesets
p394
(lp395
ss(Vbase
p396
Varmel
p397
tp398
(dp399
Vkernel-arch
p400
Varm
p401
sg189
(lp402
g191
ass(Vbuild
p403
g397
tp404
(dp405
Vimage-file
p406
Varch/arm/boot/zImage
p407
sVuncompressed-image-file
p408
Varch/arm/boot/Image
p409
ss(Vimage
p410
g397
tp411
(dp412
Vinstall-stem
p413
Vvmlinuz
p414
ss(Vrelations
p415
g397
tp416
(dp417
Vheaders%gcc-11
p418
Vlinux-compiler-gcc-11-arm
p419
ss(Vdescription
p420
g397
NVmarvell
p421
tp422
(dp423
Vhardware
p424
VMarvell Kirkwood/Orion
p425
sVhardware-long
p426
VMarvell Kirkwood and Orion based systems (https://wiki.debian.org/ArmEabiPort#Supported_hardware)
p427
ss(Vdescription
p428
g397
NVrpi
p429
tp430
(dp431
Vhardware
p432
VRaspberry Pi Zero, Zero W and 1
p433
sVhardware-long
p434
VRaspberry Pi Zero, Zero W and 1 based systems
p435
ss(Vimage
p436
g397
NVmarvell
p437
tp438
(dp439
Vrecommends
p440
(lp441
Vu-boot-tools
p442
asVcheck-size
p443
I2729712
sVcheck-size-with-dtb
p444
I01
sVbreaks
p445
(lp446
Vflash-kernel (<< 3.57~)
p447
ass(g222
g397
g191
tp448
(dp449
g225
(lp450
Vmarvell
p451
aVrpi
p452
asg229
I01
ss(Vbase
p453
Varmhf
p454
tp455
(dp456
Vfeaturesets
p457
(lp458
sVkernel-arch
p459
Varm
p460
ss(Vbase
p461
Vhppa
p462
tp463
(dp464
Vdefault-flavour
p465
Vparisc
p466
sVkernel-arch
p467
Vparisc
p468
sg189
(lp469
g191
ass(Vbuild
p470
g462
tp471
(dp472
Vimage-file
p473
Varch/parisc/boot/bzImage
p474
ss(Vimage
p475
g462
tp476
(dp477
Vsuggests
p478
(lp479
Vpalo
p480
asVinstall-stem
p481
Vvmlinuz
p482
ss(Vdescription
p483
g462
NVparisc
p484
tp485
(dp486
Vhardware
p487
V32-bit PA-RISC
p488
sVhardware-long
p489
VHP PA-RISC 32-bit systems with max 4 GB RAM
p490
ss(Vbase
p491
g462
NVparisc64
p492
tp493
(dp494
Vcflags
p495
V-fno-cse-follow-jumps
p496
sVoverride-host-type
p497
Vhppa64-linux-gnu
p498
ss(Vdescription
p499
g462
NVparisc64
p500
tp501
(dp502
Vhardware
p503
V64-bit PA-RISC
p504
sVhardware-long
p505
VHP PA-RISC 64-bit systems with support for more than 4 GB RAM
p506
ss(Vrelations
p507
g462
tp508
(dp509
Vgcc-11
p510
Vgcc-11 <!stage1 !cross !pkg.linux.nokernel>, gcc-11-hppa-linux-gnu <!stage1 cross !pkg.linux.nokernel>, binutils-hppa64-linux-gnu <!stage1 !pkg.linux.nokernel>, gcc-11-hppa64-linux-gnu <!stage1 !pkg.linux.nokernel>
p511
ss(g222
g462
g191
tp512
(dp513
g225
(lp514
Vparisc
p515
aVparisc64
p516
asg229
I01
ss(Vbase
p517
Vi386
p518
tp519
(dp520
Vfeaturesets
p521
(lp522
Vnone
p523
aVrt
p524
asVkernel-arch
p525
Vx86
p526
ss(Vbuild
p527
g518
tp528
(dp529
Vimage-file
p530
Varch/x86/boot/bzImage
p531
sVsigned-code
p532
I01
sVvdso
p533
I01
ss(Vdescription
p534
g518
tp535
(dp536
Vpart-long-pae
p537
VThis kernel requires PAE (Physical Address Extension).\u000aThis feature is supported by the Intel Pentium Pro/II/III/4/4M/D, Xeon,\u000aCore and Atom; AMD Geode NX, Athlon (K7), Duron, Opteron, Sempron,\u000aTurion or Phenom; Transmeta Efficeon; VIA C7; and some other processors.
p538
ss(Vimage
p539
g518
tp540
(dp541
Vbootloaders
p542
(lp543
Vgrub-pc
p544
aVgrub-efi-ia32
p545
aVextlinux
p546
asVinstall-stem
p547
Vvmlinuz
p548
sVbreaks
p549
(lp550
Vxserver-xorg-input-vmmouse (<< 1:13.0.99)
p551
ass(Vrelations
p552
g518
tp553
(dp554
Vheaders%gcc-11
p555
Vlinux-compiler-gcc-11-x86
p556
ss(Vdescription
p557
g518
NV686
p558
tp559
(dp560
Vhardware
p561
Volder PCs
p562
sVhardware-long
p563
VPCs with one or more processors not supporting PAE
p564
ss(Vdescription
p565
g518
NV686-pae
p566
tp567
(dp568
Vhardware
p569
Vmodern PCs
p570
sVhardware-long
p571
VPCs with one or more processors supporting PAE
p572
sVparts
p573
(lp574
Vpae
p575
ass(Vbase
p576
g518
Vnone
p577
tp578
(dp579
Vflavours
p580
(lp581
V686
p582
aV686-pae
p583
asVdefault-flavour
p584
V686-pae
p585
ss(Vbase
p586
g518
Vrt
p587
tp588
(dp589
Vflavours
p590
(lp591
V686-pae
p592
ass(Vbase
p593
Via64
p594
tp595
(dp596
Vdefault-flavour
p597
Vitanium
p598
sVkernel-arch
p599
Via64
p600
sg189
(lp601
g191
ass(Vbuild
p602
g594
tp603
(dp604
Vimage-file
p605
Vvmlinux.gz
p606
ss(Vimage
p607
g594
tp608
(dp609
Vbootloaders
p610
(lp611
Vgrub-efi-ia64
p612
asVinstall-stem
p613
Vvmlinuz
p614
ss(Vdescription
p615
g594
NVitanium
p616
tp617
(dp618
Vhardware
p619
VItanium (Merced)
p620
sVhardware-long
p621
Vsystems with original Itanium (Merced) processors
p622
ss(Vdescription
p623
g594
NVmckinley
p624
tp625
(dp626
Vhardware
p627
VItanium 2+
p628
sVhardware-long
p629
Vsystems with Itanium 2 or 9300/9500/9700-series processors
p630
ss(g222
g594
g191
tp631
(dp632
g225
(lp633
Vitanium
p634
aVmckinley
p635
asg229
I01
ss(Vbase
p636
Vm68k
p637
tp638
(dp639
Vcflags
p640
V-ffreestanding
p641
sVdefault-flavour
p642
Vm68k
p643
sVkernel-arch
p644
Vm68k
p645
sg189
(lp646
g191
ass(Vbuild
p647
g637
tp648
(dp649
Vimage-file
p650
Vvmlinux
p651
ss(Vimage
p652
g637
tp653
(dp654
Vsuggests
p655
(lp656
Vvmelilo
p657
aVfdutils
p658
asVinstall-stem
p659
Vvmlinux
p660
ss(Vdescription
p661
g637
NVm68k
p662
tp663
(dp664
Vhardware
p665
VMotorola MC68020+ family
p666
ss(g222
g637
g191
tp667
(dp668
g225
(lp669
Vm68k
p670
asg229
I01
ss(Vbase
p671
Vmips
p672
tp673
(dp674
Vkernel-arch
p675
Vmips
p676
sg189
(lp677
g191
ass(Vbuild
p678
g672
tp679
(dp680
Vimage-file
p681
Vvmlinuz
p682
ss(Vimage
p683
g672
tp684
(dp685
Vinstall-stem
p686
Vvmlinuz
p687
ss(Vdescription
p688
g672
NV4kc-malta
p689
tp690
(dp691
Vhardware
p692
VMIPS Malta
p693
sVhardware-long
p694
VMIPS Malta boards
p695
ss(Vimage
p696
g672
NV4kc-malta
p697
tp698
(dp699
Vconfigs
p700
(lp701
Vkernelarch-mips/config.malta
p702
aVkernelarch-mips/config.mips32r2
p703
ass(Vdescription
p704
g672
NVmips32r2eb
p705
tp706
(dp707
Vhardware
p708
VMIPS Generic (mips32r2eb)
p709
sVhardware-long
p710
VMIPS Generic platform (mips32r2eb)
p711
ss(Vimage
p712
g672
NVmips32r2eb
p713
tp714
(dp715
Vconfigs
p716
(lp717
Vkernelarch-mips/config.boston
p718
aVkernelarch-mips/config.mips32r2
p719
ass(Vdescription
p720
g672
NVocteon
p721
tp722
(dp723
Vhardware
p724
VOcteon
p725
sVhardware-long
p726
VCavium Networks Octeon
p727
ss(Vbuild
p728
g672
NVocteon
p729
tp730
(dp731
Vimage-file
p732
Vvmlinux
p733
ss(Vimage
p734
g672
NVocteon
p735
tp736
(dp737
Vinstall-stem
p738
Vvmlinux
p739
sVconfigs
p740
(lp741
Vkernelarch-mips/config.octeon
p742
ass(g222
g672
g191
tp743
(dp744
g225
(lp745
V4kc-malta
p746
aVmips32r2eb
p747
aVocteon
p748
asg229
I01
ss(Vbase
p749
Vmips64
p750
tp751
(dp752
Vkernel-arch
p753
Vmips
p754
sg189
(lp755
g191
ass(Vbuild
p756
g750
tp757
(dp758
Vimage-file
p759
Vvmlinuz
p760
ss(Vimage
p761
g750
tp762
(dp763
Vinstall-stem
p764
Vvmlinuz
p765
ss(Vdescription
p766
g750
NV5kc-malta
p767
tp768
(dp769
Vhardware
p770
VMIPS Malta
p771
sVhardware-long
p772
VMIPS Malta boards
p773
ss(Vimage
p774
g750
NV5kc-malta
p775
tp776
(dp777
Vconfigs
p778
(lp779
Vkernelarch-mips/config.malta
p780
aVkernelarch-mips/config.mips64r2
p781
ass(Vdescription
p782
g750
NVmips64r2eb
p783
tp784
(dp785
Vhardware
p786
VMIPS Generic (mips64r2eb)
p787
sVhardware-long
p788
VMIPS Generic platform (mips64r2eb)
p789
ss(Vimage
p790
g750
NVmips64r2eb
p791
tp792
(dp793
Vconfigs
p794
(lp795
Vkernelarch-mips/config.boston
p796
aVkernelarch-mips/config.mips64r2
p797
ass(Vdescription
p798
g750
NVocteon
p799
tp800
(dp801
Vhardware
p802
VOcteon
p803
sVhardware-long
p804
VCavium Networks Octeon
p805
ss(Vbuild
p806
g750
NVocteon
p807
tp808
(dp809
Vimage-file
p810
Vvmlinux
p811
ss(Vimage
p812
g750
NVocteon
p813
tp814
(dp815
Vinstall-stem
p816
Vvmlinux
p817
sVconfigs
p818
(lp819
Vkernelarch-mips/config.octeon
p820
ass(g222
g750
g191
tp821
(dp822
g225
(lp823
V5kc-malta
p824
aVmips64r2eb
p825
aVocteon
p826
asg229
I01
ss(Vbase
p827
Vmips64el
p828
tp829
(dp830
Vkernel-arch
p831
Vmips
p832
sg189
(lp833
g191
ass(Vbuild
p834
g828
tp835
(dp836
Vimage-file
p837
Vvmlinuz
p838
ss(Vimage
p839
g828
tp840
(dp841
Vinstall-stem
p842
Vvmlinuz
p843
ss(Vdescription
p844
g828
NV5kc-malta
p845
tp846
(dp847
Vhardware
p848
VMIPS Malta
p849
sVhardware-long
p850
VMIPS Malta boards
p851
ss(Vimage
p852
g828
NV5kc-malta
p853
tp854
(dp855
Vconfigs
p856
(lp857
Vkernelarch-mips/config.malta
p858
aVkernelarch-mips/config.mips64r2
p859
ass(Vdescription
p860
g828
NVmips64r2el
p861
tp862
(dp863
Vhardware
p864
VMIPS Generic (mips64r2eb)
p865
sVhardware-long
p866
VMIPS Generic platform (mips64r2eb)
p867
ss(Vimage
p868
g828
NVmips64r2el
p869
tp870
(dp871
Vconfigs
p872
(lp873
Vkernelarch-mips/config.boston
p874
aVkernelarch-mips/config.mips64r2
p875
ass(Vdescription
p876
g828
NVloongson-3
p877
tp878
(dp879
Vhardware
p880
VLoongson 3A/3B
p881
sVhardware-long
p882
VLoongson 3A or 3B based systems (e.g. from Loongson or Lemote)
p883
ss(Vimage
p884
g828
NVloongson-3
p885
tp886
(dp887
Vrecommends
p888
(lp889
Vpmon-update
p890
asVconfigs
p891
(lp892
Vkernelarch-mips/config.loongson-3
p893
ass(Vdescription
p894
g828
NVocteon
p895
tp896
(dp897
Vhardware
p898
VOcteon
p899
sVhardware-long
p900
VCavium Networks Octeon
p901
ss(Vbuild
p902
g828
NVocteon
p903
tp904
(dp905
Vimage-file
p906
Vvmlinux
p907
ss(Vimage
p908
g828
NVocteon
p909
tp910
(dp911
Vinstall-stem
p912
Vvmlinux
p913
sVconfigs
p914
(lp915
Vkernelarch-mips/config.octeon
p916
ass(g222
g828
g191
tp917
(dp918
g225
(lp919
V5kc-malta
p920
aVmips64r2el
p921
aVloongson-3
p922
aVocteon
p923
asg229
I01
ss(Vbase
p924
Vmips64r6
p925
tp926
(dp927
Vkernel-arch
p928
Vmips
p929
sg189
(lp930
g191
ass(Vbuild
p931
g925
tp932
(dp933
Vimage-file
p934
Vvmlinuz
p935
ss(Vimage
p936
g925
tp937
(dp938
Vinstall-stem
p939
Vvmlinuz
p940
ss(Vdescription
p941
g925
NVmips64r6eb
p942
tp943
(dp944
Vhardware
p945
VMIPS Generic (mips64r6eb)
p946
sVhardware-long
p947
VMIPS Generic platform (mips64r6eb)
p948
ss(Vimage
p949
g925
NVmips64r6eb
p950
tp951
(dp952
Vconfigs
p953
(lp954
Vkernelarch-mips/config.boston
p955
aVkernelarch-mips/config.mips64r6
p956
ass(g222
g925
g191
tp957
(dp958
g225
(lp959
Vmips64r6eb
p960
asg229
I01
ss(Vbase
p961
Vmips64r6el
p962
tp963
(dp964
Vkernel-arch
p965
Vmips
p966
sg189
(lp967
g191
ass(Vbuild
p968
g962
tp969
(dp970
Vimage-file
p971
Vvmlinuz
p972
ss(Vimage
p973
g962
tp974
(dp975
Vinstall-stem
p976
Vvmlinuz
p977
ss(Vdescription
p978
g962
NVmips64r6el
p979
tp980
(dp981
Vhardware
p982
VMIPS Generic (mips64r6el)
p983
sVhardware-long
p984
VMIPS Generic platform (mips64r6el)
p985
ss(Vimage
p986
g962
NVmips64r6el
p987
tp988
(dp989
Vconfigs
p990
(lp991
Vkernelarch-mips/config.boston
p992
aVkernelarch-mips/config.mips64r6
p993
ass(g222
g962
g191
tp994
(dp995
g225
(lp996
Vmips64r6el
p997
asg229
I01
ss(Vbase
p998
Vmipsel
p999
tp1000
(dp1001
Vkernel-arch
p1002
Vmips
p1003
sg189
(lp1004
g191
ass(Vbuild
p1005
g999
tp1006
(dp1007
Vimage-file
p1008
Vvmlinuz
p1009
ss(Vimage
p1010
g999
tp1011
(dp1012
Vinstall-stem
p1013
Vvmlinuz
p1014
ss(Vdescription
p1015
g999
NV4kc-malta
p1016
tp1017
(dp1018
Vhardware
p1019
VMIPS Malta
p1020
sVhardware-long
p1021
VMIPS Malta boards
p1022
ss(Vimage
p1023
g999
NV4kc-malta
p1024
tp1025
(dp1026
Vconfigs
p1027
(lp1028
Vkernelarch-mips/config.malta
p1029
aVkernelarch-mips/config.mips32r2
p1030
ass(Vdescription
p1031
g999
NVmips32r2el
p1032
tp1033
(dp1034
Vhardware
p1035
VMIPS Generic (mips32r2el)
p1036
sVhardware-long
p1037
VMIPS Generic platform (mips32r2el)
p1038
ss(Vimage
p1039
g999
NVmips32r2el
p1040
tp1041
(dp1042
Vconfigs
p1043
(lp1044
Vkernelarch-mips/config.boston
p1045
aVkernelarch-mips/config.mips32r2
p1046
ass(Vdescription
p1047
g999
NVloongson-3
p1048
tp1049
(dp1050
Vhardware
p1051
VLoongson 3A/3B
p1052
sVhardware-long
p1053
VLoongson 3A or 3B based systems (e.g. from Loongson or Lemote)
p1054
ss(Vimage
p1055
g999
NVloongson-3
p1056
tp1057
(dp1058
Vrecommends
p1059
(lp1060
Vpmon-update
p1061
asVconfigs
p1062
(lp1063
Vkernelarch-mips/config.loongson-3
p1064
ass(Vdescription
p1065
g999
NVocteon
p1066
tp1067
(dp1068
Vhardware
p1069
VOcteon
p1070
sVhardware-long
p1071
VCavium Networks Octeon
p1072
ss(Vbuild
p1073
g999
NVocteon
p1074
tp1075
(dp1076
Vimage-file
p1077
Vvmlinux
p1078
ss(Vimage
p1079
g999
NVocteon
p1080
tp1081
(dp1082
Vinstall-stem
p1083
Vvmlinux
p1084
sVconfigs
p1085
(lp1086
Vkernelarch-mips/config.octeon
p1087
ass(g222
g999
g191
tp1088
(dp1089
g225
(lp1090
V4kc-malta
p1091
aVmips32r2el
p1092
aVloongson-3
p1093
aVocteon
p1094
asg229
I01
ss(Vbase
p1095
Vmipsn32
p1096
tp1097
(dp1098
Vkernel-arch
p1099
Vmips
p1100
sVfeaturesets
p1101
(lp1102
ss(Vbase
p1103
Vmipsn32el
p1104
tp1105
(dp1106
Vkernel-arch
p1107
Vmips
p1108
sVfeaturesets
p1109
(lp1110
ss(Vbase
p1111
Vmipsn32r6
p1112
tp1113
(dp1114
Vkernel-arch
p1115
Vmips
p1116
sVfeaturesets
p1117
(lp1118
ss(Vbase
p1119
Vmipsn32r6el
p1120
tp1121
(dp1122
Vkernel-arch
p1123
Vmips
p1124
sVfeaturesets
p1125
(lp1126
ss(Vbase
p1127
Vmipsr6
p1128
tp1129
(dp1130
Vkernel-arch
p1131
Vmips
p1132
sg189
(lp1133
g191
ass(Vbuild
p1134
g1128
tp1135
(dp1136
Vimage-file
p1137
Vvmlinuz
p1138
ss(Vimage
p1139
g1128
tp1140
(dp1141
Vinstall-stem
p1142
Vvmlinuz
p1143
ss(Vdescription
p1144
g1128
NVmips32r6eb
p1145
tp1146
(dp1147
Vhardware
p1148
VMIPS Generic (mips32r6eb)
p1149
sVhardware-long
p1150
VMIPS Generic platform (mips32r6eb)
p1151
ss(Vimage
p1152
g1128
NVmips32r6eb
p1153
tp1154
(dp1155
Vconfigs
p1156
(lp1157
Vkernelarch-mips/config.boston
p1158
aVkernelarch-mips/config.mips32r6
p1159
ass(g222
g1128
g191
tp1160
(dp1161
g225
(lp1162
Vmips32r6eb
p1163
asg229
I01
ss(Vbase
p1164
Vmipsr6el
p1165
tp1166
(dp1167
Vkernel-arch
p1168
Vmips
p1169
sg189
(lp1170
g191
ass(Vbuild
p1171
g1165
tp1172
(dp1173
Vimage-file
p1174
Vvmlinuz
p1175
ss(Vimage
p1176
g1165
tp1177
(dp1178
Vinstall-stem
p1179
Vvmlinuz
p1180
ss(Vdescription
p1181
g1165
NVmips32r6el
p1182
tp1183
(dp1184
Vhardware
p1185
VMIPS Generic (mips32r6el)
p1186
sVhardware-long
p1187
VMIPS Generic platform (mips32r6el)
p1188
ss(Vimage
p1189
g1165
NVmips32r6el
p1190
tp1191
(dp1192
Vconfigs
p1193
(lp1194
Vkernelarch-mips/config.boston
p1195
aVkernelarch-mips/config.mips32r6
p1196
ass(g222
g1165
g191
tp1197
(dp1198
g225
(lp1199
Vmips32r6el
p1200
asg229
I01
ss(Vbase
p1201
Vpowerpc
p1202
tp1203
(dp1204
Vkernel-arch
p1205
Vpowerpc
p1206
sg189
(lp1207
g191
ass(Vbuild
p1208
g1202
tp1209
(dp1210
Vimage-file
p1211
Vvmlinux
p1212
ss(Vimage
p1213
g1202
tp1214
(dp1215
Vconfigs
p1216
(lp1217
sVbootloaders
p1218
(lp1219
Vgrub-ieee1275
p1220
asVsuggests
p1221
(lp1222
Vmkvmlinuz
p1223
asVinstall-stem
p1224
Vvmlinux
p1225
ss(Vdescription
p1226
g1202
NVpowerpc
p1227
tp1228
(dp1229
Vhardware
p1230
Vuniprocessor 32-bit PowerPC
p1231
ss(Vdescription
p1232
g1202
NVpowerpc-smp
p1233
tp1234
(dp1235
Vhardware
p1236
Vmultiprocessor 32-bit PowerPC
p1237
ss(Vimage
p1238
g1202
NVpowerpc-smp
p1239
tp1240
(dp1241
Vconfigs
p1242
(lp1243
Vpowerpc/config.powerpc
p1244
aVpowerpc/config.powerpc-smp
p1245
ass(Vdescription
p1246
g1202
NVpowerpc64
p1247
tp1248
(dp1249
Vhardware
p1250
V64-bit PowerPC
p1251
ss(Vimage
p1252
g1202
NVpowerpc64
p1253
tp1254
(dp1255
Vconfigs
p1256
(lp1257
Vkernelarch-powerpc/config-arch-64
p1258
aVkernelarch-powerpc/config-arch-64-be
p1259
ass(g222
g1202
g191
tp1260
(dp1261
g225
(lp1262
Vpowerpc
p1263
aVpowerpc-smp
p1264
aVpowerpc64
p1265
asg229
I01
ss(Vbase
p1266
Vppc64
p1267
tp1268
(dp1269
Vdefault-flavour
p1270
Vpowerpc64
p1271
sVkernel-arch
p1272
Vpowerpc
p1273
sg189
(lp1274
g191
ass(Vbuild
p1275
g1267
tp1276
(dp1277
Vimage-file
p1278
Vvmlinux
p1279
ss(Vimage
p1280
g1267
tp1281
(dp1282
Vconfigs
p1283
(lp1284
sVbootloaders
p1285
(lp1286
Vgrub-ieee1275
p1287
asVsuggests
p1288
(lp1289
Vmkvmlinuz
p1290
asVinstall-stem
p1291
Vvmlinux
p1292
ss(Vdescription
p1293
g1267
NVpowerpc64
p1294
tp1295
(dp1296
Vhardware
p1297
V64-bit PowerPC
p1298
ss(Vimage
p1299
g1267
NVpowerpc64
p1300
tp1301
(dp1302
Vconfigs
p1303
(lp1304
Vkernelarch-powerpc/config-arch-64
p1305
aVkernelarch-powerpc/config-arch-64-be
p1306
ass(g222
g1267
g191
tp1307
(dp1308
g225
(lp1309
Vpowerpc64
p1310
asg229
I01
ss(Vbase
p1311
Vppc64el
p1312
tp1313
(dp1314
Vdefault-flavour
p1315
Vpowerpc64le
p1316
sVkernel-arch
p1317
Vpowerpc
p1318
sg189
(lp1319
g191
ass(Vbuild
p1320
g1312
tp1321
(dp1322
Vimage-file
p1323
Vvmlinux
p1324
ss(Vimage
p1325
g1312
tp1326
(dp1327
Vconfigs
p1328
(lp1329
sVbootloaders
p1330
(lp1331
Vgrub-ieee1275
p1332
asVsuggests
p1333
(lp1334
Vmkvmlinuz
p1335
asVinstall-stem
p1336
Vvmlinux
p1337
ss(Vdescription
p1338
g1312
NVpowerpc64le
p1339
tp1340
(dp1341
Vhardware
p1342
VLittle-endian 64-bit PowerPC
p1343
ss(Vimage
p1344
g1312
NVpowerpc64le
p1345
tp1346
(dp1347
Vconfigs
p1348
(lp1349
Vkernelarch-powerpc/config-arch-64
p1350
aVkernelarch-powerpc/config-arch-64-le
p1351
ass(g222
g1312
g191
tp1352
(dp1353
g225
(lp1354
Vpowerpc64le
p1355
asg229
I01
ss(Vbase
p1356
Vriscv64
p1357
tp1358
(dp1359
Vkernel-arch
p1360
Vriscv
p1361
sVfeaturesets
p1362
(lp1363
Vnone
p1364
ass(Vbuild
p1365
g1357
tp1366
(dp1367
Vimage-file
p1368
Varch/riscv/boot/Image
p1369
sVvdso
p1370
I01
ss(Vimage
p1371
g1357
tp1372
(dp1373
Vinstall-stem
p1374
Vvmlinux
p1375
ss(Vdescription
p1376
g1357
NVriscv64
p1377
tp1378
(dp1379
Vhardware
p1380
V64-bit RISC-V platforms
p1381
sVhardware-long
p1382
V64-bit RISC-V platforms
p1383
ss(Vbase
p1384
g1357
Vnone
p1385
tp1386
(dp1387
Vflavours
p1388
(lp1389
Vriscv64
p1390
asVdefault-flavour
p1391
Vriscv64
p1392
ss(Vbase
p1393
Vs390
p1394
tp1395
(dp1396
Vkernel-arch
p1397
Vs390
p1398
sVfeaturesets
p1399
(lp1400
ss(Vbase
p1401
Vs390x
p1402
tp1403
(dp1404
Vdefault-flavour
p1405
Vs390x
p1406
sVkernel-arch
p1407
Vs390
p1408
sg189
(lp1409
g191
ass(Vbuild
p1410
g1402
tp1411
(dp1412
Vimage-file
p1413
Varch/s390/boot/bzImage
p1414
sVvdso
p1415
I01
ss(Vimage
p1416
g1402
tp1417
(dp1418
Vbootloaders
p1419
(lp1420
Vs390-tools
p1421
asVinstall-stem
p1422
Vvmlinuz
p1423
ss(Vrelations
p1424
g1402
tp1425
(dp1426
Vheaders%gcc-11
p1427
Vlinux-compiler-gcc-11-s390
p1428
ss(Vdescription
p1429
g1402
NVs390x
p1430
tp1431
(dp1432
Vhardware
p1433
VIBM zSeries
p1434
ss(g222
g1402
g191
tp1435
(dp1436
g225
(lp1437
Vs390x
p1438
asg229
I01
ss(Vbase
p1439
Vsh3
p1440
tp1441
(dp1442
Vkernel-arch
p1443
Vsh
p1444
sVfeaturesets
p1445
(lp1446
ss(Vbase
p1447
Vsh4
p1448
tp1449
(dp1450
Vkernel-arch
p1451
Vsh
p1452
sg189
(lp1453
g191
ass(Vbuild
p1454
g1448
tp1455
(dp1456
Vimage-file
p1457
Varch/sh/boot/zImage
p1458
ss(Vimage
p1459
g1448
tp1460
(dp1461
Vinstall-stem
p1462
Vvmlinuz
p1463
ss(Vdescription
p1464
g1448
NVsh7751r
p1465
tp1466
(dp1467
Vhardware
p1468
Vsh7751r
p1469
sVhardware-long
p1470
VRenesas SH7751R R2D plus board
p1471
ss(Vdescription
p1472
g1448
NVsh7785lcr
p1473
tp1474
(dp1475
Vhardware
p1476
Vsh7785lcr
p1477
sVhardware-long
p1478
VRenesas SH7785 reference board
p1479
ss(Vimage
p1480
g1448
NVsh7785lcr
p1481
tp1482
(dp1483
Vrecommends
p1484
(lp1485
Vu-boot-tools
p1486
asVcheck-size
p1487
I4194304
ss(g222
g1448
g191
tp1488
(dp1489
g225
(lp1490
Vsh7751r
p1491
aVsh7785lcr
p1492
asg229
I01
ss(Vbase
p1493
Vsparc
p1494
tp1495
(dp1496
Vkernel-arch
p1497
Vsparc
p1498
sVfeaturesets
p1499
(lp1500
ss(Vbase
p1501
Vsparc64
p1502
tp1503
(dp1504
Vdefault-flavour
p1505
Vsparc64-smp
p1506
sVkernel-arch
p1507
Vsparc
p1508
sg189
(lp1509
g191
ass(Vbuild
p1510
g1502
tp1511
(dp1512
Vimage-file
p1513
Vvmlinux
p1514
ss(Vimage
p1515
g1502
tp1516
(dp1517
Vconfigs
p1518
(lp1519
sVbootloaders
p1520
(lp1521
Vgrub-ieee1275
p1522
asVsuggests
p1523
(lp1524
Vfdutils
p1525
asVinstall-stem
p1526
Vvmlinux
p1527
ss(Vdescription
p1528
g1502
NVsparc64
p1529
tp1530
(dp1531
Vhardware
p1532
Vuniprocessor 64-bit UltraSPARC
p1533
ss(Vimage
p1534
g1502
NVsparc64
p1535
tp1536
(dp1537
Vconfigs
p1538
(lp1539
Vkernelarch-sparc/config-up
p1540
ass(Vdescription
p1541
g1502
NVsparc64-smp
p1542
tp1543
(dp1544
Vhardware
p1545
Vmultiprocessor 64-bit UltraSPARC
p1546
ss(Vimage
p1547
g1502
NVsparc64-smp
p1548
tp1549
(dp1550
Vconfigs
p1551
(lp1552
Vkernelarch-sparc/config-smp
p1553
ass(g222
g1502
g191
tp1554
(dp1555
g225
(lp1556
Vsparc64
p1557
aVsparc64-smp
p1558
asg229
I01
ss(Vbase
p1559
Vx32
p1560
tp1561
(dp1562
Vkernel-arch
p1563
Vx86
p1564
sVfeaturesets
p1565
(lp1566
ss(Vabi
p1567
NVrt
p1568
tp1569
(dp1570
Vignore-changes
p1571
(lp1572
V*
p1573
ass(Vdescription
p1574
Ng1568
tp1575
(dp1576
Vpart-long-rt
p1577
VThis kernel includes the PREEMPT_RT realtime patch set.
p1578
sVpart-short-rt
p1579
VPREEMPT_RT
p1580
sVparts
p1581
(lp1582
Vrt
p1583
ass(Vversion
p1584
tp1585
(dp1586
Vsource
p1587
V5.17.3-1+rpi1
p1588
sVupstream
p1589
V5.17
p1590
sVabiname_base
p1591
V5.17.0
p1592
sVabiname
p1593
V5.17.0-1
p1594
ss.