cdebian_linux.config
ConfigCore
p0
(tRp1
(Vabi
p2
tp3
(dp4
Vabiname
p5
V2
p6
sVignore-changes
p7
(lp8
V__cpuhp_*
p9
aV__udp_gso_segment
p10
aVbpf_analyzer
p11
aVbpf_offload_dev_create
p12
aVbpf_verifier_log_write
p13
aVcxl_*
p14
aVdax_flush
p15
aVieee80211_nullfunc_get
p16
aVinet_add_protocol
p17
aVinet_del_protocol
p18
aViommu_device_*
p19
aVmm_iommu_*
p20
aVmv_mbus_*
p21
aVperf_*
p22
aVregister_cxl_calls
p23
aVregister_key_type
p24
aVunregister_cxl_calls
p25
aV*_hw_breakpoint
p26
aVmodule:drivers/crypto/ccp/*
p27
aVmodule:drivers/hv/*
p28
aVmodule:drivers/gpu/drm/sun4i/*
p29
aVmodule:drivers/iio/**
p30
aVmodule:drivers/misc/cxl/*
p31
aVmodule:drivers/misc/lis3lv02d/*
p32
aVmodule:drivers/mtd/nand/*
p33
aVmodule:drivers/net/ethernet/**
p34
aVmodule:drivers/net/wireless/**
p35
aVmodule:drivers/nvdimm/*
p36
aVmodule:drivers/nvme/**
p37
aVmodule:drivers/power/supply/bq27xxx_battery
p38
aVmodule:drivers/scsi/cxgbi/*
p39
aVmodule:drivers/scsi/libiscs*
p40
aVmodule:drivers/scsi/qla2xxx/qla2xxx
p41
aVmodule:drivers/scsi/ufs/*
p42
aVmodule:drivers/target/**
p43
aVmodule:drivers/usb/chipidea/**
p44
aVmodule:drivers/usb/gadget/**
p45
aVmodule:drivers/usb/host/**
p46
aVmodule:drivers/usb/musb/**
p47
aVmodule:fs/nfs/**
p48
aVmodule:net/ceph/libceph
p49
aVmodule:net/l2tp/**
p50
aVmodule:net/openvswitch/**
p51
aVmodule:net/rxrpc/rxrpc
p52
aVmodule:net/sctp/**
p53
aVmodule:sound/core/seq/**
p54
aVmodule:sound/firewire/snd-firewire-lib
p55
aVmodule:sound/pci/hda/*
p56
aVbtree_*
p57
aVvisitor*
p58
aVcan_rx_register
p59
aVip6_xmit
p60
aVmodule:net/dccp/dccp
p61
aVmodule:net/rds/rds
p62
aVdevfreq_*
p63
aVdevm_devfreq_*
p64
aVupdate_devfreq
p65
aVmodule:drivers/infiniband/**
p66
aVacpi_ec_add_query_handler
p67
aVacpi_ec_remove_query_handler
p68
aVfirst_ec
p69
aVdebugfs_create_automount
p70
aVmodule:drivers/iio/imu/inv_mpu6050/*
p71
aVdrm_crtc_accurate_vblank_count
p72
aVacpi_nfit_desc_init
p73
aVacpi_nfit_init
p74
aVloop_register_transfer
p75
aVxen_xlate_*
p76
aVnf_nat_masquerade_ipv4_register_notifier
p77
aVnf_nat_masquerade_ipv6_register_notifier
p78
aVdfltcc_*
p79
aVmodule:drivers/scsi/hisi_sas/*
p80
aV__gfn_*
p81
aV__kvmhv_*
p82
aV__kvm_*
p83
aV__xive_vm_h_*
p84
aVgfn_*
p85
aVh_ipi_redirect
p86
aVhalt_poll_ns*
p87
aVkvm_*
p88
aVkvmhv_*
p89
aVkvmppc_*
p90
aVmark_page_dirty
p91
aVvcpu_*
p92
aVmodule:arch/powerpc/kvm/*
p93
aVmodule:arch/s390/kvm/*
p94
aVmodule:arch/x86/kvm/*
p95
aVuv_info
p96
aVxhci_init_driver
p97
aVcheck_var_size
p98
aVcheck_var_size_nonblocking
p99
aVremove_conflicting_pci_framebuffers
p100
ass(Vbase
p101
tp102
(dp103
Varches
p104
(lp105
Valpha
p106
aVamd64
p107
aVarm64
p108
aVarm64ilp32
p109
aVarmel
p110
aVarmhf
p111
aVhppa
p112
aVi386
p113
aVia64
p114
aVm68k
p115
aVmips
p116
aVmips64
p117
aVmips64el
p118
aVmips64r6
p119
aVmips64r6el
p120
aVmipsel
p121
aVmipsn32
p122
aVmipsn32el
p123
aVmipsn32r6
p124
aVmipsn32r6el
p125
aVmipsr6
p126
aVmipsr6el
p127
aVpowerpc
p128
aVppc64
p129
aVppc64el
p130
aVriscv64
p131
aVs390
p132
aVs390x
p133
aVsh3
p134
aVsh4
p135
aVsparc
p136
aVsparc64
p137
aVx32
p138
asVcompiler
p139
Vgcc-12
p140
sVfeaturesets
p141
(lp142
Vnone
p143
aVrt
p144
ass(Vbuild
p145
tp146
(dp147
Vsigned-code
p148
I00
sVtrusted-certs
p149
Vdebian/certs/debian-uefi-certs.pem
p150
ss(Vbase
p151
NVrt
p152
tp153
(dp154
Venabled
p155
I01
ss(Vdescription
p156
tp157
(dp158
Vpart-long-up
p159
VThis kernel is not suitable for SMP (multi-processor,\u000amulti-core or hyper-threaded) systems.
p160
ss(Vimage
p161
tp162
(dp163
Vinitramfs-generators
p164
(lp165
Vinitramfs-tools
p166
aVinitramfs-fallback
p167
asVbreaks
p168
(lp169
Vfwupdate (<< 12-7)
p170
aVwireless-regdb (<< 2019.06.03-1~)
p171
asVrecommends
p172
(lp173
Vapparmor
p174
ass(Vrelations
p175
tp176
(dp177
Vgcc-12
p178
Vgcc-12 <!stage1 !cross !pkg.linux.nokernel>, gcc-12-@gnu-type-package@ <!stage1 cross !pkg.linux.nokernel>
p179
sVinitramfs-fallback
p180
Vlinux-initramfs-tool
p181
sVinitramfs-tools
p182
Vinitramfs-tools (>= 0.120+deb8u2)
p183
ss(Vbase
p184
Valpha
p185
tp186
(dp187
Vdefault-flavour
p188
Valpha-smp
p189
sVkernel-arch
p190
Valpha
p191
sVfeaturesets
p192
(lp193
Vnone
p194
ass(Vbuild
p195
g185
tp196
(dp197
Vimage-file
p198
Varch/alpha/boot/vmlinux.gz
p199
ss(Vimage
p200
g185
tp201
(dp202
Vsuggests
p203
(lp204
Vaboot
p205
aVfdutils
p206
asVinstall-stem
p207
Vvmlinuz
p208
ss(Vdescription
p209
g185
NValpha-generic
p210
tp211
(dp212
Vhardware
p213
VAlpha
p214
sVhardware-long
p215
VDEC Alpha systems with extended kernel start address (Wildfire, Titan, Marvel)
p216
ss(Vdescription
p217
g185
NValpha-smp
p218
tp219
(dp220
Vhardware
p221
VAlpha SMP
p222
sVhardware-long
p223
VDEC Alpha SMP systems with extended kernel start address (Wildfire, Titan, Marvel)
p224
ss(Vbase
p225
g185
g194
tp226
(dp227
Vflavours
p228
(lp229
Valpha-generic
p230
aValpha-smp
p231
asVimplicit-flavour
p232
I01
ss(Vbase
p233
Vamd64
p234
tp235
(dp236
Vfeaturesets
p237
(lp238
Vnone
p239
aVrt
p240
asVkernel-arch
p241
Vx86
p242
ss(Vbuild
p243
g234
tp244
(dp245
Vimage-file
p246
Varch/x86/boot/bzImage
p247
sVsigned-code
p248
I01
sVvdso
p249
I01
ss(Vimage
p250
g234
tp251
(dp252
Vbootloaders
p253
(lp254
Vgrub-pc
p255
aVgrub-efi-amd64
p256
aVextlinux
p257
asVinstall-stem
p258
Vvmlinuz
p259
sVbreaks
p260
(lp261
Vxserver-xorg-input-vmmouse (<< 1:13.0.99)
p262
ass(Vrelations
p263
g234
tp264
(dp265
Vheaders%gcc-12
p266
Vlinux-compiler-gcc-12-x86
p267
ss(Vdescription
p268
g234
NVamd64
p269
tp270
(dp271
Vhardware
p272
V64-bit PCs
p273
sVhardware-long
p274
VPCs with AMD64, Intel 64 or VIA Nano processors
p275
ss(Vdescription
p276
g234
NVcloud-amd64
p277
tp278
(dp279
Vhardware
p280
Vx86-64 cloud
p281
sVhardware-long
p282
Vcloud platforms including Amazon EC2, Microsoft Azure, and Google Compute Engine
p283
ss(Vbase
p284
g234
Vnone
p285
tp286
(dp287
Vflavours
p288
(lp289
Vamd64
p290
aVcloud-amd64
p291
asVdefault-flavour
p292
Vamd64
p293
sVquick-flavour
p294
Vcloud-amd64
p295
ss(Vimage
p296
g234
g285
Vcloud-amd64
p297
tp298
(dp299
Vconfigs
p300
(lp301
Vconfig.cloud
p302
aVamd64/config.cloud-amd64
p303
ass(Vbase
p304
g234
Vrt
p305
tp306
(dp307
Vflavours
p308
(lp309
Vamd64
p310
ass(Vbase
p311
Varm64
p312
tp313
(dp314
Vcross-compile-compat
p315
Varm-linux-gnueabihf-
p316
sVkernel-arch
p317
Varm64
p318
sVfeaturesets
p319
(lp320
Vnone
p321
aVrt
p322
ass(Vbuild
p323
g312
tp324
(dp325
Vimage-file
p326
Varch/arm64/boot/Image
p327
sVsigned-code
p328
I01
sVvdso
p329
I01
ss(Vimage
p330
g312
tp331
(dp332
Vinstall-stem
p333
Vvmlinuz
p334
sVbreaks
p335
(lp336
Vlibmozjs185-1.0
p337
aVlibmozjs-24-0 (<< 24.2.0-5.1~)
p338
ass(Vdescription
p339
g312
NVarm64
p340
tp341
(dp342
Vhardware
p343
V64-bit ARMv8 machines
p344
ss(Vdescription
p345
g312
NVcloud-arm64
p346
tp347
(dp348
Vhardware
p349
Varm64 cloud
p350
sVhardware-long
p351
Vcloud platforms supporting arm64 virtual machines
p352
ss(Vimage
p353
g312
NVarm64
p354
tp355
(dp356
s(Vrelations
p357
g312
tp358
(dp359
Vgcc-12
p360
Vgcc-12 <!stage1 !cross !pkg.linux.nokernel>, gcc-12-aarch64-linux-gnu <!stage1 cross !pkg.linux.nokernel>, gcc-arm-linux-gnueabihf <!stage1 !pkg.linux.nokernel>
p361
sVheaders%gcc-12
p362
Vgcc-12
p363
ss(Vbase
p364
g312
Vnone
p365
tp366
(dp367
Vflavours
p368
(lp369
Varm64
p370
aVcloud-arm64
p371
asVdefault-flavour
p372
Varm64
p373
sVquick-flavour
p374
Vcloud-arm64
p375
ss(Vimage
p376
g312
g365
Vcloud-arm64
p377
tp378
(dp379
Vconfigs
p380
(lp381
Vconfig.cloud
p382
aVarm64/config.cloud-arm64
p383
ass(Vbase
p384
g312
Vrt
p385
tp386
(dp387
Vflavours
p388
(lp389
Varm64
p390
ass(Vbase
p391
Varm64ilp32
p392
tp393
(dp394
Vkernel-arch
p395
Varm64
p396
sVfeaturesets
p397
(lp398
ss(Vbase
p399
Varmel
p400
tp401
(dp402
Vkernel-arch
p403
Varm
p404
sg192
(lp405
g194
ass(Vbuild
p406
g400
tp407
(dp408
Vimage-file
p409
Varch/arm/boot/zImage
p410
sVuncompressed-image-file
p411
Varch/arm/boot/Image
p412
ss(Vimage
p413
g400
tp414
(dp415
Vinstall-stem
p416
Vvmlinuz
p417
ss(Vrelations
p418
g400
tp419
(dp420
Vheaders%gcc-12
p421
Vlinux-compiler-gcc-12-arm
p422
ss(Vdescription
p423
g400
NVmarvell
p424
tp425
(dp426
Vhardware
p427
VMarvell Kirkwood/Orion
p428
sVhardware-long
p429
VMarvell Kirkwood and Orion based systems (https://wiki.debian.org/ArmEabiPort#Supported_hardware)
p430
ss(Vdescription
p431
g400
NVrpi
p432
tp433
(dp434
Vhardware
p435
VRaspberry Pi Zero, Zero W and 1
p436
sVhardware-long
p437
VRaspberry Pi Zero, Zero W and 1 based systems
p438
ss(Vimage
p439
g400
NVmarvell
p440
tp441
(dp442
Vrecommends
p443
(lp444
Vu-boot-tools
p445
asVcheck-size
p446
I2729712
sVcheck-size-with-dtb
p447
I01
sVbreaks
p448
(lp449
Vflash-kernel (<< 3.57~)
p450
ass(g225
g400
g194
tp451
(dp452
g228
(lp453
Vmarvell
p454
aVrpi
p455
asg232
I01
ss(Vbase
p456
Varmhf
p457
tp458
(dp459
Vfeaturesets
p460
(lp461
Vnone
p462
aVrt
p463
asVkernel-arch
p464
Varm
p465
ss(Vbuild
p466
g457
tp467
(dp468
Vimage-file
p469
Varch/arm/boot/zImage
p470
sVvdso
p471
I01
ss(Vimage
p472
g457
tp473
(dp474
Vinstall-stem
p475
Vvmlinuz
p476
ss(Vrelations
p477
g457
tp478
(dp479
Vheaders%gcc-12
p480
Vlinux-compiler-gcc-12-arm
p481
ss(Vdescription
p482
g457
NVarmmp
p483
tp484
(dp485
Vhardware
p486
VARMv7 multiplatform compatible SoCs
p487
sVhardware-long
p488
VARMv7 multiplatform kernel. See\u000ahttps://wiki.debian.org/DebianKernel/ARMMP for details of supported\u000aplatforms
p489
ss(Vdescription
p490
g457
NVarmmp-lpae
p491
tp492
(dp493
Vhardware
p494
VARMv7 multiplatform compatible SoCs supporting LPAE
p495
sVhardware-long
p496
VARMv7 multiplatform kernel supporting LPAE. See\u000ahttps://wiki.debian.org/DebianKernel/ARMMP for details of supported\u000aplatforms.
p497
ss(Vbase
p498
g457
Vnone
p499
tp500
(dp501
Vflavours
p502
(lp503
Varmmp
p504
aVarmmp-lpae
p505
asVdefault-flavour
p506
Varmmp
p507
ss(Vbase
p508
g457
Vrt
p509
tp510
(dp511
Vflavours
p512
(lp513
Varmmp
p514
ass(Vbase
p515
Vhppa
p516
tp517
(dp518
Vdefault-flavour
p519
Vparisc
p520
sVkernel-arch
p521
Vparisc
p522
sg192
(lp523
g194
ass(Vbuild
p524
g516
tp525
(dp526
Vimage-file
p527
Varch/parisc/boot/bzImage
p528
ss(Vimage
p529
g516
tp530
(dp531
Vsuggests
p532
(lp533
Vpalo
p534
asVinstall-stem
p535
Vvmlinuz
p536
ss(Vdescription
p537
g516
NVparisc
p538
tp539
(dp540
Vhardware
p541
V32-bit PA-RISC
p542
sVhardware-long
p543
VHP PA-RISC 32-bit systems with max 4 GB RAM
p544
ss(Vbase
p545
g516
NVparisc64
p546
tp547
(dp548
Vcflags
p549
V-fno-cse-follow-jumps
p550
sVoverride-host-type
p551
Vhppa64-linux-gnu
p552
ss(Vdescription
p553
g516
NVparisc64
p554
tp555
(dp556
Vhardware
p557
V64-bit PA-RISC
p558
sVhardware-long
p559
VHP PA-RISC 64-bit systems with support for more than 4 GB RAM
p560
ss(Vrelations
p561
g516
tp562
(dp563
Vgcc-12
p564
Vgcc-12 <!stage1 !cross !pkg.linux.nokernel>, gcc-12-hppa-linux-gnu <!stage1 cross !pkg.linux.nokernel>, binutils-hppa64-linux-gnu <!stage1 !pkg.linux.nokernel>, gcc-12-hppa64-linux-gnu <!stage1 !pkg.linux.nokernel>
p565
ss(g225
g516
g194
tp566
(dp567
g228
(lp568
Vparisc
p569
aVparisc64
p570
asg232
I01
ss(Vbase
p571
Vi386
p572
tp573
(dp574
Vfeaturesets
p575
(lp576
Vnone
p577
aVrt
p578
asVkernel-arch
p579
Vx86
p580
ss(Vbuild
p581
g572
tp582
(dp583
Vimage-file
p584
Varch/x86/boot/bzImage
p585
sVsigned-code
p586
I01
sVvdso
p587
I01
ss(Vdescription
p588
g572
tp589
(dp590
Vpart-long-pae
p591
VThis kernel requires PAE (Physical Address Extension).\u000aThis feature is supported by the Intel Pentium Pro/II/III/4/4M/D, Xeon,\u000aCore and Atom; AMD Geode NX, Athlon (K7), Duron, Opteron, Sempron,\u000aTurion or Phenom; Transmeta Efficeon; VIA C7; and some other processors.
p592
ss(Vimage
p593
g572
tp594
(dp595
Vbootloaders
p596
(lp597
Vgrub-pc
p598
aVgrub-efi-ia32
p599
aVextlinux
p600
asVinstall-stem
p601
Vvmlinuz
p602
sVbreaks
p603
(lp604
Vxserver-xorg-input-vmmouse (<< 1:13.0.99)
p605
ass(Vrelations
p606
g572
tp607
(dp608
Vheaders%gcc-12
p609
Vlinux-compiler-gcc-12-x86
p610
ss(Vdescription
p611
g572
NV686
p612
tp613
(dp614
Vhardware
p615
Volder PCs
p616
sVhardware-long
p617
VPCs with one or more processors not supporting PAE
p618
ss(Vdescription
p619
g572
NV686-pae
p620
tp621
(dp622
Vhardware
p623
Vmodern PCs
p624
sVhardware-long
p625
VPCs with one or more processors supporting PAE
p626
sVparts
p627
(lp628
Vpae
p629
ass(Vbase
p630
g572
Vnone
p631
tp632
(dp633
Vflavours
p634
(lp635
V686
p636
aV686-pae
p637
asVdefault-flavour
p638
V686-pae
p639
ss(Vbase
p640
g572
Vrt
p641
tp642
(dp643
Vflavours
p644
(lp645
V686-pae
p646
ass(Vbase
p647
Via64
p648
tp649
(dp650
Vdefault-flavour
p651
Vitanium
p652
sVkernel-arch
p653
Via64
p654
sg192
(lp655
g194
ass(Vbuild
p656
g648
tp657
(dp658
Vimage-file
p659
Vvmlinux.gz
p660
ss(Vimage
p661
g648
tp662
(dp663
Vbootloaders
p664
(lp665
Vgrub-efi-ia64
p666
asVinstall-stem
p667
Vvmlinuz
p668
ss(Vdescription
p669
g648
NVitanium
p670
tp671
(dp672
Vhardware
p673
VItanium (Merced)
p674
sVhardware-long
p675
Vsystems with original Itanium (Merced) processors
p676
ss(Vdescription
p677
g648
NVmckinley
p678
tp679
(dp680
Vhardware
p681
VItanium 2+
p682
sVhardware-long
p683
Vsystems with Itanium 2 or 9300/9500/9700-series processors
p684
ss(g225
g648
g194
tp685
(dp686
g228
(lp687
Vitanium
p688
aVmckinley
p689
asg232
I01
ss(Vbase
p690
Vm68k
p691
tp692
(dp693
Vcflags
p694
V-ffreestanding
p695
sVdefault-flavour
p696
Vm68k
p697
sVkernel-arch
p698
Vm68k
p699
sg192
(lp700
g194
ass(Vbuild
p701
g691
tp702
(dp703
Vimage-file
p704
Vvmlinux
p705
ss(Vimage
p706
g691
tp707
(dp708
Vsuggests
p709
(lp710
Vvmelilo
p711
aVfdutils
p712
asVinstall-stem
p713
Vvmlinux
p714
ss(Vdescription
p715
g691
NVm68k
p716
tp717
(dp718
Vhardware
p719
VMotorola MC68020+ family
p720
ss(g225
g691
g194
tp721
(dp722
g228
(lp723
Vm68k
p724
asg232
I01
ss(Vbase
p725
Vmips
p726
tp727
(dp728
Vkernel-arch
p729
Vmips
p730
sg192
(lp731
g194
ass(Vbuild
p732
g726
tp733
(dp734
Vimage-file
p735
Vvmlinuz
p736
ss(Vimage
p737
g726
tp738
(dp739
Vinstall-stem
p740
Vvmlinuz
p741
ss(Vdescription
p742
g726
NV4kc-malta
p743
tp744
(dp745
Vhardware
p746
VMIPS Malta
p747
sVhardware-long
p748
VMIPS Malta boards
p749
ss(Vimage
p750
g726
NV4kc-malta
p751
tp752
(dp753
Vconfigs
p754
(lp755
Vkernelarch-mips/config.malta
p756
aVkernelarch-mips/config.mips32r2
p757
ass(Vdescription
p758
g726
NVmips32r2eb
p759
tp760
(dp761
Vhardware
p762
VMIPS Generic (mips32r2eb)
p763
sVhardware-long
p764
VMIPS Generic platform (mips32r2eb)
p765
ss(Vimage
p766
g726
NVmips32r2eb
p767
tp768
(dp769
Vconfigs
p770
(lp771
Vkernelarch-mips/config.boston
p772
aVkernelarch-mips/config.mips32r2
p773
ass(Vdescription
p774
g726
NVocteon
p775
tp776
(dp777
Vhardware
p778
VOcteon
p779
sVhardware-long
p780
VCavium Networks Octeon
p781
ss(Vbuild
p782
g726
NVocteon
p783
tp784
(dp785
Vimage-file
p786
Vvmlinux
p787
ss(Vimage
p788
g726
NVocteon
p789
tp790
(dp791
Vinstall-stem
p792
Vvmlinux
p793
sVconfigs
p794
(lp795
Vkernelarch-mips/config.octeon
p796
ass(g225
g726
g194
tp797
(dp798
g228
(lp799
V4kc-malta
p800
aVmips32r2eb
p801
aVocteon
p802
asg232
I01
ss(Vbase
p803
Vmips64
p804
tp805
(dp806
Vkernel-arch
p807
Vmips
p808
sg192
(lp809
g194
ass(Vbuild
p810
g804
tp811
(dp812
Vimage-file
p813
Vvmlinuz
p814
ss(Vimage
p815
g804
tp816
(dp817
Vinstall-stem
p818
Vvmlinuz
p819
ss(Vdescription
p820
g804
NV5kc-malta
p821
tp822
(dp823
Vhardware
p824
VMIPS Malta
p825
sVhardware-long
p826
VMIPS Malta boards
p827
ss(Vimage
p828
g804
NV5kc-malta
p829
tp830
(dp831
Vconfigs
p832
(lp833
Vkernelarch-mips/config.malta
p834
aVkernelarch-mips/config.mips64r2
p835
ass(Vdescription
p836
g804
NVmips64r2eb
p837
tp838
(dp839
Vhardware
p840
VMIPS Generic (mips64r2eb)
p841
sVhardware-long
p842
VMIPS Generic platform (mips64r2eb)
p843
ss(Vimage
p844
g804
NVmips64r2eb
p845
tp846
(dp847
Vconfigs
p848
(lp849
Vkernelarch-mips/config.boston
p850
aVkernelarch-mips/config.mips64r2
p851
ass(Vdescription
p852
g804
NVocteon
p853
tp854
(dp855
Vhardware
p856
VOcteon
p857
sVhardware-long
p858
VCavium Networks Octeon
p859
ss(Vbuild
p860
g804
NVocteon
p861
tp862
(dp863
Vimage-file
p864
Vvmlinux
p865
ss(Vimage
p866
g804
NVocteon
p867
tp868
(dp869
Vinstall-stem
p870
Vvmlinux
p871
sVconfigs
p872
(lp873
Vkernelarch-mips/config.octeon
p874
ass(g225
g804
g194
tp875
(dp876
g228
(lp877
V5kc-malta
p878
aVmips64r2eb
p879
aVocteon
p880
asg232
I01
ss(Vbase
p881
Vmips64el
p882
tp883
(dp884
Vkernel-arch
p885
Vmips
p886
sg192
(lp887
g194
ass(Vbuild
p888
g882
tp889
(dp890
Vimage-file
p891
Vvmlinuz
p892
ss(Vimage
p893
g882
tp894
(dp895
Vinstall-stem
p896
Vvmlinuz
p897
ss(Vdescription
p898
g882
NV5kc-malta
p899
tp900
(dp901
Vhardware
p902
VMIPS Malta
p903
sVhardware-long
p904
VMIPS Malta boards
p905
ss(Vimage
p906
g882
NV5kc-malta
p907
tp908
(dp909
Vconfigs
p910
(lp911
Vkernelarch-mips/config.malta
p912
aVkernelarch-mips/config.mips64r2
p913
ass(Vdescription
p914
g882
NVmips64r2el
p915
tp916
(dp917
Vhardware
p918
VMIPS Generic (mips64r2el)
p919
sVhardware-long
p920
VMIPS Generic platform (mips64r2el)
p921
ss(Vimage
p922
g882
NVmips64r2el
p923
tp924
(dp925
Vconfigs
p926
(lp927
Vkernelarch-mips/config.boston
p928
aVkernelarch-mips/config.mips64r2
p929
ass(Vdescription
p930
g882
NVloongson-3
p931
tp932
(dp933
Vhardware
p934
VLoongson 3A/3B
p935
sVhardware-long
p936
VLoongson 3A or 3B based systems (e.g. from Loongson or Lemote)
p937
ss(Vimage
p938
g882
NVloongson-3
p939
tp940
(dp941
Vrecommends
p942
(lp943
Vpmon-update
p944
asVconfigs
p945
(lp946
Vkernelarch-mips/config.loongson-3
p947
ass(Vdescription
p948
g882
NVocteon
p949
tp950
(dp951
Vhardware
p952
VOcteon
p953
sVhardware-long
p954
VCavium Networks Octeon
p955
ss(Vbuild
p956
g882
NVocteon
p957
tp958
(dp959
Vimage-file
p960
Vvmlinux
p961
ss(Vimage
p962
g882
NVocteon
p963
tp964
(dp965
Vinstall-stem
p966
Vvmlinux
p967
sVconfigs
p968
(lp969
Vkernelarch-mips/config.octeon
p970
ass(g225
g882
g194
tp971
(dp972
g228
(lp973
V5kc-malta
p974
aVmips64r2el
p975
aVloongson-3
p976
aVocteon
p977
asg232
I01
ss(Vbase
p978
Vmips64r6
p979
tp980
(dp981
Vkernel-arch
p982
Vmips
p983
sg192
(lp984
g194
ass(Vbuild
p985
g979
tp986
(dp987
Vimage-file
p988
Vvmlinuz
p989
ss(Vimage
p990
g979
tp991
(dp992
Vinstall-stem
p993
Vvmlinuz
p994
ss(Vdescription
p995
g979
NVmips64r6eb
p996
tp997
(dp998
Vhardware
p999
VMIPS Generic (mips64r6eb)
p1000
sVhardware-long
p1001
VMIPS Generic platform (mips64r6eb)
p1002
ss(Vimage
p1003
g979
NVmips64r6eb
p1004
tp1005
(dp1006
Vconfigs
p1007
(lp1008
Vkernelarch-mips/config.boston
p1009
aVkernelarch-mips/config.mips64r6
p1010
ass(g225
g979
g194
tp1011
(dp1012
g228
(lp1013
Vmips64r6eb
p1014
asg232
I01
ss(Vbase
p1015
Vmips64r6el
p1016
tp1017
(dp1018
Vkernel-arch
p1019
Vmips
p1020
sg192
(lp1021
g194
ass(Vbuild
p1022
g1016
tp1023
(dp1024
Vimage-file
p1025
Vvmlinuz
p1026
ss(Vimage
p1027
g1016
tp1028
(dp1029
Vinstall-stem
p1030
Vvmlinuz
p1031
ss(Vdescription
p1032
g1016
NVmips64r6el
p1033
tp1034
(dp1035
Vhardware
p1036
VMIPS Generic (mips64r6el)
p1037
sVhardware-long
p1038
VMIPS Generic platform (mips64r6el)
p1039
ss(Vimage
p1040
g1016
NVmips64r6el
p1041
tp1042
(dp1043
Vconfigs
p1044
(lp1045
Vkernelarch-mips/config.boston
p1046
aVkernelarch-mips/config.mips64r6
p1047
ass(g225
g1016
g194
tp1048
(dp1049
g228
(lp1050
Vmips64r6el
p1051
asg232
I01
ss(Vbase
p1052
Vmipsel
p1053
tp1054
(dp1055
Vkernel-arch
p1056
Vmips
p1057
sg192
(lp1058
g194
ass(Vbuild
p1059
g1053
tp1060
(dp1061
Vimage-file
p1062
Vvmlinuz
p1063
ss(Vimage
p1064
g1053
tp1065
(dp1066
Vinstall-stem
p1067
Vvmlinuz
p1068
ss(Vdescription
p1069
g1053
NV4kc-malta
p1070
tp1071
(dp1072
Vhardware
p1073
VMIPS Malta
p1074
sVhardware-long
p1075
VMIPS Malta boards
p1076
ss(Vimage
p1077
g1053
NV4kc-malta
p1078
tp1079
(dp1080
Vconfigs
p1081
(lp1082
Vkernelarch-mips/config.malta
p1083
aVkernelarch-mips/config.mips32r2
p1084
ass(Vdescription
p1085
g1053
NVmips32r2el
p1086
tp1087
(dp1088
Vhardware
p1089
VMIPS Generic (mips32r2el)
p1090
sVhardware-long
p1091
VMIPS Generic platform (mips32r2el)
p1092
ss(Vimage
p1093
g1053
NVmips32r2el
p1094
tp1095
(dp1096
Vconfigs
p1097
(lp1098
Vkernelarch-mips/config.boston
p1099
aVkernelarch-mips/config.mips32r2
p1100
ass(Vdescription
p1101
g1053
NVloongson-3
p1102
tp1103
(dp1104
Vhardware
p1105
VLoongson 3A/3B
p1106
sVhardware-long
p1107
VLoongson 3A or 3B based systems (e.g. from Loongson or Lemote)
p1108
ss(Vimage
p1109
g1053
NVloongson-3
p1110
tp1111
(dp1112
Vrecommends
p1113
(lp1114
Vpmon-update
p1115
asVconfigs
p1116
(lp1117
Vkernelarch-mips/config.loongson-3
p1118
ass(Vdescription
p1119
g1053
NVocteon
p1120
tp1121
(dp1122
Vhardware
p1123
VOcteon
p1124
sVhardware-long
p1125
VCavium Networks Octeon
p1126
ss(Vbuild
p1127
g1053
NVocteon
p1128
tp1129
(dp1130
Vimage-file
p1131
Vvmlinux
p1132
ss(Vimage
p1133
g1053
NVocteon
p1134
tp1135
(dp1136
Vinstall-stem
p1137
Vvmlinux
p1138
sVconfigs
p1139
(lp1140
Vkernelarch-mips/config.octeon
p1141
ass(g225
g1053
g194
tp1142
(dp1143
g228
(lp1144
V4kc-malta
p1145
aVmips32r2el
p1146
aVloongson-3
p1147
aVocteon
p1148
asg232
I01
ss(Vbase
p1149
Vmipsn32
p1150
tp1151
(dp1152
Vkernel-arch
p1153
Vmips
p1154
sVfeaturesets
p1155
(lp1156
ss(Vbase
p1157
Vmipsn32el
p1158
tp1159
(dp1160
Vkernel-arch
p1161
Vmips
p1162
sVfeaturesets
p1163
(lp1164
ss(Vbase
p1165
Vmipsn32r6
p1166
tp1167
(dp1168
Vkernel-arch
p1169
Vmips
p1170
sVfeaturesets
p1171
(lp1172
ss(Vbase
p1173
Vmipsn32r6el
p1174
tp1175
(dp1176
Vkernel-arch
p1177
Vmips
p1178
sVfeaturesets
p1179
(lp1180
ss(Vbase
p1181
Vmipsr6
p1182
tp1183
(dp1184
Vkernel-arch
p1185
Vmips
p1186
sg192
(lp1187
g194
ass(Vbuild
p1188
g1182
tp1189
(dp1190
Vimage-file
p1191
Vvmlinuz
p1192
ss(Vimage
p1193
g1182
tp1194
(dp1195
Vinstall-stem
p1196
Vvmlinuz
p1197
ss(Vdescription
p1198
g1182
NVmips32r6eb
p1199
tp1200
(dp1201
Vhardware
p1202
VMIPS Generic (mips32r6eb)
p1203
sVhardware-long
p1204
VMIPS Generic platform (mips32r6eb)
p1205
ss(Vimage
p1206
g1182
NVmips32r6eb
p1207
tp1208
(dp1209
Vconfigs
p1210
(lp1211
Vkernelarch-mips/config.boston
p1212
aVkernelarch-mips/config.mips32r6
p1213
ass(g225
g1182
g194
tp1214
(dp1215
g228
(lp1216
Vmips32r6eb
p1217
asg232
I01
ss(Vbase
p1218
Vmipsr6el
p1219
tp1220
(dp1221
Vkernel-arch
p1222
Vmips
p1223
sg192
(lp1224
g194
ass(Vbuild
p1225
g1219
tp1226
(dp1227
Vimage-file
p1228
Vvmlinuz
p1229
ss(Vimage
p1230
g1219
tp1231
(dp1232
Vinstall-stem
p1233
Vvmlinuz
p1234
ss(Vdescription
p1235
g1219
NVmips32r6el
p1236
tp1237
(dp1238
Vhardware
p1239
VMIPS Generic (mips32r6el)
p1240
sVhardware-long
p1241
VMIPS Generic platform (mips32r6el)
p1242
ss(Vimage
p1243
g1219
NVmips32r6el
p1244
tp1245
(dp1246
Vconfigs
p1247
(lp1248
Vkernelarch-mips/config.boston
p1249
aVkernelarch-mips/config.mips32r6
p1250
ass(g225
g1219
g194
tp1251
(dp1252
g228
(lp1253
Vmips32r6el
p1254
asg232
I01
ss(Vbase
p1255
Vpowerpc
p1256
tp1257
(dp1258
Vkernel-arch
p1259
Vpowerpc
p1260
sg192
(lp1261
g194
ass(Vbuild
p1262
g1256
tp1263
(dp1264
Vimage-file
p1265
Vvmlinux
p1266
ss(Vimage
p1267
g1256
tp1268
(dp1269
Vconfigs
p1270
(lp1271
sVbootloaders
p1272
(lp1273
Vgrub-ieee1275
p1274
asVsuggests
p1275
(lp1276
Vmkvmlinuz
p1277
asVinstall-stem
p1278
Vvmlinux
p1279
ss(Vdescription
p1280
g1256
NVpowerpc
p1281
tp1282
(dp1283
Vhardware
p1284
Vuniprocessor 32-bit PowerPC
p1285
ss(Vdescription
p1286
g1256
NVpowerpc-smp
p1287
tp1288
(dp1289
Vhardware
p1290
Vmultiprocessor 32-bit PowerPC
p1291
ss(Vimage
p1292
g1256
NVpowerpc-smp
p1293
tp1294
(dp1295
Vconfigs
p1296
(lp1297
Vpowerpc/config.powerpc
p1298
aVpowerpc/config.powerpc-smp
p1299
ass(Vdescription
p1300
g1256
NVpowerpc64
p1301
tp1302
(dp1303
Vhardware
p1304
V64-bit PowerPC
p1305
ss(Vimage
p1306
g1256
NVpowerpc64
p1307
tp1308
(dp1309
Vconfigs
p1310
(lp1311
Vkernelarch-powerpc/config-arch-64
p1312
aVkernelarch-powerpc/config-arch-64-be
p1313
ass(g225
g1256
g194
tp1314
(dp1315
g228
(lp1316
Vpowerpc
p1317
aVpowerpc-smp
p1318
aVpowerpc64
p1319
asg232
I01
ss(Vbase
p1320
Vppc64
p1321
tp1322
(dp1323
Vdefault-flavour
p1324
Vpowerpc64
p1325
sVkernel-arch
p1326
Vpowerpc
p1327
sg192
(lp1328
g194
ass(Vbuild
p1329
g1321
tp1330
(dp1331
Vimage-file
p1332
Vvmlinux
p1333
ss(Vimage
p1334
g1321
tp1335
(dp1336
Vconfigs
p1337
(lp1338
sVbootloaders
p1339
(lp1340
Vgrub-ieee1275
p1341
asVsuggests
p1342
(lp1343
Vmkvmlinuz
p1344
asVinstall-stem
p1345
Vvmlinux
p1346
ss(Vdescription
p1347
g1321
NVpowerpc64
p1348
tp1349
(dp1350
Vhardware
p1351
V64-bit PowerPC
p1352
ss(Vimage
p1353
g1321
NVpowerpc64
p1354
tp1355
(dp1356
Vconfigs
p1357
(lp1358
Vkernelarch-powerpc/config-arch-64
p1359
aVkernelarch-powerpc/config-arch-64-be
p1360
ass(g225
g1321
g194
tp1361
(dp1362
g228
(lp1363
Vpowerpc64
p1364
asg232
I01
ss(Vbase
p1365
Vppc64el
p1366
tp1367
(dp1368
Vdefault-flavour
p1369
Vpowerpc64le
p1370
sVkernel-arch
p1371
Vpowerpc
p1372
sg192
(lp1373
g194
ass(Vbuild
p1374
g1366
tp1375
(dp1376
Vimage-file
p1377
Vvmlinux
p1378
ss(Vimage
p1379
g1366
tp1380
(dp1381
Vconfigs
p1382
(lp1383
sVbootloaders
p1384
(lp1385
Vgrub-ieee1275
p1386
asVsuggests
p1387
(lp1388
Vmkvmlinuz
p1389
asVinstall-stem
p1390
Vvmlinux
p1391
ss(Vdescription
p1392
g1366
NVpowerpc64le
p1393
tp1394
(dp1395
Vhardware
p1396
VLittle-endian 64-bit PowerPC
p1397
ss(Vimage
p1398
g1366
NVpowerpc64le
p1399
tp1400
(dp1401
Vconfigs
p1402
(lp1403
Vkernelarch-powerpc/config-arch-64
p1404
aVkernelarch-powerpc/config-arch-64-le
p1405
ass(g225
g1366
g194
tp1406
(dp1407
g228
(lp1408
Vpowerpc64le
p1409
asg232
I01
ss(Vbase
p1410
Vriscv64
p1411
tp1412
(dp1413
Vkernel-arch
p1414
Vriscv
p1415
sVfeaturesets
p1416
(lp1417
Vnone
p1418
ass(Vbuild
p1419
g1411
tp1420
(dp1421
Vimage-file
p1422
Varch/riscv/boot/Image
p1423
sVvdso
p1424
I01
ss(Vimage
p1425
g1411
tp1426
(dp1427
Vinstall-stem
p1428
Vvmlinux
p1429
ss(Vdescription
p1430
g1411
NVriscv64
p1431
tp1432
(dp1433
Vhardware
p1434
V64-bit RISC-V platforms
p1435
sVhardware-long
p1436
V64-bit RISC-V platforms
p1437
ss(Vbase
p1438
g1411
Vnone
p1439
tp1440
(dp1441
Vflavours
p1442
(lp1443
Vriscv64
p1444
asVdefault-flavour
p1445
Vriscv64
p1446
ss(Vbase
p1447
Vs390
p1448
tp1449
(dp1450
Vkernel-arch
p1451
Vs390
p1452
sVfeaturesets
p1453
(lp1454
ss(Vbase
p1455
Vs390x
p1456
tp1457
(dp1458
Vdefault-flavour
p1459
Vs390x
p1460
sVkernel-arch
p1461
Vs390
p1462
sg192
(lp1463
g194
ass(Vbuild
p1464
g1456
tp1465
(dp1466
Vimage-file
p1467
Varch/s390/boot/bzImage
p1468
sVvdso
p1469
I01
ss(Vimage
p1470
g1456
tp1471
(dp1472
Vbootloaders
p1473
(lp1474
Vs390-tools
p1475
asVinstall-stem
p1476
Vvmlinuz
p1477
ss(Vrelations
p1478
g1456
tp1479
(dp1480
Vheaders%gcc-12
p1481
Vlinux-compiler-gcc-12-s390
p1482
ss(Vdescription
p1483
g1456
NVs390x
p1484
tp1485
(dp1486
Vhardware
p1487
VIBM zSeries
p1488
ss(g225
g1456
g194
tp1489
(dp1490
g228
(lp1491
Vs390x
p1492
asg232
I01
ss(Vbase
p1493
Vsh3
p1494
tp1495
(dp1496
Vkernel-arch
p1497
Vsh
p1498
sVfeaturesets
p1499
(lp1500
ss(Vbase
p1501
Vsh4
p1502
tp1503
(dp1504
Vkernel-arch
p1505
Vsh
p1506
sg192
(lp1507
g194
ass(Vbuild
p1508
g1502
tp1509
(dp1510
Vimage-file
p1511
Varch/sh/boot/zImage
p1512
ss(Vimage
p1513
g1502
tp1514
(dp1515
Vinstall-stem
p1516
Vvmlinuz
p1517
ss(Vdescription
p1518
g1502
NVsh7751r
p1519
tp1520
(dp1521
Vhardware
p1522
Vsh7751r
p1523
sVhardware-long
p1524
VRenesas SH7751R R2D plus board
p1525
ss(Vdescription
p1526
g1502
NVsh7785lcr
p1527
tp1528
(dp1529
Vhardware
p1530
Vsh7785lcr
p1531
sVhardware-long
p1532
VRenesas SH7785 reference board
p1533
ss(Vimage
p1534
g1502
NVsh7785lcr
p1535
tp1536
(dp1537
Vrecommends
p1538
(lp1539
Vu-boot-tools
p1540
asVcheck-size
p1541
I4194304
ss(g225
g1502
g194
tp1542
(dp1543
g228
(lp1544
Vsh7751r
p1545
aVsh7785lcr
p1546
asg232
I01
ss(Vbase
p1547
Vsparc
p1548
tp1549
(dp1550
Vkernel-arch
p1551
Vsparc
p1552
sVfeaturesets
p1553
(lp1554
ss(Vbase
p1555
Vsparc64
p1556
tp1557
(dp1558
Vdefault-flavour
p1559
Vsparc64-smp
p1560
sVkernel-arch
p1561
Vsparc
p1562
sg192
(lp1563
g194
ass(Vbuild
p1564
g1556
tp1565
(dp1566
Vimage-file
p1567
Vvmlinux
p1568
ss(Vimage
p1569
g1556
tp1570
(dp1571
Vconfigs
p1572
(lp1573
sVbootloaders
p1574
(lp1575
Vgrub-ieee1275
p1576
asVsuggests
p1577
(lp1578
Vfdutils
p1579
asVinstall-stem
p1580
Vvmlinux
p1581
ss(Vdescription
p1582
g1556
NVsparc64
p1583
tp1584
(dp1585
Vhardware
p1586
Vuniprocessor 64-bit UltraSPARC
p1587
ss(Vimage
p1588
g1556
NVsparc64
p1589
tp1590
(dp1591
Vconfigs
p1592
(lp1593
Vkernelarch-sparc/config-up
p1594
ass(Vdescription
p1595
g1556
NVsparc64-smp
p1596
tp1597
(dp1598
Vhardware
p1599
Vmultiprocessor 64-bit UltraSPARC
p1600
ss(Vimage
p1601
g1556
NVsparc64-smp
p1602
tp1603
(dp1604
Vconfigs
p1605
(lp1606
Vkernelarch-sparc/config-smp
p1607
ass(g225
g1556
g194
tp1608
(dp1609
g228
(lp1610
Vsparc64
p1611
aVsparc64-smp
p1612
asg232
I01
ss(Vbase
p1613
Vx32
p1614
tp1615
(dp1616
Vkernel-arch
p1617
Vx86
p1618
sVfeaturesets
p1619
(lp1620
ss(Vabi
p1621
NVrt
p1622
tp1623
(dp1624
Vignore-changes
p1625
(lp1626
V*
p1627
ass(Vdescription
p1628
Ng1622
tp1629
(dp1630
Vpart-long-rt
p1631
VThis kernel includes the PREEMPT_RT realtime patch set.
p1632
sVpart-short-rt
p1633
VPREEMPT_RT
p1634
sVparts
p1635
(lp1636
Vrt
p1637
ass(Vversion
p1638
tp1639
(dp1640
Vsource
p1641
V6.0.5-1
p1642
sVupstream
p1643
V6.0
p1644
sVabiname_base
p1645
V6.0.0
p1646
sVabiname
p1647
V6.0.0-2
p1648
ss.