ccopy_reg
_reconstructor
p0
(cdebian_linux.config
ConfigCore
p1
c__builtin__
dict
p2
(dp3
(S'image'
p4
S'amd64'
p5
tp6
(dp7
S'install-stem'
p8
S'vmlinuz'
p9
sS'configs'
p10
(lp11
sS'bootloaders'
p12
(lp13
S'grub-pc'
p14
aS'grub-efi'
p15
aS'extlinux'
p16
ass(S'description'
p17
S'hppa'
p18
NS'parisc64-smp'
p19
tp20
(dp21
S'hardware'
p22
S'multiprocessor 64-bit PA-RISC'
p23
sS'hardware-long'
p24
S'HP PA-RISC 64-bit SMP systems with support for more than 4 GB RAM'
p25
ss(S'base'
p26
g5
S'none'
p27
tp28
(dp29
S'flavours'
p30
(lp31
S'amd64'
p32
ass(S'description'
p33
S'powerpc'
p34
NS'powerpc64'
p35
tp36
(dp37
S'hardware'
p38
S'64-bit PowerPC'
p39
ss(S'image'
p40
S'ia64'
p41
tp42
(dp43
S'suggests'
p44
S'fdutils'
p45
sS'bootloaders'
p46
(lp47
S'elilo'
p48
asS'install-stem'
p49
S'vmlinuz'
p50
ss(S'description'
p51
S'armel'
p52
NS'orion5x'
p53
tp54
(dp55
S'hardware'
p56
S'Marvell Orion'
p57
sS'hardware-long'
p58
S'Marvell Orion 5181, 5182 and 5281 based systems (QNAP TS-109/TS-209, etc)'
p59
ss(S'description'
p60
g34
NS'powerpc-smp'
p61
tp62
(dp63
S'hardware'
p64
S'multiprocessor 32-bit PowerPC'
p65
ss(S'version'
p66
tp67
(dp68
S'abiname'
p69
S'3.16.0-4'
p70
sS'source'
p71
V3.16.7-ckt11-1+deb8u4+rpi1
p72
sS'abiname_base'
p73
S'3.16.0'
p74
sS'upstream'
p75
S'3.16'
p76
ss(S'image'
p77
S'mips64el'
p78
NS'octeon'
p79
tp80
(dp81
S'configs'
p82
(lp83
S'kernelarch-mips/config.octeon'
p84
ass(S'description'
p85
g5
g27
S'amd64'
p86
tp87
(dp88
S'parts'
p89
(lp90
S'xen'
p91
ass(S'base'
p92
S'ppc64'
p93
S'none'
p94
tp95
(dp96
S'implicit-flavour'
p97
I01
sS'flavours'
p98
(lp99
S'powerpc64'
p100
ass(S'description'
p101
g52
NS'kirkwood'
p102
tp103
(dp104
S'hardware'
p105
S'Marvell Kirkwood'
p106
sS'hardware-long'
p107
S'Marvell Kirkwood based systems (SheevaPlug, QNAP TS-119/TS-219, etc)'
p108
ss(S'abi'
p109
g52
NS'orion5x'
p110
tp111
(dp112
S'ignore-changes'
p113
(lp114
S'__ring_buffer_alloc'
p115
aS'dcookie_register'
p116
aS'dcookie_unregister'
p117
aS'get_dcookie'
p118
aS'prof_on'
p119
aS'profile_event_register'
p120
aS'profile_event_unregister'
p121
aS'profile_hits'
p122
aS'ring_buffer_alloc_read_page'
p123
aS'ring_buffer_bytes_cpu'
p124
aS'ring_buffer_change_overwrite'
p125
aS'ring_buffer_commit_overrun_cpu'
p126
aS'ring_buffer_consume'
p127
aS'ring_buffer_discard_commit'
p128
aS'ring_buffer_dropped_events_cpu'
p129
aS'ring_buffer_empty'
p130
aS'ring_buffer_empty_cpu'
p131
aS'ring_buffer_entries'
p132
aS'ring_buffer_entries_cpu'
p133
aS'ring_buffer_event_data'
p134
aS'ring_buffer_event_length'
p135
aS'ring_buffer_free'
p136
aS'ring_buffer_free_read_page'
p137
aS'ring_buffer_iter_empty'
p138
aS'ring_buffer_iter_peek'
p139
aS'ring_buffer_iter_reset'
p140
aS'ring_buffer_lock_reserve'
p141
aS'ring_buffer_normalize_time_stamp'
p142
aS'ring_buffer_oldest_event_ts'
p143
aS'ring_buffer_overrun_cpu'
p144
aS'ring_buffer_overruns'
p145
aS'ring_buffer_peek'
p146
aS'ring_buffer_read'
p147
aS'ring_buffer_read_events_cpu'
p148
aS'ring_buffer_read_finish'
p149
aS'ring_buffer_read_page'
p150
aS'ring_buffer_read_prepare'
p151
aS'ring_buffer_read_prepare_sync'
p152
aS'ring_buffer_read_start'
p153
aS'ring_buffer_record_disable'
p154
aS'ring_buffer_record_disable_cpu'
p155
aS'ring_buffer_record_enable'
p156
aS'ring_buffer_record_enable_cpu'
p157
aS'ring_buffer_record_off'
p158
aS'ring_buffer_record_on'
p159
aS'ring_buffer_reset'
p160
aS'ring_buffer_reset_cpu'
p161
aS'ring_buffer_resize'
p162
aS'ring_buffer_size'
p163
aS'ring_buffer_swap_cpu'
p164
aS'ring_buffer_time_stamp'
p165
aS'ring_buffer_unlock_commit'
p166
aS'ring_buffer_write'
p167
aS'task_handoff_register'
p168
aS'task_handoff_unregister'
p169
aS'trace_clock_local'
p170
ass(S'description'
p171
NS'rt'
p172
tp173
(dp174
S'part-long-rt'
p175
S'This kernel includes the PREEMPT_RT realtime patch set.'
p176
sS'parts'
p177
(lp178
S'rt'
p179
asS'part-short-rt'
p180
S'PREEMPT_RT'
p181
ss(S'description'
p182
S'i386'
p183
S'none'
p184
S'amd64'
p185
tp186
(dp187
S'parts'
p188
(lp189
S'xen'
p190
ass(S'description'
p191
g78
NS'sb1-bcm91250a'
p192
tp193
(dp194
S'hardware'
p195
S'BCM91250A'
p196
sS'hardware-long'
p197
S'Broadcom BCM91250A systems (aka SWARM)'
p198
ss(S'base'
p199
S'alpha'
p200
tp201
(dp202
S'kernel-arch'
p203
S'alpha'
p204
sS'featuresets'
p205
(lp206
g94
ass(S'image'
p207
g52
NS'orion5x'
p208
tp209
(dp210
S'check-size'
p211
S'1572792'
p212
sS'configs'
p213
(lp214
S'armel/config-reduced'
p215
aS'armel/config.orion5x'
p216
asS'recommends'
p217
S'uboot-mkimage'
p218
ss(S'description'
p219
S'mipsel'
p220
NS'4kc-malta'
p221
tp222
(dp223
S'hardware'
p224
S'MIPS Malta'
p225
sS'hardware-long'
p226
S'MIPS Malta boards'
p227
ss(g92
S'armhf'
p228
g94
tp229
(dp230
g97
I01
sg98
(lp231
S'rpi'
p232
ass(S'base'
p233
S'arm64'
p234
tp235
(dp236
S'kernel-arch'
p237
S'arm64'
p238
sS'featuresets'
p239
(lp240
S'none'
p241
ass(S'base'
p242
g183
S'rt'
p243
tp244
(dp245
S'flavours'
p246
(lp247
S'686-pae'
p248
ass(S'image'
p249
S'mips'
p250
NS'4kc-malta'
p251
tp252
(dp253
S'configs'
p254
(lp255
S'kernelarch-mips/config.4kc-malta'
p256
ass(S'description'
p257
S'ppc64el'
p258
NS'powerpc64le'
p259
tp260
(dp261
S'hardware'
p262
S'Little-endian 64-bit PowerPC'
p263
ss(S'image'
p264
g258
tp265
(dp266
S'suggests'
p267
S'mkvmlinuz'
p268
sS'configs'
p269
(lp270
sS'install-stem'
p271
S'vmlinux'
p272
ss(S'image'
p273
g78
NS'5kc-malta'
p274
tp275
(dp276
S'configs'
p277
(lp278
S'kernelarch-mips/config.5kc-malta'
p279
ass(S'relations'
p280
g183
tp281
(dp282
S'headers%gcc-4.8'
p283
S'linux-compiler-gcc-4.8-x86'
p284
ss(S'description'
p285
g228
NS'armmp-lpae'
p286
tp287
(dp288
S'hardware'
p289
S'ARMv7 multiplatform compatible SoCs supporting LPAE'
p290
sS'hardware-long'
p291
S'ARMv7 multiplatform kernel supporting LPAE. See\nhttps://wiki.debian.org/DebianKernel/ARMMP for details of supported\nplatforms.'
p292
ss(S'image'
p293
g34
tp294
(dp295
S'suggests'
p296
S'mkvmlinuz'
p297
sS'configs'
p298
(lp299
sS'install-stem'
p300
S'vmlinux'
p301
ss(S'abi'
p302
Ng172
tp303
(dp304
S'ignore-changes'
p305
(lp306
S'*'
p307
ass(S'base'
p308
g5
S'rt'
p309
tp310
(dp311
S'flavours'
p312
(lp313
S'amd64'
p314
ass(S'build'
p315
g258
tp316
(dp317
S'image-file'
p318
S'vmlinux'
p319
ss(S'build'
p320
g93
tp321
(dp322
S'image-file'
p323
S'vmlinux'
p324
ss(S'abi'
p325
g52
NS'ixp4xx'
p326
tp327
(dp328
S'ignore-changes'
p329
(lp330
S'__ring_buffer_alloc'
p331
aS'dcookie_register'
p332
aS'dcookie_unregister'
p333
aS'get_dcookie'
p334
aS'prof_on'
p335
aS'profile_event_register'
p336
aS'profile_event_unregister'
p337
aS'profile_hits'
p338
aS'ring_buffer_alloc_read_page'
p339
aS'ring_buffer_bytes_cpu'
p340
aS'ring_buffer_change_overwrite'
p341
aS'ring_buffer_commit_overrun_cpu'
p342
aS'ring_buffer_consume'
p343
aS'ring_buffer_discard_commit'
p344
aS'ring_buffer_dropped_events_cpu'
p345
aS'ring_buffer_empty'
p346
aS'ring_buffer_empty_cpu'
p347
aS'ring_buffer_entries'
p348
aS'ring_buffer_entries_cpu'
p349
aS'ring_buffer_event_data'
p350
aS'ring_buffer_event_length'
p351
aS'ring_buffer_free'
p352
aS'ring_buffer_free_read_page'
p353
aS'ring_buffer_iter_empty'
p354
aS'ring_buffer_iter_peek'
p355
aS'ring_buffer_iter_reset'
p356
aS'ring_buffer_lock_reserve'
p357
aS'ring_buffer_normalize_time_stamp'
p358
aS'ring_buffer_oldest_event_ts'
p359
aS'ring_buffer_overrun_cpu'
p360
aS'ring_buffer_overruns'
p361
aS'ring_buffer_peek'
p362
aS'ring_buffer_read'
p363
aS'ring_buffer_read_events_cpu'
p364
aS'ring_buffer_read_finish'
p365
aS'ring_buffer_read_page'
p366
aS'ring_buffer_read_prepare'
p367
aS'ring_buffer_read_prepare_sync'
p368
aS'ring_buffer_read_start'
p369
aS'ring_buffer_record_disable'
p370
aS'ring_buffer_record_disable_cpu'
p371
aS'ring_buffer_record_enable'
p372
aS'ring_buffer_record_enable_cpu'
p373
aS'ring_buffer_record_off'
p374
aS'ring_buffer_record_on'
p375
aS'ring_buffer_reset'
p376
aS'ring_buffer_reset_cpu'
p377
aS'ring_buffer_resize'
p378
aS'ring_buffer_size'
p379
aS'ring_buffer_swap_cpu'
p380
aS'ring_buffer_time_stamp'
p381
aS'ring_buffer_unlock_commit'
p382
aS'ring_buffer_write'
p383
aS'task_handoff_register'
p384
aS'task_handoff_unregister'
p385
aS'trace_clock_local'
p386
ass(S'image'
p387
g183
NS'586'
p388
tp389
(dp390
S'configs'
p391
(lp392
S'kernelarch-x86/config-arch-32'
p393
aS'i386/config.586'
p394
ass(S'image'
p395
S's390x'
p396
NS's390x'
p397
tp398
(dp399
S'configs'
p400
(lp401
S'kernelarch-s390/config-arch-64'
p402
ass(S'base'
p403
g183
tp404
(dp405
S'kernel-arch'
p406
S'x86'
p407
sS'featuresets'
p408
(lp409
S'none'
p410
aS'rt'
p411
ass(S'base'
p412
g220
tp413
(dp414
S'kernel-arch'
p415
S'mips'
p416
sg205
(lp417
g94
ass(S'relations'
p418
g5
tp419
(dp420
S'headers%gcc-4.8'
p421
S'linux-compiler-gcc-4.8-x86'
p422
ss(S'description'
p423
g220
NS'loongson-2f'
p424
tp425
(dp426
S'hardware'
p427
S'Loongson 2F'
p428
sS'hardware-long'
p429
S'Lemote Loongson 2F systems'
p430
ss(S'description'
p431
g220
NS'loongson-2e'
p432
tp433
(dp434
S'hardware'
p435
S'Loongson 2E'
p436
sS'hardware-long'
p437
S'Lemote Loongson 2E systems'
p438
ss(S'description'
p439
g41
NS'mckinley'
p440
tp441
(dp442
S'hardware'
p443
S'Itanium II'
p444
ss(S'description'
p445
g250
NS'5kc-malta'
p446
tp447
(dp448
S'hardware'
p449
S'MIPS Malta (64-bit)'
p450
sS'hardware-long'
p451
S'MIPS Malta boards (64-bit)'
p452
ss(S'image'
p453
g220
NS'loongson-2e'
p454
tp455
(dp456
S'configs'
p457
(lp458
S'kernelarch-mips/config.loongson-2e'
p459
ass(S'relations'
p460
S's390'
p461
tp462
(dp463
S'headers%gcc-4.8'
p464
S'linux-compiler-gcc-4.8-s390'
p465
ss(S'build'
p466
g228
NS'rpi'
p467
tp468
(dp469
S'image-file'
p470
S'arch/arm/boot/zImage'
p471
ss(g92
g220
g94
tp472
(dp473
g97
I01
sg98
(lp474
S'sb1-bcm91250a'
p475
aS'4kc-malta'
p476
aS'5kc-malta'
p477
aS'loongson-2e'
p478
aS'loongson-2f'
p479
aS'loongson-3'
p480
ass(S'image'
p481
g250
NS'r4k-ip22'
p482
tp483
(dp484
S'configs'
p485
(lp486
S'kernelarch-mips/config.r4k-ip22'
p487
ass(S'description'
p488
S'powerpcspe'
p489
tp490
(dp491
S'hardware'
p492
S'32-bit PowerPC with SPE (instead of AltiVec) with SMP support'
p493
ss(S'relations'
p494
tp495
(dp496
S'gcc-4.8'
p497
S'gcc-4.8'
p498
sS'initramfs-fallback'
p499
S'linux-initramfs-tool'
p500
sS'gcc-4.7'
p501
S'gcc-4.7'
p502
sS'gcc-4.6'
p503
S'gcc-4.6'
p504
sS'gcc-4.4'
p505
S'gcc-4.4'
p506
sS'initramfs-tools'
p507
S'initramfs-tools (>= 0.110~)'
p508
ss(S'build'
p509
g461
tp510
(dp511
S'image-file'
p512
S'arch/s390/boot/image'
p513
ss(S'description'
p514
g200
NS'alpha-smp'
p515
tp516
(dp517
S'hardware'
p518
S'Alpha SMP'
p519
sS'hardware-long'
p520
S'DEC Alpha SMP systems with extended kernel start address (Wildfire, Titan, Marvel)'
p521
ss(S'image'
p522
g52
NS'ixp4xx'
p523
tp524
(dp525
S'check-size'
p526
S'1441760'
p527
sS'configs'
p528
(lp529
S'armel/config-reduced'
p530
aS'armel/config.ixp4xx'
p531
ass(S'image'
p532
g34
NS'powerpc64'
p533
tp534
(dp535
S'configs'
p536
(lp537
S'kernelarch-powerpc/config-arch-64'
p538
aS'kernelarch-powerpc/config-arch-64-be'
p539
ass(S'description'
p540
g220
NS'5kc-malta'
p541
tp542
(dp543
S'hardware'
p544
S'MIPS Malta (64-bit)'
p545
sS'hardware-long'
p546
S'MIPS Malta boards (64-bit)'
p547
ss(S'build'
p548
g489
tp549
(dp550
S'image-file'
p551
S'vmlinux'
p552
ss(g92
S'sh4'
p553
g94
tp554
(dp555
g97
I01
sg98
(lp556
S'sh7751r'
p557
aS'sh7785lcr'
p558
ass(S'build'
p559
g18
tp560
(dp561
S'image-file'
p562
S'vmlinux'
p563
ss(S'image'
p564
g5
NS'amd64'
p565
tp566
(dp567
S'configs'
p568
(lp569
S'kernelarch-x86/config-arch-64'
p570
ass(S'description'
p571
g553
NS'sh7751r'
p572
tp573
(dp574
S'hardware'
p575
S'sh7751r'
p576
sS'hardware-long'
p577
S'Renesas SH7751R R2D plus board'
p578
ss(S'image'
p579
S'sparc'
p580
NS'sparc64'
p581
tp582
(dp583
S'configs'
p584
(lp585
S'kernelarch-sparc/config-up'
p586
ass(S'base'
p587
g52
tp588
(dp589
S'kernel-arch'
p590
S'arm'
p591
sg205
(lp592
g94
ass(S'image'
p593
g220
NS'loongson-2f'
p594
tp595
(dp596
S'configs'
p597
(lp598
S'kernelarch-mips/config.loongson-2f'
p599
asS'recommends'
p600
S'libc6-loongson2f'
p601
ss(S'image'
p602
g183
NS'amd64'
p603
tp604
(dp605
S'configs'
p606
(lp607
S'kernelarch-x86/config-arch-64'
p608
asS'recommends'
p609
S'libc6-i686'
p610
ss(S'base'
p611
g580
tp612
(dp613
S'kernel-arch'
p614
S'sparc'
p615
sg205
(lp616
g94
ass(S'base'
p617
g489
tp618
(dp619
S'kernel-arch'
p620
S'powerpc'
p621
sg205
(lp622
g94
ass(S'build'
p623
g461
NS's390x'
p624
tp625
(dp626
S'debug-info'
p627
I01
ss(S'description'
p628
g93
NS'powerpc64'
p629
tp630
(dp631
S'hardware'
p632
S'64-bit PowerPC'
p633
ss(S'build'
p634
g396
NS's390x'
p635
tp636
(dp637
S'debug-info'
p638
I01
ss(S'description'
p639
g228
NS'armmp'
p640
tp641
(dp642
S'hardware'
p643
S'ARMv7 multiplatform compatible SoCs'
p644
sS'hardware-long'
p645
S'ARMv7 multiplatform kernel. See\nhttps://wiki.debian.org/DebianKernel/ARMMP for details of supported\nplatforms'
p646
ss(S'image'
p647
g220
NS'loongson-3'
p648
tp649
(dp650
S'configs'
p651
(lp652
S'kernelarch-mips/config.loongson-3'
p653
ass(g92
g461
g94
tp654
(dp655
g97
I01
sg98
(lp656
S's390x'
p657
ass(S'description'
p658
g553
NS'sh7785lcr'
p659
tp660
(dp661
S'hardware'
p662
S'sh7785lcr'
p663
sS'hardware-long'
p664
S'Renesas SH7785 reference board'
p665
ss(S'description'
p666
g52
NS'ixp4xx'
p667
tp668
(dp669
S'hardware'
p670
S'IXP4xx'
p671
sS'hardware-long'
p672
S'IXP4xx based systems (Linksys NSLU2, etc)'
p673
ss(S'description'
p674
g220
NS'loongson-3'
p675
tp676
(dp677
S'hardware'
p678
S'Loongson 3A/3B'
p679
sS'hardware-long'
p680
S'Loongson 3A or 3B based systems (e.g. from Loongson or Lemote)'
p681
ss(g92
g396
g94
tp682
(dp683
g97
I01
sg98
(lp684
S's390x'
p685
ass(S'base'
p686
g250
tp687
(dp688
S'kernel-arch'
p689
S'mips'
p690
sg205
(lp691
g94
ass(S'build'
p692
g5
tp693
(dp694
S'debug-info'
p695
I01
sS'image-file'
p696
S'arch/x86/boot/bzImage'
p697
ss(S'image'
p698
S'mips64'
p699
NS'octeon'
p700
tp701
(dp702
S'configs'
p703
(lp704
S'kernelarch-mips/config.octeon'
p705
ass(S'image'
p706
g220
NS'sb1-bcm91250a'
p707
tp708
(dp709
S'configs'
p710
(lp711
S'kernelarch-mips/config.sb1-bcm91250a'
p712
ass(S'build'
p713
g580
tp714
(dp715
S'image-file'
p716
S'arch/sparc/boot/zImage'
p717
ss(S'image'
p718
g220
tp719
(dp720
S'install-stem'
p721
S'vmlinux'
p722
ss(S'description'
p723
g18
NS'parisc'
p724
tp725
(dp726
S'hardware'
p727
S'32-bit PA-RISC'
p728
sS'hardware-long'
p729
S'HP PA-RISC 32-bit systems with max 4 GB RAM'
p730
ss(S'build'
p731
g34
tp732
(dp733
S'image-file'
p734
S'vmlinux'
p735
ss(S'build'
p736
g234
tp737
(dp738
S'debug-info'
p739
I01
sS'image-file'
p740
S'arch/arm64/boot/Image'
p741
ss(S'build'
p742
g220
tp743
(dp744
S'image-file'
p745
S'vmlinux'
p746
ss(S'base'
p747
g699
tp748
(dp749
S'kernel-arch'
p750
S'mips'
p751
sg205
(lp752
g94
ass(S'base'
p753
g5
tp754
(dp755
S'kernel-arch'
p756
S'x86'
p757
sS'featuresets'
p758
(lp759
S'none'
p760
aS'rt'
p761
ass(S'base'
p762
g41
tp763
(dp764
S'kernel-arch'
p765
S'ia64'
p766
sg205
(lp767
g94
asS'compiler'
p768
S'gcc-4.6'
p769
ss(S'image'
p770
g93
NS'powerpc64'
p771
tp772
(dp773
S'configs'
p774
(lp775
S'kernelarch-powerpc/config-arch-64'
p776
aS'kernelarch-powerpc/config-arch-64-be'
p777
ass(S'build'
p778
g250
tp779
(dp780
S'image-file'
p781
S'vmlinux'
p782
ss(S'image'
p783
g52
NS'kirkwood'
p784
tp785
(dp786
S'check-size'
p787
S'2097080'
p788
sS'breaks'
p789
S'flash-kernel (<< 3.14~)'
p790
sS'recommends'
p791
S'uboot-mkimage'
p792
ss(S'base'
p793
g461
tp794
(dp795
S'kernel-arch'
p796
S's390'
p797
sg205
(lp798
g94
ass(g92
g52
g94
tp799
(dp800
g97
I01
sg98
(lp801
S'ixp4xx'
p802
aS'kirkwood'
p803
aS'orion5x'
p804
aS'versatile'
p805
ass(S'description'
p806
g78
NS'5kc-malta'
p807
tp808
(dp809
S'hardware'
p810
S'MIPS Malta'
p811
sS'hardware-long'
p812
S'MIPS Malta boards'
p813
ss(S'description'
p814
S'sparc64'
p815
NS'sparc64-smp'
p816
tp817
(dp818
S'hardware'
p819
S'multiprocessor 64-bit UltraSPARC'
p820
ss(S'image'
p821
g220
NS'4kc-malta'
p822
tp823
(dp824
S'configs'
p825
(lp826
S'kernelarch-mips/config.4kc-malta'
p827
ass(S'description'
p828
g183
tp829
(dp830
S'part-long-pae'
p831
S'This kernel requires PAE (Physical Address Extension).\nThis feature is supported by the Intel Pentium Pro/II/III/4/4M/D, Xeon,\nCore and Atom; AMD Geode NX, Athlon (K7), Duron, Opteron, Sempron,\nTurion or Phenom; Transmeta Efficeon; VIA C7; and some other processors.'
p832
ss(S'image'
p833
g815
NS'sparc64'
p834
tp835
(dp836
S'configs'
p837
(lp838
S'kernelarch-sparc/config-up'
p839
ass(S'base'
p840
g18
NS'parisc64-smp'
p841
tp842
(dp843
S'override-host-type'
p844
S'hppa64-linux-gnu'
p845
sS'cflags'
p846
S'-fno-cse-follow-jumps'
p847
ss(S'build'
p848
g78
tp849
(dp850
S'image-file'
p851
S'vmlinux'
p852
ss(S'xen'
p853
g5
g27
S'amd64'
p854
tp855
(dp856
S'flavours'
p857
(lp858
S'amd64'
p859
ass(S'image'
p860
g78
NS'loongson-3'
p861
tp862
(dp863
S'configs'
p864
(lp865
S'kernelarch-mips/config.loongson-3'
p866
ass(S'image'
p867
g52
tp868
(dp869
S'suggests'
p870
S'fdutils'
p871
sS'configs'
p872
(lp873
S'kernelarch-arm/config'
p874
aS'armel/config'
p875
asS'install-stem'
p876
S'vmlinuz'
p877
ss(S'image'
p878
g699
NS'sb1-bcm91250a'
p879
tp880
(dp881
S'configs'
p882
(lp883
S'kernelarch-mips/config.sb1-bcm91250a'
p884
ass(S'image'
p885
g580
NS'sparc64-smp'
p886
tp887
(dp888
S'configs'
p889
(lp890
S'kernelarch-sparc/config-smp'
p891
ass(S'relations'
p892
g52
tp893
(dp894
S'headers%gcc-4.8'
p895
S'linux-compiler-gcc-4.8-arm'
p896
ss(S'image'
p897
g18
tp898
(dp899
S'suggests'
p900
S'palo'
p901
sS'install-stem'
p902
S'vmlinux'
p903
ss(g92
g699
g94
tp904
(dp905
g97
I01
sg98
(lp906
S'sb1-bcm91250a'
p907
aS'5kc-malta'
p908
aS'octeon'
p909
ass(S'relations'
p910
g18
tp911
(dp912
S'gcc-4.8'
p913
S'gcc-4.8, binutils-hppa64, gcc-4.8-hppa64'
p914
ss(S'description'
p915
g78
NS'octeon'
p916
tp917
(dp918
S'hardware'
p919
S'Octeon'
p920
sS'hardware-long'
p921
S'Cavium Networks Octeon'
p922
ss(g92
g18
g94
tp923
(dp924
g97
I01
sg98
(lp925
S'parisc'
p926
aS'parisc64-smp'
p927
ass(S'image'
p928
g34
NS'powerpc-smp'
p929
tp930
(dp931
S'configs'
p932
(lp933
S'powerpc/config.powerpc'
p934
aS'powerpc/config.powerpc-smp'
p935
ass(S'image'
p936
g200
tp937
(dp938
S'suggests'
p939
S'aboot, fdutils'
p940
sS'install-stem'
p941
S'vmlinuz'
p942
ss(S'base'
p943
g815
tp944
(dp945
S'kernel-arch'
p946
S'sparc'
p947
sg205
(lp948
g94
ass(S'base'
p949
S'or1k'
p950
tp951
(dp952
S'kernel-arch'
p953
S'openrisc'
p954
sS'featuresets'
p955
(lp956
ss(S'description'
p957
g52
NS'versatile'
p958
tp959
(dp960
S'hardware'
p961
S'Versatile'
p962
sS'hardware-long'
p963
S'Versatile systems (PB, AB, Qemu)'
p964
ss(S'base'
p965
g396
tp966
(dp967
S'kernel-arch'
p968
S's390'
p969
sg205
(lp970
g94
ass(S'image'
p971
g553
NS'sh7785lcr'
p972
tp973
(dp974
S'check-size'
p975
S'4194304'
p976
sS'recommends'
p977
S'uboot-mkimage'
p978
ss(S'description'
p979
g220
NS'sb1-bcm91250a'
p980
tp981
(dp982
S'hardware'
p983
S'BCM91250A'
p984
sS'hardware-long'
p985
S'Broadcom BCM91250A systems (aka SWARM)'
p986
ss(S'image'
p987
g93
tp988
(dp989
S'suggests'
p990
S'mkvmlinuz'
p991
sS'configs'
p992
(lp993
sS'install-stem'
p994
S'vmlinux'
p995
ss(S'image'
p996
g250
tp997
(dp998
S'install-stem'
p999
S'vmlinux'
p1000
ss(S'image'
p1001
g183
tp1002
(dp1003
S'install-stem'
p1004
S'vmlinuz'
p1005
sS'configs'
p1006
(lp1007
sS'bootloaders'
p1008
(lp1009
S'grub-pc'
p1010
aS'extlinux'
p1011
ass(S'image'
p1012
g461
NS's390x'
p1013
tp1014
(dp1015
S'configs'
p1016
(lp1017
S'kernelarch-s390/config-arch-64'
p1018
ass(S'image'
p1019
g461
tp1020
(dp1021
S'install-stem'
p1022
S'vmlinuz'
p1023
sS'configs'
p1024
(lp1025
sS'bootloaders'
p1026
(lp1027
S's390-tools'
p1028
ass(g92
g580
g94
tp1029
(dp1030
g97
I01
sg98
(lp1031
S'sparc64'
p1032
aS'sparc64-smp'
p1033
ass(S'image'
p1034
g234
NS'arm64'
p1035
tp1036
(dp1037
s(S'relations'
p1038
g34
tp1039
(dp1040
S'gcc-4.8'
p1041
S'gcc-4.8 (>= 4.8.2-21)'
p1042
ss(g92
g200
g94
tp1043
(dp1044
g97
I01
sg98
(lp1045
S'alpha-generic'
p1046
aS'alpha-smp'
p1047
ass(S'description'
p1048
g183
g184
S'686-pae'
p1049
tp1050
(dp1051
S'parts'
p1052
(lp1053
S'xen'
p1054
ass(S'base'
p1055
S'x32'
p1056
tp1057
(dp1058
S'kernel-arch'
p1059
S'x86'
p1060
sS'featuresets'
p1061
(lp1062
ss(S'base'
p1063
g93
tp1064
(dp1065
S'kernel-arch'
p1066
S'powerpc'
p1067
sg205
(lp1068
g94
ass(S'build'
p1069
g396
tp1070
(dp1071
S'image-file'
p1072
S'arch/s390/boot/image'
p1073
ss(S'description'
p1074
g5
NS'amd64'
p1075
tp1076
(dp1077
S'hardware'
p1078
S'64-bit PCs'
p1079
sS'hardware-long'
p1080
S'PCs with AMD64, Intel 64 or VIA Nano processors'
p1081
ss(g92
g250
g94
tp1082
(dp1083
g97
I01
sg98
(lp1084
S'r4k-ip22'
p1085
aS'r5k-ip32'
p1086
aS'sb1-bcm91250a'
p1087
aS'4kc-malta'
p1088
aS'5kc-malta'
p1089
aS'octeon'
p1090
ass(S'image'
p1091
g228
NS'armmp-lpae'
p1092
tp1093
(dp1094
S'configs'
p1095
(lp1096
S'armhf/config.armmp'
p1097
aS'armhf/config.lpae'
p1098
ass(S'build'
p1099
g200
tp1100
(dp1101
S'image-file'
p1102
S'arch/alpha/boot/vmlinux.gz'
p1103
ss(S'description'
p1104
g699
NS'sb1-bcm91250a'
p1105
tp1106
(dp1107
S'hardware'
p1108
S'BCM91250A'
p1109
sS'hardware-long'
p1110
S'Broadcom BCM91250A systems (aka SWARM)'
p1111
ss(S'image'
p1112
g699
tp1113
(dp1114
S'install-stem'
p1115
S'vmlinux'
p1116
ss(S'base'
p1117
NS'rt'
p1118
tp1119
(dp1120
S'enabled'
p1121
I00
ss(g92
g41
g94
tp1122
(dp1123
g97
I01
sg98
(lp1124
S'itanium'
p1125
aS'mckinley'
p1126
ass(S'build'
p1127
g553
tp1128
(dp1129
S'image-file'
p1130
S'arch/sh/boot/zImage'
p1131
ss(S'image'
p1132
S'm68k'
p1133
tp1134
(dp1135
S'suggests'
p1136
S'vmelilo, fdutils'
p1137
sS'install-stem'
p1138
S'vmlinuz'
p1139
ss(S'description'
p1140
g34
NS'powerpc'
p1141
tp1142
(dp1143
S'hardware'
p1144
S'uniprocessor 32-bit PowerPC'
p1145
ss(S'base'
p1146
g234
S'none'
p1147
tp1148
(dp1149
S'flavours'
p1150
(lp1151
S'arm64'
p1152
ass(S'build'
p1153
g699
tp1154
(dp1155
S'image-file'
p1156
S'vmlinux'
p1157
ss(S'build'
p1158
g228
tp1159
(dp1160
S'image-file'
p1161
S'arch/arm/boot/zImage'
p1162
ss(S'description'
p1163
g78
NS'loongson-3'
p1164
tp1165
(dp1166
S'hardware'
p1167
S'Loongson 3A/3B'
p1168
sS'hardware-long'
p1169
S'Loongson 3A or 3B based systems (e.g. from Loongson or Lemote)'
p1170
ss(S'build'
p1171
g41
tp1172
(dp1173
S'image-file'
p1174
S'vmlinux.gz'
p1175
ss(S'base'
p1176
g228
tp1177
(dp1178
S'kernel-arch'
p1179
S'arm'
p1180
sg205
(lp1181
g94
ass(S'abi'
p1182
g52
NS'kirkwood'
p1183
tp1184
(dp1185
S'ignore-changes'
p1186
(lp1187
S'zs_create_pool'
p1188
aS'zs_destroy_pool'
p1189
aS'zs_free'
p1190
aS'zs_get_total_size_bytes'
p1191
aS'zs_malloc'
p1192
aS'zs_map_object'
p1193
aS'zs_unmap_object'
p1194
aS'fips_enabled'
p1195
aS'dcookie_register'
p1196
aS'dcookie_unregister'
p1197
aS'get_dcookie'
p1198
aS'prof_on'
p1199
aS'profile_event_register'
p1200
aS'profile_event_unregister'
p1201
aS'profile_hits'
p1202
aS'ring_buffer_swap_cpu'
p1203
aS'task_handoff_register'
p1204
aS'task_handoff_unregister'
p1205
aS'disable_kprobe'
p1206
aS'enable_kprobe'
p1207
aS'jprobe_return'
p1208
aS'profile_hits'
p1209
aS'register_jprobe'
p1210
aS'register_jprobes'
p1211
aS'register_kprobe'
p1212
aS'register_kprobes'
p1213
aS'register_kretprobe'
p1214
aS'register_kretprobes'
p1215
aS'unregister_jprobe'
p1216
aS'unregister_jprobes'
p1217
aS'unregister_kprobe'
p1218
aS'unregister_kprobes'
p1219
aS'unregister_kretprobe'
p1220
aS'unregister_kretprobes'
p1221
ass(S'description'
p1222
g228
NS'rpi'
p1223
tp1224
(dp1225
S'hardware'
p1226
S'RaspberryPI'
p1227
sS'hardware-long'
p1228
S'Raspberry PI'
p1229
ss(S'image'
p1230
g553
tp1231
(dp1232
S'suggests'
p1233
S'fdutils'
p1234
sS'install-stem'
p1235
S'vmlinuz'
p1236
ss(S'build'
p1237
g183
NS'686-pae'
p1238
tp1239
(dp1240
S'debug-info'
p1241
I01
ss(S'base'
p1242
g18
tp1243
(dp1244
S'kernel-arch'
p1245
S'parisc'
p1246
sg205
(lp1247
g94
ass(g92
g78
g94
tp1248
(dp1249
g97
I01
sg98
(lp1250
S'sb1-bcm91250a'
p1251
aS'5kc-malta'
p1252
aS'loongson-3'
p1253
aS'octeon'
p1254
ass(S'image'
p1255
g580
tp1256
(dp1257
S'suggests'
p1258
S'silo, fdutils'
p1259
sS'configs'
p1260
(lp1261
sS'install-stem'
p1262
S'vmlinuz'
p1263
ss(S'image'
p1264
g220
NS'5kc-malta'
p1265
tp1266
(dp1267
S'configs'
p1268
(lp1269
S'kernelarch-mips/config.5kc-malta'
p1270
ass(S'description'
p1271
tp1272
(dp1273
S'part-long-up'
p1274
S'This kernel is not suitable for SMP (multi-processor,\nmulti-core or hyper-threaded) systems.'
p1275
sS'part-long-xen'
p1276
S'This kernel also runs on a Xen hypervisor.\nIt supports both privileged (dom0) and unprivileged (domU) operation.'
p1277
ss(S'build'
p1278
g815
tp1279
(dp1280
S'image-file'
p1281
S'arch/sparc/boot/zImage'
p1282
ss(S'relations'
p1283
g228
tp1284
(dp1285
S'headers%gcc-4.8'
p1286
S'linux-compiler-gcc-4.8-arm'
p1287
ss(S'image'
p1288
g250
NS'r5k-ip32'
p1289
tp1290
(dp1291
S'configs'
p1292
(lp1293
S'kernelarch-mips/config.r5k-ip32'
p1294
ass(S'description'
p1295
g234
NS'arm64'
p1296
tp1297
(dp1298
S'hardware'
p1299
S'64-bit ARMv8 machines'
p1300
ss(S'description'
p1301
g41
NS'itanium'
p1302
tp1303
(dp1304
S'hardware'
p1305
S'Itanium'
p1306
ss(S'image'
p1307
g815
tp1308
(dp1309
S'suggests'
p1310
S'silo, fdutils'
p1311
sS'configs'
p1312
(lp1313
sS'install-stem'
p1314
S'vmlinuz'
p1315
ss(S'relations'
p1316
g396
tp1317
(dp1318
S'headers%gcc-4.8'
p1319
S'linux-compiler-gcc-4.8-s390'
p1320
ss(S'base'
p1321
g34
tp1322
(dp1323
S'kernel-arch'
p1324
S'powerpc'
p1325
sg205
(lp1326
g94
ass(S'base'
p1327
g183
g184
tp1328
(dp1329
S'flavours'
p1330
(lp1331
S'586'
p1332
aS'686-pae'
p1333
aS'amd64'
p1334
ass(S'description'
p1335
g183
NS'586'
p1336
tp1337
(dp1338
S'hardware'
p1339
S'older PCs'
p1340
sS'parts'
p1341
(lp1342
S'up'
p1343
asS'hardware-long'
p1344
S'PCs with a single processor not supporting PAE'
p1345
ss(S'description'
p1346
g396
NS's390x'
p1347
tp1348
(dp1349
S'hardware'
p1350
S'IBM zSeries'
p1351
ss(S'image'
p1352
g250
NS'octeon'
p1353
tp1354
(dp1355
S'configs'
p1356
(lp1357
S'kernelarch-mips/config.octeon'
p1358
ass(S'image'
p1359
g250
NS'sb1-bcm91250a'
p1360
tp1361
(dp1362
S'configs'
p1363
(lp1364
S'kernelarch-mips/config.sb1-bcm91250a'
p1365
ass(S'image'
p1366
g78
NS'sb1-bcm91250a'
p1367
tp1368
(dp1369
S'configs'
p1370
(lp1371
S'kernelarch-mips/config.sb1-bcm91250a'
p1372
ass(S'image'
p1373
g699
NS'5kc-malta'
p1374
tp1375
(dp1376
S'configs'
p1377
(lp1378
S'kernelarch-mips/config.5kc-malta'
p1379
ass(S'base'
p1380
g553
tp1381
(dp1382
S'kernel-arch'
p1383
S'sh'
p1384
sg205
(lp1385
g94
ass(S'description'
p1386
g250
NS'r5k-ip32'
p1387
tp1388
(dp1389
S'hardware'
p1390
S'SGI IP32'
p1391
sS'hardware-long'
p1392
S'SGI IP32 systems (O2)'
p1393
ss(S'image'
p1394
g489
tp1395
(dp1396
S'suggests'
p1397
S'mkvmlinuz'
p1398
sS'install-stem'
p1399
S'vmlinux'
p1400
ss(S'image'
p1401
g228
tp1402
(dp1403
S'suggests'
p1404
S'fdutils'
p1405
sS'configs'
p1406
(lp1407
S'kernelarch-arm/config'
p1408
aS'armhf/config'
p1409
asS'install-stem'
p1410
S'vmlinuz'
p1411
ss(S'abi'
p1412
tp1413
(dp1414
S'abiname'
p1415
S'4'
p1416
sS'ignore-changes'
p1417
(lp1418
S'module:arch/x86/kvm/kvm'
p1419
aS'module:drivers/md/dm-snapshot'
p1420
aS'module:drivers/mtd/spi-nor/spi-nor'
p1421
aS'module:drivers/net/ethernet/broadcom/bnx2x/bnx2x'
p1422
aS'module:drivers/net/wireless/**'
p1423
aS'module:drivers/scsi/qla2xxx/qla2xxx'
p1424
aS'module:drivers/target/iscsi/iscsi_target_mod'
p1425
aS'module:drivers/target/target_core_mod'
p1426
aS'module:drivers/usb/musb/*'
p1427
aS'module:sound/i2c/other/snd-ak4113'
p1428
aS'module:sound/i2c/other/snd-ak4114'
p1429
aS'azx_alloc_cmd_io'
p1430
aS'azx_free_cmd_io'
p1431
aS'azx_get_response'
p1432
aS'azx_init_cmd_io'
p1433
aS'azx_send_cmd'
p1434
aS'cpuidle_*'
p1435
aS'musb_*'
p1436
aS'__add_pages'
p1437
aS'__remove_pages'
p1438
aS'of_device_is_stdout_path'
p1439
aS'module:sound/soc/*'
p1440
aS'clk_divider_ro_ops'
p1441
aS'tick_nohz_idle_enter'
p1442
aS'tick_nohz_idle_exit'
p1443
ass(S'relations'
p1444
g93
tp1445
(dp1446
S'gcc-4.8'
p1447
S'gcc-4.8 (>= 4.8.2-21)'
p1448
ss(g92
g489
g94
tp1449
(dp1450
g97
I01
sg98
(lp1451
S'powerpcspe'
p1452
ass(g92
g1133
g94
tp1453
(dp1454
g97
I01
sg98
(lp1455
S'm68k'
p1456
ass(S'image'
p1457
g250
NS'5kc-malta'
p1458
tp1459
(dp1460
S'configs'
p1461
(lp1462
S'kernelarch-mips/config.5kc-malta'
p1463
ass(S'description'
p1464
g1133
NS'm68k'
p1465
tp1466
(dp1467
S'hardware'
p1468
S'Motorola MC68020+ family'
p1469
ss(S'base'
p1470
tp1471
(dp1472
S'arches'
p1473
(lp1474
S'alpha'
p1475
aS'amd64'
p1476
aS'arm64'
p1477
aS'armel'
p1478
aS'armhf'
p1479
aS'hppa'
p1480
aS'i386'
p1481
aS'ia64'
p1482
aS'm68k'
p1483
aS'mips'
p1484
aS'mipsel'
p1485
aS'mips64'
p1486
aS'mips64el'
p1487
aS'or1k'
p1488
aS'powerpc'
p1489
aS'powerpcspe'
p1490
aS'ppc64'
p1491
aS'ppc64el'
p1492
aS's390'
p1493
aS's390x'
p1494
aS'sh4'
p1495
aS'sparc'
p1496
aS'sparc64'
p1497
aS'x32'
p1498
asS'featuresets'
p1499
(lp1500
S'none'
p1501
aS'rt'
p1502
asS'compiler'
p1503
S'gcc-4.8'
p1504
ss(S'description'
p1505
g580
NS'sparc64-smp'
p1506
tp1507
(dp1508
S'hardware'
p1509
S'multiprocessor 64-bit UltraSPARC'
p1510
ss(S'build'
p1511
g1133
tp1512
(dp1513
S'image-file'
p1514
S'vmlinux.gz'
p1515
ss(S'description'
p1516
g699
NS'octeon'
p1517
tp1518
(dp1519
S'hardware'
p1520
S'Octeon'
p1521
sS'hardware-long'
p1522
S'Cavium Networks Octeon'
p1523
ss(S'build'
p1524
g52
tp1525
(dp1526
S'image-file'
p1527
S'arch/arm/boot/zImage'
p1528
ss(g92
g34
g94
tp1529
(dp1530
g97
I01
sg98
(lp1531
S'powerpc'
p1532
aS'powerpc-smp'
p1533
aS'powerpc64'
p1534
ass(S'image'
p1535
g78
tp1536
(dp1537
S'install-stem'
p1538
S'vmlinux'
p1539
ss(S'description'
p1540
g200
NS'alpha-generic'
p1541
tp1542
(dp1543
S'hardware'
p1544
S'Alpha'
p1545
sS'hardware-long'
p1546
S'DEC Alpha systems with extended kernel start address (Wildfire, Titan, Marvel)'
p1547
ss(S'base'
p1548
g258
tp1549
(dp1550
S'kernel-arch'
p1551
S'powerpc'
p1552
sg205
(lp1553
g94
ass(S'base'
p1554
g78
tp1555
(dp1556
S'kernel-arch'
p1557
S'mips'
p1558
sg205
(lp1559
g94
ass(S'base'
p1560
g1133
tp1561
(dp1562
S'kernel-arch'
p1563
S'm68k'
p1564
sg205
(lp1565
g94
asS'cflags'
p1566
S'-ffreestanding'
p1567
sS'compiler'
p1568
S'gcc-4.8'
p1569
ss(S'image'
p1570
tp1571
(dp1572
S'initramfs-generators'
p1573
(lp1574
S'initramfs-tools'
p1575
aS'initramfs-fallback'
p1576
asS'type'
p1577
S'plain'
p1578
ss(S'description'
p1579
g183
NS'686-pae'
p1580
tp1581
(dp1582
S'hardware'
p1583
S'modern PCs'
p1584
sS'parts'
p1585
(lp1586
S'pae'
p1587
asS'hardware-long'
p1588
S'PCs with one or more processors supporting PAE'
p1589
ss(g92
g815
g94
tp1590
(dp1591
g97
I01
sg98
(lp1592
S'sparc64'
p1593
aS'sparc64-smp'
p1594
ass(S'description'
p1595
g183
NS'amd64'
p1596
tp1597
(dp1598
S'hardware'
p1599
S'64-bit PCs'
p1600
sS'parts'
p1601
(lp1602
S'xen'
p1603
asS'hardware-long'
p1604
S'PCs with AMD64, Intel 64 or VIA Nano processors'
p1605
ss(S'description'
p1606
g699
NS'5kc-malta'
p1607
tp1608
(dp1609
S'hardware'
p1610
S'MIPS Malta'
p1611
sS'hardware-long'
p1612
S'MIPS Malta boards'
p1613
ss(S'image'
p1614
g815
NS'sparc64-smp'
p1615
tp1616
(dp1617
S'configs'
p1618
(lp1619
S'kernelarch-sparc/config-smp'
p1620
ass(S'description'
p1621
g580
NS'sparc32'
p1622
tp1623
(dp1624
S'hardware'
p1625
S'uniprocessor sparc32 (sun4m)'
p1626
ss(S'image'
p1627
g183
NS'686-pae'
p1628
tp1629
(dp1630
S'configs'
p1631
(lp1632
S'kernelarch-x86/config-arch-32'
p1633
aS'i386/config.686-pae'
p1634
asS'recommends'
p1635
S'libc6-i686'
p1636
ss(S'image'
p1637
g580
NS'sparc32'
p1638
tp1639
(dp1640
S'image-postproc'
p1641
S'sparc32-image-postproc'
p1642
ss(S'description'
p1643
g250
NS'octeon'
p1644
tp1645
(dp1646
S'hardware'
p1647
S'Octeon'
p1648
sS'hardware-long'
p1649
S'Cavium Networks Octeon'
p1650
ss(S'description'
p1651
g815
NS'sparc64'
p1652
tp1653
(dp1654
S'hardware'
p1655
S'uniprocessor 64-bit UltraSPARC'
p1656
ss(S'description'
p1657
g250
NS'sb1-bcm91250a'
p1658
tp1659
(dp1660
S'hardware'
p1661
S'BCM91250A'
p1662
sS'hardware-long'
p1663
S'Broadcom BCM91250A systems (aka SWARM)'
p1664
ss(S'description'
p1665
g250
NS'r4k-ip22'
p1666
tp1667
(dp1668
S'hardware'
p1669
S'SGI IP22'
p1670
sS'hardware-long'
p1671
S'SGI IP22 systems (Indy, Indigo2)'
p1672
ss(S'image'
p1673
g396
tp1674
(dp1675
S'install-stem'
p1676
S'vmlinuz'
p1677
sS'configs'
p1678
(lp1679
sS'bootloaders'
p1680
(lp1681
S's390-tools'
p1682
ass(S'image'
p1683
g234
tp1684
(dp1685
S'install-stem'
p1686
S'vmlinuz'
p1687
ss(S'description'
p1688
g250
NS'4kc-malta'
p1689
tp1690
(dp1691
S'hardware'
p1692
S'MIPS Malta'
p1693
sS'hardware-long'
p1694
S'MIPS Malta boards'
p1695
ss(S'description'
p1696
g461
NS's390x'
p1697
tp1698
(dp1699
S'hardware'
p1700
S'IBM zSeries'
p1701
ss(S'image'
p1702
g258
NS'powerpc64le'
p1703
tp1704
(dp1705
S'configs'
p1706
(lp1707
S'kernelarch-powerpc/config-arch-64'
p1708
aS'kernelarch-powerpc/config-arch-64-le'
p1709
ass(S'description'
p1710
g580
NS'sparc64'
p1711
tp1712
(dp1713
S'hardware'
p1714
S'uniprocessor 64-bit UltraSPARC'
p1715
ss(S'build'
p1716
g183
tp1717
(dp1718
S'image-file'
p1719
S'arch/x86/boot/bzImage'
p1720
ss(g92
g258
g94
tp1721
(dp1722
g97
I01
sg98
(lp1723
S'powerpc64le'
p1724
asstp1725
Rp1726
.