ccopy_reg
_reconstructor
p0
(cdebian_linux.config
ConfigCore
p1
c__builtin__
dict
p2
(dp3
(S'image'
p4
S'amd64'
p5
NS'amd64'
p6
tp7
(dp8
S'configs'
p9
(lp10
S'kernelarch-x86/config-arch-64'
p11
ass(S'description'
p12
S'arm64'
p13
NS'arm64'
p14
tp15
(dp16
S'hardware'
p17
S'64-bit ARMv8 machines'
p18
ss(S'image'
p19
g5
tp20
(dp21
S'install-stem'
p22
S'vmlinuz'
p23
sS'configs'
p24
(lp25
sS'bootloaders'
p26
(lp27
S'grub-pc'
p28
aS'grub-efi'
p29
aS'extlinux'
p30
ass(S'description'
p31
S'alpha'
p32
NS'alpha-generic'
p33
tp34
(dp35
S'hardware'
p36
S'Alpha'
p37
sS'hardware-long'
p38
S'DEC Alpha systems with extended kernel start address (Wildfire, Titan, Marvel)'
p39
ss(S'description'
p40
S'mips'
p41
NS'sb1-bcm91250a'
p42
tp43
(dp44
S'hardware'
p45
S'BCM91250A'
p46
sS'hardware-long'
p47
S'Broadcom BCM91250A systems (aka SWARM)'
p48
ss(S'base'
p49
g5
S'none'
p50
tp51
(dp52
S'flavours'
p53
(lp54
S'amd64'
p55
ass(S'image'
p56
S'powerpcspe'
p57
tp58
(dp59
S'suggests'
p60
S'mkvmlinuz'
p61
sS'install-stem'
p62
S'vmlinux'
p63
ss(S'description'
p64
S'armel'
p65
NS'kirkwood'
p66
tp67
(dp68
S'hardware'
p69
S'Marvell Kirkwood'
p70
sS'hardware-long'
p71
S'Marvell Kirkwood based systems (SheevaPlug, QNAP TS-119/TS-219, etc)'
p72
ss(S'image'
p73
g13
tp74
(dp75
S'install-stem'
p76
S'vmlinuz'
p77
ss(S'image'
p78
S'ia64'
p79
tp80
(dp81
S'suggests'
p82
S'fdutils'
p83
sS'bootloaders'
p84
(lp85
S'elilo'
p86
asS'install-stem'
p87
S'vmlinuz'
p88
ss(S'description'
p89
g32
NS'alpha-smp'
p90
tp91
(dp92
S'hardware'
p93
S'Alpha SMP'
p94
sS'hardware-long'
p95
S'DEC Alpha SMP systems with extended kernel start address (Wildfire, Titan, Marvel)'
p96
ss(S'image'
p97
g41
NS'5kc-malta'
p98
tp99
(dp100
S'configs'
p101
(lp102
S'kernelarch-mips/config.5kc-malta'
p103
ass(S'build'
p104
S'mips64'
p105
tp106
(dp107
S'image-file'
p108
S'vmlinux'
p109
ss(S'description'
p110
g79
NS'itanium'
p111
tp112
(dp113
S'hardware'
p114
S'Itanium'
p115
ss(S'image'
p116
g41
NS'r4k-ip22'
p117
tp118
(dp119
S'configs'
p120
(lp121
S'kernelarch-mips/config.r4k-ip22'
p122
ass(S'description'
p123
g5
g50
S'amd64'
p124
tp125
(dp126
S'parts'
p127
(lp128
S'xen'
p129
ass(S'image'
p130
S'powerpc'
p131
NS'powerpc64'
p132
tp133
(dp134
S'configs'
p135
(lp136
S'kernelarch-powerpc/config-arch-64'
p137
aS'kernelarch-powerpc/config-arch-64-be'
p138
ass(S'base'
p139
S'ppc64'
p140
S'none'
p141
tp142
(dp143
S'implicit-flavour'
p144
I01
sS'flavours'
p145
(lp146
S'powerpc64'
p147
ass(S'abi'
p148
g65
NS'orion5x'
p149
tp150
(dp151
S'ignore-changes'
p152
(lp153
S'__ring_buffer_alloc'
p154
aS'dcookie_register'
p155
aS'dcookie_unregister'
p156
aS'get_dcookie'
p157
aS'prof_on'
p158
aS'profile_event_register'
p159
aS'profile_event_unregister'
p160
aS'profile_hits'
p161
aS'ring_buffer_alloc_read_page'
p162
aS'ring_buffer_bytes_cpu'
p163
aS'ring_buffer_change_overwrite'
p164
aS'ring_buffer_commit_overrun_cpu'
p165
aS'ring_buffer_consume'
p166
aS'ring_buffer_discard_commit'
p167
aS'ring_buffer_dropped_events_cpu'
p168
aS'ring_buffer_empty'
p169
aS'ring_buffer_empty_cpu'
p170
aS'ring_buffer_entries'
p171
aS'ring_buffer_entries_cpu'
p172
aS'ring_buffer_event_data'
p173
aS'ring_buffer_event_length'
p174
aS'ring_buffer_free'
p175
aS'ring_buffer_free_read_page'
p176
aS'ring_buffer_iter_empty'
p177
aS'ring_buffer_iter_peek'
p178
aS'ring_buffer_iter_reset'
p179
aS'ring_buffer_lock_reserve'
p180
aS'ring_buffer_normalize_time_stamp'
p181
aS'ring_buffer_oldest_event_ts'
p182
aS'ring_buffer_overrun_cpu'
p183
aS'ring_buffer_overruns'
p184
aS'ring_buffer_peek'
p185
aS'ring_buffer_read'
p186
aS'ring_buffer_read_events_cpu'
p187
aS'ring_buffer_read_finish'
p188
aS'ring_buffer_read_page'
p189
aS'ring_buffer_read_prepare'
p190
aS'ring_buffer_read_prepare_sync'
p191
aS'ring_buffer_read_start'
p192
aS'ring_buffer_record_disable'
p193
aS'ring_buffer_record_disable_cpu'
p194
aS'ring_buffer_record_enable'
p195
aS'ring_buffer_record_enable_cpu'
p196
aS'ring_buffer_record_off'
p197
aS'ring_buffer_record_on'
p198
aS'ring_buffer_reset'
p199
aS'ring_buffer_reset_cpu'
p200
aS'ring_buffer_resize'
p201
aS'ring_buffer_size'
p202
aS'ring_buffer_swap_cpu'
p203
aS'ring_buffer_time_stamp'
p204
aS'ring_buffer_unlock_commit'
p205
aS'ring_buffer_write'
p206
aS'task_handoff_register'
p207
aS'task_handoff_unregister'
p208
aS'trace_clock_local'
p209
ass(S'description'
p210
g79
NS'mckinley'
p211
tp212
(dp213
S'hardware'
p214
S'Itanium II'
p215
ss(S'description'
p216
S'i386'
p217
S'none'
p218
S'amd64'
p219
tp220
(dp221
S'parts'
p222
(lp223
S'xen'
p224
ass(S'image'
p225
S'mipsel'
p226
NS'loongson-2f'
p227
tp228
(dp229
S'configs'
p230
(lp231
S'kernelarch-mips/config.loongson-2f'
p232
asS'recommends'
p233
S'libc6-loongson2f'
p234
ss(S'base'
p235
g32
tp236
(dp237
S'kernel-arch'
p238
S'alpha'
p239
sS'featuresets'
p240
(lp241
g141
ass(S'build'
p242
S's390x'
p243
tp244
(dp245
S'image-file'
p246
S'arch/s390/boot/image'
p247
ss(g139
S'armhf'
p248
g141
tp249
(dp250
g144
I01
sg145
(lp251
S'armmp'
p252
aS'armmp-lpae'
p253
ass(S'image'
p254
g217
NS'amd64'
p255
tp256
(dp257
S'configs'
p258
(lp259
S'kernelarch-x86/config-arch-64'
p260
asS'recommends'
p261
S'libc6-i686'
p262
ss(S'base'
p263
g217
S'rt'
p264
tp265
(dp266
S'flavours'
p267
(lp268
S'686-pae'
p269
ass(S'image'
p270
S'ppc64el'
p271
tp272
(dp273
S'suggests'
p274
S'mkvmlinuz'
p275
sS'configs'
p276
(lp277
sS'install-stem'
p278
S'vmlinux'
p279
ss(S'relations'
p280
g217
tp281
(dp282
S'headers%gcc-4.8'
p283
S'linux-compiler-gcc-4.8-x86'
p284
ss(S'abi'
p285
NS'rt'
p286
tp287
(dp288
S'ignore-changes'
p289
(lp290
S'*'
p291
ass(S'image'
p292
g131
tp293
(dp294
S'suggests'
p295
S'mkvmlinuz'
p296
sS'configs'
p297
(lp298
sS'install-stem'
p299
S'vmlinux'
p300
ss(S'image'
p301
g41
NS'sb1-bcm91250a'
p302
tp303
(dp304
S'configs'
p305
(lp306
S'kernelarch-mips/config.sb1-bcm91250a'
p307
ass(S'base'
p308
g5
S'rt'
p309
tp310
(dp311
S'flavours'
p312
(lp313
S'amd64'
p314
ass(S'build'
p315
g271
tp316
(dp317
S'image-file'
p318
S'vmlinux'
p319
ss(S'build'
p320
g140
tp321
(dp322
S'image-file'
p323
S'vmlinux'
p324
ss(S'description'
p325
S'sh4'
p326
NS'sh7785lcr'
p327
tp328
(dp329
S'hardware'
p330
S'sh7785lcr'
p331
sS'hardware-long'
p332
S'Renesas SH7785 reference board'
p333
ss(S'base'
p334
g13
tp335
(dp336
S'kernel-arch'
p337
S'arm64'
p338
sS'featuresets'
p339
(lp340
S'none'
p341
ass(S'base'
p342
g217
tp343
(dp344
S'kernel-arch'
p345
S'x86'
p346
sS'featuresets'
p347
(lp348
S'none'
p349
aS'rt'
p350
ass(S'base'
p351
g226
tp352
(dp353
S'kernel-arch'
p354
S'mips'
p355
sg240
(lp356
g141
ass(S'relations'
p357
g5
tp358
(dp359
S'headers%gcc-4.8'
p360
S'linux-compiler-gcc-4.8-x86'
p361
ss(S'build'
p362
S's390'
p363
NS's390x'
p364
tp365
(dp366
S'debug-info'
p367
I01
ss(S'base'
p368
S'hppa'
p369
tp370
(dp371
S'kernel-arch'
p372
S'parisc'
p373
sg240
(lp374
g141
ass(S'image'
p375
g243
NS's390x'
p376
tp377
(dp378
S'configs'
p379
(lp380
S'kernelarch-s390/config-arch-64'
p381
ass(S'relations'
p382
g363
tp383
(dp384
S'headers%gcc-4.8'
p385
S'linux-compiler-gcc-4.8-s390'
p386
ss(g139
g226
g141
tp387
(dp388
g144
I01
sg145
(lp389
S'sb1-bcm91250a'
p390
aS'4kc-malta'
p391
aS'5kc-malta'
p392
aS'loongson-2e'
p393
aS'loongson-2f'
p394
aS'loongson-3'
p395
ass(S'description'
p396
g57
tp397
(dp398
S'hardware'
p399
S'32-bit PowerPC with SPE (instead of AltiVec) with SMP support'
p400
ss(S'image'
p401
S'sparc'
p402
NS'sparc64-smp'
p403
tp404
(dp405
S'configs'
p406
(lp407
S'kernelarch-sparc/config-smp'
p408
ass(S'relations'
p409
tp410
(dp411
S'gcc-4.8'
p412
S'gcc-4.8'
p413
sS'initramfs-fallback'
p414
S'linux-initramfs-tool'
p415
sS'gcc-4.7'
p416
S'gcc-4.7'
p417
sS'gcc-4.6'
p418
S'gcc-4.6'
p419
sS'gcc-4.4'
p420
S'gcc-4.4'
p421
sS'initramfs-tools'
p422
S'initramfs-tools (>= 0.110~)'
p423
ss(S'description'
p424
g65
NS'orion5x'
p425
tp426
(dp427
S'hardware'
p428
S'Marvell Orion'
p429
sS'hardware-long'
p430
S'Marvell Orion 5181, 5182 and 5281 based systems (QNAP TS-109/TS-209, etc)'
p431
ss(S'description'
p432
g226
NS'sb1-bcm91250a'
p433
tp434
(dp435
S'hardware'
p436
S'BCM91250A'
p437
sS'hardware-long'
p438
S'Broadcom BCM91250A systems (aka SWARM)'
p439
ss(S'build'
p440
g57
tp441
(dp442
S'image-file'
p443
S'vmlinux'
p444
ss(g139
g326
g141
tp445
(dp446
g144
I01
sg145
(lp447
S'sh7751r'
p448
aS'sh7785lcr'
p449
ass(S'build'
p450
g369
tp451
(dp452
S'image-file'
p453
S'vmlinux'
p454
ss(S'image'
p455
g217
NS'586'
p456
tp457
(dp458
S'configs'
p459
(lp460
S'kernelarch-x86/config-arch-32'
p461
aS'i386/config.586'
p462
ass(S'image'
p463
g140
NS'powerpc64'
p464
tp465
(dp466
S'configs'
p467
(lp468
S'kernelarch-powerpc/config-arch-64'
p469
aS'kernelarch-powerpc/config-arch-64-be'
p470
ass(S'abi'
p471
g65
NS'ixp4xx'
p472
tp473
(dp474
S'ignore-changes'
p475
(lp476
S'__ring_buffer_alloc'
p477
aS'dcookie_register'
p478
aS'dcookie_unregister'
p479
aS'get_dcookie'
p480
aS'prof_on'
p481
aS'profile_event_register'
p482
aS'profile_event_unregister'
p483
aS'profile_hits'
p484
aS'ring_buffer_alloc_read_page'
p485
aS'ring_buffer_bytes_cpu'
p486
aS'ring_buffer_change_overwrite'
p487
aS'ring_buffer_commit_overrun_cpu'
p488
aS'ring_buffer_consume'
p489
aS'ring_buffer_discard_commit'
p490
aS'ring_buffer_dropped_events_cpu'
p491
aS'ring_buffer_empty'
p492
aS'ring_buffer_empty_cpu'
p493
aS'ring_buffer_entries'
p494
aS'ring_buffer_entries_cpu'
p495
aS'ring_buffer_event_data'
p496
aS'ring_buffer_event_length'
p497
aS'ring_buffer_free'
p498
aS'ring_buffer_free_read_page'
p499
aS'ring_buffer_iter_empty'
p500
aS'ring_buffer_iter_peek'
p501
aS'ring_buffer_iter_reset'
p502
aS'ring_buffer_lock_reserve'
p503
aS'ring_buffer_normalize_time_stamp'
p504
aS'ring_buffer_oldest_event_ts'
p505
aS'ring_buffer_overrun_cpu'
p506
aS'ring_buffer_overruns'
p507
aS'ring_buffer_peek'
p508
aS'ring_buffer_read'
p509
aS'ring_buffer_read_events_cpu'
p510
aS'ring_buffer_read_finish'
p511
aS'ring_buffer_read_page'
p512
aS'ring_buffer_read_prepare'
p513
aS'ring_buffer_read_prepare_sync'
p514
aS'ring_buffer_read_start'
p515
aS'ring_buffer_record_disable'
p516
aS'ring_buffer_record_disable_cpu'
p517
aS'ring_buffer_record_enable'
p518
aS'ring_buffer_record_enable_cpu'
p519
aS'ring_buffer_record_off'
p520
aS'ring_buffer_record_on'
p521
aS'ring_buffer_reset'
p522
aS'ring_buffer_reset_cpu'
p523
aS'ring_buffer_resize'
p524
aS'ring_buffer_size'
p525
aS'ring_buffer_swap_cpu'
p526
aS'ring_buffer_time_stamp'
p527
aS'ring_buffer_unlock_commit'
p528
aS'ring_buffer_write'
p529
aS'task_handoff_register'
p530
aS'task_handoff_unregister'
p531
aS'trace_clock_local'
p532
ass(S'image'
p533
g65
NS'kirkwood'
p534
tp535
(dp536
S'check-size'
p537
S'2097080'
p538
sS'breaks'
p539
S'flash-kernel (<< 3.14~)'
p540
sS'recommends'
p541
S'u-boot-tools'
p542
ss(S'base'
p543
g65
tp544
(dp545
S'kernel-arch'
p546
S'arm'
p547
sg240
(lp548
g141
ass(S'image'
p549
g271
NS'powerpc64le'
p550
tp551
(dp552
S'configs'
p553
(lp554
S'kernelarch-powerpc/config-arch-64'
p555
aS'kernelarch-powerpc/config-arch-64-le'
p556
ass(S'build'
p557
g13
tp558
(dp559
S'debug-info'
p560
I01
sS'image-file'
p561
S'arch/arm64/boot/Image'
p562
ss(S'base'
p563
g402
tp564
(dp565
S'kernel-arch'
p566
S'sparc'
p567
sg240
(lp568
g141
ass(S'image'
p569
g226
NS'4kc-malta'
p570
tp571
(dp572
S'configs'
p573
(lp574
S'kernelarch-mips/config.4kc-malta'
p575
ass(S'base'
p576
g57
tp577
(dp578
S'kernel-arch'
p579
S'powerpc'
p580
sg240
(lp581
g141
ass(S'version'
p582
tp583
(dp584
S'abiname'
p585
S'3.16.0-4'
p586
sS'source'
p587
V3.16.43-2+deb8u3
p588
sS'abiname_base'
p589
S'3.16.0'
p590
sS'upstream'
p591
S'3.16'
p592
ss(S'description'
p593
g41
NS'octeon'
p594
tp595
(dp596
S'hardware'
p597
S'Octeon'
p598
sS'hardware-long'
p599
S'Cavium Networks Octeon'
p600
ss(g139
g363
g141
tp601
(dp602
g144
I01
sg145
(lp603
S's390x'
p604
ass(S'build'
p605
g41
tp606
(dp607
S'image-file'
p608
S'vmlinux'
p609
ss(S'description'
p610
g271
NS'powerpc64le'
p611
tp612
(dp613
S'hardware'
p614
S'Little-endian 64-bit PowerPC'
p615
ss(g139
g243
g141
tp616
(dp617
g144
I01
sg145
(lp618
S's390x'
p619
ass(S'base'
p620
g41
tp621
(dp622
S'kernel-arch'
p623
S'mips'
p624
sg240
(lp625
g141
ass(S'build'
p626
g5
tp627
(dp628
S'debug-info'
p629
I01
sS'image-file'
p630
S'arch/x86/boot/bzImage'
p631
ss(S'description'
p632
g363
NS's390x'
p633
tp634
(dp635
S'hardware'
p636
S'IBM zSeries'
p637
ss(S'image'
p638
g402
NS'sparc32'
p639
tp640
(dp641
S'image-postproc'
p642
S'sparc32-image-postproc'
p643
ss(S'description'
p644
S'mips64el'
p645
NS'loongson-3'
p646
tp647
(dp648
S'hardware'
p649
S'Loongson 3A/3B'
p650
sS'hardware-long'
p651
S'Loongson 3A or 3B based systems (e.g. from Loongson or Lemote)'
p652
ss(S'image'
p653
g65
NS'orion5x'
p654
tp655
(dp656
S'check-size'
p657
S'1572792'
p658
sS'configs'
p659
(lp660
S'armel/config-reduced'
p661
aS'armel/config.orion5x'
p662
asS'recommends'
p663
S'u-boot-tools'
p664
ss(S'build'
p665
g402
tp666
(dp667
S'image-file'
p668
S'arch/sparc/boot/zImage'
p669
ss(S'image'
p670
g226
tp671
(dp672
S'install-stem'
p673
S'vmlinux'
p674
ss(S'image'
p675
g248
tp676
(dp677
S'suggests'
p678
S'fdutils'
p679
sS'configs'
p680
(lp681
S'kernelarch-arm/config'
p682
aS'armhf/config'
p683
asS'install-stem'
p684
S'vmlinuz'
p685
ss(S'build'
p686
g131
tp687
(dp688
S'image-file'
p689
S'vmlinux'
p690
ss(S'description'
p691
g5
NS'amd64'
p692
tp693
(dp694
S'hardware'
p695
S'64-bit PCs'
p696
sS'hardware-long'
p697
S'PCs with AMD64, Intel 64 or VIA Nano processors'
p698
ss(S'description'
p699
S'm68k'
p700
NS'm68k'
p701
tp702
(dp703
S'hardware'
p704
S'Motorola MC68020+ family'
p705
ss(S'build'
p706
g226
tp707
(dp708
S'image-file'
p709
S'vmlinux'
p710
ss(S'image'
p711
g105
NS'5kc-malta'
p712
tp713
(dp714
S'configs'
p715
(lp716
S'kernelarch-mips/config.5kc-malta'
p717
ass(S'base'
p718
g5
tp719
(dp720
S'kernel-arch'
p721
S'x86'
p722
sS'featuresets'
p723
(lp724
S'none'
p725
aS'rt'
p726
ass(S'base'
p727
g79
tp728
(dp729
S'kernel-arch'
p730
S'ia64'
p731
sg240
(lp732
g141
asS'compiler'
p733
S'gcc-4.6'
p734
ss(S'description'
p735
g105
NS'octeon'
p736
tp737
(dp738
S'hardware'
p739
S'Octeon'
p740
sS'hardware-long'
p741
S'Cavium Networks Octeon'
p742
ss(S'image'
p743
g226
NS'loongson-2e'
p744
tp745
(dp746
S'configs'
p747
(lp748
S'kernelarch-mips/config.loongson-2e'
p749
ass(S'base'
p750
g363
tp751
(dp752
S'kernel-arch'
p753
S's390'
p754
sg240
(lp755
g141
ass(g139
g65
g141
tp756
(dp757
g144
I01
sg145
(lp758
S'ixp4xx'
p759
aS'kirkwood'
p760
aS'orion5x'
p761
aS'versatile'
p762
ass(S'description'
p763
g226
NS'loongson-2e'
p764
tp765
(dp766
S'hardware'
p767
S'Loongson 2E'
p768
sS'hardware-long'
p769
S'Lemote Loongson 2E systems'
p770
ss(S'description'
p771
g645
NS'octeon'
p772
tp773
(dp774
S'hardware'
p775
S'Octeon'
p776
sS'hardware-long'
p777
S'Cavium Networks Octeon'
p778
ss(S'description'
p779
g402
NS'sparc32'
p780
tp781
(dp782
S'hardware'
p783
S'uniprocessor sparc32 (sun4m)'
p784
ss(S'description'
p785
g105
NS'5kc-malta'
p786
tp787
(dp788
S'hardware'
p789
S'MIPS Malta'
p790
sS'hardware-long'
p791
S'MIPS Malta boards'
p792
ss(S'description'
p793
g217
NS'amd64'
p794
tp795
(dp796
S'hardware'
p797
S'64-bit PCs'
p798
sS'parts'
p799
(lp800
S'xen'
p801
asS'hardware-long'
p802
S'PCs with AMD64, Intel 64 or VIA Nano processors'
p803
ss(S'image'
p804
g65
NS'ixp4xx'
p805
tp806
(dp807
S'check-size'
p808
S'1441760'
p809
sS'configs'
p810
(lp811
S'armel/config-reduced'
p812
aS'armel/config.ixp4xx'
p813
ass(S'description'
p814
g217
tp815
(dp816
S'part-long-pae'
p817
S'This kernel requires PAE (Physical Address Extension).\nThis feature is supported by the Intel Pentium Pro/II/III/4/4M/D, Xeon,\nCore and Atom; AMD Geode NX, Athlon (K7), Duron, Opteron, Sempron,\nTurion or Phenom; Transmeta Efficeon; VIA C7; and some other processors.'
p818
ss(S'description'
p819
g217
NS'686-pae'
p820
tp821
(dp822
S'hardware'
p823
S'modern PCs'
p824
sS'parts'
p825
(lp826
S'pae'
p827
asS'hardware-long'
p828
S'PCs with one or more processors supporting PAE'
p829
ss(S'build'
p830
g645
tp831
(dp832
S'image-file'
p833
S'vmlinux'
p834
ss(S'xen'
p835
g5
g50
S'amd64'
p836
tp837
(dp838
S'flavours'
p839
(lp840
S'amd64'
p841
ass(S'image'
p842
g65
tp843
(dp844
S'suggests'
p845
S'fdutils'
p846
sS'configs'
p847
(lp848
S'kernelarch-arm/config'
p849
aS'armel/config'
p850
asS'install-stem'
p851
S'vmlinuz'
p852
ss(S'image'
p853
g363
tp854
(dp855
S'install-stem'
p856
S'vmlinuz'
p857
sS'configs'
p858
(lp859
sS'bootloaders'
p860
(lp861
S's390-tools'
p862
ass(S'image'
p863
g41
NS'octeon'
p864
tp865
(dp866
S'configs'
p867
(lp868
S'kernelarch-mips/config.octeon'
p869
ass(S'relations'
p870
g65
tp871
(dp872
S'headers%gcc-4.8'
p873
S'linux-compiler-gcc-4.8-arm'
p874
ss(S'image'
p875
g369
tp876
(dp877
S'suggests'
p878
S'palo'
p879
sS'install-stem'
p880
S'vmlinux'
p881
ss(g139
g105
g141
tp882
(dp883
g144
I01
sg145
(lp884
S'sb1-bcm91250a'
p885
aS'5kc-malta'
p886
aS'octeon'
p887
ass(S'relations'
p888
g369
tp889
(dp890
S'gcc-4.8'
p891
S'gcc-4.8, binutils-hppa64, gcc-4.8-hppa64'
p892
ss(S'image'
p893
g645
NS'loongson-3'
p894
tp895
(dp896
S'configs'
p897
(lp898
S'kernelarch-mips/config.loongson-3'
p899
ass(S'image'
p900
g645
NS'5kc-malta'
p901
tp902
(dp903
S'configs'
p904
(lp905
S'kernelarch-mips/config.5kc-malta'
p906
ass(S'base'
p907
g369
NS'parisc64-smp'
p908
tp909
(dp910
S'override-host-type'
p911
S'hppa64-linux-gnu'
p912
sS'cflags'
p913
S'-fno-cse-follow-jumps'
p914
ss(S'description'
p915
g41
NS'5kc-malta'
p916
tp917
(dp918
S'hardware'
p919
S'MIPS Malta (64-bit)'
p920
sS'hardware-long'
p921
S'MIPS Malta boards (64-bit)'
p922
ss(g139
g369
g141
tp923
(dp924
g144
I01
sg145
(lp925
S'parisc'
p926
aS'parisc64-smp'
p927
ass(S'image'
p928
g248
NS'armmp-lpae'
p929
tp930
(dp931
S'configs'
p932
(lp933
S'armhf/config.armmp'
p934
aS'armhf/config.lpae'
p935
ass(S'image'
p936
g32
tp937
(dp938
S'suggests'
p939
S'aboot, fdutils'
p940
sS'install-stem'
p941
S'vmlinuz'
p942
ss(S'base'
p943
S'sparc64'
p944
tp945
(dp946
S'kernel-arch'
p947
S'sparc'
p948
sg240
(lp949
g141
ass(S'image'
p950
g944
NS'sparc64'
p951
tp952
(dp953
S'configs'
p954
(lp955
S'kernelarch-sparc/config-up'
p956
ass(S'base'
p957
S'or1k'
p958
tp959
(dp960
S'kernel-arch'
p961
S'openrisc'
p962
sS'featuresets'
p963
(lp964
ss(S'image'
p965
g105
NS'octeon'
p966
tp967
(dp968
S'configs'
p969
(lp970
S'kernelarch-mips/config.octeon'
p971
ass(S'image'
p972
g13
NS'arm64'
p973
tp974
(dp975
s(S'description'
p976
g41
NS'r4k-ip22'
p977
tp978
(dp979
S'hardware'
p980
S'SGI IP22'
p981
sS'hardware-long'
p982
S'SGI IP22 systems (Indy, Indigo2)'
p983
ss(S'base'
p984
g243
tp985
(dp986
S'kernel-arch'
p987
S's390'
p988
sg240
(lp989
g141
ass(S'description'
p990
g402
NS'sparc64-smp'
p991
tp992
(dp993
S'hardware'
p994
S'multiprocessor 64-bit UltraSPARC'
p995
ss(S'image'
p996
g140
tp997
(dp998
S'suggests'
p999
S'mkvmlinuz'
p1000
sS'configs'
p1001
(lp1002
sS'install-stem'
p1003
S'vmlinux'
p1004
ss(S'image'
p1005
g41
tp1006
(dp1007
S'install-stem'
p1008
S'vmlinux'
p1009
ss(S'image'
p1010
g217
tp1011
(dp1012
S'install-stem'
p1013
S'vmlinuz'
p1014
sS'configs'
p1015
(lp1016
sS'bootloaders'
p1017
(lp1018
S'grub-pc'
p1019
aS'extlinux'
p1020
ass(S'description'
p1021
g243
NS's390x'
p1022
tp1023
(dp1024
S'hardware'
p1025
S'IBM zSeries'
p1026
ss(g139
g402
g141
tp1027
(dp1028
g144
I01
sg145
(lp1029
S'sparc64'
p1030
aS'sparc64-smp'
p1031
ass(S'description'
p1032
g65
NS'versatile'
p1033
tp1034
(dp1035
S'hardware'
p1036
S'Versatile'
p1037
sS'hardware-long'
p1038
S'Versatile systems (PB, AB, Qemu)'
p1039
ss(S'relations'
p1040
g131
tp1041
(dp1042
S'gcc-4.8'
p1043
S'gcc-4.8 (>= 4.8.2-21)'
p1044
ss(g139
g32
g141
tp1045
(dp1046
g144
I01
sg145
(lp1047
S'alpha-generic'
p1048
aS'alpha-smp'
p1049
ass(S'description'
p1050
g217
g218
S'686-pae'
p1051
tp1052
(dp1053
S'parts'
p1054
(lp1055
S'xen'
p1056
ass(g139
g79
g141
tp1057
(dp1058
g144
I01
sg145
(lp1059
S'itanium'
p1060
aS'mckinley'
p1061
ass(S'base'
p1062
g140
tp1063
(dp1064
S'kernel-arch'
p1065
S'powerpc'
p1066
sg240
(lp1067
g141
ass(S'image'
p1068
g226
NS'sb1-bcm91250a'
p1069
tp1070
(dp1071
S'configs'
p1072
(lp1073
S'kernelarch-mips/config.sb1-bcm91250a'
p1074
ass(g139
g41
g141
tp1075
(dp1076
g144
I01
sg145
(lp1077
S'r4k-ip22'
p1078
aS'r5k-ip32'
p1079
aS'sb1-bcm91250a'
p1080
aS'4kc-malta'
p1081
aS'5kc-malta'
p1082
aS'octeon'
p1083
ass(S'description'
p1084
g248
NS'armmp'
p1085
tp1086
(dp1087
S'hardware'
p1088
S'ARMv7 multiplatform compatible SoCs'
p1089
sS'hardware-long'
p1090
S'ARMv7 multiplatform kernel. See\nhttps://wiki.debian.org/DebianKernel/ARMMP for details of supported\nplatforms'
p1091
ss(S'build'
p1092
g32
tp1093
(dp1094
S'image-file'
p1095
S'arch/alpha/boot/vmlinux.gz'
p1096
ss(S'abi'
p1097
g65
NS'kirkwood'
p1098
tp1099
(dp1100
S'ignore-changes'
p1101
(lp1102
S'zs_create_pool'
p1103
aS'zs_destroy_pool'
p1104
aS'zs_free'
p1105
aS'zs_get_total_size_bytes'
p1106
aS'zs_malloc'
p1107
aS'zs_map_object'
p1108
aS'zs_unmap_object'
p1109
aS'fips_enabled'
p1110
aS'dcookie_register'
p1111
aS'dcookie_unregister'
p1112
aS'get_dcookie'
p1113
aS'prof_on'
p1114
aS'profile_event_register'
p1115
aS'profile_event_unregister'
p1116
aS'profile_hits'
p1117
aS'ring_buffer_swap_cpu'
p1118
aS'task_handoff_register'
p1119
aS'task_handoff_unregister'
p1120
aS'disable_kprobe'
p1121
aS'enable_kprobe'
p1122
aS'jprobe_return'
p1123
aS'profile_hits'
p1124
aS'register_jprobe'
p1125
aS'register_jprobes'
p1126
aS'register_kprobe'
p1127
aS'register_kprobes'
p1128
aS'register_kretprobe'
p1129
aS'register_kretprobes'
p1130
aS'unregister_jprobe'
p1131
aS'unregister_jprobes'
p1132
aS'unregister_kprobe'
p1133
aS'unregister_kprobes'
p1134
aS'unregister_kretprobe'
p1135
aS'unregister_kretprobes'
p1136
ass(S'image'
p1137
g105
tp1138
(dp1139
S'install-stem'
p1140
S'vmlinux'
p1141
ss(S'description'
p1142
g645
NS'5kc-malta'
p1143
tp1144
(dp1145
S'hardware'
p1146
S'MIPS Malta'
p1147
sS'hardware-long'
p1148
S'MIPS Malta boards'
p1149
ss(S'description'
p1150
g140
NS'powerpc64'
p1151
tp1152
(dp1153
S'hardware'
p1154
S'64-bit PowerPC'
p1155
ss(S'description'
p1156
g369
NS'parisc64-smp'
p1157
tp1158
(dp1159
S'hardware'
p1160
S'multiprocessor 64-bit PA-RISC'
p1161
sS'hardware-long'
p1162
S'HP PA-RISC 64-bit SMP systems with support for more than 4 GB RAM'
p1163
ss(S'base'
p1164
S'x32'
p1165
tp1166
(dp1167
S'kernel-arch'
p1168
S'x86'
p1169
sS'featuresets'
p1170
(lp1171
ss(S'build'
p1172
g326
tp1173
(dp1174
S'image-file'
p1175
S'arch/sh/boot/zImage'
p1176
ss(S'image'
p1177
g700
tp1178
(dp1179
S'suggests'
p1180
S'vmelilo, fdutils'
p1181
sS'install-stem'
p1182
S'vmlinuz'
p1183
ss(S'description'
p1184
g226
NS'4kc-malta'
p1185
tp1186
(dp1187
S'hardware'
p1188
S'MIPS Malta'
p1189
sS'hardware-long'
p1190
S'MIPS Malta boards'
p1191
ss(S'base'
p1192
g13
S'none'
p1193
tp1194
(dp1195
S'flavours'
p1196
(lp1197
S'arm64'
p1198
ass(S'image'
p1199
g326
NS'sh7785lcr'
p1200
tp1201
(dp1202
S'check-size'
p1203
S'4194304'
p1204
sS'recommends'
p1205
S'u-boot-tools'
p1206
ss(S'description'
p1207
g226
NS'loongson-2f'
p1208
tp1209
(dp1210
S'hardware'
p1211
S'Loongson 2F'
p1212
sS'hardware-long'
p1213
S'Lemote Loongson 2F systems'
p1214
ss(S'build'
p1215
g248
tp1216
(dp1217
S'image-file'
p1218
S'arch/arm/boot/zImage'
p1219
ss(S'description'
p1220
g65
NS'ixp4xx'
p1221
tp1222
(dp1223
S'hardware'
p1224
S'IXP4xx'
p1225
sS'hardware-long'
p1226
S'IXP4xx based systems (Linksys NSLU2, etc)'
p1227
ss(S'build'
p1228
g79
tp1229
(dp1230
S'image-file'
p1231
S'vmlinux.gz'
p1232
ss(S'base'
p1233
g248
tp1234
(dp1235
S'kernel-arch'
p1236
S'arm'
p1237
sg240
(lp1238
g141
ass(S'description'
p1239
g944
NS'sparc64'
p1240
tp1241
(dp1242
S'hardware'
p1243
S'uniprocessor 64-bit UltraSPARC'
p1244
ss(S'description'
p1245
g645
NS'sb1-bcm91250a'
p1246
tp1247
(dp1248
S'hardware'
p1249
S'BCM91250A'
p1250
sS'hardware-long'
p1251
S'Broadcom BCM91250A systems (aka SWARM)'
p1252
ss(S'image'
p1253
g326
tp1254
(dp1255
S'suggests'
p1256
S'fdutils'
p1257
sS'install-stem'
p1258
S'vmlinuz'
p1259
ss(S'base'
p1260
g105
tp1261
(dp1262
S'kernel-arch'
p1263
S'mips'
p1264
sg240
(lp1265
g141
ass(S'base'
p1266
g131
tp1267
(dp1268
S'kernel-arch'
p1269
S'powerpc'
p1270
sg240
(lp1271
g141
ass(S'description'
p1272
g402
NS'sparc64'
p1273
tp1274
(dp1275
S'hardware'
p1276
S'uniprocessor 64-bit UltraSPARC'
p1277
ss(g139
g645
g141
tp1278
(dp1279
g144
I01
sg145
(lp1280
S'sb1-bcm91250a'
p1281
aS'5kc-malta'
p1282
aS'loongson-3'
p1283
aS'octeon'
p1284
ass(S'image'
p1285
g402
tp1286
(dp1287
S'suggests'
p1288
S'silo, fdutils'
p1289
sS'configs'
p1290
(lp1291
sS'install-stem'
p1292
S'vmlinuz'
p1293
ss(S'image'
p1294
g217
NS'686-pae'
p1295
tp1296
(dp1297
S'configs'
p1298
(lp1299
S'kernelarch-x86/config-arch-32'
p1300
aS'i386/config.686-pae'
p1301
asS'recommends'
p1302
S'libc6-i686'
p1303
ss(S'description'
p1304
Ng286
tp1305
(dp1306
S'part-long-rt'
p1307
S'This kernel includes the PREEMPT_RT realtime patch set.'
p1308
sS'parts'
p1309
(lp1310
S'rt'
p1311
asS'part-short-rt'
p1312
S'PREEMPT_RT'
p1313
ss(S'description'
p1314
tp1315
(dp1316
S'part-long-up'
p1317
S'This kernel is not suitable for SMP (multi-processor,\nmulti-core or hyper-threaded) systems.'
p1318
sS'part-long-xen'
p1319
S'This kernel also runs on a Xen hypervisor.\nIt supports both privileged (dom0) and unprivileged (domU) operation.'
p1320
ss(S'image'
p1321
g944
NS'sparc64-smp'
p1322
tp1323
(dp1324
S'configs'
p1325
(lp1326
S'kernelarch-sparc/config-smp'
p1327
ass(S'build'
p1328
g944
tp1329
(dp1330
S'image-file'
p1331
S'arch/sparc/boot/zImage'
p1332
ss(S'relations'
p1333
g248
tp1334
(dp1335
S'headers%gcc-4.8'
p1336
S'linux-compiler-gcc-4.8-arm'
p1337
ss(S'description'
p1338
g326
NS'sh7751r'
p1339
tp1340
(dp1341
S'hardware'
p1342
S'sh7751r'
p1343
sS'hardware-long'
p1344
S'Renesas SH7751R R2D plus board'
p1345
ss(S'description'
p1346
g248
NS'armmp-lpae'
p1347
tp1348
(dp1349
S'hardware'
p1350
S'ARMv7 multiplatform compatible SoCs supporting LPAE'
p1351
sS'hardware-long'
p1352
S'ARMv7 multiplatform kernel supporting LPAE. See\nhttps://wiki.debian.org/DebianKernel/ARMMP for details of supported\nplatforms.'
p1353
ss(S'image'
p1354
g944
tp1355
(dp1356
S'suggests'
p1357
S'silo, fdutils'
p1358
sS'configs'
p1359
(lp1360
sS'install-stem'
p1361
S'vmlinuz'
p1362
ss(S'image'
p1363
g41
NS'4kc-malta'
p1364
tp1365
(dp1366
S'configs'
p1367
(lp1368
S'kernelarch-mips/config.4kc-malta'
p1369
ass(S'relations'
p1370
g243
tp1371
(dp1372
S'headers%gcc-4.8'
p1373
S'linux-compiler-gcc-4.8-s390'
p1374
ss(g139
g944
g141
tp1375
(dp1376
g144
I01
sg145
(lp1377
S'sparc64'
p1378
aS'sparc64-smp'
p1379
ass(S'relations'
p1380
g140
tp1381
(dp1382
S'gcc-4.8'
p1383
S'gcc-4.8 (>= 4.8.2-21)'
p1384
ss(S'image'
p1385
g402
NS'sparc64'
p1386
tp1387
(dp1388
S'configs'
p1389
(lp1390
S'kernelarch-sparc/config-up'
p1391
ass(S'image'
p1392
g363
NS's390x'
p1393
tp1394
(dp1395
S'configs'
p1396
(lp1397
S'kernelarch-s390/config-arch-64'
p1398
ass(S'image'
p1399
g105
NS'sb1-bcm91250a'
p1400
tp1401
(dp1402
S'configs'
p1403
(lp1404
S'kernelarch-mips/config.sb1-bcm91250a'
p1405
ass(S'image'
p1406
g41
NS'r5k-ip32'
p1407
tp1408
(dp1409
S'configs'
p1410
(lp1411
S'kernelarch-mips/config.r5k-ip32'
p1412
ass(S'build'
p1413
g363
tp1414
(dp1415
S'image-file'
p1416
S'arch/s390/boot/image'
p1417
ss(S'description'
p1418
g369
NS'parisc'
p1419
tp1420
(dp1421
S'hardware'
p1422
S'32-bit PA-RISC'
p1423
sS'hardware-long'
p1424
S'HP PA-RISC 32-bit systems with max 4 GB RAM'
p1425
ss(S'image'
p1426
g131
NS'powerpc-smp'
p1427
tp1428
(dp1429
S'configs'
p1430
(lp1431
S'powerpc/config.powerpc'
p1432
aS'powerpc/config.powerpc-smp'
p1433
ass(S'base'
p1434
g217
g218
tp1435
(dp1436
S'flavours'
p1437
(lp1438
S'586'
p1439
aS'686-pae'
p1440
aS'amd64'
p1441
ass(S'abi'
p1442
tp1443
(dp1444
S'abiname'
p1445
S'4'
p1446
sS'ignore-changes'
p1447
(lp1448
S'module:arch/x86/kvm/kvm'
p1449
aS'module:arch/powerpc/kvm/kvm'
p1450
aS'module:drivers/md/dm-snapshot'
p1451
aS'module:drivers/misc/mei/*'
p1452
aS'module:drivers/mtd/spi-nor/spi-nor'
p1453
aS'module:drivers/net/can/can-dev'
p1454
aS'module:drivers/net/ethernet/**'
p1455
aS'module:drivers/net/wireless/**'
p1456
aS'module:drivers/scsi/qla2xxx/qla2xxx'
p1457
aS'module:drivers/target/iscsi/iscsi_target_mod'
p1458
aS'module:drivers/target/target_core_mod'
p1459
aS'module:drivers/usb/musb/*'
p1460
aS'module:net/ceph/libceph'
p1461
aS'module:sound/firewire/snd-firewire-lib'
p1462
aS'module:sound/i2c/other/snd-ak4113'
p1463
aS'module:sound/i2c/other/snd-ak4114'
p1464
aS'module:sound/pci/emu10k1/*'
p1465
aS'azx_alloc_cmd_io'
p1466
aS'azx_free_cmd_io'
p1467
aS'azx_get_response'
p1468
aS'azx_init_cmd_io'
p1469
aS'azx_send_cmd'
p1470
aS'can_rx_register'
p1471
aS'cpuidle_*'
p1472
aS'kvmppc_*'
p1473
aS'musb_*'
p1474
aS'tcp_make_synack'
p1475
aS'tcp_parse_options'
p1476
aS'tcp_try_fastopen'
p1477
aS'__add_pages'
p1478
aS'__remove_pages'
p1479
aS'nf_register_queue_handler'
p1480
aS'of_device_is_stdout_path'
p1481
aS'module:sound/soc/*'
p1482
aS'blk_rq_check_limits'
p1483
aS'clk_divider_ro_ops'
p1484
aS'tick_nohz_idle_enter'
p1485
aS'tick_nohz_idle_exit'
p1486
aS'skb_copy_and_csum_datagram_iovec'
p1487
aS'module:net/dccp/dccp'
p1488
aS'fl6_*'
p1489
aS'inet_sk_diag_fill'
p1490
aS'ip6_append_data'
p1491
aS'ip6_datagram_send_ctl'
p1492
aS'ip6_xmit'
p1493
aS'ipv6_dup_options'
p1494
aS'ipv6_fixup_options'
p1495
aS'ipv6_push_nfrag_opts'
p1496
aS'tcp_cong_avoid_ai'
p1497
aS'tcp_slow_start'
p1498
aS'__scm_destroy'
p1499
aS'__scm_send'
p1500
aS'scm_detach_fds'
p1501
aS'scm_fp_dup'
p1502
aS'af_alg_*'
p1503
aS'xt_compat_match_from_user'
p1504
aS'efivar_validate'
p1505
aS'zpci_disable_device'
p1506
aS'zpci_enable_device'
p1507
aS'zpci_stop_device'
p1508
aS'fsnotify_*_group'
p1509
aS'fsnotify_*_mark'
p1510
ass(S'base'
p1511
NS'rt'
p1512
tp1513
(dp1514
S'enabled'
p1515
I00
ss(S'description'
p1516
g105
NS'sb1-bcm91250a'
p1517
tp1518
(dp1519
S'hardware'
p1520
S'BCM91250A'
p1521
sS'hardware-long'
p1522
S'Broadcom BCM91250A systems (aka SWARM)'
p1523
ss(g139
g57
g141
tp1524
(dp1525
g144
I01
sg145
(lp1526
S'powerpcspe'
p1527
ass(S'description'
p1528
g131
NS'powerpc64'
p1529
tp1530
(dp1531
S'hardware'
p1532
S'64-bit PowerPC'
p1533
ss(g139
g700
g141
tp1534
(dp1535
g144
I01
sg145
(lp1536
S'm68k'
p1537
ass(S'base'
p1538
tp1539
(dp1540
S'arches'
p1541
(lp1542
S'alpha'
p1543
aS'amd64'
p1544
aS'arm64'
p1545
aS'armel'
p1546
aS'armhf'
p1547
aS'hppa'
p1548
aS'i386'
p1549
aS'ia64'
p1550
aS'm68k'
p1551
aS'mips'
p1552
aS'mipsel'
p1553
aS'mips64'
p1554
aS'mips64el'
p1555
aS'or1k'
p1556
aS'powerpc'
p1557
aS'powerpcspe'
p1558
aS'ppc64'
p1559
aS'ppc64el'
p1560
aS's390'
p1561
aS's390x'
p1562
aS'sh4'
p1563
aS'sparc'
p1564
aS'sparc64'
p1565
aS'x32'
p1566
asS'featuresets'
p1567
(lp1568
S'none'
p1569
aS'rt'
p1570
asS'compiler'
p1571
S'gcc-4.8'
p1572
ss(S'build'
p1573
g700
tp1574
(dp1575
S'image-file'
p1576
S'vmlinux.gz'
p1577
ss(S'build'
p1578
g243
NS's390x'
p1579
tp1580
(dp1581
S'debug-info'
p1582
I01
ss(S'build'
p1583
g65
tp1584
(dp1585
S'image-file'
p1586
S'arch/arm/boot/zImage'
p1587
ss(g139
g131
g141
tp1588
(dp1589
g144
I01
sg145
(lp1590
S'powerpc'
p1591
aS'powerpc-smp'
p1592
aS'powerpc64'
p1593
ass(S'image'
p1594
g645
tp1595
(dp1596
S'install-stem'
p1597
S'vmlinux'
p1598
ss(S'base'
p1599
g271
tp1600
(dp1601
S'kernel-arch'
p1602
S'powerpc'
p1603
sg240
(lp1604
g141
ass(S'base'
p1605
g645
tp1606
(dp1607
S'kernel-arch'
p1608
S'mips'
p1609
sg240
(lp1610
g141
ass(S'base'
p1611
g700
tp1612
(dp1613
S'kernel-arch'
p1614
S'm68k'
p1615
sg240
(lp1616
g141
asS'cflags'
p1617
S'-ffreestanding'
p1618
sS'compiler'
p1619
S'gcc-4.8'
p1620
ss(S'image'
p1621
tp1622
(dp1623
S'initramfs-generators'
p1624
(lp1625
S'initramfs-tools'
p1626
aS'initramfs-fallback'
p1627
asS'type'
p1628
S'plain'
p1629
ss(S'build'
p1630
g217
NS'686-pae'
p1631
tp1632
(dp1633
S'debug-info'
p1634
I01
ss(S'image'
p1635
g645
NS'sb1-bcm91250a'
p1636
tp1637
(dp1638
S'configs'
p1639
(lp1640
S'kernelarch-mips/config.sb1-bcm91250a'
p1641
ass(S'image'
p1642
g645
NS'octeon'
p1643
tp1644
(dp1645
S'configs'
p1646
(lp1647
S'kernelarch-mips/config.octeon'
p1648
ass(S'description'
p1649
g41
NS'4kc-malta'
p1650
tp1651
(dp1652
S'hardware'
p1653
S'MIPS Malta'
p1654
sS'hardware-long'
p1655
S'MIPS Malta boards'
p1656
ss(S'image'
p1657
g226
NS'5kc-malta'
p1658
tp1659
(dp1660
S'configs'
p1661
(lp1662
S'kernelarch-mips/config.5kc-malta'
p1663
ass(S'description'
p1664
g131
NS'powerpc'
p1665
tp1666
(dp1667
S'hardware'
p1668
S'uniprocessor 32-bit PowerPC'
p1669
ss(S'description'
p1670
g944
NS'sparc64-smp'
p1671
tp1672
(dp1673
S'hardware'
p1674
S'multiprocessor 64-bit UltraSPARC'
p1675
ss(S'description'
p1676
g226
NS'5kc-malta'
p1677
tp1678
(dp1679
S'hardware'
p1680
S'MIPS Malta (64-bit)'
p1681
sS'hardware-long'
p1682
S'MIPS Malta boards (64-bit)'
p1683
ss(S'description'
p1684
g226
NS'loongson-3'
p1685
tp1686
(dp1687
S'hardware'
p1688
S'Loongson 3A/3B'
p1689
sS'hardware-long'
p1690
S'Loongson 3A or 3B based systems (e.g. from Loongson or Lemote)'
p1691
ss(S'description'
p1692
g41
NS'r5k-ip32'
p1693
tp1694
(dp1695
S'hardware'
p1696
S'SGI IP32'
p1697
sS'hardware-long'
p1698
S'SGI IP32 systems (O2)'
p1699
ss(S'image'
p1700
g226
NS'loongson-3'
p1701
tp1702
(dp1703
S'configs'
p1704
(lp1705
S'kernelarch-mips/config.loongson-3'
p1706
ass(S'base'
p1707
g326
tp1708
(dp1709
S'kernel-arch'
p1710
S'sh'
p1711
sg240
(lp1712
g141
ass(S'image'
p1713
g243
tp1714
(dp1715
S'install-stem'
p1716
S'vmlinuz'
p1717
sS'configs'
p1718
(lp1719
sS'bootloaders'
p1720
(lp1721
S's390-tools'
p1722
ass(S'description'
p1723
g131
NS'powerpc-smp'
p1724
tp1725
(dp1726
S'hardware'
p1727
S'multiprocessor 32-bit PowerPC'
p1728
ss(S'description'
p1729
g217
NS'586'
p1730
tp1731
(dp1732
S'hardware'
p1733
S'older PCs'
p1734
sS'parts'
p1735
(lp1736
S'up'
p1737
asS'hardware-long'
p1738
S'PCs with a single processor not supporting PAE'
p1739
ss(S'build'
p1740
g217
tp1741
(dp1742
S'image-file'
p1743
S'arch/x86/boot/bzImage'
p1744
ss(g139
g271
g141
tp1745
(dp1746
g144
I01
sg145
(lp1747
S'powerpc64le'
p1748
asstp1749
Rp1750
.