cdebian_linux.config
ConfigCore
p0
(tRp1
(Vabi
p2
tp3
(dp4
Vabiname
p5
V3
p6
sVignore-changes
p7
(lp8
V__cpuhp_*
p9
aVbpf_analyzer
p10
aVcxl_*
p11
aVdax_flush
p12
aVieee80211_nullfunc_get
p13
aVinet_add_protocol
p14
aVinet_del_protocol
p15
aViommu_device_*
p16
aVmm_iommu_*
p17
aVmv_mbus_*
p18
aVperf_*
p19
aVregister_cxl_calls
p20
aVregister_key_type
p21
aVunregister_cxl_calls
p22
aV*_hw_breakpoint
p23
aVmodule:drivers/crypto/ccp/*
p24
aVmodule:drivers/hv/*
p25
aVmodule:drivers/gpu/drm/sun4i/*
p26
aVmodule:drivers/iio/**
p27
aVmodule:drivers/misc/cxl/*
p28
aVmodule:drivers/mtd/nand/*
p29
aVmodule:drivers/net/ethernet/**
p30
aVmodule:drivers/net/wireless/**
p31
aVmodule:drivers/nvdimm/*
p32
aVmodule:drivers/nvme/**
p33
aVmodule:drivers/power/supply/bq27xxx_battery
p34
aVmodule:drivers/scsi/cxgbi/*
p35
aVmodule:drivers/scsi/libiscs*
p36
aVmodule:drivers/scsi/qla2xxx/qla2xxx
p37
aVmodule:drivers/scsi/ufs/*
p38
aVmodule:drivers/target/**
p39
aVmodule:drivers/usb/chipidea/**
p40
aVmodule:drivers/usb/gadget/**
p41
aVmodule:drivers/usb/host/**
p42
aVmodule:drivers/usb/musb/**
p43
aVmodule:fs/nfs/**
p44
aVmodule:net/ceph/libceph
p45
aVmodule:net/l2tp/**
p46
aVmodule:net/rxrpc/rxrpc
p47
aVmodule:net/sctp/**
p48
aVmodule:sound/core/seq/**
p49
aVmodule:sound/firewire/snd-firewire-lib
p50
aVmodule:sound/pci/hda/*
p51
aVbtree_*
p52
aVvisitor*
p53
aVcan_rx_register
p54
aVip6_xmit
p55
aVmodule:net/dccp/dccp
p56
aVmodule:net/rds/rds
p57
aVdevfreq_*
p58
aVdevm_devfreq_*
p59
aVupdate_devfreq
p60
aVmodule:drivers/infiniband/**
p61
aVacpi_ec_add_query_handler
p62
aVacpi_ec_remove_query_handler
p63
aVfirst_ec
p64
aVdebugfs_create_automount
p65
aVmodule:drivers/iio/imu/inv_mpu6050/*
p66
aVdrm_crtc_accurate_vblank_count
p67
aVacpi_nfit_desc_init
p68
aVacpi_nfit_init
p69
aVloop_register_transfer
p70
aVxen_xlate_*
p71
aVnf_nat_masquerade_ipv4_register_notifier
p72
aVnf_nat_masquerade_ipv6_register_notifier
p73
aVdfltcc_*
p74
aVmodule:drivers/scsi/hisi_sas/*
p75
aV__gfn_*
p76
aV__kvmhv_*
p77
aV__kvm_*
p78
aV__xive_vm_h_*
p79
aVgfn_*
p80
aVh_ipi_redirect
p81
aVhalt_poll_ns*
p82
aVkvm_*
p83
aVkvmhv_*
p84
aVkvmppc_*
p85
aVmark_page_dirty
p86
aVvcpu_*
p87
aVmodule:arch/powerpc/kvm/*
p88
aVmodule:arch/s390/kvm/*
p89
aVmodule:arch/x86/kvm/*
p90
aVuv_info
p91
ass(Vbase
p92
tp93
(dp94
Varches
p95
(lp96
Valpha
p97
aVamd64
p98
aVarm64
p99
aVarm64ilp32
p100
aVarmel
p101
aVarmhf
p102
aVhppa
p103
aVi386
p104
aVia64
p105
aVm68k
p106
aVmips
p107
aVmips64
p108
aVmips64el
p109
aVmips64r6
p110
aVmips64r6el
p111
aVmipsel
p112
aVmipsn32
p113
aVmipsn32el
p114
aVmipsn32r6
p115
aVmipsn32r6el
p116
aVmipsr6
p117
aVmipsr6el
p118
aVpowerpc
p119
aVppc64
p120
aVppc64el
p121
aVriscv64
p122
aVs390
p123
aVs390x
p124
aVsh3
p125
aVsh4
p126
aVsparc
p127
aVsparc64
p128
aVx32
p129
asVcompiler
p130
Vgcc-10
p131
sVfeaturesets
p132
(lp133
Vnone
p134
aVrt
p135
ass(Vbuild
p136
tp137
(dp138
Vdebug-info
p139
I01
sVsigned-code
p140
I00
ss(Vbase
p141
NVrt
p142
tp143
(dp144
Venabled
p145
I01
ss(Vdescription
p146
tp147
(dp148
Vpart-long-up
p149
VThis kernel is not suitable for SMP (multi-processor,\u000amulti-core or hyper-threaded) systems.
p150
ss(Vimage
p151
tp152
(dp153
Vinitramfs-generators
p154
(lp155
Vinitramfs-tools
p156
aVinitramfs-fallback
p157
asVbreaks
p158
(lp159
Vwireless-regdb (<< 2019.06.03-1~)
p160
asVrecommends
p161
(lp162
Vapparmor
p163
ass(Vrelations
p164
tp165
(dp166
Vgcc-10
p167
Vgcc-10 <!stage1 !cross !pkg.linux.nokernel>, gcc-10-@gnu-type-package@ <!stage1 cross !pkg.linux.nokernel>
p168
sVinitramfs-fallback
p169
Vlinux-initramfs-tool
p170
sVinitramfs-tools
p171
Vinitramfs-tools (>= 0.120+deb8u2)
p172
ss(Vbase
p173
Valpha
p174
tp175
(dp176
Vdefault-flavour
p177
Valpha-smp
p178
sVkernel-arch
p179
Valpha
p180
sVfeaturesets
p181
(lp182
Vnone
p183
ass(Vbuild
p184
g174
tp185
(dp186
Vimage-file
p187
Varch/alpha/boot/vmlinux.gz
p188
ss(Vimage
p189
g174
tp190
(dp191
Vsuggests
p192
(lp193
Vaboot
p194
aVfdutils
p195
asVinstall-stem
p196
Vvmlinuz
p197
ss(Vdescription
p198
g174
NValpha-generic
p199
tp200
(dp201
Vhardware
p202
VAlpha
p203
sVhardware-long
p204
VDEC Alpha systems with extended kernel start address (Wildfire, Titan, Marvel)
p205
ss(Vdescription
p206
g174
NValpha-smp
p207
tp208
(dp209
Vhardware
p210
VAlpha SMP
p211
sVhardware-long
p212
VDEC Alpha SMP systems with extended kernel start address (Wildfire, Titan, Marvel)
p213
ss(Vbase
p214
g174
g183
tp215
(dp216
Vflavours
p217
(lp218
Valpha-generic
p219
aValpha-smp
p220
asVimplicit-flavour
p221
I01
ss(Vbase
p222
Vamd64
p223
tp224
(dp225
Vfeaturesets
p226
(lp227
Vnone
p228
aVrt
p229
asVkernel-arch
p230
Vx86
p231
ss(Vbuild
p232
g223
tp233
(dp234
Vimage-file
p235
Varch/x86/boot/bzImage
p236
sVsigned-code
p237
I01
sVvdso
p238
I01
ss(Vimage
p239
g223
tp240
(dp241
Vbootloaders
p242
(lp243
Vgrub-pc
p244
aVgrub-efi-amd64
p245
aVextlinux
p246
asVinstall-stem
p247
Vvmlinuz
p248
sVbreaks
p249
(lp250
Vxserver-xorg-input-vmmouse (<< 1:13.0.99)
p251
ass(Vrelations
p252
g223
tp253
(dp254
Vheaders%gcc-10
p255
Vlinux-compiler-gcc-10-x86
p256
ss(Vdescription
p257
g223
NVamd64
p258
tp259
(dp260
Vhardware
p261
V64-bit PCs
p262
sVhardware-long
p263
VPCs with AMD64, Intel 64 or VIA Nano processors
p264
ss(Vdescription
p265
g223
NVcloud-amd64
p266
tp267
(dp268
Vhardware
p269
Vx86-64 cloud
p270
sVhardware-long
p271
Vcloud platforms including Amazon EC2, Microsoft Azure, and Google Compute Engine
p272
ss(Vbase
p273
g223
Vnone
p274
tp275
(dp276
Vflavours
p277
(lp278
Vamd64
p279
aVcloud-amd64
p280
asVdefault-flavour
p281
Vamd64
p282
ss(Vimage
p283
g223
g274
Vcloud-amd64
p284
tp285
(dp286
Vconfigs
p287
(lp288
Vconfig.cloud
p289
aVamd64/config.cloud-amd64
p290
ass(Vbase
p291
g223
Vrt
p292
tp293
(dp294
Vflavours
p295
(lp296
Vamd64
p297
ass(Vbase
p298
Varm64
p299
tp300
(dp301
Vcross-compile-compat
p302
Varm-linux-gnueabihf-
p303
sVkernel-arch
p304
Varm64
p305
sVfeaturesets
p306
(lp307
Vnone
p308
aVrt
p309
ass(Vbuild
p310
g299
tp311
(dp312
Vimage-file
p313
Varch/arm64/boot/Image
p314
sVsigned-code
p315
I01
sVvdso
p316
I01
ss(Vimage
p317
g299
tp318
(dp319
Vinstall-stem
p320
Vvmlinuz
p321
sVbreaks
p322
(lp323
Vlibmozjs185-1.0
p324
aVlibmozjs-24-0 (<< 24.2.0-5.1~)
p325
ass(Vdescription
p326
g299
NVarm64
p327
tp328
(dp329
Vhardware
p330
V64-bit ARMv8 machines
p331
ss(Vdescription
p332
g299
NVcloud-arm64
p333
tp334
(dp335
Vhardware
p336
Varm64 cloud
p337
sVhardware-long
p338
Vcloud platforms supporting arm64 virtual machines
p339
ss(Vimage
p340
g299
NVarm64
p341
tp342
(dp343
s(Vrelations
p344
g299
tp345
(dp346
Vgcc-10
p347
Vgcc-10 <!stage1 !cross !pkg.linux.nokernel>, gcc-10-aarch64-linux-gnu <!stage1 cross !pkg.linux.nokernel>, gcc-arm-linux-gnueabihf <!stage1 !pkg.linux.nokernel>
p348
sVheaders%gcc-10
p349
Vgcc-10
p350
ss(Vbase
p351
g299
Vnone
p352
tp353
(dp354
Vflavours
p355
(lp356
Varm64
p357
aVcloud-arm64
p358
asVdefault-flavour
p359
Varm64
p360
ss(Vimage
p361
g299
g352
Vcloud-arm64
p362
tp363
(dp364
Vconfigs
p365
(lp366
Vconfig.cloud
p367
aVarm64/config.cloud-arm64
p368
ass(Vbase
p369
g299
Vrt
p370
tp371
(dp372
Vflavours
p373
(lp374
Varm64
p375
ass(Vbase
p376
Varm64ilp32
p377
tp378
(dp379
Vkernel-arch
p380
Varm64
p381
sVfeaturesets
p382
(lp383
ss(Vbase
p384
Varmel
p385
tp386
(dp387
Vkernel-arch
p388
Varm
p389
sg181
(lp390
g183
ass(Vbuild
p391
g385
tp392
(dp393
Vimage-file
p394
Varch/arm/boot/zImage
p395
sVuncompressed-image-file
p396
Varch/arm/boot/Image
p397
ss(Vimage
p398
g385
tp399
(dp400
Vinstall-stem
p401
Vvmlinuz
p402
ss(Vrelations
p403
g385
tp404
(dp405
Vheaders%gcc-10
p406
Vlinux-compiler-gcc-10-arm
p407
ss(Vdescription
p408
g385
NVmarvell
p409
tp410
(dp411
Vhardware
p412
VMarvell Kirkwood/Orion
p413
sVhardware-long
p414
VMarvell Kirkwood and Orion based systems (https://wiki.debian.org/ArmEabiPort#Supported_hardware)
p415
ss(Vdescription
p416
g385
NVrpi
p417
tp418
(dp419
Vhardware
p420
VRaspberry Pi and Pi Zero
p421
sVhardware-long
p422
VRaspberry Pi, Raspberry Pi Zero based systems
p423
ss(Vimage
p424
g385
NVmarvell
p425
tp426
(dp427
Vrecommends
p428
(lp429
Vu-boot-tools
p430
asVcheck-size
p431
I2729712
sVcheck-size-with-dtb
p432
I01
sVbreaks
p433
(lp434
Vflash-kernel (<< 3.57~)
p435
ass(g214
g385
g183
tp436
(dp437
g217
(lp438
Vmarvell
p439
aVrpi
p440
asg221
I01
ss(Vbase
p441
Varmhf
p442
tp443
(dp444
Vfeaturesets
p445
(lp446
sVkernel-arch
p447
Varm
p448
ss(Vbase
p449
Vhppa
p450
tp451
(dp452
Vdefault-flavour
p453
Vparisc
p454
sVkernel-arch
p455
Vparisc
p456
sg181
(lp457
g183
ass(Vbuild
p458
g450
tp459
(dp460
Vimage-file
p461
Varch/parisc/boot/bzImage
p462
sVdebug-info
p463
I00
ss(Vimage
p464
g450
tp465
(dp466
Vsuggests
p467
(lp468
Vpalo
p469
asVinstall-stem
p470
Vvmlinuz
p471
ss(Vdescription
p472
g450
NVparisc
p473
tp474
(dp475
Vhardware
p476
V32-bit PA-RISC
p477
sVhardware-long
p478
VHP PA-RISC 32-bit systems with max 4 GB RAM
p479
ss(Vbase
p480
g450
NVparisc64
p481
tp482
(dp483
Vcflags
p484
V-fno-cse-follow-jumps
p485
sVoverride-host-type
p486
Vhppa64-linux-gnu
p487
ss(Vdescription
p488
g450
NVparisc64
p489
tp490
(dp491
Vhardware
p492
V64-bit PA-RISC
p493
sVhardware-long
p494
VHP PA-RISC 64-bit systems with support for more than 4 GB RAM
p495
ss(Vrelations
p496
g450
tp497
(dp498
Vgcc-10
p499
Vgcc-10 <!stage1 !cross !pkg.linux.nokernel>, gcc-10-hppa-linux-gnu <!stage1 cross !pkg.linux.nokernel>, binutils-hppa64-linux-gnu <!stage1 !pkg.linux.nokernel>, gcc-10-hppa64-linux-gnu <!stage1 !pkg.linux.nokernel>
p500
ss(g214
g450
g183
tp501
(dp502
g217
(lp503
Vparisc
p504
aVparisc64
p505
asg221
I01
ss(Vbase
p506
Vi386
p507
tp508
(dp509
Vfeaturesets
p510
(lp511
Vnone
p512
aVrt
p513
asVkernel-arch
p514
Vx86
p515
ss(Vbuild
p516
g507
tp517
(dp518
Vimage-file
p519
Varch/x86/boot/bzImage
p520
sVsigned-code
p521
I01
sVvdso
p522
I01
ss(Vdescription
p523
g507
tp524
(dp525
Vpart-long-pae
p526
VThis kernel requires PAE (Physical Address Extension).\u000aThis feature is supported by the Intel Pentium Pro/II/III/4/4M/D, Xeon,\u000aCore and Atom; AMD Geode NX, Athlon (K7), Duron, Opteron, Sempron,\u000aTurion or Phenom; Transmeta Efficeon; VIA C7; and some other processors.
p527
ss(Vimage
p528
g507
tp529
(dp530
Vbootloaders
p531
(lp532
Vgrub-pc
p533
aVgrub-efi-ia32
p534
aVextlinux
p535
asVinstall-stem
p536
Vvmlinuz
p537
sVbreaks
p538
(lp539
Vxserver-xorg-input-vmmouse (<< 1:13.0.99)
p540
ass(Vrelations
p541
g507
tp542
(dp543
Vheaders%gcc-10
p544
Vlinux-compiler-gcc-10-x86
p545
ss(Vdescription
p546
g507
NV686
p547
tp548
(dp549
Vhardware
p550
Volder PCs
p551
sVhardware-long
p552
VPCs with one or more processors not supporting PAE
p553
ss(Vdescription
p554
g507
NV686-pae
p555
tp556
(dp557
Vhardware
p558
Vmodern PCs
p559
sVhardware-long
p560
VPCs with one or more processors supporting PAE
p561
sVparts
p562
(lp563
Vpae
p564
ass(Vbase
p565
g507
Vnone
p566
tp567
(dp568
Vflavours
p569
(lp570
V686
p571
aV686-pae
p572
asVdefault-flavour
p573
V686-pae
p574
ss(Vbase
p575
g507
Vrt
p576
tp577
(dp578
Vflavours
p579
(lp580
V686-pae
p581
ass(Vbase
p582
Via64
p583
tp584
(dp585
Vdefault-flavour
p586
Vitanium
p587
sVkernel-arch
p588
Via64
p589
sg181
(lp590
g183
ass(Vbuild
p591
g583
tp592
(dp593
Vimage-file
p594
Vvmlinux.gz
p595
ss(Vimage
p596
g583
tp597
(dp598
Vbootloaders
p599
(lp600
Vgrub-efi-ia64
p601
asVinstall-stem
p602
Vvmlinuz
p603
ss(Vdescription
p604
g583
NVitanium
p605
tp606
(dp607
Vhardware
p608
VItanium (Merced)
p609
sVhardware-long
p610
Vsystems with original Itanium (Merced) processors
p611
ss(Vdescription
p612
g583
NVmckinley
p613
tp614
(dp615
Vhardware
p616
VItanium 2+
p617
sVhardware-long
p618
Vsystems with Itanium 2 or 9300/9500/9700-series processors
p619
ss(g214
g583
g183
tp620
(dp621
g217
(lp622
Vitanium
p623
aVmckinley
p624
asg221
I01
ss(Vbase
p625
Vm68k
p626
tp627
(dp628
Vcflags
p629
V-ffreestanding
p630
sVdefault-flavour
p631
Vm68k
p632
sVkernel-arch
p633
Vm68k
p634
sg181
(lp635
g183
ass(Vbuild
p636
g626
tp637
(dp638
Vimage-file
p639
Vvmlinux
p640
ss(Vimage
p641
g626
tp642
(dp643
Vsuggests
p644
(lp645
Vvmelilo
p646
aVfdutils
p647
asVinstall-stem
p648
Vvmlinux
p649
ss(Vdescription
p650
g626
NVm68k
p651
tp652
(dp653
Vhardware
p654
VMotorola MC68020+ family
p655
ss(g214
g626
g183
tp656
(dp657
g217
(lp658
Vm68k
p659
asg221
I01
ss(Vbase
p660
Vmips
p661
tp662
(dp663
Vkernel-arch
p664
Vmips
p665
sg181
(lp666
g183
ass(Vbuild
p667
g661
tp668
(dp669
Vimage-file
p670
Vvmlinuz
p671
ss(Vimage
p672
g661
tp673
(dp674
Vinstall-stem
p675
Vvmlinuz
p676
ss(Vdescription
p677
g661
NV4kc-malta
p678
tp679
(dp680
Vhardware
p681
VMIPS Malta
p682
sVhardware-long
p683
VMIPS Malta boards
p684
ss(Vimage
p685
g661
NV4kc-malta
p686
tp687
(dp688
Vconfigs
p689
(lp690
Vkernelarch-mips/config.malta
p691
aVkernelarch-mips/config.mips32r2
p692
ass(Vdescription
p693
g661
NV5kc-malta
p694
tp695
(dp696
Vhardware
p697
VMIPS Malta (64-bit)
p698
sVhardware-long
p699
VMIPS Malta boards (64-bit)
p700
ss(Vimage
p701
g661
NV5kc-malta
p702
tp703
(dp704
Vconfigs
p705
(lp706
Vkernelarch-mips/config.malta
p707
aVkernelarch-mips/config.mips64r2
p708
ass(Vdescription
p709
g661
NVocteon
p710
tp711
(dp712
Vhardware
p713
VOcteon
p714
sVhardware-long
p715
VCavium Networks Octeon
p716
ss(Vbuild
p717
g661
NVocteon
p718
tp719
(dp720
Vimage-file
p721
Vvmlinux
p722
ss(Vimage
p723
g661
NVocteon
p724
tp725
(dp726
Vinstall-stem
p727
Vvmlinux
p728
sVconfigs
p729
(lp730
Vkernelarch-mips/config.octeon
p731
ass(g214
g661
g183
tp732
(dp733
g217
(lp734
V4kc-malta
p735
aV5kc-malta
p736
aVocteon
p737
asg221
I01
ss(Vbase
p738
Vmips64
p739
tp740
(dp741
Vkernel-arch
p742
Vmips
p743
sg181
(lp744
g183
ass(Vbuild
p745
g739
tp746
(dp747
Vimage-file
p748
Vvmlinuz
p749
ss(Vimage
p750
g739
tp751
(dp752
Vinstall-stem
p753
Vvmlinuz
p754
ss(Vdescription
p755
g739
NV5kc-malta
p756
tp757
(dp758
Vhardware
p759
VMIPS Malta
p760
sVhardware-long
p761
VMIPS Malta boards
p762
ss(Vimage
p763
g739
NV5kc-malta
p764
tp765
(dp766
Vconfigs
p767
(lp768
Vkernelarch-mips/config.malta
p769
aVkernelarch-mips/config.mips64r2
p770
ass(Vdescription
p771
g739
NVocteon
p772
tp773
(dp774
Vhardware
p775
VOcteon
p776
sVhardware-long
p777
VCavium Networks Octeon
p778
ss(Vbuild
p779
g739
NVocteon
p780
tp781
(dp782
Vimage-file
p783
Vvmlinux
p784
ss(Vimage
p785
g739
NVocteon
p786
tp787
(dp788
Vinstall-stem
p789
Vvmlinux
p790
sVconfigs
p791
(lp792
Vkernelarch-mips/config.octeon
p793
ass(g214
g739
g183
tp794
(dp795
g217
(lp796
V5kc-malta
p797
aVocteon
p798
asg221
I01
ss(Vbase
p799
Vmips64el
p800
tp801
(dp802
Vkernel-arch
p803
Vmips
p804
sg181
(lp805
g183
ass(Vbuild
p806
g800
tp807
(dp808
Vimage-file
p809
Vvmlinuz
p810
ss(Vimage
p811
g800
tp812
(dp813
Vinstall-stem
p814
Vvmlinuz
p815
ss(Vdescription
p816
g800
NV5kc-malta
p817
tp818
(dp819
Vhardware
p820
VMIPS Malta
p821
sVhardware-long
p822
VMIPS Malta boards
p823
ss(Vimage
p824
g800
NV5kc-malta
p825
tp826
(dp827
Vconfigs
p828
(lp829
Vkernelarch-mips/config.malta
p830
aVkernelarch-mips/config.mips64r2
p831
ass(Vdescription
p832
g800
NVloongson-3
p833
tp834
(dp835
Vhardware
p836
VLoongson 3A/3B
p837
sVhardware-long
p838
VLoongson 3A or 3B based systems (e.g. from Loongson or Lemote)
p839
ss(Vimage
p840
g800
NVloongson-3
p841
tp842
(dp843
Vconfigs
p844
(lp845
Vkernelarch-mips/config.loongson-3
p846
ass(Vdescription
p847
g800
NVocteon
p848
tp849
(dp850
Vhardware
p851
VOcteon
p852
sVhardware-long
p853
VCavium Networks Octeon
p854
ss(Vbuild
p855
g800
NVocteon
p856
tp857
(dp858
Vimage-file
p859
Vvmlinux
p860
ss(Vimage
p861
g800
NVocteon
p862
tp863
(dp864
Vinstall-stem
p865
Vvmlinux
p866
sVconfigs
p867
(lp868
Vkernelarch-mips/config.octeon
p869
ass(g214
g800
g183
tp870
(dp871
g217
(lp872
V5kc-malta
p873
aVloongson-3
p874
aVocteon
p875
asg221
I01
ss(Vbase
p876
Vmips64r6
p877
tp878
(dp879
Vdefault-flavour
p880
Vmips64r6
p881
sVkernel-arch
p882
Vmips
p883
sg181
(lp884
g183
ass(Vbuild
p885
g877
tp886
(dp887
Vimage-file
p888
Vvmlinux
p889
ss(Vimage
p890
g877
tp891
(dp892
Vinstall-stem
p893
Vvmlinux
p894
ss(Vdescription
p895
g877
NVmips64r6
p896
tp897
(dp898
Vhardware
p899
VMIPS R6 (64 bit, big endian)
p900
sVhardware-long
p901
VMIPS R6 (64 bit, big endian)
p902
ss(Vimage
p903
g877
NVmips64r6
p904
tp905
(dp906
Vconfigs
p907
(lp908
Vkernelarch-mips/config.boston
p909
aVkernelarch-mips/config.mips64r6
p910
ass(g214
g877
g183
tp911
(dp912
g217
(lp913
Vmips64r6
p914
asg221
I01
ss(Vbase
p915
Vmips64r6el
p916
tp917
(dp918
Vdefault-flavour
p919
Vmips64r6el
p920
sVkernel-arch
p921
Vmips
p922
sg181
(lp923
g183
ass(Vbuild
p924
g916
tp925
(dp926
Vimage-file
p927
Vvmlinux
p928
ss(Vimage
p929
g916
tp930
(dp931
Vinstall-stem
p932
Vvmlinux
p933
ss(Vdescription
p934
g916
NVmips64r6el
p935
tp936
(dp937
Vhardware
p938
VMIPS R6 (64 bit, little endian)
p939
sVhardware-long
p940
VMIPS R6 (64 bit, little endian)
p941
ss(Vimage
p942
g916
NVmips64r6el
p943
tp944
(dp945
Vconfigs
p946
(lp947
Vkernelarch-mips/config.boston
p948
aVkernelarch-mips/config.mips64r6
p949
ass(g214
g916
g183
tp950
(dp951
g217
(lp952
Vmips64r6el
p953
asg221
I01
ss(Vbase
p954
Vmipsel
p955
tp956
(dp957
Vkernel-arch
p958
Vmips
p959
sg181
(lp960
g183
ass(Vbuild
p961
g955
tp962
(dp963
Vimage-file
p964
Vvmlinuz
p965
ss(Vimage
p966
g955
tp967
(dp968
Vinstall-stem
p969
Vvmlinuz
p970
ss(Vdescription
p971
g955
NV4kc-malta
p972
tp973
(dp974
Vhardware
p975
VMIPS Malta
p976
sVhardware-long
p977
VMIPS Malta boards
p978
ss(Vimage
p979
g955
NV4kc-malta
p980
tp981
(dp982
Vconfigs
p983
(lp984
Vkernelarch-mips/config.malta
p985
aVkernelarch-mips/config.mips32r2
p986
ass(Vdescription
p987
g955
NV5kc-malta
p988
tp989
(dp990
Vhardware
p991
VMIPS Malta (64-bit)
p992
sVhardware-long
p993
VMIPS Malta boards (64-bit)
p994
ss(Vimage
p995
g955
NV5kc-malta
p996
tp997
(dp998
Vconfigs
p999
(lp1000
Vkernelarch-mips/config.malta
p1001
aVkernelarch-mips/config.mips64r2
p1002
ass(Vdescription
p1003
g955
NVloongson-3
p1004
tp1005
(dp1006
Vhardware
p1007
VLoongson 3A/3B
p1008
sVhardware-long
p1009
VLoongson 3A or 3B based systems (e.g. from Loongson or Lemote)
p1010
ss(Vimage
p1011
g955
NVloongson-3
p1012
tp1013
(dp1014
Vconfigs
p1015
(lp1016
Vkernelarch-mips/config.loongson-3
p1017
ass(Vdescription
p1018
g955
NVocteon
p1019
tp1020
(dp1021
Vhardware
p1022
VOcteon
p1023
sVhardware-long
p1024
VCavium Networks Octeon
p1025
ss(Vbuild
p1026
g955
NVocteon
p1027
tp1028
(dp1029
Vimage-file
p1030
Vvmlinux
p1031
ss(Vimage
p1032
g955
NVocteon
p1033
tp1034
(dp1035
Vinstall-stem
p1036
Vvmlinux
p1037
sVconfigs
p1038
(lp1039
Vkernelarch-mips/config.octeon
p1040
ass(g214
g955
g183
tp1041
(dp1042
g217
(lp1043
V4kc-malta
p1044
aV5kc-malta
p1045
aVloongson-3
p1046
aVocteon
p1047
asg221
I01
ss(Vbase
p1048
Vmipsn32
p1049
tp1050
(dp1051
Vkernel-arch
p1052
Vmips
p1053
sVfeaturesets
p1054
(lp1055
ss(Vbase
p1056
Vmipsn32el
p1057
tp1058
(dp1059
Vkernel-arch
p1060
Vmips
p1061
sVfeaturesets
p1062
(lp1063
ss(Vbase
p1064
Vmipsn32r6
p1065
tp1066
(dp1067
Vkernel-arch
p1068
Vmips
p1069
sVfeaturesets
p1070
(lp1071
ss(Vbase
p1072
Vmipsn32r6el
p1073
tp1074
(dp1075
Vkernel-arch
p1076
Vmips
p1077
sVfeaturesets
p1078
(lp1079
ss(Vbase
p1080
Vmipsr6
p1081
tp1082
(dp1083
Vdefault-flavour
p1084
Vmips32r6
p1085
sVkernel-arch
p1086
Vmips
p1087
sg181
(lp1088
g183
ass(Vbuild
p1089
g1081
tp1090
(dp1091
Vimage-file
p1092
Vvmlinux
p1093
ss(Vimage
p1094
g1081
tp1095
(dp1096
Vinstall-stem
p1097
Vvmlinux
p1098
ss(Vdescription
p1099
g1081
NVmips32r6
p1100
tp1101
(dp1102
Vhardware
p1103
VMIPS R6 (32 bit, big endian)
p1104
sVhardware-long
p1105
VMIPS R6 (32 bit, big endian)
p1106
ss(Vimage
p1107
g1081
NVmips32r6
p1108
tp1109
(dp1110
Vconfigs
p1111
(lp1112
Vkernelarch-mips/config.boston
p1113
aVkernelarch-mips/config.mips32r6
p1114
ass(Vdescription
p1115
g1081
NVmips64r6
p1116
tp1117
(dp1118
Vhardware
p1119
VMIPS R6 (64 bit, big endian)
p1120
sVhardware-long
p1121
VMIPS R6 (64 bit, big endian)
p1122
ss(Vimage
p1123
g1081
NVmips64r6
p1124
tp1125
(dp1126
Vconfigs
p1127
(lp1128
Vkernelarch-mips/config.boston
p1129
aVkernelarch-mips/config.mips64r6
p1130
ass(g214
g1081
g183
tp1131
(dp1132
g217
(lp1133
Vmips32r6
p1134
aVmips64r6
p1135
asg221
I01
ss(Vbase
p1136
Vmipsr6el
p1137
tp1138
(dp1139
Vdefault-flavour
p1140
Vmips32r6el
p1141
sVkernel-arch
p1142
Vmips
p1143
sg181
(lp1144
g183
ass(Vbuild
p1145
g1137
tp1146
(dp1147
Vimage-file
p1148
Vvmlinux
p1149
ss(Vimage
p1150
g1137
tp1151
(dp1152
Vinstall-stem
p1153
Vvmlinux
p1154
ss(Vdescription
p1155
g1137
NVmips32r6el
p1156
tp1157
(dp1158
Vhardware
p1159
VMIPS R6 (32 bit, little endian)
p1160
sVhardware-long
p1161
VMIPS R6 (32 bit, little endian)
p1162
ss(Vimage
p1163
g1137
NVmips32r6el
p1164
tp1165
(dp1166
Vconfigs
p1167
(lp1168
Vkernelarch-mips/config.boston
p1169
aVkernelarch-mips/config.mips32r6
p1170
ass(Vdescription
p1171
g1137
NVmips64r6el
p1172
tp1173
(dp1174
Vhardware
p1175
VMIPS R6 (64 bit, little endian)
p1176
sVhardware-long
p1177
VMIPS R6 (64 bit, little endian)
p1178
ss(Vimage
p1179
g1137
NVmips64r6el
p1180
tp1181
(dp1182
Vconfigs
p1183
(lp1184
Vkernelarch-mips/config.boston
p1185
aVkernelarch-mips/config.mips64r6
p1186
ass(g214
g1137
g183
tp1187
(dp1188
g217
(lp1189
Vmips32r6el
p1190
aVmips64r6el
p1191
asg221
I01
ss(Vbase
p1192
Vpowerpc
p1193
tp1194
(dp1195
Vkernel-arch
p1196
Vpowerpc
p1197
sg181
(lp1198
g183
ass(Vbuild
p1199
g1193
tp1200
(dp1201
Vimage-file
p1202
Vvmlinux
p1203
sVvdso
p1204
I01
ss(Vimage
p1205
g1193
tp1206
(dp1207
Vconfigs
p1208
(lp1209
sVbootloaders
p1210
(lp1211
Vgrub-ieee1275
p1212
asVsuggests
p1213
(lp1214
Vmkvmlinuz
p1215
asVinstall-stem
p1216
Vvmlinux
p1217
ss(Vdescription
p1218
g1193
NVpowerpc
p1219
tp1220
(dp1221
Vhardware
p1222
Vuniprocessor 32-bit PowerPC
p1223
ss(Vdescription
p1224
g1193
NVpowerpc-smp
p1225
tp1226
(dp1227
Vhardware
p1228
Vmultiprocessor 32-bit PowerPC
p1229
ss(Vimage
p1230
g1193
NVpowerpc-smp
p1231
tp1232
(dp1233
Vconfigs
p1234
(lp1235
Vpowerpc/config.powerpc
p1236
aVpowerpc/config.powerpc-smp
p1237
ass(Vdescription
p1238
g1193
NVpowerpc64
p1239
tp1240
(dp1241
Vhardware
p1242
V64-bit PowerPC
p1243
ss(Vimage
p1244
g1193
NVpowerpc64
p1245
tp1246
(dp1247
Vconfigs
p1248
(lp1249
Vkernelarch-powerpc/config-arch-64
p1250
aVkernelarch-powerpc/config-arch-64-be
p1251
ass(g214
g1193
g183
tp1252
(dp1253
g217
(lp1254
Vpowerpc
p1255
aVpowerpc-smp
p1256
aVpowerpc64
p1257
asg221
I01
ss(Vbase
p1258
Vppc64
p1259
tp1260
(dp1261
Vdefault-flavour
p1262
Vpowerpc64
p1263
sVkernel-arch
p1264
Vpowerpc
p1265
sg181
(lp1266
g183
ass(Vbuild
p1267
g1259
tp1268
(dp1269
Vimage-file
p1270
Vvmlinux
p1271
sVvdso
p1272
I01
ss(Vimage
p1273
g1259
tp1274
(dp1275
Vconfigs
p1276
(lp1277
sVbootloaders
p1278
(lp1279
Vgrub-ieee1275
p1280
asVsuggests
p1281
(lp1282
Vmkvmlinuz
p1283
asVinstall-stem
p1284
Vvmlinux
p1285
ss(Vdescription
p1286
g1259
NVpowerpc64
p1287
tp1288
(dp1289
Vhardware
p1290
V64-bit PowerPC
p1291
ss(Vimage
p1292
g1259
NVpowerpc64
p1293
tp1294
(dp1295
Vconfigs
p1296
(lp1297
Vkernelarch-powerpc/config-arch-64
p1298
aVkernelarch-powerpc/config-arch-64-be
p1299
ass(g214
g1259
g183
tp1300
(dp1301
g217
(lp1302
Vpowerpc64
p1303
asg221
I01
ss(Vbase
p1304
Vppc64el
p1305
tp1306
(dp1307
Vdefault-flavour
p1308
Vpowerpc64le
p1309
sVkernel-arch
p1310
Vpowerpc
p1311
sg181
(lp1312
g183
ass(Vbuild
p1313
g1305
tp1314
(dp1315
Vimage-file
p1316
Vvmlinux
p1317
sVvdso
p1318
I01
ss(Vimage
p1319
g1305
tp1320
(dp1321
Vconfigs
p1322
(lp1323
sVbootloaders
p1324
(lp1325
Vgrub-ieee1275
p1326
asVsuggests
p1327
(lp1328
Vmkvmlinuz
p1329
asVinstall-stem
p1330
Vvmlinux
p1331
ss(Vdescription
p1332
g1305
NVpowerpc64le
p1333
tp1334
(dp1335
Vhardware
p1336
VLittle-endian 64-bit PowerPC
p1337
ss(Vimage
p1338
g1305
NVpowerpc64le
p1339
tp1340
(dp1341
Vconfigs
p1342
(lp1343
Vkernelarch-powerpc/config-arch-64
p1344
aVkernelarch-powerpc/config-arch-64-le
p1345
ass(g214
g1305
g183
tp1346
(dp1347
g217
(lp1348
Vpowerpc64le
p1349
asg221
I01
ss(Vbase
p1350
Vriscv64
p1351
tp1352
(dp1353
Vkernel-arch
p1354
Vriscv
p1355
sVfeaturesets
p1356
(lp1357
Vnone
p1358
ass(Vbuild
p1359
g1351
tp1360
(dp1361
Vimage-file
p1362
Varch/riscv/boot/Image
p1363
sVvdso
p1364
I01
ss(Vimage
p1365
g1351
tp1366
(dp1367
Vinstall-stem
p1368
Vvmlinux
p1369
ss(Vdescription
p1370
g1351
NVriscv64
p1371
tp1372
(dp1373
Vhardware
p1374
V64-bit RISC-V platforms
p1375
sVhardware-long
p1376
V64-bit RISC-V platforms
p1377
ss(Vbase
p1378
g1351
Vnone
p1379
tp1380
(dp1381
Vflavours
p1382
(lp1383
Vriscv64
p1384
asVdefault-flavour
p1385
Vriscv64
p1386
ss(Vbase
p1387
Vs390
p1388
tp1389
(dp1390
Vkernel-arch
p1391
Vs390
p1392
sVfeaturesets
p1393
(lp1394
ss(Vbase
p1395
Vs390x
p1396
tp1397
(dp1398
Vdefault-flavour
p1399
Vs390x
p1400
sVkernel-arch
p1401
Vs390
p1402
sg181
(lp1403
g183
ass(Vbuild
p1404
g1396
tp1405
(dp1406
Vimage-file
p1407
Varch/s390/boot/bzImage
p1408
sVvdso
p1409
I01
ss(Vimage
p1410
g1396
tp1411
(dp1412
Vbootloaders
p1413
(lp1414
Vs390-tools
p1415
asVinstall-stem
p1416
Vvmlinuz
p1417
ss(Vrelations
p1418
g1396
tp1419
(dp1420
Vheaders%gcc-10
p1421
Vlinux-compiler-gcc-10-s390
p1422
ss(Vdescription
p1423
g1396
NVs390x
p1424
tp1425
(dp1426
Vhardware
p1427
VIBM zSeries
p1428
ss(g214
g1396
g183
tp1429
(dp1430
g217
(lp1431
Vs390x
p1432
asg221
I01
ss(Vbase
p1433
Vsh3
p1434
tp1435
(dp1436
Vkernel-arch
p1437
Vsh
p1438
sVfeaturesets
p1439
(lp1440
ss(Vbase
p1441
Vsh4
p1442
tp1443
(dp1444
Vkernel-arch
p1445
Vsh
p1446
sg181
(lp1447
g183
ass(Vbuild
p1448
g1442
tp1449
(dp1450
Vimage-file
p1451
Varch/sh/boot/zImage
p1452
ss(Vimage
p1453
g1442
tp1454
(dp1455
Vinstall-stem
p1456
Vvmlinuz
p1457
ss(Vdescription
p1458
g1442
NVsh7751r
p1459
tp1460
(dp1461
Vhardware
p1462
Vsh7751r
p1463
sVhardware-long
p1464
VRenesas SH7751R R2D plus board
p1465
ss(Vdescription
p1466
g1442
NVsh7785lcr
p1467
tp1468
(dp1469
Vhardware
p1470
Vsh7785lcr
p1471
sVhardware-long
p1472
VRenesas SH7785 reference board
p1473
ss(Vimage
p1474
g1442
NVsh7785lcr
p1475
tp1476
(dp1477
Vrecommends
p1478
(lp1479
Vu-boot-tools
p1480
asVcheck-size
p1481
I4194304
ss(g214
g1442
g183
tp1482
(dp1483
g217
(lp1484
Vsh7751r
p1485
aVsh7785lcr
p1486
asg221
I01
ss(Vbase
p1487
Vsparc
p1488
tp1489
(dp1490
Vkernel-arch
p1491
Vsparc
p1492
sVfeaturesets
p1493
(lp1494
ss(Vbase
p1495
Vsparc64
p1496
tp1497
(dp1498
Vdefault-flavour
p1499
Vsparc64-smp
p1500
sVkernel-arch
p1501
Vsparc
p1502
sg181
(lp1503
g183
ass(Vbuild
p1504
g1496
tp1505
(dp1506
Vimage-file
p1507
Vvmlinux
p1508
ss(Vimage
p1509
g1496
tp1510
(dp1511
Vconfigs
p1512
(lp1513
sVbootloaders
p1514
(lp1515
Vgrub-ieee1275
p1516
asVsuggests
p1517
(lp1518
Vfdutils
p1519
asVinstall-stem
p1520
Vvmlinux
p1521
ss(Vdescription
p1522
g1496
NVsparc64
p1523
tp1524
(dp1525
Vhardware
p1526
Vuniprocessor 64-bit UltraSPARC
p1527
ss(Vimage
p1528
g1496
NVsparc64
p1529
tp1530
(dp1531
Vconfigs
p1532
(lp1533
Vkernelarch-sparc/config-up
p1534
ass(Vdescription
p1535
g1496
NVsparc64-smp
p1536
tp1537
(dp1538
Vhardware
p1539
Vmultiprocessor 64-bit UltraSPARC
p1540
ss(Vimage
p1541
g1496
NVsparc64-smp
p1542
tp1543
(dp1544
Vconfigs
p1545
(lp1546
Vkernelarch-sparc/config-smp
p1547
ass(g214
g1496
g183
tp1548
(dp1549
g217
(lp1550
Vsparc64
p1551
aVsparc64-smp
p1552
asg221
I01
ss(Vbase
p1553
Vx32
p1554
tp1555
(dp1556
Vkernel-arch
p1557
Vx86
p1558
sVfeaturesets
p1559
(lp1560
ss(Vabi
p1561
NVrt
p1562
tp1563
(dp1564
Vignore-changes
p1565
(lp1566
V*
p1567
ass(Vdescription
p1568
Ng1562
tp1569
(dp1570
Vpart-long-rt
p1571
VThis kernel includes the PREEMPT_RT realtime patch set.
p1572
sVpart-short-rt
p1573
VPREEMPT_RT
p1574
sVparts
p1575
(lp1576
Vrt
p1577
ass(Vversion
p1578
tp1579
(dp1580
Vsource
p1581
V5.10.13-1+rpi1
p1582
sVupstream
p1583
V5.10
p1584
sVabiname_base
p1585
V5.10.0
p1586
sVabiname
p1587
V5.10.0-3
p1588
ss.