cdebian_linux.config
ConfigCore
p0
(tRp1
(Vabi
p2
tp3
(dp4
Vabiname
p5
V2
p6
sVignore-changes
p7
(lp8
V__cpuhp_*
p9
aV__udp_gso_segment
p10
aVbpf_analyzer
p11
aVbpf_offload_dev_create
p12
aVbpf_verifier_log_write
p13
aVcxl_*
p14
aVdax_flush
p15
aVieee80211_nullfunc_get
p16
aVinet_add_protocol
p17
aVinet_del_protocol
p18
aViommu_device_*
p19
aVmm_iommu_*
p20
aVmv_mbus_*
p21
aVperf_*
p22
aVregister_cxl_calls
p23
aVregister_key_type
p24
aVunregister_cxl_calls
p25
aV*_hw_breakpoint
p26
aVmodule:drivers/crypto/ccp/*
p27
aVmodule:drivers/hv/*
p28
aVmodule:drivers/gpu/drm/sun4i/*
p29
aVmodule:drivers/iio/**
p30
aVmodule:drivers/misc/cxl/*
p31
aVmodule:drivers/misc/lis3lv02d/*
p32
aVmodule:drivers/mtd/nand/*
p33
aVmodule:drivers/net/ethernet/**
p34
aVmodule:drivers/net/wireless/**
p35
aVmodule:drivers/nvdimm/*
p36
aVmodule:drivers/nvme/**
p37
aVmodule:drivers/power/supply/bq27xxx_battery
p38
aVmodule:drivers/scsi/cxgbi/*
p39
aVmodule:drivers/scsi/libiscs*
p40
aVmodule:drivers/scsi/qla2xxx/qla2xxx
p41
aVmodule:drivers/scsi/ufs/*
p42
aVmodule:drivers/target/**
p43
aVmodule:drivers/usb/chipidea/**
p44
aVmodule:drivers/usb/gadget/**
p45
aVmodule:drivers/usb/host/**
p46
aVmodule:drivers/usb/musb/**
p47
aVmodule:fs/nfs/**
p48
aVmodule:net/ceph/libceph
p49
aVmodule:net/l2tp/**
p50
aVmodule:net/openvswitch/**
p51
aVmodule:net/rxrpc/rxrpc
p52
aVmodule:net/sctp/**
p53
aVmodule:sound/core/seq/**
p54
aVmodule:sound/firewire/snd-firewire-lib
p55
aVmodule:sound/pci/hda/*
p56
aVbtree_*
p57
aVvisitor*
p58
aVcan_rx_register
p59
aVip6_xmit
p60
aVmodule:net/dccp/dccp
p61
aVmodule:net/rds/rds
p62
aVdevfreq_*
p63
aVdevm_devfreq_*
p64
aVupdate_devfreq
p65
aVmodule:drivers/infiniband/**
p66
aVacpi_ec_add_query_handler
p67
aVacpi_ec_remove_query_handler
p68
aVfirst_ec
p69
aVdebugfs_create_automount
p70
aVmodule:drivers/iio/imu/inv_mpu6050/*
p71
aVdrm_crtc_accurate_vblank_count
p72
aVacpi_nfit_desc_init
p73
aVacpi_nfit_init
p74
aVloop_register_transfer
p75
aVxen_xlate_*
p76
aVnf_nat_masquerade_ipv4_register_notifier
p77
aVnf_nat_masquerade_ipv6_register_notifier
p78
aVdfltcc_*
p79
aVmodule:drivers/scsi/hisi_sas/*
p80
aV__gfn_*
p81
aV__kvmhv_*
p82
aV__kvm_*
p83
aV__xive_vm_h_*
p84
aVgfn_*
p85
aVh_ipi_redirect
p86
aVhalt_poll_ns*
p87
aVkvm_*
p88
aVkvmhv_*
p89
aVkvmppc_*
p90
aVmark_page_dirty
p91
aVvcpu_*
p92
aVmodule:arch/powerpc/kvm/*
p93
aVmodule:arch/s390/kvm/*
p94
aVmodule:arch/x86/kvm/*
p95
aVuv_info
p96
aVxhci_init_driver
p97
ass(Vbase
p98
tp99
(dp100
Varches
p101
(lp102
Valpha
p103
aVamd64
p104
aVarm64
p105
aVarm64ilp32
p106
aVarmel
p107
aVarmhf
p108
aVhppa
p109
aVi386
p110
aVia64
p111
aVm68k
p112
aVmips
p113
aVmips64
p114
aVmips64el
p115
aVmips64r6
p116
aVmips64r6el
p117
aVmipsel
p118
aVmipsn32
p119
aVmipsn32el
p120
aVmipsn32r6
p121
aVmipsn32r6el
p122
aVmipsr6
p123
aVmipsr6el
p124
aVpowerpc
p125
aVppc64
p126
aVppc64el
p127
aVriscv64
p128
aVs390
p129
aVs390x
p130
aVsh3
p131
aVsh4
p132
aVsparc
p133
aVsparc64
p134
aVx32
p135
asVcompiler
p136
Vgcc-10
p137
sVfeaturesets
p138
(lp139
Vnone
p140
aVrt
p141
ass(Vbuild
p142
tp143
(dp144
Vdebug-info
p145
I01
sVsigned-code
p146
I00
sVtrusted-certs
p147
Vdebian/certs/debian-uefi-certs.pem
p148
ss(Vbase
p149
NVrt
p150
tp151
(dp152
Venabled
p153
I00
ss(Vdescription
p154
tp155
(dp156
Vpart-long-up
p157
VThis kernel is not suitable for SMP (multi-processor,\u000amulti-core or hyper-threaded) systems.
p158
ss(Vimage
p159
tp160
(dp161
Vinitramfs-generators
p162
(lp163
Vinitramfs-tools
p164
aVinitramfs-fallback
p165
asVbreaks
p166
(lp167
Vfwupdate (<< 12-7)
p168
aVwireless-regdb (<< 2019.06.03-1~)
p169
asVrecommends
p170
(lp171
Vapparmor
p172
ass(Vrelations
p173
tp174
(dp175
Vgcc-10
p176
Vgcc-10 <!stage1 !cross !pkg.linux.nokernel>, gcc-10-@gnu-type-package@ <!stage1 cross !pkg.linux.nokernel>
p177
sVinitramfs-fallback
p178
Vlinux-initramfs-tool
p179
sVinitramfs-tools
p180
Vinitramfs-tools (>= 0.120+deb8u2)
p181
ss(Vbase
p182
Valpha
p183
tp184
(dp185
Vdefault-flavour
p186
Valpha-smp
p187
sVkernel-arch
p188
Valpha
p189
sVfeaturesets
p190
(lp191
Vnone
p192
ass(Vbuild
p193
g183
tp194
(dp195
Vimage-file
p196
Varch/alpha/boot/vmlinux.gz
p197
ss(Vimage
p198
g183
tp199
(dp200
Vsuggests
p201
(lp202
Vaboot
p203
aVfdutils
p204
asVinstall-stem
p205
Vvmlinuz
p206
ss(Vdescription
p207
g183
NValpha-generic
p208
tp209
(dp210
Vhardware
p211
VAlpha
p212
sVhardware-long
p213
VDEC Alpha systems with extended kernel start address (Wildfire, Titan, Marvel)
p214
ss(Vdescription
p215
g183
NValpha-smp
p216
tp217
(dp218
Vhardware
p219
VAlpha SMP
p220
sVhardware-long
p221
VDEC Alpha SMP systems with extended kernel start address (Wildfire, Titan, Marvel)
p222
ss(Vbase
p223
g183
g192
tp224
(dp225
Vflavours
p226
(lp227
Valpha-generic
p228
aValpha-smp
p229
asVimplicit-flavour
p230
I01
ss(Vbase
p231
Vamd64
p232
tp233
(dp234
Vfeaturesets
p235
(lp236
Vnone
p237
aVrt
p238
asVkernel-arch
p239
Vx86
p240
ss(Vbuild
p241
g232
tp242
(dp243
Vimage-file
p244
Varch/x86/boot/bzImage
p245
sVsigned-code
p246
I01
sVvdso
p247
I01
ss(Vimage
p248
g232
tp249
(dp250
Vbootloaders
p251
(lp252
Vgrub-pc
p253
aVgrub-efi-amd64
p254
aVextlinux
p255
asVinstall-stem
p256
Vvmlinuz
p257
sVbreaks
p258
(lp259
Vxserver-xorg-input-vmmouse (<< 1:13.0.99)
p260
ass(Vrelations
p261
g232
tp262
(dp263
Vheaders%gcc-10
p264
Vlinux-compiler-gcc-10-x86
p265
ss(Vdescription
p266
g232
NVamd64
p267
tp268
(dp269
Vhardware
p270
V64-bit PCs
p271
sVhardware-long
p272
VPCs with AMD64, Intel 64 or VIA Nano processors
p273
ss(Vdescription
p274
g232
NVcloud-amd64
p275
tp276
(dp277
Vhardware
p278
Vx86-64 cloud
p279
sVhardware-long
p280
Vcloud platforms including Amazon EC2, Microsoft Azure, and Google Compute Engine
p281
ss(Vbase
p282
g232
Vnone
p283
tp284
(dp285
Vflavours
p286
(lp287
Vamd64
p288
aVcloud-amd64
p289
asVdefault-flavour
p290
Vamd64
p291
ss(Vimage
p292
g232
g283
Vcloud-amd64
p293
tp294
(dp295
Vconfigs
p296
(lp297
Vconfig.cloud
p298
aVamd64/config.cloud-amd64
p299
ass(Vbase
p300
g232
Vrt
p301
tp302
(dp303
Vflavours
p304
(lp305
Vamd64
p306
ass(Vbase
p307
Varm64
p308
tp309
(dp310
Vcross-compile-compat
p311
Varm-linux-gnueabihf-
p312
sVkernel-arch
p313
Varm64
p314
sVfeaturesets
p315
(lp316
Vnone
p317
aVrt
p318
ass(Vbuild
p319
g308
tp320
(dp321
Vimage-file
p322
Varch/arm64/boot/Image
p323
sVsigned-code
p324
I01
sVvdso
p325
I01
ss(Vimage
p326
g308
tp327
(dp328
Vinstall-stem
p329
Vvmlinuz
p330
sVbreaks
p331
(lp332
Vlibmozjs185-1.0
p333
aVlibmozjs-24-0 (<< 24.2.0-5.1~)
p334
ass(Vdescription
p335
g308
NVarm64
p336
tp337
(dp338
Vhardware
p339
V64-bit ARMv8 machines
p340
ss(Vdescription
p341
g308
NVcloud-arm64
p342
tp343
(dp344
Vhardware
p345
Varm64 cloud
p346
sVhardware-long
p347
Vcloud platforms supporting arm64 virtual machines
p348
ss(Vimage
p349
g308
NVarm64
p350
tp351
(dp352
s(Vrelations
p353
g308
tp354
(dp355
Vgcc-10
p356
Vgcc-10 <!stage1 !cross !pkg.linux.nokernel>, gcc-10-aarch64-linux-gnu <!stage1 cross !pkg.linux.nokernel>, gcc-arm-linux-gnueabihf <!stage1 !pkg.linux.nokernel>
p357
sVheaders%gcc-10
p358
Vgcc-10
p359
ss(Vbase
p360
g308
Vnone
p361
tp362
(dp363
Vflavours
p364
(lp365
Varm64
p366
aVcloud-arm64
p367
asVdefault-flavour
p368
Varm64
p369
ss(Vimage
p370
g308
g361
Vcloud-arm64
p371
tp372
(dp373
Vconfigs
p374
(lp375
Vconfig.cloud
p376
aVarm64/config.cloud-arm64
p377
ass(Vbase
p378
g308
Vrt
p379
tp380
(dp381
Vflavours
p382
(lp383
Varm64
p384
ass(Vbase
p385
Varm64ilp32
p386
tp387
(dp388
Vkernel-arch
p389
Varm64
p390
sVfeaturesets
p391
(lp392
ss(Vbase
p393
Varmel
p394
tp395
(dp396
Vkernel-arch
p397
Varm
p398
sg190
(lp399
g192
ass(Vbuild
p400
g394
tp401
(dp402
Vimage-file
p403
Varch/arm/boot/zImage
p404
sVuncompressed-image-file
p405
Varch/arm/boot/Image
p406
ss(Vimage
p407
g394
tp408
(dp409
Vinstall-stem
p410
Vvmlinuz
p411
ss(Vrelations
p412
g394
tp413
(dp414
Vheaders%gcc-10
p415
Vlinux-compiler-gcc-10-arm
p416
ss(Vdescription
p417
g394
NVmarvell
p418
tp419
(dp420
Vhardware
p421
VMarvell Kirkwood/Orion
p422
sVhardware-long
p423
VMarvell Kirkwood and Orion based systems (https://wiki.debian.org/ArmEabiPort#Supported_hardware)
p424
ss(Vdescription
p425
g394
NVrpi
p426
tp427
(dp428
Vhardware
p429
VRaspberry Pi and Pi Zero
p430
sVhardware-long
p431
VRaspberry Pi, Raspberry Pi Zero based systems
p432
ss(Vimage
p433
g394
NVmarvell
p434
tp435
(dp436
Vrecommends
p437
(lp438
Vu-boot-tools
p439
asVcheck-size
p440
I2729712
sVcheck-size-with-dtb
p441
I01
sVbreaks
p442
(lp443
Vflash-kernel (<< 3.57~)
p444
ass(g223
g394
g192
tp445
(dp446
g226
(lp447
Vmarvell
p448
aVrpi
p449
asg230
I01
ss(Vbase
p450
Varmhf
p451
tp452
(dp453
Vfeaturesets
p454
(lp455
sVkernel-arch
p456
Varm
p457
ss(Vbase
p458
Vhppa
p459
tp460
(dp461
Vdefault-flavour
p462
Vparisc
p463
sVkernel-arch
p464
Vparisc
p465
sg190
(lp466
g192
ass(Vbuild
p467
g459
tp468
(dp469
Vimage-file
p470
Varch/parisc/boot/bzImage
p471
sVdebug-info
p472
I00
ss(Vimage
p473
g459
tp474
(dp475
Vsuggests
p476
(lp477
Vpalo
p478
asVinstall-stem
p479
Vvmlinuz
p480
ss(Vdescription
p481
g459
NVparisc
p482
tp483
(dp484
Vhardware
p485
V32-bit PA-RISC
p486
sVhardware-long
p487
VHP PA-RISC 32-bit systems with max 4 GB RAM
p488
ss(Vbase
p489
g459
NVparisc64
p490
tp491
(dp492
Vcflags
p493
V-fno-cse-follow-jumps
p494
sVoverride-host-type
p495
Vhppa64-linux-gnu
p496
ss(Vdescription
p497
g459
NVparisc64
p498
tp499
(dp500
Vhardware
p501
V64-bit PA-RISC
p502
sVhardware-long
p503
VHP PA-RISC 64-bit systems with support for more than 4 GB RAM
p504
ss(Vrelations
p505
g459
tp506
(dp507
Vgcc-10
p508
Vgcc-10 <!stage1 !cross !pkg.linux.nokernel>, gcc-10-hppa-linux-gnu <!stage1 cross !pkg.linux.nokernel>, binutils-hppa64-linux-gnu <!stage1 !pkg.linux.nokernel>, gcc-10-hppa64-linux-gnu <!stage1 !pkg.linux.nokernel>
p509
ss(g223
g459
g192
tp510
(dp511
g226
(lp512
Vparisc
p513
aVparisc64
p514
asg230
I01
ss(Vbase
p515
Vi386
p516
tp517
(dp518
Vfeaturesets
p519
(lp520
Vnone
p521
aVrt
p522
asVkernel-arch
p523
Vx86
p524
ss(Vbuild
p525
g516
tp526
(dp527
Vimage-file
p528
Varch/x86/boot/bzImage
p529
sVsigned-code
p530
I01
sVvdso
p531
I01
ss(Vdescription
p532
g516
tp533
(dp534
Vpart-long-pae
p535
VThis kernel requires PAE (Physical Address Extension).\u000aThis feature is supported by the Intel Pentium Pro/II/III/4/4M/D, Xeon,\u000aCore and Atom; AMD Geode NX, Athlon (K7), Duron, Opteron, Sempron,\u000aTurion or Phenom; Transmeta Efficeon; VIA C7; and some other processors.
p536
ss(Vimage
p537
g516
tp538
(dp539
Vbootloaders
p540
(lp541
Vgrub-pc
p542
aVgrub-efi-ia32
p543
aVextlinux
p544
asVinstall-stem
p545
Vvmlinuz
p546
sVbreaks
p547
(lp548
Vxserver-xorg-input-vmmouse (<< 1:13.0.99)
p549
ass(Vrelations
p550
g516
tp551
(dp552
Vheaders%gcc-10
p553
Vlinux-compiler-gcc-10-x86
p554
ss(Vdescription
p555
g516
NV686
p556
tp557
(dp558
Vhardware
p559
Volder PCs
p560
sVhardware-long
p561
VPCs with one or more processors not supporting PAE
p562
ss(Vdescription
p563
g516
NV686-pae
p564
tp565
(dp566
Vhardware
p567
Vmodern PCs
p568
sVhardware-long
p569
VPCs with one or more processors supporting PAE
p570
sVparts
p571
(lp572
Vpae
p573
ass(Vbase
p574
g516
Vnone
p575
tp576
(dp577
Vflavours
p578
(lp579
V686
p580
aV686-pae
p581
asVdefault-flavour
p582
V686-pae
p583
ss(Vbase
p584
g516
Vrt
p585
tp586
(dp587
Vflavours
p588
(lp589
V686-pae
p590
ass(Vbase
p591
Via64
p592
tp593
(dp594
Vdefault-flavour
p595
Vitanium
p596
sVkernel-arch
p597
Via64
p598
sg190
(lp599
g192
ass(Vbuild
p600
g592
tp601
(dp602
Vimage-file
p603
Vvmlinux.gz
p604
ss(Vimage
p605
g592
tp606
(dp607
Vbootloaders
p608
(lp609
Vgrub-efi-ia64
p610
asVinstall-stem
p611
Vvmlinuz
p612
ss(Vdescription
p613
g592
NVitanium
p614
tp615
(dp616
Vhardware
p617
VItanium (Merced)
p618
sVhardware-long
p619
Vsystems with original Itanium (Merced) processors
p620
ss(Vdescription
p621
g592
NVmckinley
p622
tp623
(dp624
Vhardware
p625
VItanium 2+
p626
sVhardware-long
p627
Vsystems with Itanium 2 or 9300/9500/9700-series processors
p628
ss(g223
g592
g192
tp629
(dp630
g226
(lp631
Vitanium
p632
aVmckinley
p633
asg230
I01
ss(Vbase
p634
Vm68k
p635
tp636
(dp637
Vcflags
p638
V-ffreestanding
p639
sVdefault-flavour
p640
Vm68k
p641
sVkernel-arch
p642
Vm68k
p643
sg190
(lp644
g192
ass(Vbuild
p645
g635
tp646
(dp647
Vimage-file
p648
Vvmlinux
p649
ss(Vimage
p650
g635
tp651
(dp652
Vsuggests
p653
(lp654
Vvmelilo
p655
aVfdutils
p656
asVinstall-stem
p657
Vvmlinux
p658
ss(Vdescription
p659
g635
NVm68k
p660
tp661
(dp662
Vhardware
p663
VMotorola MC68020+ family
p664
ss(g223
g635
g192
tp665
(dp666
g226
(lp667
Vm68k
p668
asg230
I01
ss(Vbase
p669
Vmips
p670
tp671
(dp672
Vkernel-arch
p673
Vmips
p674
sg190
(lp675
g192
ass(Vbuild
p676
g670
tp677
(dp678
Vimage-file
p679
Vvmlinuz
p680
ss(Vimage
p681
g670
tp682
(dp683
Vinstall-stem
p684
Vvmlinuz
p685
ss(Vdescription
p686
g670
NV4kc-malta
p687
tp688
(dp689
Vhardware
p690
VMIPS Malta
p691
sVhardware-long
p692
VMIPS Malta boards
p693
ss(Vimage
p694
g670
NV4kc-malta
p695
tp696
(dp697
Vconfigs
p698
(lp699
Vkernelarch-mips/config.malta
p700
aVkernelarch-mips/config.mips32r2
p701
ass(Vdescription
p702
g670
NV5kc-malta
p703
tp704
(dp705
Vhardware
p706
VMIPS Malta (64-bit)
p707
sVhardware-long
p708
VMIPS Malta boards (64-bit)
p709
ss(Vimage
p710
g670
NV5kc-malta
p711
tp712
(dp713
Vconfigs
p714
(lp715
Vkernelarch-mips/config.malta
p716
aVkernelarch-mips/config.mips64r2
p717
ass(Vdescription
p718
g670
NVocteon
p719
tp720
(dp721
Vhardware
p722
VOcteon
p723
sVhardware-long
p724
VCavium Networks Octeon
p725
ss(Vbuild
p726
g670
NVocteon
p727
tp728
(dp729
Vimage-file
p730
Vvmlinux
p731
ss(Vimage
p732
g670
NVocteon
p733
tp734
(dp735
Vinstall-stem
p736
Vvmlinux
p737
sVconfigs
p738
(lp739
Vkernelarch-mips/config.octeon
p740
ass(g223
g670
g192
tp741
(dp742
g226
(lp743
V4kc-malta
p744
aV5kc-malta
p745
aVocteon
p746
asg230
I01
ss(Vbase
p747
Vmips64
p748
tp749
(dp750
Vkernel-arch
p751
Vmips
p752
sg190
(lp753
g192
ass(Vbuild
p754
g748
tp755
(dp756
Vimage-file
p757
Vvmlinuz
p758
ss(Vimage
p759
g748
tp760
(dp761
Vinstall-stem
p762
Vvmlinuz
p763
ss(Vdescription
p764
g748
NV5kc-malta
p765
tp766
(dp767
Vhardware
p768
VMIPS Malta
p769
sVhardware-long
p770
VMIPS Malta boards
p771
ss(Vimage
p772
g748
NV5kc-malta
p773
tp774
(dp775
Vconfigs
p776
(lp777
Vkernelarch-mips/config.malta
p778
aVkernelarch-mips/config.mips64r2
p779
ass(Vdescription
p780
g748
NVocteon
p781
tp782
(dp783
Vhardware
p784
VOcteon
p785
sVhardware-long
p786
VCavium Networks Octeon
p787
ss(Vbuild
p788
g748
NVocteon
p789
tp790
(dp791
Vimage-file
p792
Vvmlinux
p793
ss(Vimage
p794
g748
NVocteon
p795
tp796
(dp797
Vinstall-stem
p798
Vvmlinux
p799
sVconfigs
p800
(lp801
Vkernelarch-mips/config.octeon
p802
ass(g223
g748
g192
tp803
(dp804
g226
(lp805
V5kc-malta
p806
aVocteon
p807
asg230
I01
ss(Vbase
p808
Vmips64el
p809
tp810
(dp811
Vkernel-arch
p812
Vmips
p813
sg190
(lp814
g192
ass(Vbuild
p815
g809
tp816
(dp817
Vimage-file
p818
Vvmlinuz
p819
ss(Vimage
p820
g809
tp821
(dp822
Vinstall-stem
p823
Vvmlinuz
p824
ss(Vdescription
p825
g809
NV5kc-malta
p826
tp827
(dp828
Vhardware
p829
VMIPS Malta
p830
sVhardware-long
p831
VMIPS Malta boards
p832
ss(Vimage
p833
g809
NV5kc-malta
p834
tp835
(dp836
Vconfigs
p837
(lp838
Vkernelarch-mips/config.malta
p839
aVkernelarch-mips/config.mips64r2
p840
ass(Vdescription
p841
g809
NVloongson-3
p842
tp843
(dp844
Vhardware
p845
VLoongson 3A/3B
p846
sVhardware-long
p847
VLoongson 3A or 3B based systems (e.g. from Loongson or Lemote)
p848
ss(Vimage
p849
g809
NVloongson-3
p850
tp851
(dp852
Vconfigs
p853
(lp854
Vkernelarch-mips/config.loongson-3
p855
ass(Vdescription
p856
g809
NVocteon
p857
tp858
(dp859
Vhardware
p860
VOcteon
p861
sVhardware-long
p862
VCavium Networks Octeon
p863
ss(Vbuild
p864
g809
NVocteon
p865
tp866
(dp867
Vimage-file
p868
Vvmlinux
p869
ss(Vimage
p870
g809
NVocteon
p871
tp872
(dp873
Vinstall-stem
p874
Vvmlinux
p875
sVconfigs
p876
(lp877
Vkernelarch-mips/config.octeon
p878
ass(g223
g809
g192
tp879
(dp880
g226
(lp881
V5kc-malta
p882
aVloongson-3
p883
aVocteon
p884
asg230
I01
ss(Vbase
p885
Vmips64r6
p886
tp887
(dp888
Vdefault-flavour
p889
Vmips64r6
p890
sVkernel-arch
p891
Vmips
p892
sg190
(lp893
g192
ass(Vbuild
p894
g886
tp895
(dp896
Vimage-file
p897
Vvmlinux
p898
ss(Vimage
p899
g886
tp900
(dp901
Vinstall-stem
p902
Vvmlinux
p903
ss(Vdescription
p904
g886
NVmips64r6
p905
tp906
(dp907
Vhardware
p908
VMIPS R6 (64 bit, big endian)
p909
sVhardware-long
p910
VMIPS R6 (64 bit, big endian)
p911
ss(Vimage
p912
g886
NVmips64r6
p913
tp914
(dp915
Vconfigs
p916
(lp917
Vkernelarch-mips/config.boston
p918
aVkernelarch-mips/config.mips64r6
p919
ass(g223
g886
g192
tp920
(dp921
g226
(lp922
Vmips64r6
p923
asg230
I01
ss(Vbase
p924
Vmips64r6el
p925
tp926
(dp927
Vdefault-flavour
p928
Vmips64r6el
p929
sVkernel-arch
p930
Vmips
p931
sg190
(lp932
g192
ass(Vbuild
p933
g925
tp934
(dp935
Vimage-file
p936
Vvmlinux
p937
ss(Vimage
p938
g925
tp939
(dp940
Vinstall-stem
p941
Vvmlinux
p942
ss(Vdescription
p943
g925
NVmips64r6el
p944
tp945
(dp946
Vhardware
p947
VMIPS R6 (64 bit, little endian)
p948
sVhardware-long
p949
VMIPS R6 (64 bit, little endian)
p950
ss(Vimage
p951
g925
NVmips64r6el
p952
tp953
(dp954
Vconfigs
p955
(lp956
Vkernelarch-mips/config.boston
p957
aVkernelarch-mips/config.mips64r6
p958
ass(g223
g925
g192
tp959
(dp960
g226
(lp961
Vmips64r6el
p962
asg230
I01
ss(Vbase
p963
Vmipsel
p964
tp965
(dp966
Vkernel-arch
p967
Vmips
p968
sg190
(lp969
g192
ass(Vbuild
p970
g964
tp971
(dp972
Vimage-file
p973
Vvmlinuz
p974
ss(Vimage
p975
g964
tp976
(dp977
Vinstall-stem
p978
Vvmlinuz
p979
ss(Vdescription
p980
g964
NV4kc-malta
p981
tp982
(dp983
Vhardware
p984
VMIPS Malta
p985
sVhardware-long
p986
VMIPS Malta boards
p987
ss(Vimage
p988
g964
NV4kc-malta
p989
tp990
(dp991
Vconfigs
p992
(lp993
Vkernelarch-mips/config.malta
p994
aVkernelarch-mips/config.mips32r2
p995
ass(Vdescription
p996
g964
NV5kc-malta
p997
tp998
(dp999
Vhardware
p1000
VMIPS Malta (64-bit)
p1001
sVhardware-long
p1002
VMIPS Malta boards (64-bit)
p1003
ss(Vimage
p1004
g964
NV5kc-malta
p1005
tp1006
(dp1007
Vconfigs
p1008
(lp1009
Vkernelarch-mips/config.malta
p1010
aVkernelarch-mips/config.mips64r2
p1011
ass(Vdescription
p1012
g964
NVloongson-3
p1013
tp1014
(dp1015
Vhardware
p1016
VLoongson 3A/3B
p1017
sVhardware-long
p1018
VLoongson 3A or 3B based systems (e.g. from Loongson or Lemote)
p1019
ss(Vimage
p1020
g964
NVloongson-3
p1021
tp1022
(dp1023
Vconfigs
p1024
(lp1025
Vkernelarch-mips/config.loongson-3
p1026
ass(Vdescription
p1027
g964
NVocteon
p1028
tp1029
(dp1030
Vhardware
p1031
VOcteon
p1032
sVhardware-long
p1033
VCavium Networks Octeon
p1034
ss(Vbuild
p1035
g964
NVocteon
p1036
tp1037
(dp1038
Vimage-file
p1039
Vvmlinux
p1040
ss(Vimage
p1041
g964
NVocteon
p1042
tp1043
(dp1044
Vinstall-stem
p1045
Vvmlinux
p1046
sVconfigs
p1047
(lp1048
Vkernelarch-mips/config.octeon
p1049
ass(g223
g964
g192
tp1050
(dp1051
g226
(lp1052
V4kc-malta
p1053
aV5kc-malta
p1054
aVloongson-3
p1055
aVocteon
p1056
asg230
I01
ss(Vbase
p1057
Vmipsn32
p1058
tp1059
(dp1060
Vkernel-arch
p1061
Vmips
p1062
sVfeaturesets
p1063
(lp1064
ss(Vbase
p1065
Vmipsn32el
p1066
tp1067
(dp1068
Vkernel-arch
p1069
Vmips
p1070
sVfeaturesets
p1071
(lp1072
ss(Vbase
p1073
Vmipsn32r6
p1074
tp1075
(dp1076
Vkernel-arch
p1077
Vmips
p1078
sVfeaturesets
p1079
(lp1080
ss(Vbase
p1081
Vmipsn32r6el
p1082
tp1083
(dp1084
Vkernel-arch
p1085
Vmips
p1086
sVfeaturesets
p1087
(lp1088
ss(Vbase
p1089
Vmipsr6
p1090
tp1091
(dp1092
Vdefault-flavour
p1093
Vmips32r6
p1094
sVkernel-arch
p1095
Vmips
p1096
sg190
(lp1097
g192
ass(Vbuild
p1098
g1090
tp1099
(dp1100
Vimage-file
p1101
Vvmlinux
p1102
ss(Vimage
p1103
g1090
tp1104
(dp1105
Vinstall-stem
p1106
Vvmlinux
p1107
ss(Vdescription
p1108
g1090
NVmips32r6
p1109
tp1110
(dp1111
Vhardware
p1112
VMIPS R6 (32 bit, big endian)
p1113
sVhardware-long
p1114
VMIPS R6 (32 bit, big endian)
p1115
ss(Vimage
p1116
g1090
NVmips32r6
p1117
tp1118
(dp1119
Vconfigs
p1120
(lp1121
Vkernelarch-mips/config.boston
p1122
aVkernelarch-mips/config.mips32r6
p1123
ass(Vdescription
p1124
g1090
NVmips64r6
p1125
tp1126
(dp1127
Vhardware
p1128
VMIPS R6 (64 bit, big endian)
p1129
sVhardware-long
p1130
VMIPS R6 (64 bit, big endian)
p1131
ss(Vimage
p1132
g1090
NVmips64r6
p1133
tp1134
(dp1135
Vconfigs
p1136
(lp1137
Vkernelarch-mips/config.boston
p1138
aVkernelarch-mips/config.mips64r6
p1139
ass(g223
g1090
g192
tp1140
(dp1141
g226
(lp1142
Vmips32r6
p1143
aVmips64r6
p1144
asg230
I01
ss(Vbase
p1145
Vmipsr6el
p1146
tp1147
(dp1148
Vdefault-flavour
p1149
Vmips32r6el
p1150
sVkernel-arch
p1151
Vmips
p1152
sg190
(lp1153
g192
ass(Vbuild
p1154
g1146
tp1155
(dp1156
Vimage-file
p1157
Vvmlinux
p1158
ss(Vimage
p1159
g1146
tp1160
(dp1161
Vinstall-stem
p1162
Vvmlinux
p1163
ss(Vdescription
p1164
g1146
NVmips32r6el
p1165
tp1166
(dp1167
Vhardware
p1168
VMIPS R6 (32 bit, little endian)
p1169
sVhardware-long
p1170
VMIPS R6 (32 bit, little endian)
p1171
ss(Vimage
p1172
g1146
NVmips32r6el
p1173
tp1174
(dp1175
Vconfigs
p1176
(lp1177
Vkernelarch-mips/config.boston
p1178
aVkernelarch-mips/config.mips32r6
p1179
ass(Vdescription
p1180
g1146
NVmips64r6el
p1181
tp1182
(dp1183
Vhardware
p1184
VMIPS R6 (64 bit, little endian)
p1185
sVhardware-long
p1186
VMIPS R6 (64 bit, little endian)
p1187
ss(Vimage
p1188
g1146
NVmips64r6el
p1189
tp1190
(dp1191
Vconfigs
p1192
(lp1193
Vkernelarch-mips/config.boston
p1194
aVkernelarch-mips/config.mips64r6
p1195
ass(g223
g1146
g192
tp1196
(dp1197
g226
(lp1198
Vmips32r6el
p1199
aVmips64r6el
p1200
asg230
I01
ss(Vbase
p1201
Vpowerpc
p1202
tp1203
(dp1204
Vkernel-arch
p1205
Vpowerpc
p1206
sg190
(lp1207
g192
ass(Vbuild
p1208
g1202
tp1209
(dp1210
Vimage-file
p1211
Vvmlinux
p1212
ss(Vimage
p1213
g1202
tp1214
(dp1215
Vconfigs
p1216
(lp1217
sVbootloaders
p1218
(lp1219
Vgrub-ieee1275
p1220
asVsuggests
p1221
(lp1222
Vmkvmlinuz
p1223
asVinstall-stem
p1224
Vvmlinux
p1225
ss(Vdescription
p1226
g1202
NVpowerpc
p1227
tp1228
(dp1229
Vhardware
p1230
Vuniprocessor 32-bit PowerPC
p1231
ss(Vdescription
p1232
g1202
NVpowerpc-smp
p1233
tp1234
(dp1235
Vhardware
p1236
Vmultiprocessor 32-bit PowerPC
p1237
ss(Vimage
p1238
g1202
NVpowerpc-smp
p1239
tp1240
(dp1241
Vconfigs
p1242
(lp1243
Vpowerpc/config.powerpc
p1244
aVpowerpc/config.powerpc-smp
p1245
ass(Vdescription
p1246
g1202
NVpowerpc64
p1247
tp1248
(dp1249
Vhardware
p1250
V64-bit PowerPC
p1251
ss(Vimage
p1252
g1202
NVpowerpc64
p1253
tp1254
(dp1255
Vconfigs
p1256
(lp1257
Vkernelarch-powerpc/config-arch-64
p1258
aVkernelarch-powerpc/config-arch-64-be
p1259
ass(g223
g1202
g192
tp1260
(dp1261
g226
(lp1262
Vpowerpc
p1263
aVpowerpc-smp
p1264
aVpowerpc64
p1265
asg230
I01
ss(Vbase
p1266
Vppc64
p1267
tp1268
(dp1269
Vdefault-flavour
p1270
Vpowerpc64
p1271
sVkernel-arch
p1272
Vpowerpc
p1273
sg190
(lp1274
g192
ass(Vbuild
p1275
g1267
tp1276
(dp1277
Vimage-file
p1278
Vvmlinux
p1279
ss(Vimage
p1280
g1267
tp1281
(dp1282
Vconfigs
p1283
(lp1284
sVbootloaders
p1285
(lp1286
Vgrub-ieee1275
p1287
asVsuggests
p1288
(lp1289
Vmkvmlinuz
p1290
asVinstall-stem
p1291
Vvmlinux
p1292
ss(Vdescription
p1293
g1267
NVpowerpc64
p1294
tp1295
(dp1296
Vhardware
p1297
V64-bit PowerPC
p1298
ss(Vimage
p1299
g1267
NVpowerpc64
p1300
tp1301
(dp1302
Vconfigs
p1303
(lp1304
Vkernelarch-powerpc/config-arch-64
p1305
aVkernelarch-powerpc/config-arch-64-be
p1306
ass(g223
g1267
g192
tp1307
(dp1308
g226
(lp1309
Vpowerpc64
p1310
asg230
I01
ss(Vbase
p1311
Vppc64el
p1312
tp1313
(dp1314
Vdefault-flavour
p1315
Vpowerpc64le
p1316
sVkernel-arch
p1317
Vpowerpc
p1318
sg190
(lp1319
g192
ass(Vbuild
p1320
g1312
tp1321
(dp1322
Vimage-file
p1323
Vvmlinux
p1324
ss(Vimage
p1325
g1312
tp1326
(dp1327
Vconfigs
p1328
(lp1329
sVbootloaders
p1330
(lp1331
Vgrub-ieee1275
p1332
asVsuggests
p1333
(lp1334
Vmkvmlinuz
p1335
asVinstall-stem
p1336
Vvmlinux
p1337
ss(Vdescription
p1338
g1312
NVpowerpc64le
p1339
tp1340
(dp1341
Vhardware
p1342
VLittle-endian 64-bit PowerPC
p1343
ss(Vimage
p1344
g1312
NVpowerpc64le
p1345
tp1346
(dp1347
Vconfigs
p1348
(lp1349
Vkernelarch-powerpc/config-arch-64
p1350
aVkernelarch-powerpc/config-arch-64-le
p1351
ass(g223
g1312
g192
tp1352
(dp1353
g226
(lp1354
Vpowerpc64le
p1355
asg230
I01
ss(Vbase
p1356
Vriscv64
p1357
tp1358
(dp1359
Vkernel-arch
p1360
Vriscv
p1361
sVfeaturesets
p1362
(lp1363
Vnone
p1364
ass(Vbuild
p1365
g1357
tp1366
(dp1367
Vimage-file
p1368
Varch/riscv/boot/Image
p1369
sVvdso
p1370
I01
ss(Vimage
p1371
g1357
tp1372
(dp1373
Vinstall-stem
p1374
Vvmlinux
p1375
ss(Vdescription
p1376
g1357
NVriscv64
p1377
tp1378
(dp1379
Vhardware
p1380
V64-bit RISC-V platforms
p1381
sVhardware-long
p1382
V64-bit RISC-V platforms
p1383
ss(Vbase
p1384
g1357
Vnone
p1385
tp1386
(dp1387
Vflavours
p1388
(lp1389
Vriscv64
p1390
asVdefault-flavour
p1391
Vriscv64
p1392
ss(Vbase
p1393
Vs390
p1394
tp1395
(dp1396
Vkernel-arch
p1397
Vs390
p1398
sVfeaturesets
p1399
(lp1400
ss(Vbase
p1401
Vs390x
p1402
tp1403
(dp1404
Vdefault-flavour
p1405
Vs390x
p1406
sVkernel-arch
p1407
Vs390
p1408
sg190
(lp1409
g192
ass(Vbuild
p1410
g1402
tp1411
(dp1412
Vimage-file
p1413
Varch/s390/boot/bzImage
p1414
sVvdso
p1415
I01
ss(Vimage
p1416
g1402
tp1417
(dp1418
Vbootloaders
p1419
(lp1420
Vs390-tools
p1421
asVinstall-stem
p1422
Vvmlinuz
p1423
ss(Vrelations
p1424
g1402
tp1425
(dp1426
Vheaders%gcc-10
p1427
Vlinux-compiler-gcc-10-s390
p1428
ss(Vdescription
p1429
g1402
NVs390x
p1430
tp1431
(dp1432
Vhardware
p1433
VIBM zSeries
p1434
ss(g223
g1402
g192
tp1435
(dp1436
g226
(lp1437
Vs390x
p1438
asg230
I01
ss(Vbase
p1439
Vsh3
p1440
tp1441
(dp1442
Vkernel-arch
p1443
Vsh
p1444
sVfeaturesets
p1445
(lp1446
ss(Vbase
p1447
Vsh4
p1448
tp1449
(dp1450
Vkernel-arch
p1451
Vsh
p1452
sg190
(lp1453
g192
ass(Vbuild
p1454
g1448
tp1455
(dp1456
Vimage-file
p1457
Varch/sh/boot/zImage
p1458
ss(Vimage
p1459
g1448
tp1460
(dp1461
Vinstall-stem
p1462
Vvmlinuz
p1463
ss(Vdescription
p1464
g1448
NVsh7751r
p1465
tp1466
(dp1467
Vhardware
p1468
Vsh7751r
p1469
sVhardware-long
p1470
VRenesas SH7751R R2D plus board
p1471
ss(Vdescription
p1472
g1448
NVsh7785lcr
p1473
tp1474
(dp1475
Vhardware
p1476
Vsh7785lcr
p1477
sVhardware-long
p1478
VRenesas SH7785 reference board
p1479
ss(Vimage
p1480
g1448
NVsh7785lcr
p1481
tp1482
(dp1483
Vrecommends
p1484
(lp1485
Vu-boot-tools
p1486
asVcheck-size
p1487
I4194304
ss(g223
g1448
g192
tp1488
(dp1489
g226
(lp1490
Vsh7751r
p1491
aVsh7785lcr
p1492
asg230
I01
ss(Vbase
p1493
Vsparc
p1494
tp1495
(dp1496
Vkernel-arch
p1497
Vsparc
p1498
sVfeaturesets
p1499
(lp1500
ss(Vbase
p1501
Vsparc64
p1502
tp1503
(dp1504
Vdefault-flavour
p1505
Vsparc64-smp
p1506
sVkernel-arch
p1507
Vsparc
p1508
sg190
(lp1509
g192
ass(Vbuild
p1510
g1502
tp1511
(dp1512
Vimage-file
p1513
Vvmlinux
p1514
ss(Vimage
p1515
g1502
tp1516
(dp1517
Vconfigs
p1518
(lp1519
sVbootloaders
p1520
(lp1521
Vgrub-ieee1275
p1522
asVsuggests
p1523
(lp1524
Vfdutils
p1525
asVinstall-stem
p1526
Vvmlinux
p1527
ss(Vdescription
p1528
g1502
NVsparc64
p1529
tp1530
(dp1531
Vhardware
p1532
Vuniprocessor 64-bit UltraSPARC
p1533
ss(Vimage
p1534
g1502
NVsparc64
p1535
tp1536
(dp1537
Vconfigs
p1538
(lp1539
Vkernelarch-sparc/config-up
p1540
ass(Vdescription
p1541
g1502
NVsparc64-smp
p1542
tp1543
(dp1544
Vhardware
p1545
Vmultiprocessor 64-bit UltraSPARC
p1546
ss(Vimage
p1547
g1502
NVsparc64-smp
p1548
tp1549
(dp1550
Vconfigs
p1551
(lp1552
Vkernelarch-sparc/config-smp
p1553
ass(g223
g1502
g192
tp1554
(dp1555
g226
(lp1556
Vsparc64
p1557
aVsparc64-smp
p1558
asg230
I01
ss(Vbase
p1559
Vx32
p1560
tp1561
(dp1562
Vkernel-arch
p1563
Vx86
p1564
sVfeaturesets
p1565
(lp1566
ss(Vabi
p1567
NVrt
p1568
tp1569
(dp1570
Vignore-changes
p1571
(lp1572
V*
p1573
ass(Vdescription
p1574
Ng1568
tp1575
(dp1576
Vpart-long-rt
p1577
VThis kernel includes the PREEMPT_RT realtime patch set.
p1578
sVpart-short-rt
p1579
VPREEMPT_RT
p1580
sVparts
p1581
(lp1582
Vrt
p1583
ass(Vversion
p1584
tp1585
(dp1586
Vsource
p1587
V5.14.9-2+rpi1
p1588
sVupstream
p1589
V5.14
p1590
sVabiname_base
p1591
V5.14.0
p1592
sVabiname
p1593
V5.14.0-2
p1594
ss.