cdebian_linux.config
ConfigCore
p0
(tRp1
(Vbase
p2
tp3
(dp4
Varches
p5
(lp6
Valpha
p7
aVamd64
p8
aVarm64
p9
aVarm64ilp32
p10
aVarmel
p11
aVarmhf
p12
aVhppa
p13
aVi386
p14
aVm68k
p15
aVmips
p16
aVmips64
p17
aVmips64el
p18
aVmips64r6
p19
aVmips64r6el
p20
aVmipsel
p21
aVmipsn32
p22
aVmipsn32el
p23
aVmipsn32r6
p24
aVmipsn32r6el
p25
aVmipsr6
p26
aVmipsr6el
p27
aVpowerpc
p28
aVpowerpcspe
p29
aVppc64
p30
aVppc64el
p31
aVs390
p32
aVs390x
p33
aVsh3
p34
aVsh4
p35
aVsparc
p36
aVsparc64
p37
aVtilegx
p38
aVx32
p39
asVfeaturesets
p40
(lp41
Vnone
p42
aVrt
p43
asVcompiler
p44
Vgcc-6
p45
ss(Vbuild
p46
tp47
(dp48
Vsigned-modules
p49
I00
sVdebug-info
p50
I01
ss(Vbase
p51
NVrt
p52
tp53
(dp54
Venabled
p55
I00
ss(Vdescription
p56
tp57
(dp58
Vpart-long-up
p59
VThis kernel is not suitable for SMP (multi-processor,\u000amulti-core or hyper-threaded) systems.
p60
sVpart-long-xen
p61
VThis kernel also runs on a Xen hypervisor.\u000aIt supports both privileged (dom0) and unprivileged (domU) operation.
p62
ss(Vrelations
p63
tp64
(dp65
Vinitramfs-tools
p66
Vinitramfs-tools (>= 0.120+deb8u2)
p67
sVgcc-6
p68
Vgcc-6 <!stage1 !cross>, gcc-6-@gnu-type-package@ <!stage1 cross>
p69
sVinitramfs-fallback
p70
Vlinux-initramfs-tool
p71
ss(Vimage
p72
tp73
(dp74
Vinitramfs-generators
p75
(lp76
Vinitramfs-tools
p77
aVinitramfs-fallback
p78
ass(Vabi
p79
tp80
(dp81
Vabiname
p82
V1
p83
sVignore-changes
p84
(lp85
V__cpuhp_*
p86
aVbpf_analyzer
p87
aVcxl_*
p88
aViommu_device_*
p89
aVmm_iommu_*
p90
aVperf_*
p91
aVregister_cxl_calls
p92
aVunregister_cxl_calls
p93
aV*_hw_breakpoint
p94
aVmodule:arch/x86/kvm/*
p95
aVmodule:drivers/crypto/ccp/*
p96
aVmodule:drivers/hv/*
p97
aVmodule:drivers/iio/common/hid-sensors/*
p98
aVmodule:drivers/iio/common/st_sensors/**
p99
aVmodule:drivers/mtd/nand/*
p100
aVmodule:drivers/net/wireless/**
p101
aVmodule:drivers/nvdimm/*
p102
aVmodule:drivers/power/supply/bq27xxx_battery
p103
aVmodule:drivers/scsi/cxgbi/*
p104
aVmodule:drivers/scsi/libiscs*
p105
aVmodule:drivers/scsi/qla2xxx/qla2xxx
p106
aVmodule:drivers/scsi/ufs/*
p107
aVmodule:drivers/target/**
p108
aVmodule:drivers/usb/chipidea/**
p109
aVmodule:drivers/usb/host/**
p110
aVmodule:drivers/usb/musb/**
p111
aVmodule:fs/nfs/**
p112
aVmodule:net/ceph/libceph
p113
aVmodule:net/l2tp/l2tp_core
p114
aVmodule:sound/firewire/snd-firewire-lib
p115
aVbtree_*
p116
aVvisitor*
p117
aVcan_rx_register
p118
aVip6_xmit
p119
aVmodule:net/dccp/dccp
p120
aVmodule:net/rds/rds
p121
aVdevfreq_*
p122
aVdevm_devfreq_*
p123
aVupdate_devfreq
p124
aVmodule:drivers/infiniband/**
p125
aVacpi_ec_add_query_handler
p126
aVacpi_ec_remove_query_handler
p127
aVfirst_ec
p128
aVdebugfs_create_automount
p129
aVmodule:drivers/iio/imu/inv_mpu6050/*
p130
ass(Vbase
p131
Valpha
p132
tp133
(dp134
Vfeaturesets
p135
(lp136
Vnone
p137
asVkernel-arch
p138
Valpha
p139
ss(Vdescription
p140
g132
NValpha-smp
p141
tp142
(dp143
Vhardware
p144
VAlpha SMP
p145
sVhardware-long
p146
VDEC Alpha SMP systems with extended kernel start address (Wildfire, Titan, Marvel)
p147
ss(Vbuild
p148
g132
tp149
(dp150
Vsigned-modules
p151
I00
sVimage-file
p152
Varch/alpha/boot/vmlinux.gz
p153
ss(Vdescription
p154
g132
NValpha-generic
p155
tp156
(dp157
Vhardware
p158
VAlpha
p159
sVhardware-long
p160
VDEC Alpha systems with extended kernel start address (Wildfire, Titan, Marvel)
p161
ss(Vimage
p162
g132
tp163
(dp164
Vsuggests
p165
Vaboot, fdutils
p166
sVinstall-stem
p167
Vvmlinuz
p168
ss(Vbase
p169
g132
g137
tp170
(dp171
Vflavours
p172
(lp173
Valpha-generic
p174
aValpha-smp
p175
asVimplicit-flavour
p176
I01
ss(Vbase
p177
Vamd64
p178
tp179
(dp180
Vfeaturesets
p181
(lp182
Vnone
p183
aVrt
p184
asVkernel-arch
p185
Vx86
p186
ss(Vdescription
p187
g178
NVamd64
p188
tp189
(dp190
Vhardware
p191
V64-bit PCs
p192
sVhardware-long
p193
VPCs with AMD64, Intel 64 or VIA Nano processors
p194
ss(Vbuild
p195
g178
tp196
(dp197
Vvdso
p198
I01
sVimage-file
p199
Varch/x86/boot/bzImage
p200
sVdebug-info
p201
I01
ss(Vrelations
p202
g178
tp203
(dp204
Vheaders%gcc-6
p205
Vlinux-compiler-gcc-6-x86
p206
ss(Vimage
p207
g178
tp208
(dp209
Vbreaks
p210
Vxserver-xorg-input-vmmouse (<< 1:13.0.99)
p211
sVinstall-stem
p212
Vvmlinuz
p213
sVbootloaders
p214
(lp215
Vgrub-pc
p216
aVgrub-efi-amd64
p217
aVextlinux
p218
ass(Vbase
p219
g178
Vnone
p220
tp221
(dp222
Vflavours
p223
(lp224
Vamd64
p225
ass(Vdescription
p226
g178
g220
Vamd64
p227
tp228
(dp229
Vparts
p230
(lp231
Vxen
p232
ass(Vbase
p233
g178
Vrt
p234
tp235
(dp236
Vflavours
p237
(lp238
Vamd64
p239
ass(Vbase
p240
Varm64
p241
tp242
(dp243
Vfeaturesets
p244
(lp245
Vnone
p246
asVkernel-arch
p247
Varm64
p248
ss(Vdescription
p249
g241
NVarm64
p250
tp251
(dp252
Vhardware
p253
V64-bit ARMv8 machines
p254
ss(Vbuild
p255
g241
tp256
(dp257
Vvdso
p258
I01
sVimage-file
p259
Varch/arm64/boot/Image
p260
sVdebug-info
p261
I01
ss(Vimage
p262
g241
NVarm64
p263
tp264
(dp265
s(Vimage
p266
g241
tp267
(dp268
Vbreaks
p269
Vlibmozjs185-1.0, libmozjs-24-0 (<< 24.2.0-5.1~)
p270
sVinstall-stem
p271
Vvmlinuz
p272
ss(Vbase
p273
g241
Vnone
p274
tp275
(dp276
Vflavours
p277
(lp278
Varm64
p279
ass(Vbase
p280
Varm64ilp32
p281
tp282
(dp283
Vfeaturesets
p284
(lp285
sVkernel-arch
p286
Varm64
p287
ss(Vbase
p288
Varmel
p289
tp290
(dp291
g135
(lp292
g137
asVkernel-arch
p293
Varm
p294
ss(Vbuild
p295
g289
tp296
(dp297
Vsigned-modules
p298
I00
sVimage-file
p299
Varch/arm/boot/zImage
p300
sVuncompressed-image-file
p301
Varch/arm/boot/Image
p302
ss(Vimage
p303
g289
NVmarvell
p304
tp305
(dp306
Vrecommends
p307
Vu-boot-tools
p308
sVbreaks
p309
Vflash-kernel (<< 3.57~)
p310
sVcheck-size-with-dtb
p311
I01
sVcheck-size
p312
L2097080L
sVcheck-uncompressed-size
p313
L7340032L
ss(Vdescription
p314
g289
NVmarvell
p315
tp316
(dp317
Vhardware
p318
VMarvell Kirkwood/Orion
p319
sVhardware-long
p320
VMarvell Kirkwood based systems (SheevaPlug, QNAP TS-119/TS-219, etc)\u000aand Orion 5181, 5182 and 5281 based systems (QNAP TS-109/TS-209, etc)
p321
ss(Vrelations
p322
g289
tp323
(dp324
Vheaders%gcc-6
p325
Vlinux-compiler-gcc-6-arm
p326
ss(Vimage
p327
g289
tp328
(dp329
Vinstall-stem
p330
Vvmlinuz
p331
ss(g169
g289
g137
tp332
(dp333
g172
(lp334
Vmarvell
p335
asg176
I01
ss(Vbase
p336
Varmhf
p337
tp338
(dp339
g135
(lp340
g137
asVkernel-arch
p341
Varm
p342
ss(Vdescription
p343
g337
NVarmmp
p344
tp345
(dp346
Vhardware
p347
VARMv7 multiplatform compatible SoCs
p348
sVhardware-long
p349
VARMv7 multiplatform kernel. See\u000ahttps://wiki.debian.org/DebianKernel/ARMMP for details of supported\u000aplatforms
p350
ss(Vbuild
p351
g337
tp352
(dp353
Vvdso
p354
I01
sVimage-file
p355
Varch/arm/boot/zImage
p356
ss(Vdescription
p357
g337
NVarmmp-lpae
p358
tp359
(dp360
Vhardware
p361
VARMv7 multiplatform compatible SoCs supporting LPAE
p362
sVhardware-long
p363
VARMv7 multiplatform kernel supporting LPAE. See\u000ahttps://wiki.debian.org/DebianKernel/ARMMP for details of supported\u000aplatforms.
p364
ss(Vrelations
p365
g337
tp366
(dp367
Vheaders%gcc-6
p368
Vlinux-compiler-gcc-6-arm
p369
ss(Vimage
p370
g337
tp371
(dp372
Vinstall-stem
p373
Vvmlinuz
p374
ss(g169
g337
g137
tp375
(dp376
g172
(lp377
Varmmp
p378
aVarmmp-lpae
p379
asg176
I01
ss(Vbase
p380
Vhppa
p381
tp382
(dp383
g135
(lp384
g137
asVkernel-arch
p385
Vparisc
p386
ss(Vbuild
p387
g381
tp388
(dp389
Vsigned-modules
p390
I00
sVimage-file
p391
Vvmlinux
p392
ss(Vdescription
p393
g381
NVparisc64-smp
p394
tp395
(dp396
Vhardware
p397
Vmultiprocessor 64-bit PA-RISC
p398
sVhardware-long
p399
VHP PA-RISC 64-bit SMP systems with support for more than 4 GB RAM
p400
ss(Vbase
p401
g381
NVparisc64-smp
p402
tp403
(dp404
Vcflags
p405
V-fno-cse-follow-jumps
p406
sVoverride-host-type
p407
Vhppa64-linux-gnu
p408
ss(Vrelations
p409
g381
tp410
(dp411
Vgcc-6
p412
Vgcc-6 <!stage1 !cross>, binutils-hppa64-linux-gnu <!stage1 !cross>, gcc-6-hppa64-linux-gnu <!stage1 !cross>, gcc-6-hppa-linux-gnu <!stage1 cross>, binutils-hppa64-linux-gnu <!stage1 cross>, gcc-6-hppa64-linux-gnu <!stage1 cross>
p413
ss(Vdescription
p414
g381
NVparisc
p415
tp416
(dp417
Vhardware
p418
V32-bit PA-RISC
p419
sVhardware-long
p420
VHP PA-RISC 32-bit systems with max 4 GB RAM
p421
ss(Vimage
p422
g381
tp423
(dp424
Vsuggests
p425
Vpalo
p426
sVinstall-stem
p427
Vvmlinux
p428
ss(g169
g381
g137
tp429
(dp430
g172
(lp431
Vparisc
p432
aVparisc64-smp
p433
asg176
I01
ss(Vbase
p434
Vi386
p435
tp436
(dp437
Vfeaturesets
p438
(lp439
Vnone
p440
aVrt
p441
asVkernel-arch
p442
Vx86
p443
ss(Vbuild
p444
g435
tp445
(dp446
Vvdso
p447
I01
sVimage-file
p448
Varch/x86/boot/bzImage
p449
ss(Vdescription
p450
g435
NV686-pae
p451
tp452
(dp453
Vhardware
p454
Vmodern PCs
p455
sVhardware-long
p456
VPCs with one or more processors supporting PAE
p457
sVparts
p458
(lp459
Vpae
p460
ass(Vdescription
p461
g435
tp462
(dp463
Vpart-long-pae
p464
VThis kernel requires PAE (Physical Address Extension).\u000aThis feature is supported by the Intel Pentium Pro/II/III/4/4M/D, Xeon,\u000aCore and Atom; AMD Geode NX, Athlon (K7), Duron, Opteron, Sempron,\u000aTurion or Phenom; Transmeta Efficeon; VIA C7; and some other processors.
p465
ss(Vbuild
p466
g435
NV686-pae
p467
tp468
(dp469
Vdebug-info
p470
I01
ss(Vdescription
p471
g435
NV686
p472
tp473
(dp474
Vhardware
p475
Volder PCs
p476
sVhardware-long
p477
VPCs with one or more processors not supporting PAE
p478
ss(Vrelations
p479
g435
tp480
(dp481
Vheaders%gcc-6
p482
Vlinux-compiler-gcc-6-x86
p483
ss(Vimage
p484
g435
tp485
(dp486
Vbreaks
p487
Vxserver-xorg-input-vmmouse (<< 1:13.0.99)
p488
sVinstall-stem
p489
Vvmlinuz
p490
sVbootloaders
p491
(lp492
Vgrub-pc
p493
aVextlinux
p494
ass(Vbase
p495
g435
Vnone
p496
tp497
(dp498
Vflavours
p499
(lp500
V686
p501
aV686-pae
p502
ass(Vdescription
p503
g435
g496
V686-pae
p504
tp505
(dp506
Vparts
p507
(lp508
Vxen
p509
ass(Vbase
p510
g435
Vrt
p511
tp512
(dp513
Vflavours
p514
(lp515
V686-pae
p516
ass(Vbase
p517
Vm68k
p518
tp519
(dp520
Vcflags
p521
V-ffreestanding
p522
sg135
(lp523
g137
asVkernel-arch
p524
Vm68k
p525
ss(Vbuild
p526
g518
tp527
(dp528
Vsigned-modules
p529
I00
sVimage-file
p530
Vvmlinux.gz
p531
ss(Vdescription
p532
g518
NVm68k
p533
tp534
(dp535
Vhardware
p536
VMotorola MC68020+ family
p537
ss(Vimage
p538
g518
tp539
(dp540
Vsuggests
p541
Vvmelilo, fdutils
p542
sVinstall-stem
p543
Vvmlinuz
p544
ss(g169
g518
g137
tp545
(dp546
g172
(lp547
Vm68k
p548
asg176
I01
ss(Vbase
p549
Vmips
p550
tp551
(dp552
g135
(lp553
g137
asVkernel-arch
p554
Vmips
p555
ss(Vbuild
p556
g550
tp557
(dp558
Vsigned-modules
p559
I00
sVimage-file
p560
Vvmlinux
p561
ss(Vimage
p562
g550
NV4kc-malta
p563
tp564
(dp565
Vconfigs
p566
(lp567
Vkernelarch-mips/config.malta
p568
aVkernelarch-mips/config.mips32r2
p569
ass(Vimage
p570
g550
NV5kc-malta
p571
tp572
(dp573
Vconfigs
p574
(lp575
Vkernelarch-mips/config.malta
p576
aVkernelarch-mips/config.mips64r2
p577
ass(Vdescription
p578
g550
NVocteon
p579
tp580
(dp581
Vhardware
p582
VOcteon
p583
sVhardware-long
p584
VCavium Networks Octeon
p585
ss(Vimage
p586
g550
NVocteon
p587
tp588
(dp589
Vconfigs
p590
(lp591
Vkernelarch-mips/config.octeon
p592
ass(Vimage
p593
g550
tp594
(dp595
Vinstall-stem
p596
Vvmlinux
p597
ss(Vdescription
p598
g550
NV5kc-malta
p599
tp600
(dp601
Vhardware
p602
VMIPS Malta (64-bit)
p603
sVhardware-long
p604
VMIPS Malta boards (64-bit)
p605
ss(Vdescription
p606
g550
NV4kc-malta
p607
tp608
(dp609
Vhardware
p610
VMIPS Malta
p611
sVhardware-long
p612
VMIPS Malta boards
p613
ss(g169
g550
g137
tp614
(dp615
g172
(lp616
V4kc-malta
p617
aV5kc-malta
p618
aVocteon
p619
asg176
I01
ss(Vbase
p620
Vmips64
p621
tp622
(dp623
g135
(lp624
g137
asVkernel-arch
p625
Vmips
p626
ss(Vbuild
p627
g621
tp628
(dp629
Vsigned-modules
p630
I00
sVimage-file
p631
Vvmlinux
p632
ss(Vimage
p633
g621
NV5kc-malta
p634
tp635
(dp636
Vconfigs
p637
(lp638
Vkernelarch-mips/config.malta
p639
aVkernelarch-mips/config.mips64r2
p640
ass(Vdescription
p641
g621
NVocteon
p642
tp643
(dp644
Vhardware
p645
VOcteon
p646
sVhardware-long
p647
VCavium Networks Octeon
p648
ss(Vimage
p649
g621
tp650
(dp651
Vinstall-stem
p652
Vvmlinux
p653
ss(Vdescription
p654
g621
NV5kc-malta
p655
tp656
(dp657
Vhardware
p658
VMIPS Malta
p659
sVhardware-long
p660
VMIPS Malta boards
p661
ss(Vimage
p662
g621
NVocteon
p663
tp664
(dp665
Vconfigs
p666
(lp667
Vkernelarch-mips/config.octeon
p668
ass(g169
g621
g137
tp669
(dp670
g172
(lp671
V5kc-malta
p672
aVocteon
p673
asg176
I01
ss(Vbase
p674
Vmips64el
p675
tp676
(dp677
g135
(lp678
g137
asVkernel-arch
p679
Vmips
p680
ss(Vimage
p681
g675
NVloongson-3
p682
tp683
(dp684
Vconfigs
p685
(lp686
Vkernelarch-mips/config.loongson-3
p687
ass(Vbuild
p688
g675
tp689
(dp690
Vsigned-modules
p691
I00
sVimage-file
p692
Vvmlinux
p693
ss(Vimage
p694
g675
NV5kc-malta
p695
tp696
(dp697
Vconfigs
p698
(lp699
Vkernelarch-mips/config.malta
p700
aVkernelarch-mips/config.mips64r2
p701
ass(Vdescription
p702
g675
NVocteon
p703
tp704
(dp705
Vhardware
p706
VOcteon
p707
sVhardware-long
p708
VCavium Networks Octeon
p709
ss(Vdescription
p710
g675
NVloongson-3
p711
tp712
(dp713
Vhardware
p714
VLoongson 3A/3B
p715
sVhardware-long
p716
VLoongson 3A or 3B based systems (e.g. from Loongson or Lemote)
p717
ss(Vimage
p718
g675
tp719
(dp720
Vinstall-stem
p721
Vvmlinux
p722
ss(Vdescription
p723
g675
NV5kc-malta
p724
tp725
(dp726
Vhardware
p727
VMIPS Malta
p728
sVhardware-long
p729
VMIPS Malta boards
p730
ss(Vimage
p731
g675
NVocteon
p732
tp733
(dp734
Vconfigs
p735
(lp736
Vkernelarch-mips/config.octeon
p737
ass(g169
g675
g137
tp738
(dp739
g172
(lp740
V5kc-malta
p741
aVloongson-3
p742
aVocteon
p743
asg176
I01
ss(Vbase
p744
Vmips64r6
p745
tp746
(dp747
g135
(lp748
g137
asVkernel-arch
p749
Vmips
p750
ss(Vbuild
p751
g745
tp752
(dp753
Vsigned-modules
p754
I00
sVimage-file
p755
Vvmlinux
p756
ss(Vimage
p757
g745
tp758
(dp759
Vinstall-stem
p760
Vvmlinux
p761
ss(Vimage
p762
g745
NVmips64r6
p763
tp764
(dp765
Vconfigs
p766
(lp767
Vkernelarch-mips/config.malta
p768
aVkernelarch-mips/config.mips64r6
p769
ass(Vdescription
p770
g745
NVmips64r6
p771
tp772
(dp773
Vhardware
p774
VMIPS R6 (64 bit, big endian)
p775
sVhardware-long
p776
VMIPS R6 (64 bit, big endian)
p777
ss(g169
g745
g137
tp778
(dp779
g172
(lp780
Vmips64r6
p781
asg176
I01
ss(Vbase
p782
Vmips64r6el
p783
tp784
(dp785
g135
(lp786
g137
asVkernel-arch
p787
Vmips
p788
ss(Vimage
p789
g783
NVmips64r6el
p790
tp791
(dp792
Vconfigs
p793
(lp794
Vkernelarch-mips/config.malta
p795
aVkernelarch-mips/config.mips64r6
p796
ass(Vbuild
p797
g783
tp798
(dp799
Vsigned-modules
p800
I00
sVimage-file
p801
Vvmlinux
p802
ss(Vdescription
p803
g783
NVmips64r6el
p804
tp805
(dp806
Vhardware
p807
VMIPS R6 (64 bit, little endian)
p808
sVhardware-long
p809
VMIPS R6 (64 bit, little endian)
p810
ss(Vimage
p811
g783
tp812
(dp813
Vinstall-stem
p814
Vvmlinux
p815
ss(g169
g783
g137
tp816
(dp817
g172
(lp818
Vmips64r6el
p819
asg176
I01
ss(Vbase
p820
Vmipsel
p821
tp822
(dp823
g135
(lp824
g137
asVkernel-arch
p825
Vmips
p826
ss(Vimage
p827
g821
NVloongson-3
p828
tp829
(dp830
Vconfigs
p831
(lp832
Vkernelarch-mips/config.loongson-3
p833
ass(Vbuild
p834
g821
tp835
(dp836
Vsigned-modules
p837
I00
sVimage-file
p838
Vvmlinux
p839
ss(Vimage
p840
g821
NV4kc-malta
p841
tp842
(dp843
Vconfigs
p844
(lp845
Vkernelarch-mips/config.malta
p846
aVkernelarch-mips/config.mips32r2
p847
ass(Vimage
p848
g821
NV5kc-malta
p849
tp850
(dp851
Vconfigs
p852
(lp853
Vkernelarch-mips/config.malta
p854
aVkernelarch-mips/config.mips64r2
p855
ass(Vdescription
p856
g821
NVocteon
p857
tp858
(dp859
Vhardware
p860
VOcteon
p861
sVhardware-long
p862
VCavium Networks Octeon
p863
ss(Vdescription
p864
g821
NVloongson-3
p865
tp866
(dp867
Vhardware
p868
VLoongson 3A/3B
p869
sVhardware-long
p870
VLoongson 3A or 3B based systems (e.g. from Loongson or Lemote)
p871
ss(Vimage
p872
g821
NVocteon
p873
tp874
(dp875
Vconfigs
p876
(lp877
Vkernelarch-mips/config.octeon
p878
ass(Vimage
p879
g821
tp880
(dp881
Vinstall-stem
p882
Vvmlinux
p883
ss(Vdescription
p884
g821
NV5kc-malta
p885
tp886
(dp887
Vhardware
p888
VMIPS Malta (64-bit)
p889
sVhardware-long
p890
VMIPS Malta boards (64-bit)
p891
ss(Vdescription
p892
g821
NV4kc-malta
p893
tp894
(dp895
Vhardware
p896
VMIPS Malta
p897
sVhardware-long
p898
VMIPS Malta boards
p899
ss(g169
g821
g137
tp900
(dp901
g172
(lp902
V4kc-malta
p903
aV5kc-malta
p904
aVloongson-3
p905
aVocteon
p906
asg176
I01
ss(Vbase
p907
Vmipsn32
p908
tp909
(dp910
Vfeaturesets
p911
(lp912
sVkernel-arch
p913
Vmips
p914
ss(Vbase
p915
Vmipsn32el
p916
tp917
(dp918
Vfeaturesets
p919
(lp920
sVkernel-arch
p921
Vmips
p922
ss(Vbase
p923
Vmipsn32r6
p924
tp925
(dp926
Vfeaturesets
p927
(lp928
sVkernel-arch
p929
Vmips
p930
ss(Vbase
p931
Vmipsn32r6el
p932
tp933
(dp934
Vfeaturesets
p935
(lp936
sVkernel-arch
p937
Vmips
p938
ss(Vbase
p939
Vmipsr6
p940
tp941
(dp942
g135
(lp943
g137
asVkernel-arch
p944
Vmips
p945
ss(Vbuild
p946
g940
tp947
(dp948
Vsigned-modules
p949
I00
sVimage-file
p950
Vvmlinux
p951
ss(Vdescription
p952
g940
NVmips32r6
p953
tp954
(dp955
Vhardware
p956
VMIPS R6 (32 bit, big endian)
p957
sVhardware-long
p958
VMIPS R6 (32 bit, big endian)
p959
ss(Vdescription
p960
g940
NVmips64r6
p961
tp962
(dp963
Vhardware
p964
VMIPS R6 (64 bit, big endian)
p965
sVhardware-long
p966
VMIPS R6 (64 bit, big endian)
p967
ss(Vimage
p968
g940
NVmips64r6
p969
tp970
(dp971
Vconfigs
p972
(lp973
Vkernelarch-mips/config.malta
p974
aVkernelarch-mips/config.mips64r6
p975
ass(Vimage
p976
g940
tp977
(dp978
Vinstall-stem
p979
Vvmlinux
p980
ss(Vimage
p981
g940
NVmips32r6
p982
tp983
(dp984
Vconfigs
p985
(lp986
Vkernelarch-mips/config.malta
p987
aVkernelarch-mips/config.mips32r6
p988
ass(g169
g940
g137
tp989
(dp990
g172
(lp991
Vmips32r6
p992
aVmips64r6
p993
asg176
I01
ss(Vbase
p994
Vmipsr6el
p995
tp996
(dp997
g135
(lp998
g137
asVkernel-arch
p999
Vmips
p1000
ss(Vimage
p1001
g995
NVmips32r6el
p1002
tp1003
(dp1004
Vconfigs
p1005
(lp1006
Vkernelarch-mips/config.malta
p1007
aVkernelarch-mips/config.mips32r6
p1008
ass(Vdescription
p1009
g995
NVmips64r6el
p1010
tp1011
(dp1012
Vhardware
p1013
VMIPS R6 (64 bit, little endian)
p1014
sVhardware-long
p1015
VMIPS R6 (64 bit, little endian)
p1016
ss(Vdescription
p1017
g995
NVmips32r6el
p1018
tp1019
(dp1020
Vhardware
p1021
VMIPS R6 (32 bit, little endian)
p1022
sVhardware-long
p1023
VMIPS R6 (32 bit, little endian)
p1024
ss(Vimage
p1025
g995
NVmips64r6el
p1026
tp1027
(dp1028
Vconfigs
p1029
(lp1030
Vkernelarch-mips/config.malta
p1031
aVkernelarch-mips/config.mips64r6
p1032
ass(Vbuild
p1033
g995
tp1034
(dp1035
Vsigned-modules
p1036
I00
sVimage-file
p1037
Vvmlinux
p1038
ss(Vimage
p1039
g995
tp1040
(dp1041
Vinstall-stem
p1042
Vvmlinux
p1043
ss(g169
g995
g137
tp1044
(dp1045
g172
(lp1046
Vmips32r6el
p1047
aVmips64r6el
p1048
asg176
I01
ss(Vbase
p1049
Vpowerpc
p1050
tp1051
(dp1052
g135
(lp1053
g137
asVkernel-arch
p1054
Vpowerpc
p1055
ss(Vdescription
p1056
g1050
NVpowerpc64
p1057
tp1058
(dp1059
Vhardware
p1060
V64-bit PowerPC
p1061
ss(Vbuild
p1062
g1050
tp1063
(dp1064
Vvdso
p1065
I01
sVimage-file
p1066
Vvmlinux
p1067
ss(Vimage
p1068
g1050
NVpowerpc-smp
p1069
tp1070
(dp1071
Vconfigs
p1072
(lp1073
Vpowerpc/config.powerpc
p1074
aVpowerpc/config.powerpc-smp
p1075
ass(Vdescription
p1076
g1050
NVpowerpc
p1077
tp1078
(dp1079
Vhardware
p1080
Vuniprocessor 32-bit PowerPC
p1081
ss(Vimage
p1082
g1050
NVpowerpc64
p1083
tp1084
(dp1085
Vconfigs
p1086
(lp1087
Vkernelarch-powerpc/config-arch-64
p1088
aVkernelarch-powerpc/config-arch-64-be
p1089
ass(Vdescription
p1090
g1050
NVpowerpc-smp
p1091
tp1092
(dp1093
Vhardware
p1094
Vmultiprocessor 32-bit PowerPC
p1095
ss(Vimage
p1096
g1050
tp1097
(dp1098
Vsuggests
p1099
Vmkvmlinuz
p1100
sVinstall-stem
p1101
Vvmlinux
p1102
sVconfigs
p1103
(lp1104
ss(g169
g1050
g137
tp1105
(dp1106
g172
(lp1107
Vpowerpc
p1108
aVpowerpc-smp
p1109
aVpowerpc64
p1110
asg176
I01
ss(Vbase
p1111
Vpowerpcspe
p1112
tp1113
(dp1114
g135
(lp1115
g137
asVkernel-arch
p1116
Vpowerpc
p1117
ss(Vbuild
p1118
g1112
tp1119
(dp1120
Vsigned-modules
p1121
I00
sVimage-file
p1122
Vvmlinux
p1123
sVvdso
p1124
I01
ss(Vimage
p1125
g1112
tp1126
(dp1127
Vsuggests
p1128
Vmkvmlinuz
p1129
sVinstall-stem
p1130
Vvmlinux
p1131
ss(Vdescription
p1132
g1112
tp1133
(dp1134
Vhardware
p1135
V32-bit PowerPC with SPE (instead of AltiVec) with SMP support
p1136
ss(g169
g1112
g137
tp1137
(dp1138
g172
(lp1139
Vpowerpcspe
p1140
asg176
I01
ss(Vbase
p1141
Vppc64
p1142
tp1143
(dp1144
g135
(lp1145
g137
asVkernel-arch
p1146
Vpowerpc
p1147
ss(Vdescription
p1148
g1142
NVpowerpc64
p1149
tp1150
(dp1151
Vhardware
p1152
V64-bit PowerPC
p1153
ss(Vbuild
p1154
g1142
tp1155
(dp1156
Vsigned-modules
p1157
I00
sVimage-file
p1158
Vvmlinux
p1159
sVvdso
p1160
I01
ss(Vimage
p1161
g1142
NVpowerpc64
p1162
tp1163
(dp1164
Vconfigs
p1165
(lp1166
Vkernelarch-powerpc/config-arch-64
p1167
aVkernelarch-powerpc/config-arch-64-be
p1168
ass(Vimage
p1169
g1142
tp1170
(dp1171
Vsuggests
p1172
Vmkvmlinuz
p1173
sVinstall-stem
p1174
Vvmlinux
p1175
sVconfigs
p1176
(lp1177
ss(g169
g1142
g137
tp1178
(dp1179
g172
(lp1180
Vpowerpc64
p1181
asg176
I01
ss(Vbase
p1182
Vppc64el
p1183
tp1184
(dp1185
g135
(lp1186
g137
asVkernel-arch
p1187
Vpowerpc
p1188
ss(Vdescription
p1189
g1183
NVpowerpc64le
p1190
tp1191
(dp1192
Vhardware
p1193
VLittle-endian 64-bit PowerPC
p1194
ss(Vbuild
p1195
g1183
tp1196
(dp1197
Vvdso
p1198
I01
sVimage-file
p1199
Vvmlinux
p1200
ss(Vimage
p1201
g1183
tp1202
(dp1203
Vsuggests
p1204
Vmkvmlinuz
p1205
sVinstall-stem
p1206
Vvmlinux
p1207
sVconfigs
p1208
(lp1209
ss(Vimage
p1210
g1183
NVpowerpc64le
p1211
tp1212
(dp1213
Vconfigs
p1214
(lp1215
Vkernelarch-powerpc/config-arch-64
p1216
aVkernelarch-powerpc/config-arch-64-le
p1217
ass(g169
g1183
g137
tp1218
(dp1219
g172
(lp1220
Vpowerpc64le
p1221
asg176
I01
ss(Vbase
p1222
Vs390
p1223
tp1224
(dp1225
Vfeaturesets
p1226
(lp1227
sVkernel-arch
p1228
Vs390
p1229
ss(Vbase
p1230
Vs390x
p1231
tp1232
(dp1233
g135
(lp1234
g137
asVkernel-arch
p1235
Vs390
p1236
ss(Vdescription
p1237
g1231
NVs390x
p1238
tp1239
(dp1240
Vhardware
p1241
VIBM zSeries
p1242
ss(Vbuild
p1243
g1231
tp1244
(dp1245
Vvdso
p1246
I01
sVimage-file
p1247
Varch/s390/boot/image
p1248
ss(Vbuild
p1249
g1231
NVs390x
p1250
tp1251
(dp1252
Vdebug-info
p1253
I01
ss(Vrelations
p1254
g1231
tp1255
(dp1256
Vheaders%gcc-6
p1257
Vlinux-compiler-gcc-6-s390
p1258
ss(Vimage
p1259
g1231
tp1260
(dp1261
Vinstall-stem
p1262
Vvmlinuz
p1263
sVbootloaders
p1264
(lp1265
Vs390-tools
p1266
ass(g169
g1231
g137
tp1267
(dp1268
g172
(lp1269
Vs390x
p1270
asg176
I01
ss(Vbase
p1271
Vsh3
p1272
tp1273
(dp1274
Vfeaturesets
p1275
(lp1276
sVkernel-arch
p1277
Vsh
p1278
ss(Vbase
p1279
Vsh4
p1280
tp1281
(dp1282
g135
(lp1283
g137
asVkernel-arch
p1284
Vsh
p1285
ss(Vbuild
p1286
g1280
tp1287
(dp1288
Vsigned-modules
p1289
I00
sVimage-file
p1290
Varch/sh/boot/zImage
p1291
ss(Vdescription
p1292
g1280
NVsh7751r
p1293
tp1294
(dp1295
Vhardware
p1296
Vsh7751r
p1297
sVhardware-long
p1298
VRenesas SH7751R R2D plus board
p1299
ss(Vdescription
p1300
g1280
NVsh7785lcr
p1301
tp1302
(dp1303
Vhardware
p1304
Vsh7785lcr
p1305
sVhardware-long
p1306
VRenesas SH7785 reference board
p1307
ss(Vimage
p1308
g1280
tp1309
(dp1310
Vinstall-stem
p1311
Vvmlinuz
p1312
ss(Vimage
p1313
g1280
NVsh7785lcr
p1314
tp1315
(dp1316
Vrecommends
p1317
Vu-boot-tools
p1318
sVcheck-size
p1319
L4194304L
ss(g169
g1280
g137
tp1320
(dp1321
g172
(lp1322
Vsh7751r
p1323
aVsh7785lcr
p1324
asg176
I01
ss(Vbase
p1325
Vsparc
p1326
tp1327
(dp1328
Vfeaturesets
p1329
(lp1330
sVkernel-arch
p1331
Vsparc
p1332
ss(Vbase
p1333
Vsparc64
p1334
tp1335
(dp1336
g135
(lp1337
g137
asVkernel-arch
p1338
Vsparc
p1339
ss(Vbuild
p1340
g1334
tp1341
(dp1342
Vsigned-modules
p1343
I00
sVimage-file
p1344
Varch/sparc/boot/zImage
p1345
ss(Vimage
p1346
g1334
NVsparc64
p1347
tp1348
(dp1349
Vconfigs
p1350
(lp1351
Vkernelarch-sparc/config-up
p1352
ass(Vimage
p1353
g1334
NVsparc64-smp
p1354
tp1355
(dp1356
Vconfigs
p1357
(lp1358
Vkernelarch-sparc/config-smp
p1359
ass(Vimage
p1360
g1334
tp1361
(dp1362
Vsuggests
p1363
Vsilo, fdutils
p1364
sVinstall-stem
p1365
Vvmlinuz
p1366
sVconfigs
p1367
(lp1368
ss(Vdescription
p1369
g1334
NVsparc64-smp
p1370
tp1371
(dp1372
Vhardware
p1373
Vmultiprocessor 64-bit UltraSPARC
p1374
ss(Vdescription
p1375
g1334
NVsparc64
p1376
tp1377
(dp1378
Vhardware
p1379
Vuniprocessor 64-bit UltraSPARC
p1380
ss(g169
g1334
g137
tp1381
(dp1382
g172
(lp1383
Vsparc64
p1384
aVsparc64-smp
p1385
asg176
I01
ss(Vbase
p1386
Vtilegx
p1387
tp1388
(dp1389
Vfeaturesets
p1390
(lp1391
sVkernel-arch
p1392
Vtile
p1393
ss(Vbase
p1394
Vx32
p1395
tp1396
(dp1397
Vfeaturesets
p1398
(lp1399
sVkernel-arch
p1400
Vx86
p1401
ss(Vdescription
p1402
NVrt
p1403
tp1404
(dp1405
Vparts
p1406
(lp1407
Vrt
p1408
asVpart-long-rt
p1409
VThis kernel includes the PREEMPT_RT realtime patch set.
p1410
sVpart-short-rt
p1411
VPREEMPT_RT
p1412
ss(Vabi
p1413
Ng1403
tp1414
(dp1415
Vignore-changes
p1416
(lp1417
V*
p1418
ass(Vversion
p1419
tp1420
(dp1421
Vupstream
p1422
V4.13
p1423
sVsource
p1424
V4.13.4-1
p1425
sVabiname
p1426
V4.13.0-1
p1427
sVabiname_base
p1428
V4.13.0
p1429
ss.