cdebian_linux.config
ConfigCore
p0
(tRp1
(Vabi
p2
tp3
(dp4
Vabiname
p5
V1
p6
sVignore-changes
p7
(lp8
V__cpuhp_*
p9
aVbpf_analyzer
p10
aVcxl_*
p11
aVdax_flush
p12
aVieee80211_nullfunc_get
p13
aVinet_add_protocol
p14
aVinet_del_protocol
p15
aViommu_device_*
p16
aVmm_iommu_*
p17
aVmv_mbus_*
p18
aVperf_*
p19
aVregister_cxl_calls
p20
aVregister_key_type
p21
aVunregister_cxl_calls
p22
aV*_hw_breakpoint
p23
aVmodule:drivers/crypto/ccp/*
p24
aVmodule:drivers/hv/*
p25
aVmodule:drivers/gpu/drm/sun4i/*
p26
aVmodule:drivers/iio/**
p27
aVmodule:drivers/misc/cxl/*
p28
aVmodule:drivers/mtd/nand/*
p29
aVmodule:drivers/net/ethernet/**
p30
aVmodule:drivers/net/wireless/**
p31
aVmodule:drivers/nvdimm/*
p32
aVmodule:drivers/nvme/**
p33
aVmodule:drivers/power/supply/bq27xxx_battery
p34
aVmodule:drivers/scsi/cxgbi/*
p35
aVmodule:drivers/scsi/libiscs*
p36
aVmodule:drivers/scsi/qla2xxx/qla2xxx
p37
aVmodule:drivers/scsi/ufs/*
p38
aVmodule:drivers/target/**
p39
aVmodule:drivers/usb/chipidea/**
p40
aVmodule:drivers/usb/gadget/**
p41
aVmodule:drivers/usb/host/**
p42
aVmodule:drivers/usb/musb/**
p43
aVmodule:fs/nfs/**
p44
aVmodule:net/ceph/libceph
p45
aVmodule:net/l2tp/**
p46
aVmodule:net/rxrpc/rxrpc
p47
aVmodule:net/sctp/**
p48
aVmodule:sound/core/seq/**
p49
aVmodule:sound/firewire/snd-firewire-lib
p50
aVmodule:sound/pci/hda/*
p51
aVbtree_*
p52
aVvisitor*
p53
aVcan_rx_register
p54
aVip6_xmit
p55
aVmodule:net/dccp/dccp
p56
aVmodule:net/rds/rds
p57
aVdevfreq_*
p58
aVdevm_devfreq_*
p59
aVupdate_devfreq
p60
aVmodule:drivers/infiniband/**
p61
aVacpi_ec_add_query_handler
p62
aVacpi_ec_remove_query_handler
p63
aVfirst_ec
p64
aVdebugfs_create_automount
p65
aVmodule:drivers/iio/imu/inv_mpu6050/*
p66
aVdrm_crtc_accurate_vblank_count
p67
aVacpi_nfit_desc_init
p68
aVacpi_nfit_init
p69
aVloop_register_transfer
p70
aVxen_xlate_*
p71
aVnf_nat_masquerade_ipv4_register_notifier
p72
aVnf_nat_masquerade_ipv6_register_notifier
p73
aVmodule:drivers/scsi/hisi_sas/*
p74
aV__gfn_*
p75
aV__kvmhv_*
p76
aV__kvm_*
p77
aV__xive_vm_h_*
p78
aVgfn_*
p79
aVh_ipi_redirect
p80
aVhalt_poll_ns*
p81
aVkvm_*
p82
aVkvmhv_*
p83
aVkvmppc_*
p84
aVmark_page_dirty
p85
aVvcpu_*
p86
aVmodule:arch/powerpc/kvm/*
p87
aVmodule:arch/s390/kvm/*
p88
aVmodule:arch/x86/kvm/*
p89
ass(Vbase
p90
tp91
(dp92
Varches
p93
(lp94
Valpha
p95
aVamd64
p96
aVarm64
p97
aVarm64ilp32
p98
aVarmel
p99
aVarmhf
p100
aVhppa
p101
aVi386
p102
aVia64
p103
aVm68k
p104
aVmips
p105
aVmips64
p106
aVmips64el
p107
aVmips64r6
p108
aVmips64r6el
p109
aVmipsel
p110
aVmipsn32
p111
aVmipsn32el
p112
aVmipsn32r6
p113
aVmipsn32r6el
p114
aVmipsr6
p115
aVmipsr6el
p116
aVpowerpc
p117
aVppc64
p118
aVppc64el
p119
aVriscv64
p120
aVs390
p121
aVs390x
p122
aVsh3
p123
aVsh4
p124
aVsparc
p125
aVsparc64
p126
aVx32
p127
asVcompiler
p128
Vgcc-10
p129
sVfeaturesets
p130
(lp131
Vnone
p132
aVrt
p133
ass(Vbuild
p134
tp135
(dp136
Vdebug-info
p137
I01
sVsigned-code
p138
I00
ss(Vbase
p139
NVrt
p140
tp141
(dp142
Venabled
p143
I01
ss(Vdescription
p144
tp145
(dp146
Vpart-long-up
p147
VThis kernel is not suitable for SMP (multi-processor,\u000amulti-core or hyper-threaded) systems.
p148
ss(Vimage
p149
tp150
(dp151
Vinitramfs-generators
p152
(lp153
Vinitramfs-tools
p154
aVinitramfs-fallback
p155
asVbreaks
p156
(lp157
Vwireless-regdb (<< 2019.06.03-1~)
p158
asVrecommends
p159
(lp160
Vapparmor
p161
ass(Vrelations
p162
tp163
(dp164
Vgcc-10
p165
Vgcc-10 <!stage1 !cross !pkg.linux.nokernel>, gcc-10-@gnu-type-package@ <!stage1 cross !pkg.linux.nokernel>
p166
sVinitramfs-fallback
p167
Vlinux-initramfs-tool
p168
sVinitramfs-tools
p169
Vinitramfs-tools (>= 0.120+deb8u2)
p170
ss(Vbase
p171
Valpha
p172
tp173
(dp174
Vdefault-flavour
p175
Valpha-smp
p176
sVkernel-arch
p177
Valpha
p178
sVfeaturesets
p179
(lp180
Vnone
p181
ass(Vbuild
p182
g172
tp183
(dp184
Vimage-file
p185
Varch/alpha/boot/vmlinux.gz
p186
ss(Vimage
p187
g172
tp188
(dp189
Vsuggests
p190
(lp191
Vaboot
p192
aVfdutils
p193
asVinstall-stem
p194
Vvmlinuz
p195
ss(Vdescription
p196
g172
NValpha-generic
p197
tp198
(dp199
Vhardware
p200
VAlpha
p201
sVhardware-long
p202
VDEC Alpha systems with extended kernel start address (Wildfire, Titan, Marvel)
p203
ss(Vdescription
p204
g172
NValpha-smp
p205
tp206
(dp207
Vhardware
p208
VAlpha SMP
p209
sVhardware-long
p210
VDEC Alpha SMP systems with extended kernel start address (Wildfire, Titan, Marvel)
p211
ss(Vbase
p212
g172
g181
tp213
(dp214
Vflavours
p215
(lp216
Valpha-generic
p217
aValpha-smp
p218
asVimplicit-flavour
p219
I01
ss(Vbase
p220
Vamd64
p221
tp222
(dp223
Vfeaturesets
p224
(lp225
Vnone
p226
aVrt
p227
asVkernel-arch
p228
Vx86
p229
ss(Vbuild
p230
g221
tp231
(dp232
Vimage-file
p233
Varch/x86/boot/bzImage
p234
sVsigned-code
p235
I01
sVvdso
p236
I01
ss(Vimage
p237
g221
tp238
(dp239
Vbootloaders
p240
(lp241
Vgrub-pc
p242
aVgrub-efi-amd64
p243
aVextlinux
p244
asVinstall-stem
p245
Vvmlinuz
p246
sVbreaks
p247
(lp248
Vxserver-xorg-input-vmmouse (<< 1:13.0.99)
p249
ass(Vrelations
p250
g221
tp251
(dp252
Vheaders%gcc-10
p253
Vlinux-compiler-gcc-10-x86
p254
ss(Vdescription
p255
g221
NVamd64
p256
tp257
(dp258
Vhardware
p259
V64-bit PCs
p260
sVhardware-long
p261
VPCs with AMD64, Intel 64 or VIA Nano processors
p262
ss(Vdescription
p263
g221
NVcloud-amd64
p264
tp265
(dp266
Vhardware
p267
Vx86-64 cloud
p268
sVhardware-long
p269
Vcloud platforms including Amazon EC2, Microsoft Azure, and Google Compute Engine
p270
ss(Vbase
p271
g221
Vnone
p272
tp273
(dp274
Vflavours
p275
(lp276
Vamd64
p277
aVcloud-amd64
p278
asVdefault-flavour
p279
Vamd64
p280
ss(Vimage
p281
g221
g272
Vcloud-amd64
p282
tp283
(dp284
Vconfigs
p285
(lp286
Vconfig.cloud
p287
aVamd64/config.cloud-amd64
p288
ass(Vbase
p289
g221
Vrt
p290
tp291
(dp292
Vflavours
p293
(lp294
Vamd64
p295
ass(Vbase
p296
Varm64
p297
tp298
(dp299
Vcross-compile-compat
p300
Varm-linux-gnueabihf-
p301
sVkernel-arch
p302
Varm64
p303
sVfeaturesets
p304
(lp305
Vnone
p306
aVrt
p307
ass(Vbuild
p308
g297
tp309
(dp310
Vimage-file
p311
Varch/arm64/boot/Image
p312
sVsigned-code
p313
I01
sVvdso
p314
I01
ss(Vimage
p315
g297
tp316
(dp317
Vinstall-stem
p318
Vvmlinuz
p319
sVbreaks
p320
(lp321
Vlibmozjs185-1.0
p322
aVlibmozjs-24-0 (<< 24.2.0-5.1~)
p323
ass(Vdescription
p324
g297
NVarm64
p325
tp326
(dp327
Vhardware
p328
V64-bit ARMv8 machines
p329
ss(Vdescription
p330
g297
NVcloud-arm64
p331
tp332
(dp333
Vhardware
p334
Varm64 cloud
p335
sVhardware-long
p336
Vcloud platforms supporting arm64 virtual machines
p337
ss(Vimage
p338
g297
NVarm64
p339
tp340
(dp341
s(Vrelations
p342
g297
tp343
(dp344
Vgcc-10
p345
Vgcc-10 <!stage1 !cross !pkg.linux.nokernel>, gcc-10-aarch64-linux-gnu <!stage1 cross !pkg.linux.nokernel>, gcc-arm-linux-gnueabihf <!stage1 !pkg.linux.nokernel>
p346
sVheaders%gcc-10
p347
Vgcc-10
p348
ss(Vbase
p349
g297
Vnone
p350
tp351
(dp352
Vflavours
p353
(lp354
Varm64
p355
aVcloud-arm64
p356
asVdefault-flavour
p357
Varm64
p358
ss(Vimage
p359
g297
g350
Vcloud-arm64
p360
tp361
(dp362
Vconfigs
p363
(lp364
Vconfig.cloud
p365
aVarm64/config.cloud-arm64
p366
ass(Vbase
p367
g297
Vrt
p368
tp369
(dp370
Vflavours
p371
(lp372
Varm64
p373
ass(Vbase
p374
Varm64ilp32
p375
tp376
(dp377
Vkernel-arch
p378
Varm64
p379
sVfeaturesets
p380
(lp381
ss(Vbase
p382
Varmel
p383
tp384
(dp385
Vkernel-arch
p386
Varm
p387
sg179
(lp388
g181
ass(Vbuild
p389
g383
tp390
(dp391
Vimage-file
p392
Varch/arm/boot/zImage
p393
sVuncompressed-image-file
p394
Varch/arm/boot/Image
p395
ss(Vimage
p396
g383
tp397
(dp398
Vinstall-stem
p399
Vvmlinuz
p400
ss(Vrelations
p401
g383
tp402
(dp403
Vheaders%gcc-10
p404
Vlinux-compiler-gcc-10-arm
p405
ss(Vdescription
p406
g383
NVmarvell
p407
tp408
(dp409
Vhardware
p410
VMarvell Kirkwood/Orion
p411
sVhardware-long
p412
VMarvell Kirkwood and Orion based systems (https://wiki.debian.org/ArmEabiPort#Supported_hardware)
p413
ss(Vdescription
p414
g383
NVrpi
p415
tp416
(dp417
Vhardware
p418
VRaspberry Pi and Pi Zero
p419
sVhardware-long
p420
VRaspberry Pi, Raspberry Pi Zero based systems
p421
ss(Vimage
p422
g383
NVmarvell
p423
tp424
(dp425
Vrecommends
p426
(lp427
Vu-boot-tools
p428
asVcheck-size
p429
I2729712
sVcheck-size-with-dtb
p430
I01
sVbreaks
p431
(lp432
Vflash-kernel (<< 3.57~)
p433
ass(g212
g383
g181
tp434
(dp435
g215
(lp436
Vmarvell
p437
aVrpi
p438
asg219
I01
ss(Vbase
p439
Varmhf
p440
tp441
(dp442
Vfeaturesets
p443
(lp444
sVkernel-arch
p445
Varm
p446
ss(Vbase
p447
Vhppa
p448
tp449
(dp450
Vdefault-flavour
p451
Vparisc
p452
sVkernel-arch
p453
Vparisc
p454
sg179
(lp455
g181
ass(Vbuild
p456
g448
tp457
(dp458
Vimage-file
p459
Varch/parisc/boot/bzImage
p460
sVdebug-info
p461
I00
ss(Vimage
p462
g448
tp463
(dp464
Vsuggests
p465
(lp466
Vpalo
p467
asVinstall-stem
p468
Vvmlinuz
p469
ss(Vdescription
p470
g448
NVparisc
p471
tp472
(dp473
Vhardware
p474
V32-bit PA-RISC
p475
sVhardware-long
p476
VHP PA-RISC 32-bit systems with max 4 GB RAM
p477
ss(Vbase
p478
g448
NVparisc64
p479
tp480
(dp481
Vcflags
p482
V-fno-cse-follow-jumps
p483
sVoverride-host-type
p484
Vhppa64-linux-gnu
p485
ss(Vdescription
p486
g448
NVparisc64
p487
tp488
(dp489
Vhardware
p490
V64-bit PA-RISC
p491
sVhardware-long
p492
VHP PA-RISC 64-bit systems with support for more than 4 GB RAM
p493
ss(Vrelations
p494
g448
tp495
(dp496
Vgcc-10
p497
Vgcc-10 <!stage1 !cross !pkg.linux.nokernel>, gcc-10-hppa-linux-gnu <!stage1 cross !pkg.linux.nokernel>, binutils-hppa64-linux-gnu <!stage1 !pkg.linux.nokernel>, gcc-10-hppa64-linux-gnu <!stage1 !pkg.linux.nokernel>
p498
ss(g212
g448
g181
tp499
(dp500
g215
(lp501
Vparisc
p502
aVparisc64
p503
asg219
I01
ss(Vbase
p504
Vi386
p505
tp506
(dp507
Vfeaturesets
p508
(lp509
Vnone
p510
aVrt
p511
asVkernel-arch
p512
Vx86
p513
ss(Vbuild
p514
g505
tp515
(dp516
Vimage-file
p517
Varch/x86/boot/bzImage
p518
sVsigned-code
p519
I01
sVvdso
p520
I01
ss(Vdescription
p521
g505
tp522
(dp523
Vpart-long-pae
p524
VThis kernel requires PAE (Physical Address Extension).\u000aThis feature is supported by the Intel Pentium Pro/II/III/4/4M/D, Xeon,\u000aCore and Atom; AMD Geode NX, Athlon (K7), Duron, Opteron, Sempron,\u000aTurion or Phenom; Transmeta Efficeon; VIA C7; and some other processors.
p525
ss(Vimage
p526
g505
tp527
(dp528
Vbootloaders
p529
(lp530
Vgrub-pc
p531
aVgrub-efi-ia32
p532
aVextlinux
p533
asVinstall-stem
p534
Vvmlinuz
p535
sVbreaks
p536
(lp537
Vxserver-xorg-input-vmmouse (<< 1:13.0.99)
p538
ass(Vrelations
p539
g505
tp540
(dp541
Vheaders%gcc-10
p542
Vlinux-compiler-gcc-10-x86
p543
ss(Vdescription
p544
g505
NV686
p545
tp546
(dp547
Vhardware
p548
Volder PCs
p549
sVhardware-long
p550
VPCs with one or more processors not supporting PAE
p551
ss(Vdescription
p552
g505
NV686-pae
p553
tp554
(dp555
Vhardware
p556
Vmodern PCs
p557
sVhardware-long
p558
VPCs with one or more processors supporting PAE
p559
sVparts
p560
(lp561
Vpae
p562
ass(Vbase
p563
g505
Vnone
p564
tp565
(dp566
Vflavours
p567
(lp568
V686
p569
aV686-pae
p570
asVdefault-flavour
p571
V686-pae
p572
ss(Vbase
p573
g505
Vrt
p574
tp575
(dp576
Vflavours
p577
(lp578
V686-pae
p579
ass(Vbase
p580
Via64
p581
tp582
(dp583
Vdefault-flavour
p584
Vitanium
p585
sVkernel-arch
p586
Via64
p587
sg179
(lp588
g181
ass(Vbuild
p589
g581
tp590
(dp591
Vimage-file
p592
Vvmlinux.gz
p593
ss(Vimage
p594
g581
tp595
(dp596
Vbootloaders
p597
(lp598
Vgrub-efi-ia64
p599
asVinstall-stem
p600
Vvmlinuz
p601
ss(Vdescription
p602
g581
NVitanium
p603
tp604
(dp605
Vhardware
p606
VItanium (Merced)
p607
sVhardware-long
p608
Vsystems with original Itanium (Merced) processors
p609
ss(Vdescription
p610
g581
NVmckinley
p611
tp612
(dp613
Vhardware
p614
VItanium 2+
p615
sVhardware-long
p616
Vsystems with Itanium 2 or 9300/9500/9700-series processors
p617
ss(g212
g581
g181
tp618
(dp619
g215
(lp620
Vitanium
p621
aVmckinley
p622
asg219
I01
ss(Vbase
p623
Vm68k
p624
tp625
(dp626
Vcflags
p627
V-ffreestanding
p628
sVdefault-flavour
p629
Vm68k
p630
sVkernel-arch
p631
Vm68k
p632
sg179
(lp633
g181
ass(Vbuild
p634
g624
tp635
(dp636
Vimage-file
p637
Vvmlinux
p638
ss(Vimage
p639
g624
tp640
(dp641
Vsuggests
p642
(lp643
Vvmelilo
p644
aVfdutils
p645
asVinstall-stem
p646
Vvmlinux
p647
ss(Vdescription
p648
g624
NVm68k
p649
tp650
(dp651
Vhardware
p652
VMotorola MC68020+ family
p653
ss(g212
g624
g181
tp654
(dp655
g215
(lp656
Vm68k
p657
asg219
I01
ss(Vbase
p658
Vmips
p659
tp660
(dp661
Vkernel-arch
p662
Vmips
p663
sg179
(lp664
g181
ass(Vbuild
p665
g659
tp666
(dp667
Vimage-file
p668
Vvmlinuz
p669
ss(Vimage
p670
g659
tp671
(dp672
Vinstall-stem
p673
Vvmlinuz
p674
ss(Vdescription
p675
g659
NV4kc-malta
p676
tp677
(dp678
Vhardware
p679
VMIPS Malta
p680
sVhardware-long
p681
VMIPS Malta boards
p682
ss(Vimage
p683
g659
NV4kc-malta
p684
tp685
(dp686
Vconfigs
p687
(lp688
Vkernelarch-mips/config.malta
p689
aVkernelarch-mips/config.mips32r2
p690
ass(Vdescription
p691
g659
NV5kc-malta
p692
tp693
(dp694
Vhardware
p695
VMIPS Malta (64-bit)
p696
sVhardware-long
p697
VMIPS Malta boards (64-bit)
p698
ss(Vimage
p699
g659
NV5kc-malta
p700
tp701
(dp702
Vconfigs
p703
(lp704
Vkernelarch-mips/config.malta
p705
aVkernelarch-mips/config.mips64r2
p706
ass(Vdescription
p707
g659
NVocteon
p708
tp709
(dp710
Vhardware
p711
VOcteon
p712
sVhardware-long
p713
VCavium Networks Octeon
p714
ss(Vbuild
p715
g659
NVocteon
p716
tp717
(dp718
Vimage-file
p719
Vvmlinux
p720
ss(Vimage
p721
g659
NVocteon
p722
tp723
(dp724
Vinstall-stem
p725
Vvmlinux
p726
sVconfigs
p727
(lp728
Vkernelarch-mips/config.octeon
p729
ass(g212
g659
g181
tp730
(dp731
g215
(lp732
V4kc-malta
p733
aV5kc-malta
p734
aVocteon
p735
asg219
I01
ss(Vbase
p736
Vmips64
p737
tp738
(dp739
Vkernel-arch
p740
Vmips
p741
sg179
(lp742
g181
ass(Vbuild
p743
g737
tp744
(dp745
Vimage-file
p746
Vvmlinuz
p747
ss(Vimage
p748
g737
tp749
(dp750
Vinstall-stem
p751
Vvmlinuz
p752
ss(Vdescription
p753
g737
NV5kc-malta
p754
tp755
(dp756
Vhardware
p757
VMIPS Malta
p758
sVhardware-long
p759
VMIPS Malta boards
p760
ss(Vimage
p761
g737
NV5kc-malta
p762
tp763
(dp764
Vconfigs
p765
(lp766
Vkernelarch-mips/config.malta
p767
aVkernelarch-mips/config.mips64r2
p768
ass(Vdescription
p769
g737
NVocteon
p770
tp771
(dp772
Vhardware
p773
VOcteon
p774
sVhardware-long
p775
VCavium Networks Octeon
p776
ss(Vbuild
p777
g737
NVocteon
p778
tp779
(dp780
Vimage-file
p781
Vvmlinux
p782
ss(Vimage
p783
g737
NVocteon
p784
tp785
(dp786
Vinstall-stem
p787
Vvmlinux
p788
sVconfigs
p789
(lp790
Vkernelarch-mips/config.octeon
p791
ass(g212
g737
g181
tp792
(dp793
g215
(lp794
V5kc-malta
p795
aVocteon
p796
asg219
I01
ss(Vbase
p797
Vmips64el
p798
tp799
(dp800
Vkernel-arch
p801
Vmips
p802
sg179
(lp803
g181
ass(Vbuild
p804
g798
tp805
(dp806
Vimage-file
p807
Vvmlinuz
p808
ss(Vimage
p809
g798
tp810
(dp811
Vinstall-stem
p812
Vvmlinuz
p813
ss(Vdescription
p814
g798
NV5kc-malta
p815
tp816
(dp817
Vhardware
p818
VMIPS Malta
p819
sVhardware-long
p820
VMIPS Malta boards
p821
ss(Vimage
p822
g798
NV5kc-malta
p823
tp824
(dp825
Vconfigs
p826
(lp827
Vkernelarch-mips/config.malta
p828
aVkernelarch-mips/config.mips64r2
p829
ass(Vdescription
p830
g798
NVloongson-3
p831
tp832
(dp833
Vhardware
p834
VLoongson 3A/3B
p835
sVhardware-long
p836
VLoongson 3A or 3B based systems (e.g. from Loongson or Lemote)
p837
ss(Vimage
p838
g798
NVloongson-3
p839
tp840
(dp841
Vconfigs
p842
(lp843
Vkernelarch-mips/config.loongson-3
p844
ass(Vdescription
p845
g798
NVocteon
p846
tp847
(dp848
Vhardware
p849
VOcteon
p850
sVhardware-long
p851
VCavium Networks Octeon
p852
ss(Vbuild
p853
g798
NVocteon
p854
tp855
(dp856
Vimage-file
p857
Vvmlinux
p858
ss(Vimage
p859
g798
NVocteon
p860
tp861
(dp862
Vinstall-stem
p863
Vvmlinux
p864
sVconfigs
p865
(lp866
Vkernelarch-mips/config.octeon
p867
ass(g212
g798
g181
tp868
(dp869
g215
(lp870
V5kc-malta
p871
aVloongson-3
p872
aVocteon
p873
asg219
I01
ss(Vbase
p874
Vmips64r6
p875
tp876
(dp877
Vdefault-flavour
p878
Vmips64r6
p879
sVkernel-arch
p880
Vmips
p881
sg179
(lp882
g181
ass(Vbuild
p883
g875
tp884
(dp885
Vimage-file
p886
Vvmlinux
p887
ss(Vimage
p888
g875
tp889
(dp890
Vinstall-stem
p891
Vvmlinux
p892
ss(Vdescription
p893
g875
NVmips64r6
p894
tp895
(dp896
Vhardware
p897
VMIPS R6 (64 bit, big endian)
p898
sVhardware-long
p899
VMIPS R6 (64 bit, big endian)
p900
ss(Vimage
p901
g875
NVmips64r6
p902
tp903
(dp904
Vconfigs
p905
(lp906
Vkernelarch-mips/config.boston
p907
aVkernelarch-mips/config.mips64r6
p908
ass(g212
g875
g181
tp909
(dp910
g215
(lp911
Vmips64r6
p912
asg219
I01
ss(Vbase
p913
Vmips64r6el
p914
tp915
(dp916
Vdefault-flavour
p917
Vmips64r6el
p918
sVkernel-arch
p919
Vmips
p920
sg179
(lp921
g181
ass(Vbuild
p922
g914
tp923
(dp924
Vimage-file
p925
Vvmlinux
p926
ss(Vimage
p927
g914
tp928
(dp929
Vinstall-stem
p930
Vvmlinux
p931
ss(Vdescription
p932
g914
NVmips64r6el
p933
tp934
(dp935
Vhardware
p936
VMIPS R6 (64 bit, little endian)
p937
sVhardware-long
p938
VMIPS R6 (64 bit, little endian)
p939
ss(Vimage
p940
g914
NVmips64r6el
p941
tp942
(dp943
Vconfigs
p944
(lp945
Vkernelarch-mips/config.boston
p946
aVkernelarch-mips/config.mips64r6
p947
ass(g212
g914
g181
tp948
(dp949
g215
(lp950
Vmips64r6el
p951
asg219
I01
ss(Vbase
p952
Vmipsel
p953
tp954
(dp955
Vkernel-arch
p956
Vmips
p957
sg179
(lp958
g181
ass(Vbuild
p959
g953
tp960
(dp961
Vimage-file
p962
Vvmlinuz
p963
ss(Vimage
p964
g953
tp965
(dp966
Vinstall-stem
p967
Vvmlinuz
p968
ss(Vdescription
p969
g953
NV4kc-malta
p970
tp971
(dp972
Vhardware
p973
VMIPS Malta
p974
sVhardware-long
p975
VMIPS Malta boards
p976
ss(Vimage
p977
g953
NV4kc-malta
p978
tp979
(dp980
Vconfigs
p981
(lp982
Vkernelarch-mips/config.malta
p983
aVkernelarch-mips/config.mips32r2
p984
ass(Vdescription
p985
g953
NV5kc-malta
p986
tp987
(dp988
Vhardware
p989
VMIPS Malta (64-bit)
p990
sVhardware-long
p991
VMIPS Malta boards (64-bit)
p992
ss(Vimage
p993
g953
NV5kc-malta
p994
tp995
(dp996
Vconfigs
p997
(lp998
Vkernelarch-mips/config.malta
p999
aVkernelarch-mips/config.mips64r2
p1000
ass(Vdescription
p1001
g953
NVloongson-3
p1002
tp1003
(dp1004
Vhardware
p1005
VLoongson 3A/3B
p1006
sVhardware-long
p1007
VLoongson 3A or 3B based systems (e.g. from Loongson or Lemote)
p1008
ss(Vimage
p1009
g953
NVloongson-3
p1010
tp1011
(dp1012
Vconfigs
p1013
(lp1014
Vkernelarch-mips/config.loongson-3
p1015
ass(Vdescription
p1016
g953
NVocteon
p1017
tp1018
(dp1019
Vhardware
p1020
VOcteon
p1021
sVhardware-long
p1022
VCavium Networks Octeon
p1023
ss(Vbuild
p1024
g953
NVocteon
p1025
tp1026
(dp1027
Vimage-file
p1028
Vvmlinux
p1029
ss(Vimage
p1030
g953
NVocteon
p1031
tp1032
(dp1033
Vinstall-stem
p1034
Vvmlinux
p1035
sVconfigs
p1036
(lp1037
Vkernelarch-mips/config.octeon
p1038
ass(g212
g953
g181
tp1039
(dp1040
g215
(lp1041
V4kc-malta
p1042
aV5kc-malta
p1043
aVloongson-3
p1044
aVocteon
p1045
asg219
I01
ss(Vbase
p1046
Vmipsn32
p1047
tp1048
(dp1049
Vkernel-arch
p1050
Vmips
p1051
sVfeaturesets
p1052
(lp1053
ss(Vbase
p1054
Vmipsn32el
p1055
tp1056
(dp1057
Vkernel-arch
p1058
Vmips
p1059
sVfeaturesets
p1060
(lp1061
ss(Vbase
p1062
Vmipsn32r6
p1063
tp1064
(dp1065
Vkernel-arch
p1066
Vmips
p1067
sVfeaturesets
p1068
(lp1069
ss(Vbase
p1070
Vmipsn32r6el
p1071
tp1072
(dp1073
Vkernel-arch
p1074
Vmips
p1075
sVfeaturesets
p1076
(lp1077
ss(Vbase
p1078
Vmipsr6
p1079
tp1080
(dp1081
Vdefault-flavour
p1082
Vmips32r6
p1083
sVkernel-arch
p1084
Vmips
p1085
sg179
(lp1086
g181
ass(Vbuild
p1087
g1079
tp1088
(dp1089
Vimage-file
p1090
Vvmlinux
p1091
ss(Vimage
p1092
g1079
tp1093
(dp1094
Vinstall-stem
p1095
Vvmlinux
p1096
ss(Vdescription
p1097
g1079
NVmips32r6
p1098
tp1099
(dp1100
Vhardware
p1101
VMIPS R6 (32 bit, big endian)
p1102
sVhardware-long
p1103
VMIPS R6 (32 bit, big endian)
p1104
ss(Vimage
p1105
g1079
NVmips32r6
p1106
tp1107
(dp1108
Vconfigs
p1109
(lp1110
Vkernelarch-mips/config.boston
p1111
aVkernelarch-mips/config.mips32r6
p1112
ass(Vdescription
p1113
g1079
NVmips64r6
p1114
tp1115
(dp1116
Vhardware
p1117
VMIPS R6 (64 bit, big endian)
p1118
sVhardware-long
p1119
VMIPS R6 (64 bit, big endian)
p1120
ss(Vimage
p1121
g1079
NVmips64r6
p1122
tp1123
(dp1124
Vconfigs
p1125
(lp1126
Vkernelarch-mips/config.boston
p1127
aVkernelarch-mips/config.mips64r6
p1128
ass(g212
g1079
g181
tp1129
(dp1130
g215
(lp1131
Vmips32r6
p1132
aVmips64r6
p1133
asg219
I01
ss(Vbase
p1134
Vmipsr6el
p1135
tp1136
(dp1137
Vdefault-flavour
p1138
Vmips32r6el
p1139
sVkernel-arch
p1140
Vmips
p1141
sg179
(lp1142
g181
ass(Vbuild
p1143
g1135
tp1144
(dp1145
Vimage-file
p1146
Vvmlinux
p1147
ss(Vimage
p1148
g1135
tp1149
(dp1150
Vinstall-stem
p1151
Vvmlinux
p1152
ss(Vdescription
p1153
g1135
NVmips32r6el
p1154
tp1155
(dp1156
Vhardware
p1157
VMIPS R6 (32 bit, little endian)
p1158
sVhardware-long
p1159
VMIPS R6 (32 bit, little endian)
p1160
ss(Vimage
p1161
g1135
NVmips32r6el
p1162
tp1163
(dp1164
Vconfigs
p1165
(lp1166
Vkernelarch-mips/config.boston
p1167
aVkernelarch-mips/config.mips32r6
p1168
ass(Vdescription
p1169
g1135
NVmips64r6el
p1170
tp1171
(dp1172
Vhardware
p1173
VMIPS R6 (64 bit, little endian)
p1174
sVhardware-long
p1175
VMIPS R6 (64 bit, little endian)
p1176
ss(Vimage
p1177
g1135
NVmips64r6el
p1178
tp1179
(dp1180
Vconfigs
p1181
(lp1182
Vkernelarch-mips/config.boston
p1183
aVkernelarch-mips/config.mips64r6
p1184
ass(g212
g1135
g181
tp1185
(dp1186
g215
(lp1187
Vmips32r6el
p1188
aVmips64r6el
p1189
asg219
I01
ss(Vbase
p1190
Vpowerpc
p1191
tp1192
(dp1193
Vkernel-arch
p1194
Vpowerpc
p1195
sg179
(lp1196
g181
ass(Vbuild
p1197
g1191
tp1198
(dp1199
Vimage-file
p1200
Vvmlinux
p1201
sVvdso
p1202
I01
ss(Vimage
p1203
g1191
tp1204
(dp1205
Vconfigs
p1206
(lp1207
sVbootloaders
p1208
(lp1209
Vgrub-ieee1275
p1210
asVsuggests
p1211
(lp1212
Vmkvmlinuz
p1213
asVinstall-stem
p1214
Vvmlinux
p1215
ss(Vdescription
p1216
g1191
NVpowerpc
p1217
tp1218
(dp1219
Vhardware
p1220
Vuniprocessor 32-bit PowerPC
p1221
ss(Vdescription
p1222
g1191
NVpowerpc-smp
p1223
tp1224
(dp1225
Vhardware
p1226
Vmultiprocessor 32-bit PowerPC
p1227
ss(Vimage
p1228
g1191
NVpowerpc-smp
p1229
tp1230
(dp1231
Vconfigs
p1232
(lp1233
Vpowerpc/config.powerpc
p1234
aVpowerpc/config.powerpc-smp
p1235
ass(Vdescription
p1236
g1191
NVpowerpc64
p1237
tp1238
(dp1239
Vhardware
p1240
V64-bit PowerPC
p1241
ss(Vimage
p1242
g1191
NVpowerpc64
p1243
tp1244
(dp1245
Vconfigs
p1246
(lp1247
Vkernelarch-powerpc/config-arch-64
p1248
aVkernelarch-powerpc/config-arch-64-be
p1249
ass(g212
g1191
g181
tp1250
(dp1251
g215
(lp1252
Vpowerpc
p1253
aVpowerpc-smp
p1254
aVpowerpc64
p1255
asg219
I01
ss(Vbase
p1256
Vppc64
p1257
tp1258
(dp1259
Vdefault-flavour
p1260
Vpowerpc64
p1261
sVkernel-arch
p1262
Vpowerpc
p1263
sg179
(lp1264
g181
ass(Vbuild
p1265
g1257
tp1266
(dp1267
Vimage-file
p1268
Vvmlinux
p1269
sVvdso
p1270
I01
ss(Vimage
p1271
g1257
tp1272
(dp1273
Vconfigs
p1274
(lp1275
sVbootloaders
p1276
(lp1277
Vgrub-ieee1275
p1278
asVsuggests
p1279
(lp1280
Vmkvmlinuz
p1281
asVinstall-stem
p1282
Vvmlinux
p1283
ss(Vdescription
p1284
g1257
NVpowerpc64
p1285
tp1286
(dp1287
Vhardware
p1288
V64-bit PowerPC
p1289
ss(Vimage
p1290
g1257
NVpowerpc64
p1291
tp1292
(dp1293
Vconfigs
p1294
(lp1295
Vkernelarch-powerpc/config-arch-64
p1296
aVkernelarch-powerpc/config-arch-64-be
p1297
ass(g212
g1257
g181
tp1298
(dp1299
g215
(lp1300
Vpowerpc64
p1301
asg219
I01
ss(Vbase
p1302
Vppc64el
p1303
tp1304
(dp1305
Vdefault-flavour
p1306
Vpowerpc64le
p1307
sVkernel-arch
p1308
Vpowerpc
p1309
sg179
(lp1310
g181
ass(Vbuild
p1311
g1303
tp1312
(dp1313
Vimage-file
p1314
Vvmlinux
p1315
sVvdso
p1316
I01
ss(Vimage
p1317
g1303
tp1318
(dp1319
Vconfigs
p1320
(lp1321
sVbootloaders
p1322
(lp1323
Vgrub-ieee1275
p1324
asVsuggests
p1325
(lp1326
Vmkvmlinuz
p1327
asVinstall-stem
p1328
Vvmlinux
p1329
ss(Vdescription
p1330
g1303
NVpowerpc64le
p1331
tp1332
(dp1333
Vhardware
p1334
VLittle-endian 64-bit PowerPC
p1335
ss(Vimage
p1336
g1303
NVpowerpc64le
p1337
tp1338
(dp1339
Vconfigs
p1340
(lp1341
Vkernelarch-powerpc/config-arch-64
p1342
aVkernelarch-powerpc/config-arch-64-le
p1343
ass(g212
g1303
g181
tp1344
(dp1345
g215
(lp1346
Vpowerpc64le
p1347
asg219
I01
ss(Vbase
p1348
Vriscv64
p1349
tp1350
(dp1351
Vkernel-arch
p1352
Vriscv
p1353
sVfeaturesets
p1354
(lp1355
Vnone
p1356
ass(Vbuild
p1357
g1349
tp1358
(dp1359
Vimage-file
p1360
Varch/riscv/boot/Image
p1361
sVvdso
p1362
I01
ss(Vimage
p1363
g1349
tp1364
(dp1365
Vinstall-stem
p1366
Vvmlinux
p1367
ss(Vdescription
p1368
g1349
NVriscv64
p1369
tp1370
(dp1371
Vhardware
p1372
V64-bit RISC-V platforms
p1373
sVhardware-long
p1374
V64-bit RISC-V platforms
p1375
ss(Vbase
p1376
g1349
Vnone
p1377
tp1378
(dp1379
Vflavours
p1380
(lp1381
Vriscv64
p1382
asVdefault-flavour
p1383
Vriscv64
p1384
ss(Vbase
p1385
Vs390
p1386
tp1387
(dp1388
Vkernel-arch
p1389
Vs390
p1390
sVfeaturesets
p1391
(lp1392
ss(Vbase
p1393
Vs390x
p1394
tp1395
(dp1396
Vdefault-flavour
p1397
Vs390x
p1398
sVkernel-arch
p1399
Vs390
p1400
sg179
(lp1401
g181
ass(Vbuild
p1402
g1394
tp1403
(dp1404
Vimage-file
p1405
Varch/s390/boot/bzImage
p1406
sVvdso
p1407
I01
ss(Vimage
p1408
g1394
tp1409
(dp1410
Vbootloaders
p1411
(lp1412
Vs390-tools
p1413
asVinstall-stem
p1414
Vvmlinuz
p1415
ss(Vrelations
p1416
g1394
tp1417
(dp1418
Vheaders%gcc-10
p1419
Vlinux-compiler-gcc-10-s390
p1420
ss(Vdescription
p1421
g1394
NVs390x
p1422
tp1423
(dp1424
Vhardware
p1425
VIBM zSeries
p1426
ss(g212
g1394
g181
tp1427
(dp1428
g215
(lp1429
Vs390x
p1430
asg219
I01
ss(Vbase
p1431
Vsh3
p1432
tp1433
(dp1434
Vkernel-arch
p1435
Vsh
p1436
sVfeaturesets
p1437
(lp1438
ss(Vbase
p1439
Vsh4
p1440
tp1441
(dp1442
Vkernel-arch
p1443
Vsh
p1444
sg179
(lp1445
g181
ass(Vbuild
p1446
g1440
tp1447
(dp1448
Vimage-file
p1449
Varch/sh/boot/zImage
p1450
ss(Vimage
p1451
g1440
tp1452
(dp1453
Vinstall-stem
p1454
Vvmlinuz
p1455
ss(Vdescription
p1456
g1440
NVsh7751r
p1457
tp1458
(dp1459
Vhardware
p1460
Vsh7751r
p1461
sVhardware-long
p1462
VRenesas SH7751R R2D plus board
p1463
ss(Vdescription
p1464
g1440
NVsh7785lcr
p1465
tp1466
(dp1467
Vhardware
p1468
Vsh7785lcr
p1469
sVhardware-long
p1470
VRenesas SH7785 reference board
p1471
ss(Vimage
p1472
g1440
NVsh7785lcr
p1473
tp1474
(dp1475
Vrecommends
p1476
(lp1477
Vu-boot-tools
p1478
asVcheck-size
p1479
I4194304
ss(g212
g1440
g181
tp1480
(dp1481
g215
(lp1482
Vsh7751r
p1483
aVsh7785lcr
p1484
asg219
I01
ss(Vbase
p1485
Vsparc
p1486
tp1487
(dp1488
Vkernel-arch
p1489
Vsparc
p1490
sVfeaturesets
p1491
(lp1492
ss(Vbase
p1493
Vsparc64
p1494
tp1495
(dp1496
Vdefault-flavour
p1497
Vsparc64-smp
p1498
sVkernel-arch
p1499
Vsparc
p1500
sg179
(lp1501
g181
ass(Vbuild
p1502
g1494
tp1503
(dp1504
Vimage-file
p1505
Vvmlinux
p1506
ss(Vimage
p1507
g1494
tp1508
(dp1509
Vconfigs
p1510
(lp1511
sVbootloaders
p1512
(lp1513
Vgrub-ieee1275
p1514
asVsuggests
p1515
(lp1516
Vfdutils
p1517
asVinstall-stem
p1518
Vvmlinux
p1519
ss(Vdescription
p1520
g1494
NVsparc64
p1521
tp1522
(dp1523
Vhardware
p1524
Vuniprocessor 64-bit UltraSPARC
p1525
ss(Vimage
p1526
g1494
NVsparc64
p1527
tp1528
(dp1529
Vconfigs
p1530
(lp1531
Vkernelarch-sparc/config-up
p1532
ass(Vdescription
p1533
g1494
NVsparc64-smp
p1534
tp1535
(dp1536
Vhardware
p1537
Vmultiprocessor 64-bit UltraSPARC
p1538
ss(Vimage
p1539
g1494
NVsparc64-smp
p1540
tp1541
(dp1542
Vconfigs
p1543
(lp1544
Vkernelarch-sparc/config-smp
p1545
ass(g212
g1494
g181
tp1546
(dp1547
g215
(lp1548
Vsparc64
p1549
aVsparc64-smp
p1550
asg219
I01
ss(Vbase
p1551
Vx32
p1552
tp1553
(dp1554
Vkernel-arch
p1555
Vx86
p1556
sVfeaturesets
p1557
(lp1558
ss(Vabi
p1559
NVrt
p1560
tp1561
(dp1562
Vignore-changes
p1563
(lp1564
V*
p1565
ass(Vdescription
p1566
Ng1560
tp1567
(dp1568
Vpart-long-rt
p1569
VThis kernel includes the PREEMPT_RT realtime patch set.
p1570
sVpart-short-rt
p1571
VPREEMPT_RT
p1572
sVparts
p1573
(lp1574
Vrt
p1575
ass(Vversion
p1576
tp1577
(dp1578
Vsource
p1579
V5.10.4-1+rpi1
p1580
sVupstream
p1581
V5.10
p1582
sVabiname_base
p1583
V5.10.0
p1584
sVabiname
p1585
V5.10.0-1
p1586
ss.