cdebian_linux.config
ConfigCore
p0
(tRp1
(Vbase
p2
tp3
(dp4
Varches
p5
(lp6
Valpha
p7
aVamd64
p8
aVarm64
p9
aVarmel
p10
aVarmhf
p11
aVhppa
p12
aVi386
p13
aVm68k
p14
aVmips
p15
aVmipsel
p16
aVmipsn32
p17
aVmipsn32el
p18
aVmips64
p19
aVmips64el
p20
aVpowerpc
p21
aVpowerpcspe
p22
aVppc64
p23
aVppc64el
p24
aVs390
p25
aVs390x
p26
aVsh3
p27
aVsh4
p28
aVsparc
p29
aVsparc64
p30
aVtilegx
p31
aVx32
p32
asVfeaturesets
p33
(lp34
Vnone
p35
aVrt
p36
asVcompiler
p37
Vgcc-6
p38
ss(Vbuild
p39
tp40
(dp41
Vsigned-modules
p42
I00
sVdebug-info
p43
I01
ss(Vbase
p44
NVrt
p45
tp46
(dp47
Venabled
p48
I01
ss(Vdescription
p49
tp50
(dp51
Vpart-long-up
p52
VThis kernel is not suitable for SMP (multi-processor,\u000amulti-core or hyper-threaded) systems.
p53
sVpart-long-xen
p54
VThis kernel also runs on a Xen hypervisor.\u000aIt supports both privileged (dom0) and unprivileged (domU) operation.
p55
ss(Vrelations
p56
tp57
(dp58
Vinitramfs-tools
p59
Vinitramfs-tools (>= 0.120+deb8u2)
p60
sVgcc-6
p61
Vgcc-6 <!stage1 !cross>, gcc-6-@gnu-type-package@ <!stage1 cross>
p62
sVinitramfs-fallback
p63
Vlinux-initramfs-tool
p64
ss(Vimage
p65
tp66
(dp67
Vinitramfs-generators
p68
(lp69
Vinitramfs-tools
p70
aVinitramfs-fallback
p71
ass(Vabi
p72
tp73
(dp74
Vabiname
p75
V17
p76
sVignore-changes
p77
(lp78
V__cpuhp_*
p79
aVbpf_analyzer
p80
aVcpu_tlbstate
p81
aVcxl_*
p82
aVinet6_register_icmp_sender
p83
aVinet6_unregister_icmp_sender
p84
aVinet_frag_*
p85
aVinet_frags_*
p86
aVinjectm
p87
aVip6_expire_frag_queue
p88
aVip6_frag_*
p89
aVmce_*
p90
aVmm_iommu_*
p91
aVmv_mbus_*
p92
aVregister_cxl_calls
p93
aVregister_key_type
p94
aVshash_no_setkey
p95
aVtpm_*
p96
aVtpmm_chip_alloc
p97
aVunregister_cxl_calls
p98
aVzs_*
p99
aVmodule:drivers/block/loop
p100
aVmodule:drivers/crypto/ccp/*
p101
aVmodule:drivers/crypto/qat/*
p102
aVmodule:drivers/edac/edac_mce_amd
p103
aVmodule:drivers/hv/*
p104
aVmodule:drivers/iio/common/hid-sensors/*
p105
aVmodule:drivers/iio/common/st_sensors/**
p106
aVmodule:drivers/media/usb/dvb-usb/**
p107
aVmodule:drivers/media/usb/gspca/**
p108
aVmodule:drivers/misc/**
p109
aVmodule:drivers/net/ethernet/**
p110
aVmodule:drivers/net/tun
p111
aVmodule:drivers/net/usb/**
p112
aVmodule:drivers/net/wireless/**
p113
aVmodule:drivers/nfc/**
p114
aVmodule:drivers/nvdimm/*
p115
aVmodule:drivers/nvme/**
p116
aVmodule:drivers/power/supply/bq27xxx_battery
p117
aVmodule:drivers/s390/net/qeth
p118
aVmodule:drivers/s390/net/qeth*
p119
aVmodule:drivers/scsi/cxgbi/*
p120
aVmodule:drivers/scsi/esp_scsi
p121
aVmodule:drivers/scsi/libiscs*
p122
aVmodule:drivers/scsi/qla2xxx/qla2xxx
p123
aVmodule:drivers/scsi/ufs/*
p124
aVmodule:drivers/staging/**
p125
aVmodule:drivers/target/**
p126
aVmodule:drivers/usb/chipidea/**
p127
aVmodule:drivers/usb/gadget/**
p128
aVmodule:drivers/usb/host/**
p129
aVmodule:drivers/usb/musb/**
p130
aVmodule:drivers/usb/usbip/**
p131
aVmodule:drivers/vhost/vhost
p132
aVmodule:fs/crypto/fscrypto
p133
aVmodule:fs/nfs/nfs
p134
aVmodule:net/ceph/libceph
p135
aVmodule:net/netfilter/nft_reject
p136
aVmodule:net/nfc/hci/hci
p137
aVmodule:net/l2tp/**
p138
aVmodule:net/sctp/*
p139
aVmodule:net/vmw_vsock/*
p140
aVmodule:sound/firewire/snd-firewire-lib
p141
aVmodule:sound/pci/hda/*
p142
aVbtree_*
p143
aVvisitor*
p144
aVcan_rx_register
p145
aVip6_xmit
p146
aVmodule:net/dccp/dccp
p147
aVmodule:net/rds/rds
p148
aVxprt_register_transport
p149
aVxprt_unregister_transport
p150
aVdevfreq_*
p151
aVdevm_devfreq_*
p152
aVupdate_devfreq
p153
aVmodule:drivers/infiniband/**
p154
aVacpi_ec_add_query_handler
p155
aVacpi_ec_remove_query_handler
p156
aVfirst_ec
p157
aVdebugfs_create_automount
p158
aV__gfn_*
p159
aV__kvm_*
p160
aVgfn_*
p161
aVkvm_*
p162
aVmark_page_dirty
p163
aVvcpu_*
p164
aVmodule:arch/powerpc/kvm/*
p165
aVmodule:arch/s390/kvm/*
p166
aVmodule:arch/x86/kvm/*
p167
aV*_evtchn_*
p168
aV*_xen_*
p169
aV*_xenballooned_*
p170
aV*_xenbus_*
p171
aV*_xenstore_*
p172
aVgnttab_*
p173
aVHYPERVISOR_*
p174
aVx86_hyper_xen
p175
aVxen_*
p176
aVxenbus_*
p177
aVreturn_address
p178
aVbr_netfilter_enable
p179
ass(Vbase
p180
Valpha
p181
tp182
(dp183
Vfeaturesets
p184
(lp185
Vnone
p186
asVkernel-arch
p187
Valpha
p188
ss(Vdescription
p189
g181
NValpha-smp
p190
tp191
(dp192
Vhardware
p193
VAlpha SMP
p194
sVhardware-long
p195
VDEC Alpha SMP systems with extended kernel start address (Wildfire, Titan, Marvel)
p196
ss(Vbuild
p197
g181
tp198
(dp199
Vsigned-modules
p200
I00
sVimage-file
p201
Varch/alpha/boot/vmlinux.gz
p202
ss(Vdescription
p203
g181
NValpha-generic
p204
tp205
(dp206
Vhardware
p207
VAlpha
p208
sVhardware-long
p209
VDEC Alpha systems with extended kernel start address (Wildfire, Titan, Marvel)
p210
ss(Vimage
p211
g181
tp212
(dp213
Vsuggests
p214
Vaboot, fdutils
p215
sVinstall-stem
p216
Vvmlinuz
p217
ss(Vbase
p218
g181
g186
tp219
(dp220
Vflavours
p221
(lp222
Valpha-generic
p223
aValpha-smp
p224
asVimplicit-flavour
p225
I01
ss(Vbase
p226
Vamd64
p227
tp228
(dp229
Vfeaturesets
p230
(lp231
Vnone
p232
aVrt
p233
asVkernel-arch
p234
Vx86
p235
ss(Vdescription
p236
g227
NVamd64
p237
tp238
(dp239
Vhardware
p240
V64-bit PCs
p241
sVhardware-long
p242
VPCs with AMD64, Intel 64 or VIA Nano processors
p243
ss(Vbuild
p244
g227
tp245
(dp246
Vvdso
p247
I01
sVimage-file
p248
Varch/x86/boot/bzImage
p249
sVdebug-info
p250
I01
ss(Vrelations
p251
g227
tp252
(dp253
Vheaders%gcc-6
p254
Vlinux-compiler-gcc-6-x86 (>= 4.9.82-1+deb9u1~)
p255
sVgcc-6
p256
Vgcc-6 (>= 6.3.0-18+deb9u1~) <!stage1 !cross>, gcc-6-@gnu-type-package@ (>= 6.3.0-18+deb9u1~) <!stage1 cross>
p257
ss(Vimage
p258
g227
tp259
(dp260
Vbreaks
p261
Vxserver-xorg-input-vmmouse (<< 1:13.0.99), qemu-system-x86 (<< 1:2.5+dfsg-1)
p262
sVinstall-stem
p263
Vvmlinuz
p264
sVbootloaders
p265
(lp266
Vgrub-pc
p267
aVgrub-efi-amd64
p268
aVextlinux
p269
ass(Vbase
p270
g227
Vnone
p271
tp272
(dp273
Vflavours
p274
(lp275
Vamd64
p276
ass(Vdescription
p277
g227
g271
Vamd64
p278
tp279
(dp280
Vparts
p281
(lp282
Vxen
p283
ass(Vbase
p284
g227
Vrt
p285
tp286
(dp287
Vflavours
p288
(lp289
Vamd64
p290
ass(Vbase
p291
Varm64
p292
tp293
(dp294
Vfeaturesets
p295
(lp296
Vnone
p297
asVkernel-arch
p298
Varm64
p299
ss(Vdescription
p300
g292
NVarm64
p301
tp302
(dp303
Vhardware
p304
V64-bit ARMv8 machines
p305
ss(Vbuild
p306
g292
tp307
(dp308
Vvdso
p309
I01
sVimage-file
p310
Varch/arm64/boot/Image
p311
sVdebug-info
p312
I01
ss(Vimage
p313
g292
NVarm64
p314
tp315
(dp316
s(Vimage
p317
g292
tp318
(dp319
Vbreaks
p320
Vlibmozjs185-1.0, libmozjs-24-0 (<< 24.2.0-5.1~)
p321
sVinstall-stem
p322
Vvmlinuz
p323
ss(Vbase
p324
g292
Vnone
p325
tp326
(dp327
Vflavours
p328
(lp329
Varm64
p330
ass(Vbase
p331
Varmel
p332
tp333
(dp334
g184
(lp335
g186
asVkernel-arch
p336
Varm
p337
ss(Vbuild
p338
g332
tp339
(dp340
Vsigned-modules
p341
I00
sVimage-file
p342
Varch/arm/boot/zImage
p343
ss(Vimage
p344
g332
NVmarvell
p345
tp346
(dp347
Vrecommends
p348
Vu-boot-tools
p349
sVbreaks
p350
Vflash-kernel (<< 3.57~)
p351
sVcheck-size-with-dtb
p352
I01
sVcheck-size
p353
L2097080L
ss(Vdescription
p354
g332
NVmarvell
p355
tp356
(dp357
Vhardware
p358
VMarvell Kirkwood/Orion
p359
sVhardware-long
p360
VMarvell Kirkwood based systems (SheevaPlug, QNAP TS-119/TS-219, etc)\u000aand Orion 5181, 5182 and 5281 based systems (QNAP TS-109/TS-209, etc)
p361
ss(Vrelations
p362
g332
tp363
(dp364
Vheaders%gcc-6
p365
Vlinux-compiler-gcc-6-arm
p366
ss(Vimage
p367
g332
tp368
(dp369
Vinstall-stem
p370
Vvmlinuz
p371
ss(g218
g332
g186
tp372
(dp373
g221
(lp374
Vmarvell
p375
asg225
I01
ss(Vbase
p376
Varmhf
p377
tp378
(dp379
g184
(lp380
g186
asVkernel-arch
p381
Varm
p382
ss(Vdescription
p383
g377
NVarmmp
p384
tp385
(dp386
Vhardware
p387
VARMv7 multiplatform compatible SoCs
p388
sVhardware-long
p389
VARMv7 multiplatform kernel. See\u000ahttps://wiki.debian.org/DebianKernel/ARMMP for details of supported\u000aplatforms
p390
ss(Vbuild
p391
g377
tp392
(dp393
Vvdso
p394
I01
sVimage-file
p395
Varch/arm/boot/zImage
p396
ss(Vdescription
p397
g377
NVarmmp-lpae
p398
tp399
(dp400
Vhardware
p401
VARMv7 multiplatform compatible SoCs supporting LPAE
p402
sVhardware-long
p403
VARMv7 multiplatform kernel supporting LPAE. See\u000ahttps://wiki.debian.org/DebianKernel/ARMMP for details of supported\u000aplatforms.
p404
ss(Vrelations
p405
g377
tp406
(dp407
Vheaders%gcc-6
p408
Vlinux-compiler-gcc-6-arm
p409
ss(Vimage
p410
g377
tp411
(dp412
Vinstall-stem
p413
Vvmlinuz
p414
ss(g218
g377
g186
tp415
(dp416
g221
(lp417
Varmmp
p418
aVarmmp-lpae
p419
asg225
I01
ss(Vbase
p420
Vhppa
p421
tp422
(dp423
g184
(lp424
g186
asVkernel-arch
p425
Vparisc
p426
ss(Vbuild
p427
g421
tp428
(dp429
Vsigned-modules
p430
I00
sVimage-file
p431
Vvmlinux
p432
ss(Vdescription
p433
g421
NVparisc64-smp
p434
tp435
(dp436
Vhardware
p437
Vmultiprocessor 64-bit PA-RISC
p438
sVhardware-long
p439
VHP PA-RISC 64-bit SMP systems with support for more than 4 GB RAM
p440
ss(Vbase
p441
g421
NVparisc64-smp
p442
tp443
(dp444
Vcflags
p445
V-fno-cse-follow-jumps
p446
sVoverride-host-type
p447
Vhppa64-linux-gnu
p448
ss(Vrelations
p449
g421
tp450
(dp451
Vgcc-6
p452
Vgcc-6 <!stage1 !cross>, binutils-hppa64-linux-gnu <!stage1 !cross>, gcc-6-hppa64-linux-gnu <!stage1 !cross>, gcc-6-hppa-linux-gnu <!stage1 cross>, binutils-hppa64-linux-gnu <!stage1 cross>, gcc-6-hppa64-linux-gnu <!stage1 cross>
p453
ss(Vdescription
p454
g421
NVparisc
p455
tp456
(dp457
Vhardware
p458
V32-bit PA-RISC
p459
sVhardware-long
p460
VHP PA-RISC 32-bit systems with max 4 GB RAM
p461
ss(Vimage
p462
g421
tp463
(dp464
Vsuggests
p465
Vpalo
p466
sVinstall-stem
p467
Vvmlinux
p468
ss(g218
g421
g186
tp469
(dp470
g221
(lp471
Vparisc
p472
aVparisc64-smp
p473
asg225
I01
ss(Vbase
p474
Vi386
p475
tp476
(dp477
Vfeaturesets
p478
(lp479
Vnone
p480
aVrt
p481
asVkernel-arch
p482
Vx86
p483
ss(Vbuild
p484
g475
tp485
(dp486
Vvdso
p487
I01
sVimage-file
p488
Varch/x86/boot/bzImage
p489
ss(Vdescription
p490
g475
NV686-pae
p491
tp492
(dp493
Vhardware
p494
Vmodern PCs
p495
sVhardware-long
p496
VPCs with one or more processors supporting PAE
p497
sVparts
p498
(lp499
Vpae
p500
ass(Vdescription
p501
g475
tp502
(dp503
Vpart-long-pae
p504
VThis kernel requires PAE (Physical Address Extension).\u000aThis feature is supported by the Intel Pentium Pro/II/III/4/4M/D, Xeon,\u000aCore and Atom; AMD Geode NX, Athlon (K7), Duron, Opteron, Sempron,\u000aTurion or Phenom; Transmeta Efficeon; VIA C7; and some other processors.
p505
ss(Vbuild
p506
g475
NV686-pae
p507
tp508
(dp509
Vdebug-info
p510
I01
ss(Vdescription
p511
g475
NV686
p512
tp513
(dp514
Vhardware
p515
Volder PCs
p516
sVhardware-long
p517
VPCs with one or more processors not supporting PAE
p518
ss(Vrelations
p519
g475
tp520
(dp521
Vheaders%gcc-6
p522
Vlinux-compiler-gcc-6-x86 (>= 4.9.82-1+deb9u1~)
p523
sVgcc-6
p524
Vgcc-6 (>= 6.3.0-18+deb9u1~) <!stage1 !cross>, gcc-6-@gnu-type-package@ (>= 6.3.0-18+deb9u1~) <!stage1 cross>
p525
ss(Vimage
p526
g475
tp527
(dp528
Vbreaks
p529
Vxserver-xorg-input-vmmouse (<< 1:13.0.99), qemu-system-x86 (<< 1:2.5+dfsg-1)
p530
sVinstall-stem
p531
Vvmlinuz
p532
sVbootloaders
p533
(lp534
Vgrub-pc
p535
aVextlinux
p536
ass(Vbase
p537
g475
Vnone
p538
tp539
(dp540
Vflavours
p541
(lp542
V686
p543
aV686-pae
p544
ass(Vdescription
p545
g475
g538
V686-pae
p546
tp547
(dp548
Vparts
p549
(lp550
Vxen
p551
ass(Vbase
p552
g475
Vrt
p553
tp554
(dp555
Vflavours
p556
(lp557
V686-pae
p558
ass(Vbase
p559
Vm68k
p560
tp561
(dp562
Vcflags
p563
V-ffreestanding
p564
sg184
(lp565
g186
asVkernel-arch
p566
Vm68k
p567
ss(Vbuild
p568
g560
tp569
(dp570
Vsigned-modules
p571
I00
sVimage-file
p572
Vvmlinux.gz
p573
ss(Vdescription
p574
g560
NVm68k
p575
tp576
(dp577
Vhardware
p578
VMotorola MC68020+ family
p579
ss(Vimage
p580
g560
tp581
(dp582
Vsuggests
p583
Vvmelilo, fdutils
p584
sVinstall-stem
p585
Vvmlinuz
p586
ss(g218
g560
g186
tp587
(dp588
g221
(lp589
Vm68k
p590
asg225
I01
ss(Vbase
p591
Vmips
p592
tp593
(dp594
g184
(lp595
g186
asVkernel-arch
p596
Vmips
p597
ss(Vbuild
p598
g592
tp599
(dp600
Vsigned-modules
p601
I00
sVimage-file
p602
Vvmlinux
p603
ss(Vimage
p604
g592
NV4kc-malta
p605
tp606
(dp607
Vconfigs
p608
(lp609
Vkernelarch-mips/config.malta
p610
aVkernelarch-mips/config.mips32r2
p611
ass(Vimage
p612
g592
NV5kc-malta
p613
tp614
(dp615
Vconfigs
p616
(lp617
Vkernelarch-mips/config.malta
p618
aVkernelarch-mips/config.mips64r2
p619
ass(Vdescription
p620
g592
NVocteon
p621
tp622
(dp623
Vhardware
p624
VOcteon
p625
sVhardware-long
p626
VCavium Networks Octeon
p627
ss(Vimage
p628
g592
NVocteon
p629
tp630
(dp631
Vconfigs
p632
(lp633
Vkernelarch-mips/config.octeon
p634
ass(Vimage
p635
g592
tp636
(dp637
Vinstall-stem
p638
Vvmlinux
p639
ss(Vdescription
p640
g592
NV5kc-malta
p641
tp642
(dp643
Vhardware
p644
VMIPS Malta (64-bit)
p645
sVhardware-long
p646
VMIPS Malta boards (64-bit)
p647
ss(Vdescription
p648
g592
NV4kc-malta
p649
tp650
(dp651
Vhardware
p652
VMIPS Malta
p653
sVhardware-long
p654
VMIPS Malta boards
p655
ss(g218
g592
g186
tp656
(dp657
g221
(lp658
V4kc-malta
p659
aV5kc-malta
p660
aVocteon
p661
asg225
I01
ss(Vbase
p662
Vmipsel
p663
tp664
(dp665
g184
(lp666
g186
asVkernel-arch
p667
Vmips
p668
ss(Vimage
p669
g663
NVloongson-3
p670
tp671
(dp672
Vconfigs
p673
(lp674
Vkernelarch-mips/config.loongson-3
p675
ass(Vbuild
p676
g663
tp677
(dp678
Vsigned-modules
p679
I00
sVimage-file
p680
Vvmlinux
p681
ss(Vimage
p682
g663
NV4kc-malta
p683
tp684
(dp685
Vconfigs
p686
(lp687
Vkernelarch-mips/config.malta
p688
aVkernelarch-mips/config.mips32r2
p689
ass(Vimage
p690
g663
NV5kc-malta
p691
tp692
(dp693
Vconfigs
p694
(lp695
Vkernelarch-mips/config.malta
p696
aVkernelarch-mips/config.mips64r2
p697
ass(Vdescription
p698
g663
NVocteon
p699
tp700
(dp701
Vhardware
p702
VOcteon
p703
sVhardware-long
p704
VCavium Networks Octeon
p705
ss(Vdescription
p706
g663
NVloongson-3
p707
tp708
(dp709
Vhardware
p710
VLoongson 3A/3B
p711
sVhardware-long
p712
VLoongson 3A or 3B based systems (e.g. from Loongson or Lemote)
p713
ss(Vimage
p714
g663
NVocteon
p715
tp716
(dp717
Vconfigs
p718
(lp719
Vkernelarch-mips/config.octeon
p720
ass(Vimage
p721
g663
tp722
(dp723
Vinstall-stem
p724
Vvmlinux
p725
ss(Vdescription
p726
g663
NV5kc-malta
p727
tp728
(dp729
Vhardware
p730
VMIPS Malta (64-bit)
p731
sVhardware-long
p732
VMIPS Malta boards (64-bit)
p733
ss(Vdescription
p734
g663
NV4kc-malta
p735
tp736
(dp737
Vhardware
p738
VMIPS Malta
p739
sVhardware-long
p740
VMIPS Malta boards
p741
ss(g218
g663
g186
tp742
(dp743
g221
(lp744
V4kc-malta
p745
aV5kc-malta
p746
aVloongson-3
p747
aVocteon
p748
asg225
I01
ss(Vbase
p749
Vmipsn32
p750
tp751
(dp752
Vfeaturesets
p753
(lp754
sVkernel-arch
p755
Vmips
p756
ss(Vbase
p757
Vmipsn32el
p758
tp759
(dp760
Vfeaturesets
p761
(lp762
sVkernel-arch
p763
Vmips
p764
ss(Vbase
p765
Vmips64
p766
tp767
(dp768
g184
(lp769
g186
asVkernel-arch
p770
Vmips
p771
ss(Vbuild
p772
g766
tp773
(dp774
Vsigned-modules
p775
I00
sVimage-file
p776
Vvmlinux
p777
ss(Vimage
p778
g766
NV5kc-malta
p779
tp780
(dp781
Vconfigs
p782
(lp783
Vkernelarch-mips/config.malta
p784
aVkernelarch-mips/config.mips64r2
p785
ass(Vdescription
p786
g766
NVocteon
p787
tp788
(dp789
Vhardware
p790
VOcteon
p791
sVhardware-long
p792
VCavium Networks Octeon
p793
ss(Vimage
p794
g766
tp795
(dp796
Vinstall-stem
p797
Vvmlinux
p798
ss(Vdescription
p799
g766
NV5kc-malta
p800
tp801
(dp802
Vhardware
p803
VMIPS Malta
p804
sVhardware-long
p805
VMIPS Malta boards
p806
ss(Vimage
p807
g766
NVocteon
p808
tp809
(dp810
Vconfigs
p811
(lp812
Vkernelarch-mips/config.octeon
p813
ass(g218
g766
g186
tp814
(dp815
g221
(lp816
V5kc-malta
p817
aVocteon
p818
asg225
I01
ss(Vbase
p819
Vmips64el
p820
tp821
(dp822
g184
(lp823
g186
asVkernel-arch
p824
Vmips
p825
ss(Vimage
p826
g820
NVloongson-3
p827
tp828
(dp829
Vconfigs
p830
(lp831
Vkernelarch-mips/config.loongson-3
p832
ass(Vbuild
p833
g820
tp834
(dp835
Vsigned-modules
p836
I00
sVimage-file
p837
Vvmlinux
p838
ss(Vimage
p839
g820
NV5kc-malta
p840
tp841
(dp842
Vconfigs
p843
(lp844
Vkernelarch-mips/config.malta
p845
aVkernelarch-mips/config.mips64r2
p846
ass(Vdescription
p847
g820
NVocteon
p848
tp849
(dp850
Vhardware
p851
VOcteon
p852
sVhardware-long
p853
VCavium Networks Octeon
p854
ss(Vdescription
p855
g820
NVloongson-3
p856
tp857
(dp858
Vhardware
p859
VLoongson 3A/3B
p860
sVhardware-long
p861
VLoongson 3A or 3B based systems (e.g. from Loongson or Lemote)
p862
ss(Vimage
p863
g820
tp864
(dp865
Vinstall-stem
p866
Vvmlinux
p867
ss(Vdescription
p868
g820
NV5kc-malta
p869
tp870
(dp871
Vhardware
p872
VMIPS Malta
p873
sVhardware-long
p874
VMIPS Malta boards
p875
ss(Vimage
p876
g820
NVocteon
p877
tp878
(dp879
Vconfigs
p880
(lp881
Vkernelarch-mips/config.octeon
p882
ass(g218
g820
g186
tp883
(dp884
g221
(lp885
V5kc-malta
p886
aVloongson-3
p887
aVocteon
p888
asg225
I01
ss(Vbase
p889
Vpowerpc
p890
tp891
(dp892
g184
(lp893
g186
asVkernel-arch
p894
Vpowerpc
p895
ss(Vdescription
p896
g890
NVpowerpc64
p897
tp898
(dp899
Vhardware
p900
V64-bit PowerPC
p901
ss(Vbuild
p902
g890
tp903
(dp904
Vvdso
p905
I01
sVimage-file
p906
Vvmlinux
p907
ss(Vimage
p908
g890
NVpowerpc-smp
p909
tp910
(dp911
Vconfigs
p912
(lp913
Vpowerpc/config.powerpc
p914
aVpowerpc/config.powerpc-smp
p915
ass(Vdescription
p916
g890
NVpowerpc
p917
tp918
(dp919
Vhardware
p920
Vuniprocessor 32-bit PowerPC
p921
ss(Vimage
p922
g890
NVpowerpc64
p923
tp924
(dp925
Vconfigs
p926
(lp927
Vkernelarch-powerpc/config-arch-64
p928
aVkernelarch-powerpc/config-arch-64-be
p929
ass(Vdescription
p930
g890
NVpowerpc-smp
p931
tp932
(dp933
Vhardware
p934
Vmultiprocessor 32-bit PowerPC
p935
ss(Vimage
p936
g890
tp937
(dp938
Vsuggests
p939
Vmkvmlinuz
p940
sVinstall-stem
p941
Vvmlinux
p942
sVconfigs
p943
(lp944
ss(g218
g890
g186
tp945
(dp946
g221
(lp947
Vpowerpc
p948
aVpowerpc-smp
p949
aVpowerpc64
p950
asg225
I01
ss(Vbase
p951
Vpowerpcspe
p952
tp953
(dp954
g184
(lp955
g186
asVkernel-arch
p956
Vpowerpc
p957
ss(Vbuild
p958
g952
tp959
(dp960
Vsigned-modules
p961
I00
sVimage-file
p962
Vvmlinux
p963
sVvdso
p964
I01
ss(Vimage
p965
g952
tp966
(dp967
Vsuggests
p968
Vmkvmlinuz
p969
sVinstall-stem
p970
Vvmlinux
p971
ss(Vdescription
p972
g952
tp973
(dp974
Vhardware
p975
V32-bit PowerPC with SPE (instead of AltiVec) with SMP support
p976
ss(g218
g952
g186
tp977
(dp978
g221
(lp979
Vpowerpcspe
p980
asg225
I01
ss(Vbase
p981
Vppc64
p982
tp983
(dp984
g184
(lp985
g186
asVkernel-arch
p986
Vpowerpc
p987
ss(Vdescription
p988
g982
NVpowerpc64
p989
tp990
(dp991
Vhardware
p992
V64-bit PowerPC
p993
ss(Vbuild
p994
g982
tp995
(dp996
Vsigned-modules
p997
I00
sVimage-file
p998
Vvmlinux
p999
sVvdso
p1000
I01
ss(Vimage
p1001
g982
NVpowerpc64
p1002
tp1003
(dp1004
Vconfigs
p1005
(lp1006
Vkernelarch-powerpc/config-arch-64
p1007
aVkernelarch-powerpc/config-arch-64-be
p1008
ass(Vimage
p1009
g982
tp1010
(dp1011
Vsuggests
p1012
Vmkvmlinuz
p1013
sVinstall-stem
p1014
Vvmlinux
p1015
sVconfigs
p1016
(lp1017
ss(g218
g982
g186
tp1018
(dp1019
g221
(lp1020
Vpowerpc64
p1021
asg225
I01
ss(Vbase
p1022
Vppc64el
p1023
tp1024
(dp1025
g184
(lp1026
g186
asVkernel-arch
p1027
Vpowerpc
p1028
ss(Vdescription
p1029
g1023
NVpowerpc64le
p1030
tp1031
(dp1032
Vhardware
p1033
VLittle-endian 64-bit PowerPC
p1034
ss(Vbuild
p1035
g1023
tp1036
(dp1037
Vvdso
p1038
I01
sVimage-file
p1039
Vvmlinux
p1040
ss(Vimage
p1041
g1023
tp1042
(dp1043
Vsuggests
p1044
Vmkvmlinuz
p1045
sVinstall-stem
p1046
Vvmlinux
p1047
sVconfigs
p1048
(lp1049
ss(Vimage
p1050
g1023
NVpowerpc64le
p1051
tp1052
(dp1053
Vconfigs
p1054
(lp1055
Vkernelarch-powerpc/config-arch-64
p1056
aVkernelarch-powerpc/config-arch-64-le
p1057
ass(g218
g1023
g186
tp1058
(dp1059
g221
(lp1060
Vpowerpc64le
p1061
asg225
I01
ss(Vbase
p1062
Vs390
p1063
tp1064
(dp1065
Vfeaturesets
p1066
(lp1067
sVkernel-arch
p1068
Vs390
p1069
ss(Vbase
p1070
Vs390x
p1071
tp1072
(dp1073
g184
(lp1074
g186
asVkernel-arch
p1075
Vs390
p1076
ss(Vdescription
p1077
g1071
NVs390x
p1078
tp1079
(dp1080
Vhardware
p1081
VIBM zSeries
p1082
ss(Vbuild
p1083
g1071
tp1084
(dp1085
Vvdso
p1086
I01
sVimage-file
p1087
Varch/s390/boot/image
p1088
ss(Vbuild
p1089
g1071
NVs390x
p1090
tp1091
(dp1092
Vdebug-info
p1093
I01
ss(Vrelations
p1094
g1071
tp1095
(dp1096
Vheaders%gcc-6
p1097
Vlinux-compiler-gcc-6-s390
p1098
ss(Vimage
p1099
g1071
tp1100
(dp1101
Vinstall-stem
p1102
Vvmlinuz
p1103
sVbootloaders
p1104
(lp1105
Vs390-tools
p1106
ass(g218
g1071
g186
tp1107
(dp1108
g221
(lp1109
Vs390x
p1110
asg225
I01
ss(Vbase
p1111
Vsh3
p1112
tp1113
(dp1114
Vfeaturesets
p1115
(lp1116
sVkernel-arch
p1117
Vsh
p1118
ss(Vbase
p1119
Vsh4
p1120
tp1121
(dp1122
g184
(lp1123
g186
asVkernel-arch
p1124
Vsh
p1125
ss(Vbuild
p1126
g1120
tp1127
(dp1128
Vsigned-modules
p1129
I00
sVimage-file
p1130
Varch/sh/boot/zImage
p1131
ss(Vdescription
p1132
g1120
NVsh7751r
p1133
tp1134
(dp1135
Vhardware
p1136
Vsh7751r
p1137
sVhardware-long
p1138
VRenesas SH7751R R2D plus board
p1139
ss(Vdescription
p1140
g1120
NVsh7785lcr
p1141
tp1142
(dp1143
Vhardware
p1144
Vsh7785lcr
p1145
sVhardware-long
p1146
VRenesas SH7785 reference board
p1147
ss(Vimage
p1148
g1120
tp1149
(dp1150
Vinstall-stem
p1151
Vvmlinuz
p1152
ss(Vimage
p1153
g1120
NVsh7785lcr
p1154
tp1155
(dp1156
Vrecommends
p1157
Vu-boot-tools
p1158
sVcheck-size
p1159
L4194304L
ss(g218
g1120
g186
tp1160
(dp1161
g221
(lp1162
Vsh7751r
p1163
aVsh7785lcr
p1164
asg225
I01
ss(Vbase
p1165
Vsparc
p1166
tp1167
(dp1168
Vfeaturesets
p1169
(lp1170
sVkernel-arch
p1171
Vsparc
p1172
ss(Vbase
p1173
Vsparc64
p1174
tp1175
(dp1176
g184
(lp1177
g186
asVkernel-arch
p1178
Vsparc
p1179
ss(Vbuild
p1180
g1174
tp1181
(dp1182
Vsigned-modules
p1183
I00
sVimage-file
p1184
Varch/sparc/boot/zImage
p1185
ss(Vimage
p1186
g1174
NVsparc64
p1187
tp1188
(dp1189
Vconfigs
p1190
(lp1191
Vkernelarch-sparc/config-up
p1192
ass(Vimage
p1193
g1174
NVsparc64-smp
p1194
tp1195
(dp1196
Vconfigs
p1197
(lp1198
Vkernelarch-sparc/config-smp
p1199
ass(Vimage
p1200
g1174
tp1201
(dp1202
Vsuggests
p1203
Vsilo, fdutils
p1204
sVinstall-stem
p1205
Vvmlinuz
p1206
sVconfigs
p1207
(lp1208
ss(Vdescription
p1209
g1174
NVsparc64-smp
p1210
tp1211
(dp1212
Vhardware
p1213
Vmultiprocessor 64-bit UltraSPARC
p1214
ss(Vdescription
p1215
g1174
NVsparc64
p1216
tp1217
(dp1218
Vhardware
p1219
Vuniprocessor 64-bit UltraSPARC
p1220
ss(g218
g1174
g186
tp1221
(dp1222
g221
(lp1223
Vsparc64
p1224
aVsparc64-smp
p1225
asg225
I01
ss(Vbase
p1226
Vtilegx
p1227
tp1228
(dp1229
Vfeaturesets
p1230
(lp1231
sVkernel-arch
p1232
Vtile
p1233
ss(Vbase
p1234
Vx32
p1235
tp1236
(dp1237
Vfeaturesets
p1238
(lp1239
sVkernel-arch
p1240
Vx86
p1241
ss(Vdescription
p1242
NVrt
p1243
tp1244
(dp1245
Vparts
p1246
(lp1247
Vrt
p1248
asVpart-long-rt
p1249
VThis kernel includes the PREEMPT_RT realtime patch set.
p1250
sVpart-short-rt
p1251
VPREEMPT_RT
p1252
ss(Vabi
p1253
Ng1243
tp1254
(dp1255
Vignore-changes
p1256
(lp1257
V*
p1258
ass(Vversion
p1259
tp1260
(dp1261
Vupstream
p1262
V4.9
p1263
sVsource
p1264
V4.9.290-1
p1265
sVabiname
p1266
V4.9.0-17
p1267
sVabiname_base
p1268
V4.9.0
p1269
ss.