ccopy_reg
_reconstructor
p1
(cdebian_linux.config
ConfigCore
p2
c__builtin__
dict
p3
(dp4
(S'image'
S'amd64'
p5
tp6
(dp7
S'configs'
p8
(lp9
S'kernelarch-x86/config'
p10
asS'bootloaders'
p11
(lp12
S'grub-pc'
p13
aS'extlinux'
p14
aS'lilo'
p15
ass(S'description'
S'i386'
p16
NS'686-pae'
tp17
(dp18
S'hardware'
p19
S'modern PCs'
p20
sS'parts'
p21
(lp22
S'pae'
p23
asS'hardware-long'
p24
S'PCs with one or more processors supporting PAE'
p25
ss(S'base'
g5
S'none'
p26
tp27
(dp28
S'flavours'
p29
(lp30
S'amd64'
p31
ass(S'description'
S'm68k'
p32
NS'amiga'
tp33
(dp34
S'hardware'
p35
S'Amiga'
p36
ss(S'image'
S'ia64'
p37
tp38
(dp39
S'suggests'
p40
S'fdutils'
p41
sS'bootloaders'
p42
(lp43
S'elilo'
p44
ass(S'description'
S's390'
p45
NS's390x'
tp46
(dp47
S'hardware'
p48
S'IBM zSeries'
p49
sS'parts'
p50
(lp51
S'reader'
p52
ass(S'build'
S'armhf'
p53
NS'rpi'
tp54
(dp55
S'image-file'
p56
S'arch/arm/boot/zImage'
p57
ss(S'xen'
g16
S'none'
p58
S'amd64'
tp59
(dp60
S'flavours'
p61
(lp62
S'amd64'
p63
asS'dom0-support'
p64
I01
ss(S'image'
S'ppc64'
p65
NS'powerpc64'
tp66
(dp67
S'configs'
p68
(lp69
S'powerpc/config.powerpc64'
p70
ass(S'version'
p71
tp72
(dp73
S'abiname'
p74
S'3.2.0-4'
p75
sS'source'
p76
V3.2.51-1+rpi1
p77
ss(S'build'
S'armel'
p78
NS'kirkwood'
tp79
(dp80
S'image-file'
p81
S'arch/arm/boot/zImage'
p82
ss(S'description'
g5
g26
S'amd64'
tp83
(dp84
S'parts'
p85
(lp86
S'xen'
p87
ass(S'build'
g45
NS's390x-tape'
tp88
(dp89
S'modules'
p90
I00
ss(S'base'
p91
g65
S'none'
p92
tp93
(dp94
S'implicit-flavour'
p95
I01
sS'flavours'
p96
(lp97
S'powerpc64'
p98
ass(S'image'
S'sh4'
p99
NS'sh7785lcr'
tp100
(dp101
S'check-size'
p102
S'4194304'
p103
sS'recommends'
p104
S'uboot-mkimage'
p105
ss(S'description'
S'mips'
p106
NS'octeon'
tp107
(dp108
S'hardware'
p109
S'Octeon'
p110
sS'hardware-long'
p111
S'Cavium Networks Octeon'
p112
ss(S'base'
S'alpha'
p113
tp114
(dp115
S'kernel-arch'
p116
S'alpha'
p117
sS'featuresets'
p118
(lp119
g92
ass(S'image'
g78
NS'ixp4xx'
tp120
(dp121
S'check-size'
p122
S'1441760'
p123
ss(S'image'
g45
NS's390-tape'
tp124
(dp125
S'override-localversion'
p126
S's390'
p127
sS'type'
p128
S'plain-s390-tape'
p129
sS'initramfs'
p130
I00
ss(g91
g53
g92
tp131
(dp132
g95
I01
sg96
(lp133
S'rpi'
p134
ass(S'base'
g53
tp135
(dp136
S'kernel-arch'
p137
S'arm'
p138
sg118
(lp139
g92
ass(S'description'
S'sparc'
p140
NS'sparc64'
tp141
(dp142
S'hardware'
p143
S'uniprocessor 64-bit UltraSPARC'
p144
ss(S'description'
g37
NS'itanium'
tp145
(dp146
S'hardware'
p147
S'Itanium'
p148
ss(S'base'
g16
S'rt'
tp149
(dp150
S'flavours'
p151
(lp152
S'686-pae'
p153
ass(S'build'
g78
NS'iop32x'
tp154
(dp155
S'image-file'
p156
S'arch/arm/boot/zImage'
p157
ss(S'description'
g37
NS'mckinley'
tp158
(dp159
S'hardware'
p160
S'Itanium II'
p161
ss(S'build'
g53
NS'mx5'
tp162
(dp163
S'image-file'
p164
S'arch/arm/boot/zImage'
p165
ss(S'image'
S'powerpc'
p166
tp167
(dp168
S'suggests'
p169
S'mkvmlinuz'
p170
ss(S'description'
g106
NS'4kc-malta'
tp171
(dp172
S'hardware'
p173
S'MIPS Malta'
p174
sS'hardware-long'
p175
S'MIPS Malta boards'
p176
ss(S'base'
g5
S'rt'
tp177
(dp178
S'flavours'
p179
(lp180
S'amd64'
p181
ass(S'description'
g78
NS'iop32x'
tp182
(dp183
S'hardware'
p184
S'IOP32x'
p185
sS'hardware-long'
p186
S'IOP32x based systems (Thecus N2100, etc)'
p187
ss(S'description'
g16
g58
S'amd64'
tp188
(dp189
S'parts'
p190
(lp191
S'xen'
p192
ass(S'description'
g166
NS'powerpc-smp'
tp193
(dp194
S'hardware'
p195
S'multiprocessor 32-bit PowerPC'
p196
ss(S'base'
g16
tp197
(dp198
S'kernel-arch'
p199
S'x86'
p200
sS'featuresets'
p201
(lp202
S'none'
p203
aS'rt'
p204
ass(S'base'
S'mipsel'
p205
tp206
(dp207
S'kernel-arch'
p208
S'mips'
p209
sg118
(lp210
g92
ass(S'description'
g140
NS'sparc32'
tp211
(dp212
S'hardware'
p213
S'uniprocessor sparc32 (sun4m)'
p214
ss(S'image'
S's390x'
p215
NS's390x-tape'
tp216
(dp217
S'configs'
p218
(lp219
S's390/config.s390x-tape'
p220
asS'override-localversion'
p221
S's390x'
p222
sS'type'
p223
S'plain-s390-tape'
p224
sS'initramfs'
p225
I00
ss(S'description'
g205
NS'4kc-malta'
tp226
(dp227
S'hardware'
p228
S'MIPS Malta'
p229
sS'hardware-long'
p230
S'MIPS Malta boards'
p231
ss(g91
g205
g92
tp232
(dp233
g95
I01
sg96
(lp234
S'r5k-cobalt'
p235
aS'sb1-bcm91250a'
p236
aS'sb1a-bcm91480b'
p237
aS'4kc-malta'
p238
aS'5kc-malta'
p239
aS'loongson-2f'
p240
ass(S'description'
g65
NS'powerpc64'
tp241
(dp242
S'hardware'
p243
S'64-bit PowerPC'
p244
ss(S'relations'
tp245
(dp246
S'initramfs-fallback'
p247
S'linux-initramfs-tool'
p248
sS'gcc-4.5'
p249
S'gcc-4.5'
p250
sS'gcc-4.6'
p251
S'gcc-4.6'
p252
sS'initramfs-tools'
p253
S'initramfs-tools (>= 0.99~)'
p254
sS'gcc-4.4'
p255
S'gcc-4.4'
p256
ss(S'description'
g205
NS'sb1a-bcm91480b'
tp257
(dp258
S'hardware'
p259
S'BCM91480B'
p260
sS'hardware-long'
p261
S'Broadcom BCM91480B systems (aka BigSur)'
p262
ss(S'image'
g78
NS'orion5x'
tp263
(dp264
S'check-size'
p265
S'1572792'
p266
sS'recommends'
p267
S'uboot-mkimage'
p268
ss(S'description'
g78
NS'mv78xx0'
tp269
(dp270
S'hardware'
p271
S'Marvell 78xx0'
p272
sS'hardware-long'
p273
S'Marvell DB-78xx0-BP Development Board'
p274
ss(S'description'
g78
NS'ixp4xx'
tp275
(dp276
S'hardware'
p277
S'IXP4xx'
p278
sS'hardware-long'
p279
S'IXP4xx based systems (Linksys NSLU2, etc)'
p280
ss(S'description'
g53
NS'omap'
tp281
(dp282
S'hardware'
p283
S'TI OMAP3+'
p284
sS'hardware-long'
p285
S'Texas Instruments OMAP3 or OMAP4 based systems'
p286
ss(g91
g99
g92
tp287
(dp288
g95
I01
sg96
(lp289
S'sh7751r'
p290
aS'sh7785lcr'
p291
ass(S'description'
g78
NS'versatile'
tp292
(dp293
S'hardware'
p294
S'Versatile'
p295
sS'hardware-long'
p296
S'Versatile systems (PB, AB, Qemu)'
p297
ss(S'description'
g32
NS'bvme6000'
tp298
(dp299
S'hardware'
p300
S'BVM BVME4000 and BVME6000'
p301
ss(S'description'
g140
NS'sparc64-smp'
tp302
(dp303
S'hardware'
p304
S'multiprocessor 64-bit UltraSPARC'
p305
ss(S'description'
S'sparc64'
p306
NS'sparc64-smp'
tp307
(dp308
S'hardware'
p309
S'multiprocessor 64-bit UltraSPARC'
p310
ss(S'base'
g78
tp311
(dp312
S'kernel-arch'
p313
S'arm'
p314
sg118
(lp315
g92
ass(S'build'
g99
NS'sh7751r'
tp316
(dp317
S'image-file'
p318
S'arch/sh/boot/zImage'
p319
ss(S'base'
g140
tp320
(dp321
S'kernel-arch'
p322
S'sparc'
p323
sg118
(lp324
g92
ass(S'description'
g53
NS'rpi'
tp325
(dp326
S'hardware'
p327
S'RaspberryPI'
p328
sS'hardware-long'
p329
S'Raspberry PI'
p330
ss(S'image'
g215
NS's390x'
tp331
(dp332
S'configs'
p333
(lp334
S's390/config.s390x'
p335
ass(S'description'
g99
NS'sh7751r'
tp336
(dp337
S'hardware'
p338
S'sh7751r'
p339
sS'hardware-long'
p340
S'Renesas SH7751R R2D plus board'
p341
ss(S'image'
g205
NS'loongson-2f'
tp342
(dp343
S'recommends'
p344
S'libc6-loongson2f'
p345
ss(g91
g45
g92
tp346
(dp347
g95
I01
sg96
(lp348
S's390x'
p349
aS's390x-tape'
p350
ass(g91
g215
g92
tp351
(dp352
g95
I01
sg96
(lp353
S's390x'
p354
aS's390x-tape'
p355
ass(S'base'
g106
tp356
(dp357
S'kernel-arch'
p358
S'mips'
p359
sg118
(lp360
g92
ass(S'build'
g215
NS's390x-tape'
tp361
(dp362
S'modules'
p363
I00
ss(S'build'
g5
tp364
(dp365
S'debug-info'
p366
I01
ss(S'description'
g32
NS'mvme147'
tp367
(dp368
S'hardware'
p369
S'Motorola MVME147'
p370
ss(S'image'
g205
tp371
(dp372
S'configs'
p373
(lp374
S'kernelarch-mips/config'
p375
aS'mipsel/config'
p376
asS'initramfs'
p377
I00
ss(S'image'
g205
NS'sb1-bcm91250a'
tp378
(dp379
S'configs'
p380
(lp381
S'mips/config.sb1-bcm91250a'
p382
ass(S'xen'
g16
g58
S'686-pae'
tp383
(dp384
S'flavours'
p385
(lp386
S'i386'
p387
aS'amd64'
p388
asS'dom0-support'
p389
I01
ss(S'description'
g215
NS's390x'
tp390
(dp391
S'hardware'
p392
S'IBM zSeries'
p393
sS'parts'
p394
(lp395
S'reader'
p396
ass(S'description'
g78
NS'orion5x'
tp397
(dp398
S'hardware'
p399
S'Marvell Orion'
p400
sS'hardware-long'
p401
S'Marvell Orion 5181, 5182 and 5281 based systems (QNAP TS-109/TS-209, etc)'
p402
ss(S'image'
g78
NS'iop32x'
tp403
(dp404
S'check-size'
p405
S'1441784'
p406
ss(S'base'
g5
tp407
(dp408
S'kernel-arch'
p409
S'x86'
p410
sS'featuresets'
p411
(lp412
S'none'
p413
aS'rt'
p414
ass(S'description'
g166
NS'powerpc'
tp415
(dp416
S'hardware'
p417
S'uniprocessor 32-bit PowerPC'
p418
ss(S'image'
tp419
(dp420
S'initramfs-generators'
p421
(lp422
S'initramfs-tools'
p423
aS'initramfs-fallback'
p424
asS'type'
p425
S'plain'
p426
ss(S'description'
g16
NS'amd64'
tp427
(dp428
S'hardware'
p429
S'64-bit PCs'
p430
sS'hardware-long'
p431
S'PCs with AMD64, Intel 64 or VIA Nano processors'
p432
ss(S'build'
g78
NS'orion5x'
tp433
(dp434
S'image-file'
p435
S'arch/arm/boot/zImage'
p436
ss(S'image'
g53
NS'omap'
tp437
(dp438
S'recommends'
p439
S'uboot-mkimage'
p440
ss(g91
g78
g92
tp441
(dp442
g95
I01
sg96
(lp443
S'iop32x'
p444
aS'ixp4xx'
p445
aS'kirkwood'
p446
aS'mv78xx0'
p447
aS'orion5x'
p448
aS'versatile'
p449
ass(S'base'
g37
tp450
(dp451
S'kernel-arch'
p452
S'ia64'
p453
sg118
(lp454
g92
ass(S'description'
S'hppa'
p455
NS'parisc64-smp'
tp456
(dp457
S'hardware'
p458
S'multiprocessor 64-bit PA-RISC'
p459
ss(S'base'
g455
NS'parisc64'
tp460
(dp461
S'override-host-type'
p462
S'hppa64-linux-gnu'
p463
sS'cflags'
p464
S'-fno-cse-follow-jumps'
p465
ss(S'description'
g16
tp466
(dp467
S'part-long-pae'
p468
S'This kernel requires PAE (Physical Address Extension).\nThis feature is supported by the Intel Pentium Pro/II/III/4/4M/D, Xeon,\nCore and Atom; AMD Geode NX, Athlon (K7), Duron, Opteron, Sempron,\nTurion or Phenom; Transmeta Efficeon; VIA C7; and some other processors.'
p469
ss(S'base'
g16
g58
tp470
(dp471
S'flavours'
p472
(lp473
S'486'
p474
aS'686-pae'
p475
aS'amd64'
p476
ass(S'xen'
g5
g26
S'amd64'
tp477
(dp478
S'flavours'
p479
(lp480
S'amd64'
p481
asS'dom0-support'
p482
I01
ss(S'build'
g215
NS's390x'
tp483
(dp484
S'debug-info'
p485
I01
ss(S'image'
g78
tp486
(dp487
S'suggests'
p488
S'fdutils'
p489
ss(S'image'
g45
tp490
(dp491
S'bootloaders'
p492
(lp493
S's390-tools'
p494
ass(S'abi'
g215
tp495
(dp496
S'ignore-changes'
p497
(lp498
S'arch_pick_mmap_layout'
p499
ass(S'abi'
g5
tp500
(dp501
S'ignore-changes'
p502
(lp503
S'module:arch/x86/kvm/kvm'
p504
ass(S'image'
g455
tp505
(dp506
S'suggests'
p507
S'palo'
p508
ss(S'abi'
g106
tp509
(dp510
S'ignore-changes'
p511
(lp512
S'vgacon_*'
p513
ass(S'relations'
g455
tp514
(dp515
S'gcc-4.4'
p516
S'gcc-4.4, binutils-hppa64, gcc-4.4-hppa64'
p517
ss(S'description'
g215
NS's390x-tape'
tp518
(dp519
S'hardware'
p520
S'IBM zSeries'
p521
sS'parts'
p522
(lp523
S'tape'
p524
ass(S'abi'
g45
tp525
(dp526
S'ignore-changes'
p527
(lp528
S'arch_pick_mmap_layout'
p529
ass(S'image'
g306
NS'sparc64-smp'
tp530
(dp531
S'configs'
p532
(lp533
S'sparc/config.sparc64-smp'
p534
ass(S'base'
NS'rt'
tp535
(dp536
S'enabled'
p537
I01
ss(g91
g455
g92
tp538
(dp539
g95
I01
sg96
(lp540
S'parisc'
p541
aS'parisc-smp'
p542
aS'parisc64'
p543
aS'parisc64-smp'
p544
ass(S'image'
g113
tp545
(dp546
S'suggests'
p547
S'aboot, fdutils'
p548
ss(S'description'
g205
NS'r5k-cobalt'
tp549
(dp550
S'hardware'
p551
S'Cobalt'
p552
sS'hardware-long'
p553
S'Cobalt systems (Qube, RaQ, Qube2, RaQ2)'
p554
ss(S'base'
g306
tp555
(dp556
S'kernel-arch'
p557
S'sparc'
p558
sg118
(lp559
g92
ass(S'image'
g16
tp560
(dp561
S'configs'
p562
(lp563
S'kernelarch-x86/config'
p564
asS'bootloaders'
p565
(lp566
S'grub-pc'
p567
aS'extlinux'
p568
aS'lilo'
p569
ass(S'image'
g205
NS'4kc-malta'
tp570
(dp571
S'configs'
p572
(lp573
S'mips/config.4kc-malta'
p574
ass(S'description'
g99
NS'sh7785lcr'
tp575
(dp576
S'hardware'
p577
S'sh7785lcr'
p578
sS'hardware-long'
p579
S'Renesas SH7785 reference board'
p580
ss(S'base'
g215
tp581
(dp582
S'kernel-arch'
p583
S's390'
p584
sg118
(lp585
g92
ass(S'description'
g106
NS'5kc-malta'
tp586
(dp587
S'hardware'
p588
S'MIPS Malta (64-bit)'
p589
sS'hardware-long'
p590
S'MIPS Malta boards (64-bit)'
p591
ss(S'description'
g106
NS'r5k-ip32'
tp592
(dp593
S'hardware'
p594
S'SGI IP32'
p595
sS'hardware-long'
p596
S'SGI IP32 systems (O2)'
p597
ss(S'image'
g65
tp598
(dp599
S'suggests'
p600
S'mkvmlinuz'
p601
sS'configs'
p602
(lp603
S'powerpc/config'
p604
ass(S'image'
g106
tp605
(dp606
S'configs'
p607
(lp608
S'kernelarch-mips/config'
p609
aS'mips/config'
p610
asS'initramfs'
p611
I00
ss(S'image'
g78
NS'kirkwood'
tp612
(dp613
S'check-size'
p614
S'2097080'
p615
sS'recommends'
p616
S'uboot-mkimage'
p617
ss(g91
g140
g92
tp618
(dp619
g95
I01
sg96
(lp620
S'sparc64'
p621
aS'sparc64-smp'
p622
ass(S'base'
g65
tp623
(dp624
S'kernel-arch'
p625
S'powerpc'
p626
sg118
(lp627
g92
ass(g91
g113
g92
tp628
(dp629
g95
I01
sg96
(lp630
S'alpha-generic'
p631
aS'alpha-smp'
p632
aS'alpha-legacy'
p633
ass(S'description'
g16
g58
S'686-pae'
tp634
(dp635
S'parts'
p636
(lp637
S'xen'
p638
ass(g91
g37
g92
tp639
(dp640
g95
I01
sg96
(lp641
S'itanium'
p642
aS'mckinley'
p643
ass(S'description'
g45
tp644
(dp645
S'part-short-tape'
p646
S'IPL from tape'
p647
sS'part-long-tape'
p648
S'This kernel has support to IPL (boot) from a tape.'
p649
sS'part-long-reader'
p650
S'This kernel has support to IPL (boot) from a VM reader or DASD device.'
p651
ss(g91
g106
g92
tp652
(dp653
g95
I01
sg96
(lp654
S'r4k-ip22'
p655
aS'r5k-ip32'
p656
aS'sb1-bcm91250a'
p657
aS'sb1a-bcm91480b'
p658
aS'4kc-malta'
p659
aS'5kc-malta'
p660
aS'octeon'
p661
ass(S'image'
g306
NS'sparc64'
tp662
(dp663
S'configs'
p664
(lp665
S'sparc/config.sparc64'
p666
ass(S'description'
g166
NS'powerpc64'
tp667
(dp668
S'hardware'
p669
S'64-bit PowerPC'
p670
ss(S'image'
g32
tp671
(dp672
S'suggests'
p673
S'vmelilo, fdutils'
p674
sS'initramfs'
p675
I00
ss(S'description'
g106
NS'r4k-ip22'
tp676
(dp677
S'hardware'
p678
S'SGI IP22'
p679
sS'hardware-long'
p680
S'SGI IP22 systems (Indy, Indigo2)'
p681
ss(S'image'
g166
NS'powerpc-smp'
tp682
(dp683
S'configs'
p684
(lp685
S'powerpc/config.powerpc'
p686
aS'powerpc/config.powerpc-smp'
p687
ass(S'image'
g140
NS'sparc32'
tp688
(dp689
S'image-postproc'
p690
S'sparc32-image-postproc'
p691
ss(S'description'
g53
NS'vexpress'
tp692
(dp693
S'hardware'
p694
S'ARM Ltd. Versatile Express'
p695
sS'hardware-long'
p696
S'ARM Ltd. Versatile Express family of processors'
p697
ss(S'image'
g99
tp698
(dp699
S'suggests'
p700
S'fdutils'
p701
ss(S'base'
g455
tp702
(dp703
S'kernel-arch'
p704
S'parisc'
p705
sg118
(lp706
g92
asS'compiler'
p707
S'gcc-4.4'
p708
ss(S'description'
g78
NS'kirkwood'
tp709
(dp710
S'hardware'
p711
S'Marvell Kirkwood'
p712
sS'hardware-long'
p713
S'Marvell Kirkwood based systems (SheevaPlug, QNAP TS-119/TS-219, etc)'
p714
ss(S'description'
g32
NS'mvme16x'
tp715
(dp716
S'hardware'
p717
S'Motorola MVME162/6/7, MVME172/7'
p718
ss(S'base'
g99
tp719
(dp720
S'kernel-arch'
p721
S'sh'
p722
sg118
(lp723
g92
ass(S'build'
g16
NS'686-pae'
tp724
(dp725
S'debug-info'
p726
I01
ss(S'abi'
g205
tp727
(dp728
S'ignore-changes'
p729
(lp730
S'vgacon_*'
p731
ass(S'image'
g140
tp732
(dp733
S'suggests'
p734
S'silo, fdutils'
p735
ss(S'description'
NS'rt'
p736
tp737
(dp738
S'part-long-rt'
p739
S'This kernel includes the PREEMPT_RT realtime patch set.'
p740
sS'parts'
p741
(lp742
S'rt'
p743
asS'part-short-rt'
p744
S'PREEMPT_RT'
p745
ss(S'description'
tp746
(dp747
S'part-long-up'
p748
S'This kernel is not suitable for SMP (multi-processor,\nmulti-core or hyper-threaded) systems.'
p749
sS'part-long-xen'
p750
S'This kernel also runs on a Xen hypervisor.\nIt supports both privileged (dom0) and unprivileged (domU) operation.'
p751
ss(S'description'
g205
NS'sb1-bcm91250a'
tp752
(dp753
S'hardware'
p754
S'BCM91250A'
p755
sS'hardware-long'
p756
S'Broadcom BCM91250A systems (aka SWARM)'
p757
ss(S'build'
g45
NS's390-tape'
tp758
(dp759
S'modules'
p760
I00
ss(S'build'
g78
NS'mv78xx0'
tp761
(dp762
S'image-file'
p763
S'arch/arm/boot/zImage'
p764
ss(S'image'
g16
NS'amd64'
tp765
(dp766
S'configs'
p767
(lp768
S'kernelarch-x86/config-arch-64'
p769
asS'recommends'
p770
S'libc6-i686'
p771
ss(S'description'
g113
NS'alpha-generic'
tp772
(dp773
S'hardware'
p774
S'Alpha'
p775
sS'hardware-long'
p776
S'DEC Alpha systems with extended kernel start address (Wildfire, Titan, Marvel)'
p777
ss(S'base'
g45
tp778
(dp779
S'kernel-arch'
p780
S's390'
p781
sg118
(lp782
g92
ass(S'image'
g306
tp783
(dp784
S'suggests'
p785
S'silo, fdutils'
p786
sS'configs'
p787
(lp788
S'sparc/config'
p789
ass(S'description'
g106
NS'sb1-bcm91250a'
tp790
(dp791
S'hardware'
p792
S'BCM91250A'
p793
sS'hardware-long'
p794
S'Broadcom BCM91250A systems (aka SWARM)'
p795
ss(S'image'
g45
NS's390x-tape'
tp796
(dp797
S'override-localversion'
p798
S's390x'
p799
sS'type'
p800
S'plain-s390-tape'
p801
sS'initramfs'
p802
I00
ss(S'build'
g99
NS'sh7785lcr'
tp803
(dp804
S'image-file'
p805
S'arch/sh/boot/zImage'
p806
ss(S'base'
g166
tp807
(dp808
S'kernel-arch'
p809
S'powerpc'
p810
sg118
(lp811
g92
ass(S'description'
g32
NS'atari'
tp812
(dp813
S'hardware'
p814
S'Atari'
p815
ss(S'base'
g455
NS'parisc64-smp'
tp816
(dp817
S'override-host-type'
p818
S'hppa64-linux-gnu'
p819
sS'cflags'
p820
S'-fno-cse-follow-jumps'
p821
ss(S'description'
g113
NS'alpha-smp'
tp822
(dp823
S'hardware'
p824
S'Alpha SMP'
p825
sS'hardware-long'
p826
S'DEC Alpha SMP systems with extended kernel start address (Wildfire, Titan, Marvel)'
p827
ss(S'description'
g32
NS'mac'
tp828
(dp829
S'hardware'
p830
S'Macintosh'
p831
ss(S'build'
g53
NS'vexpress'
tp832
(dp833
S'image-file'
p834
S'arch/arm/boot/zImage'
p835
ss(S'description'
g205
NS'5kc-malta'
tp836
(dp837
S'hardware'
p838
S'MIPS Malta (64-bit)'
p839
sS'hardware-long'
p840
S'MIPS Malta boards (64-bit)'
p841
ss(S'image'
g205
NS'5kc-malta'
tp842
(dp843
S'configs'
p844
(lp845
S'mips/config.5kc-malta'
p846
ass(S'description'
g215
tp847
(dp848
S'part-short-tape'
p849
S'IPL from tape'
p850
sS'part-long-tape'
p851
S'This kernel has support to IPL (boot) from a tape.'
p852
sS'part-long-reader'
p853
S'This kernel has support to IPL (boot) from a VM reader or DASD device.'
p854
ss(S'image'
g53
tp855
(dp856
S'suggests'
p857
S'fdutils'
p858
sS'configs'
p859
(lp860
S'armel/config'
p861
aS'armhf/config'
p862
ass(S'abi'
tp863
(dp864
S'abiname'
p865
S'4'
sS'ignore-changes'
p866
(lp867
S'module:net/l2tp/*'
p868
aS'__rpc_wait_for_completion_task'
p869
aS'bc_svc_process'
p870
aS'nfs4*'
p871
aS'nfs_*'
p872
aS'nlmclnt_*'
p873
aS'nlmsvc_*'
p874
aS'pnfs_*'
p875
aS'put_lseg'
p876
aS'put_rpccred'
p877
aS'rpc_*'
p878
aS'rpcauth_*'
p879
aS'rpcb_getport_async'
p880
aS'svc_*'
p881
aS'svcauth_unix_set_client'
p882
aS'unix_domain_find'
p883
aS'xprt_*'
p884
aS'get_write_access'
p885
aS'module:drivers/gpu/drm/*'
p886
aS'drm_sman_*'
p887
aS'intel_agp_enabled'
p888
aS'intel_gmch_*'
p889
aS'intel_gtt_*'
p890
aS'module:drivers/net/wan/cycx_drv'
p891
aS'module:net/wanrouter/wanrouter'
p892
aS'register_virtio_*'
p893
aS'unregister_virtio_*'
p894
aS'virtio_*'
p895
aS'virtqueue_*'
p896
aS'vring_*'
p897
aS'module:drivers/staging/*'
p898
aS'module:drivers/net/wireless/ath/*'
p899
aS'module:drivers/net/wireless/rtlwifi/*'
p900
aS'kmsg_dump_register'
p901
aS'kmsg_dump_unregister'
p902
aS'register_efivars'
p903
aS'unregister_efivars'
p904
aS'module:drivers/usb/serial/*'
p905
aS'module:arch/s390/kvm/kvm'
p906
ass(S'build'
g78
NS'ixp4xx'
tp907
(dp908
S'image-file'
p909
S'arch/arm/boot/zImage'
p910
ss(S'description'
g45
NS's390-tape'
tp911
(dp912
S'hardware'
p913
S'IBM S/390'
p914
sS'parts'
p915
(lp916
S'tape'
p917
ass(S'description'
g306
NS'sparc64'
tp918
(dp919
S'hardware'
p920
S'uniprocessor 64-bit UltraSPARC'
p921
ss(g91
g32
g92
tp922
(dp923
g95
I01
sg96
(lp924
S'amiga'
p925
aS'atari'
p926
aS'bvme6000'
p927
aS'mac'
p928
aS'mvme147'
p929
aS'mvme16x'
p930
ass(S'description'
g106
NS'sb1a-bcm91480b'
tp931
(dp932
S'hardware'
p933
S'BCM91480B'
p934
sS'hardware-long'
p935
S'Broadcom BCM91480B systems (aka BigSur)'
p936
ss(S'abi'
g16
tp937
(dp938
S'ignore-changes'
p939
(lp940
S'disable_hlt'
p941
aS'enable_hlt'
p942
aS'module:arch/x86/kvm/kvm'
p943
ass(S'base'
tp944
(dp945
S'arches'
p946
(lp947
S'alpha'
p948
aS'amd64'
p949
aS'armel'
p950
aS'armhf'
p951
aS'hppa'
p952
aS'i386'
p953
aS'ia64'
p954
aS'm68k'
p955
aS'mips'
p956
aS'mipsel'
p957
aS'powerpc'
p958
aS'ppc64'
p959
aS's390'
p960
aS's390x'
p961
aS'sh4'
p962
aS'sparc'
p963
aS'sparc64'
p964
asS'featuresets'
p965
(lp966
S'none'
p967
aS'rt'
p968
asS'compiler'
p969
S'gcc-4.6'
p970
ss(S'image'
g5
NS'amd64'
tp971
(dp972
S'configs'
p973
(lp974
S'kernelarch-x86/config-arch-64'
p975
ass(S'description'
g53
NS'mx5'
tp976
(dp977
S'hardware'
p978
S'Freescale i.MX51/53'
p979
sS'hardware-long'
p980
S'Freescale i.MX51 or i.MX53 based systems'
p981
ss(S'description'
g113
NS'alpha-legacy'
tp982
(dp983
S'hardware'
p984
S'Alpha Legacy'
p985
sS'hardware-long'
p986
S'DEC Alpha systems with legacy kernel start address'
p987
ss(g91
g166
g92
tp988
(dp989
g95
I01
sg96
(lp990
S'powerpc'
p991
aS'powerpc-smp'
p992
aS'powerpc64'
p993
ass(S'description'
g16
NS'486'
tp994
(dp995
S'hardware'
p996
S'older PCs'
p997
sS'parts'
p998
(lp999
S'up'
p1000
asS'hardware-long'
p1001
S'PCs with a single processor not supporting PAE'
p1002
ss(S'image'
g16
NS'486'
tp1003
(dp1004
S'configs'
p1005
(lp1006
S'kernelarch-x86/config-arch-32'
p1007
ass(S'image'
g205
NS'sb1a-bcm91480b'
tp1008
(dp1009
S'configs'
p1010
(lp1011
S'mips/config.sb1a-bcm91480b'
p1012
ass(S'abi'
Ng736
tp1013
(dp1014
S'ignore-changes'
p1015
(lp1016
S'*'
ass(S'base'
g32
tp1017
(dp1018
S'kernel-arch'
p1019
S'm68k'
p1020
sg118
(lp1021
g92
asS'cflags'
p1022
S'-ffreestanding'
p1023
sS'compiler'
p1024
S'gcc-4.6'
p1025
ss(S'description'
g5
NS'amd64'
tp1026
(dp1027
S'hardware'
p1028
S'64-bit PCs'
p1029
sS'hardware-long'
p1030
S'PCs with AMD64, Intel 64 or VIA Nano processors'
p1031
ss(S'description'
g45
NS's390x-tape'
tp1032
(dp1033
S'hardware'
p1034
S'IBM zSeries'
p1035
sS'parts'
p1036
(lp1037
S'tape'
p1038
ass(g91
g306
g92
tp1039
(dp1040
g95
I01
sg96
(lp1041
S'sparc64'
p1042
aS'sparc64-smp'
p1043
ass(S'image'
g16
NS'686-pae'
tp1044
(dp1045
S'configs'
p1046
(lp1047
S'kernelarch-x86/config-arch-32'
p1048
asS'recommends'
p1049
S'libc6-i686'
p1050
ss(S'build'
g45
NS's390x'
tp1051
(dp1052
S'debug-info'
p1053
I01
ss(S'description'
g455
NS'parisc64'
tp1054
(dp1055
S'hardware'
p1056
S'64-bit PA-RISC'
p1057
ss(S'description'
g45
NS's390'
tp1058
(dp1059
S'hardware'
p1060
S'IBM S/390'
p1061
sS'parts'
p1062
(lp1063
S'reader'
p1064
ass(S'image'
g215
tp1065
(dp1066
S'configs'
p1067
(lp1068
S's390/config'
p1069
asS'bootloaders'
p1070
(lp1071
S's390-tools'
p1072
ass(S'description'
g455
NS'parisc'
tp1073
(dp1074
S'hardware'
p1075
S'32-bit PA-RISC'
p1076
ss(S'description'
g205
NS'loongson-2f'
tp1077
(dp1078
S'hardware'
p1079
S'Loongson 2F'
p1080
sS'hardware-long'
p1081
S'Lemote Loongson 2F systems'
p1082
ss(S'build'
g53
NS'omap'
tp1083
(dp1084
S'image-file'
p1085
S'arch/arm/boot/zImage'
p1086
ss(S'description'
g455
NS'parisc-smp'
tp1087
(dp1088
S'hardware'
p1089
S'multiprocessor 32-bit PA-RISC'
p1090
sstRp1091
.