cdebian_linux.config
ConfigCore
p0
(tRp1
(Vabi
p2
tp3
(dp4
Vabiname
p5
V1
p6
sVignore-changes
p7
(lp8
V__cpuhp_*
p9
aVbpf_analyzer
p10
aVcxl_*
p11
aViommu_device_*
p12
aVmm_iommu_*
p13
aVperf_*
p14
aVregister_cxl_calls
p15
aVunregister_cxl_calls
p16
aV*_hw_breakpoint
p17
aVmodule:arch/x86/kvm/*
p18
aVmodule:drivers/crypto/ccp/*
p19
aVmodule:drivers/hv/*
p20
aVmodule:drivers/iio/common/hid-sensors/*
p21
aVmodule:drivers/iio/common/st_sensors/**
p22
aVmodule:drivers/mtd/nand/*
p23
aVmodule:drivers/net/wireless/**
p24
aVmodule:drivers/nvdimm/*
p25
aVmodule:drivers/power/supply/bq27xxx_battery
p26
aVmodule:drivers/scsi/cxgbi/*
p27
aVmodule:drivers/scsi/libiscs*
p28
aVmodule:drivers/scsi/qla2xxx/qla2xxx
p29
aVmodule:drivers/scsi/ufs/*
p30
aVmodule:drivers/target/**
p31
aVmodule:drivers/usb/chipidea/**
p32
aVmodule:drivers/usb/host/**
p33
aVmodule:drivers/usb/musb/**
p34
aVmodule:fs/nfs/**
p35
aVmodule:net/ceph/libceph
p36
aVmodule:net/l2tp/l2tp_core
p37
aVmodule:sound/firewire/snd-firewire-lib
p38
aVbtree_*
p39
aVvisitor*
p40
aVcan_rx_register
p41
aVip6_xmit
p42
aVmodule:net/dccp/dccp
p43
aVmodule:net/rds/rds
p44
aVdevfreq_*
p45
aVdevm_devfreq_*
p46
aVupdate_devfreq
p47
aVmodule:drivers/infiniband/**
p48
aVacpi_ec_add_query_handler
p49
aVacpi_ec_remove_query_handler
p50
aVfirst_ec
p51
aVdebugfs_create_automount
p52
aVmodule:drivers/iio/imu/inv_mpu6050/*
p53
ass(Vbase
p54
tp55
(dp56
Varches
p57
(lp58
Valpha
p59
aVamd64
p60
aVarm64
p61
aVarm64ilp32
p62
aVarmel
p63
aVarmhf
p64
aVhppa
p65
aVi386
p66
aVm68k
p67
aVmips
p68
aVmips64
p69
aVmips64el
p70
aVmips64r6
p71
aVmips64r6el
p72
aVmipsel
p73
aVmipsn32
p74
aVmipsn32el
p75
aVmipsn32r6
p76
aVmipsn32r6el
p77
aVmipsr6
p78
aVmipsr6el
p79
aVpowerpc
p80
aVpowerpcspe
p81
aVppc64
p82
aVppc64el
p83
aVs390
p84
aVs390x
p85
aVsh3
p86
aVsh4
p87
aVsparc
p88
aVsparc64
p89
aVtilegx
p90
aVx32
p91
asVcompiler
p92
Vgcc-6
p93
sVfeaturesets
p94
(lp95
Vnone
p96
aVrt
p97
ass(Vbuild
p98
tp99
(dp100
Vdebug-info
p101
I01
sVsigned-modules
p102
I00
ss(Vbase
p103
NVrt
p104
tp105
(dp106
Venabled
p107
I00
ss(Vdescription
p108
tp109
(dp110
Vpart-long-up
p111
VThis kernel is not suitable for SMP (multi-processor,\u000amulti-core or hyper-threaded) systems.
p112
sVpart-long-xen
p113
VThis kernel also runs on a Xen hypervisor.\u000aIt supports both privileged (dom0) and unprivileged (domU) operation.
p114
ss(Vimage
p115
tp116
(dp117
Vinitramfs-generators
p118
(lp119
Vinitramfs-tools
p120
aVinitramfs-fallback
p121
ass(Vrelations
p122
tp123
(dp124
Vgcc-6
p125
Vgcc-6 <!stage1 !cross>, gcc-6-@gnu-type-package@ <!stage1 cross>
p126
sVinitramfs-fallback
p127
Vlinux-initramfs-tool
p128
sVinitramfs-tools
p129
Vinitramfs-tools (>= 0.120+deb8u2)
p130
ss(Vbase
p131
Valpha
p132
tp133
(dp134
Vkernel-arch
p135
Valpha
p136
sVfeaturesets
p137
(lp138
Vnone
p139
ass(Vbuild
p140
g132
tp141
(dp142
Vimage-file
p143
Varch/alpha/boot/vmlinux.gz
p144
sVsigned-modules
p145
I00
ss(Vimage
p146
g132
tp147
(dp148
Vsuggests
p149
Vaboot, fdutils
p150
sVinstall-stem
p151
Vvmlinuz
p152
ss(Vdescription
p153
g132
NValpha-generic
p154
tp155
(dp156
Vhardware
p157
VAlpha
p158
sVhardware-long
p159
VDEC Alpha systems with extended kernel start address (Wildfire, Titan, Marvel)
p160
ss(Vdescription
p161
g132
NValpha-smp
p162
tp163
(dp164
Vhardware
p165
VAlpha SMP
p166
sVhardware-long
p167
VDEC Alpha SMP systems with extended kernel start address (Wildfire, Titan, Marvel)
p168
ss(Vbase
p169
g132
g139
tp170
(dp171
Vflavours
p172
(lp173
Valpha-generic
p174
aValpha-smp
p175
asVimplicit-flavour
p176
I01
ss(Vbase
p177
Vamd64
p178
tp179
(dp180
Vfeaturesets
p181
(lp182
Vnone
p183
aVrt
p184
asVkernel-arch
p185
Vx86
p186
ss(Vbuild
p187
g178
tp188
(dp189
Vdebug-info
p190
I01
sVimage-file
p191
Varch/x86/boot/bzImage
p192
sVvdso
p193
I01
ss(Vimage
p194
g178
tp195
(dp196
Vbootloaders
p197
(lp198
Vgrub-pc
p199
aVgrub-efi-amd64
p200
aVextlinux
p201
asVinstall-stem
p202
Vvmlinuz
p203
sVbreaks
p204
Vxserver-xorg-input-vmmouse (<< 1:13.0.99)
p205
ss(Vrelations
p206
g178
tp207
(dp208
Vheaders%gcc-6
p209
Vlinux-compiler-gcc-6-x86
p210
ss(Vdescription
p211
g178
NVamd64
p212
tp213
(dp214
Vhardware
p215
V64-bit PCs
p216
sVhardware-long
p217
VPCs with AMD64, Intel 64 or VIA Nano processors
p218
ss(Vbase
p219
g178
Vnone
p220
tp221
(dp222
Vflavours
p223
(lp224
Vamd64
p225
ass(Vdescription
p226
g178
g220
Vamd64
p227
tp228
(dp229
Vparts
p230
(lp231
Vxen
p232
ass(Vbase
p233
g178
Vrt
p234
tp235
(dp236
Vflavours
p237
(lp238
Vamd64
p239
ass(Vbase
p240
Varm64
p241
tp242
(dp243
Vkernel-arch
p244
Varm64
p245
sVfeaturesets
p246
(lp247
Vnone
p248
ass(Vbuild
p249
g241
tp250
(dp251
Vdebug-info
p252
I01
sVimage-file
p253
Varch/arm64/boot/Image
p254
sVvdso
p255
I01
ss(Vimage
p256
g241
tp257
(dp258
Vinstall-stem
p259
Vvmlinuz
p260
sVbreaks
p261
Vlibmozjs185-1.0, libmozjs-24-0 (<< 24.2.0-5.1~)
p262
ss(Vdescription
p263
g241
NVarm64
p264
tp265
(dp266
Vhardware
p267
V64-bit ARMv8 machines
p268
ss(Vimage
p269
g241
NVarm64
p270
tp271
(dp272
s(Vbase
p273
g241
Vnone
p274
tp275
(dp276
Vflavours
p277
(lp278
Varm64
p279
ass(Vbase
p280
Varm64ilp32
p281
tp282
(dp283
Vkernel-arch
p284
Varm64
p285
sVfeaturesets
p286
(lp287
ss(Vbase
p288
Varmel
p289
tp290
(dp291
Vkernel-arch
p292
Varm
p293
sg137
(lp294
g139
ass(Vbuild
p295
g289
tp296
(dp297
Vimage-file
p298
Varch/arm/boot/zImage
p299
sVsigned-modules
p300
I00
sVuncompressed-image-file
p301
Varch/arm/boot/Image
p302
ss(Vimage
p303
g289
tp304
(dp305
Vinstall-stem
p306
Vvmlinuz
p307
ss(Vrelations
p308
g289
tp309
(dp310
Vheaders%gcc-6
p311
Vlinux-compiler-gcc-6-arm
p312
ss(Vdescription
p313
g289
NVmarvell
p314
tp315
(dp316
Vhardware
p317
VMarvell Kirkwood/Orion
p318
sVhardware-long
p319
VMarvell Kirkwood based systems (SheevaPlug, QNAP TS-119/TS-219, etc)\u000aand Orion 5181, 5182 and 5281 based systems (QNAP TS-109/TS-209, etc)
p320
ss(Vimage
p321
g289
NVmarvell
p322
tp323
(dp324
Vrecommends
p325
Vu-boot-tools
p326
sVcheck-size
p327
L2097080L
sVcheck-size-with-dtb
p328
I01
sVcheck-uncompressed-size
p329
L7340032L
sVbreaks
p330
Vflash-kernel (<< 3.57~)
p331
ss(g169
g289
g139
tp332
(dp333
g172
(lp334
Vmarvell
p335
asg176
I01
ss(Vbase
p336
Varmhf
p337
tp338
(dp339
Vkernel-arch
p340
Varm
p341
sg137
(lp342
g139
ass(Vbuild
p343
g337
tp344
(dp345
Vimage-file
p346
Varch/arm/boot/zImage
p347
sVvdso
p348
I01
ss(Vimage
p349
g337
tp350
(dp351
Vinstall-stem
p352
Vvmlinuz
p353
ss(Vrelations
p354
g337
tp355
(dp356
Vheaders%gcc-6
p357
Vlinux-compiler-gcc-6-arm
p358
ss(Vdescription
p359
g337
NVarmmp
p360
tp361
(dp362
Vhardware
p363
VARMv7 multiplatform compatible SoCs
p364
sVhardware-long
p365
VARMv7 multiplatform kernel. See\u000ahttps://wiki.debian.org/DebianKernel/ARMMP for details of supported\u000aplatforms
p366
ss(Vdescription
p367
g337
NVarmmp-lpae
p368
tp369
(dp370
Vhardware
p371
VARMv7 multiplatform compatible SoCs supporting LPAE
p372
sVhardware-long
p373
VARMv7 multiplatform kernel supporting LPAE. See\u000ahttps://wiki.debian.org/DebianKernel/ARMMP for details of supported\u000aplatforms.
p374
ss(g169
g337
g139
tp375
(dp376
g172
(lp377
Varmmp
p378
aVarmmp-lpae
p379
asg176
I01
ss(Vbase
p380
Vhppa
p381
tp382
(dp383
Vkernel-arch
p384
Vparisc
p385
sg137
(lp386
g139
ass(Vbuild
p387
g381
tp388
(dp389
Vimage-file
p390
Vvmlinux
p391
sVsigned-modules
p392
I00
ss(Vimage
p393
g381
tp394
(dp395
Vsuggests
p396
Vpalo
p397
sVinstall-stem
p398
Vvmlinux
p399
ss(Vdescription
p400
g381
NVparisc
p401
tp402
(dp403
Vhardware
p404
V32-bit PA-RISC
p405
sVhardware-long
p406
VHP PA-RISC 32-bit systems with max 4 GB RAM
p407
ss(Vbase
p408
g381
NVparisc64-smp
p409
tp410
(dp411
Vcflags
p412
V-fno-cse-follow-jumps
p413
sVoverride-host-type
p414
Vhppa64-linux-gnu
p415
ss(Vdescription
p416
g381
NVparisc64-smp
p417
tp418
(dp419
Vhardware
p420
Vmultiprocessor 64-bit PA-RISC
p421
sVhardware-long
p422
VHP PA-RISC 64-bit SMP systems with support for more than 4 GB RAM
p423
ss(Vrelations
p424
g381
tp425
(dp426
Vgcc-6
p427
Vgcc-6 <!stage1 !cross>, binutils-hppa64-linux-gnu <!stage1 !cross>, gcc-6-hppa64-linux-gnu <!stage1 !cross>, gcc-6-hppa-linux-gnu <!stage1 cross>, binutils-hppa64-linux-gnu <!stage1 cross>, gcc-6-hppa64-linux-gnu <!stage1 cross>
p428
ss(g169
g381
g139
tp429
(dp430
g172
(lp431
Vparisc
p432
aVparisc64-smp
p433
asg176
I01
ss(Vbase
p434
Vi386
p435
tp436
(dp437
Vfeaturesets
p438
(lp439
Vnone
p440
aVrt
p441
asVkernel-arch
p442
Vx86
p443
ss(Vbuild
p444
g435
tp445
(dp446
Vimage-file
p447
Varch/x86/boot/bzImage
p448
sVvdso
p449
I01
ss(Vdescription
p450
g435
tp451
(dp452
Vpart-long-pae
p453
VThis kernel requires PAE (Physical Address Extension).\u000aThis feature is supported by the Intel Pentium Pro/II/III/4/4M/D, Xeon,\u000aCore and Atom; AMD Geode NX, Athlon (K7), Duron, Opteron, Sempron,\u000aTurion or Phenom; Transmeta Efficeon; VIA C7; and some other processors.
p454
ss(Vimage
p455
g435
tp456
(dp457
Vbootloaders
p458
(lp459
Vgrub-pc
p460
aVextlinux
p461
asVinstall-stem
p462
Vvmlinuz
p463
sVbreaks
p464
Vxserver-xorg-input-vmmouse (<< 1:13.0.99)
p465
ss(Vrelations
p466
g435
tp467
(dp468
Vheaders%gcc-6
p469
Vlinux-compiler-gcc-6-x86
p470
ss(Vdescription
p471
g435
NV686
p472
tp473
(dp474
Vhardware
p475
Volder PCs
p476
sVhardware-long
p477
VPCs with one or more processors not supporting PAE
p478
ss(Vbuild
p479
g435
NV686-pae
p480
tp481
(dp482
Vdebug-info
p483
I01
ss(Vdescription
p484
g435
NV686-pae
p485
tp486
(dp487
Vhardware
p488
Vmodern PCs
p489
sVhardware-long
p490
VPCs with one or more processors supporting PAE
p491
sVparts
p492
(lp493
Vpae
p494
ass(Vbase
p495
g435
Vnone
p496
tp497
(dp498
Vflavours
p499
(lp500
V686
p501
aV686-pae
p502
ass(Vdescription
p503
g435
g496
V686-pae
p504
tp505
(dp506
Vparts
p507
(lp508
Vxen
p509
ass(Vbase
p510
g435
Vrt
p511
tp512
(dp513
Vflavours
p514
(lp515
V686-pae
p516
ass(Vbase
p517
Vm68k
p518
tp519
(dp520
Vcflags
p521
V-ffreestanding
p522
sVkernel-arch
p523
Vm68k
p524
sg137
(lp525
g139
ass(Vbuild
p526
g518
tp527
(dp528
Vimage-file
p529
Vvmlinux.gz
p530
sVsigned-modules
p531
I00
ss(Vimage
p532
g518
tp533
(dp534
Vsuggests
p535
Vvmelilo, fdutils
p536
sVinstall-stem
p537
Vvmlinuz
p538
ss(Vdescription
p539
g518
NVm68k
p540
tp541
(dp542
Vhardware
p543
VMotorola MC68020+ family
p544
ss(g169
g518
g139
tp545
(dp546
g172
(lp547
Vm68k
p548
asg176
I01
ss(Vbase
p549
Vmips
p550
tp551
(dp552
Vkernel-arch
p553
Vmips
p554
sg137
(lp555
g139
ass(Vbuild
p556
g550
tp557
(dp558
Vimage-file
p559
Vvmlinux
p560
sVsigned-modules
p561
I00
ss(Vimage
p562
g550
tp563
(dp564
Vinstall-stem
p565
Vvmlinux
p566
ss(Vdescription
p567
g550
NV4kc-malta
p568
tp569
(dp570
Vhardware
p571
VMIPS Malta
p572
sVhardware-long
p573
VMIPS Malta boards
p574
ss(Vimage
p575
g550
NV4kc-malta
p576
tp577
(dp578
Vconfigs
p579
(lp580
Vkernelarch-mips/config.malta
p581
aVkernelarch-mips/config.mips32r2
p582
ass(Vdescription
p583
g550
NV5kc-malta
p584
tp585
(dp586
Vhardware
p587
VMIPS Malta (64-bit)
p588
sVhardware-long
p589
VMIPS Malta boards (64-bit)
p590
ss(Vimage
p591
g550
NV5kc-malta
p592
tp593
(dp594
Vconfigs
p595
(lp596
Vkernelarch-mips/config.malta
p597
aVkernelarch-mips/config.mips64r2
p598
ass(Vdescription
p599
g550
NVocteon
p600
tp601
(dp602
Vhardware
p603
VOcteon
p604
sVhardware-long
p605
VCavium Networks Octeon
p606
ss(Vimage
p607
g550
NVocteon
p608
tp609
(dp610
Vconfigs
p611
(lp612
Vkernelarch-mips/config.octeon
p613
ass(g169
g550
g139
tp614
(dp615
g172
(lp616
V4kc-malta
p617
aV5kc-malta
p618
aVocteon
p619
asg176
I01
ss(Vbase
p620
Vmips64
p621
tp622
(dp623
Vkernel-arch
p624
Vmips
p625
sg137
(lp626
g139
ass(Vbuild
p627
g621
tp628
(dp629
Vimage-file
p630
Vvmlinux
p631
sVsigned-modules
p632
I00
ss(Vimage
p633
g621
tp634
(dp635
Vinstall-stem
p636
Vvmlinux
p637
ss(Vdescription
p638
g621
NV5kc-malta
p639
tp640
(dp641
Vhardware
p642
VMIPS Malta
p643
sVhardware-long
p644
VMIPS Malta boards
p645
ss(Vimage
p646
g621
NV5kc-malta
p647
tp648
(dp649
Vconfigs
p650
(lp651
Vkernelarch-mips/config.malta
p652
aVkernelarch-mips/config.mips64r2
p653
ass(Vdescription
p654
g621
NVocteon
p655
tp656
(dp657
Vhardware
p658
VOcteon
p659
sVhardware-long
p660
VCavium Networks Octeon
p661
ss(Vimage
p662
g621
NVocteon
p663
tp664
(dp665
Vconfigs
p666
(lp667
Vkernelarch-mips/config.octeon
p668
ass(g169
g621
g139
tp669
(dp670
g172
(lp671
V5kc-malta
p672
aVocteon
p673
asg176
I01
ss(Vbase
p674
Vmips64el
p675
tp676
(dp677
Vkernel-arch
p678
Vmips
p679
sg137
(lp680
g139
ass(Vbuild
p681
g675
tp682
(dp683
Vimage-file
p684
Vvmlinux
p685
sVsigned-modules
p686
I00
ss(Vimage
p687
g675
tp688
(dp689
Vinstall-stem
p690
Vvmlinux
p691
ss(Vdescription
p692
g675
NV5kc-malta
p693
tp694
(dp695
Vhardware
p696
VMIPS Malta
p697
sVhardware-long
p698
VMIPS Malta boards
p699
ss(Vimage
p700
g675
NV5kc-malta
p701
tp702
(dp703
Vconfigs
p704
(lp705
Vkernelarch-mips/config.malta
p706
aVkernelarch-mips/config.mips64r2
p707
ass(Vdescription
p708
g675
NVloongson-3
p709
tp710
(dp711
Vhardware
p712
VLoongson 3A/3B
p713
sVhardware-long
p714
VLoongson 3A or 3B based systems (e.g. from Loongson or Lemote)
p715
ss(Vimage
p716
g675
NVloongson-3
p717
tp718
(dp719
Vconfigs
p720
(lp721
Vkernelarch-mips/config.loongson-3
p722
ass(Vdescription
p723
g675
NVocteon
p724
tp725
(dp726
Vhardware
p727
VOcteon
p728
sVhardware-long
p729
VCavium Networks Octeon
p730
ss(Vimage
p731
g675
NVocteon
p732
tp733
(dp734
Vconfigs
p735
(lp736
Vkernelarch-mips/config.octeon
p737
ass(g169
g675
g139
tp738
(dp739
g172
(lp740
V5kc-malta
p741
aVloongson-3
p742
aVocteon
p743
asg176
I01
ss(Vbase
p744
Vmips64r6
p745
tp746
(dp747
Vkernel-arch
p748
Vmips
p749
sg137
(lp750
g139
ass(Vbuild
p751
g745
tp752
(dp753
Vimage-file
p754
Vvmlinux
p755
sVsigned-modules
p756
I00
ss(Vimage
p757
g745
tp758
(dp759
Vinstall-stem
p760
Vvmlinux
p761
ss(Vdescription
p762
g745
NVmips64r6
p763
tp764
(dp765
Vhardware
p766
VMIPS R6 (64 bit, big endian)
p767
sVhardware-long
p768
VMIPS R6 (64 bit, big endian)
p769
ss(Vimage
p770
g745
NVmips64r6
p771
tp772
(dp773
Vconfigs
p774
(lp775
Vkernelarch-mips/config.malta
p776
aVkernelarch-mips/config.mips64r6
p777
ass(g169
g745
g139
tp778
(dp779
g172
(lp780
Vmips64r6
p781
asg176
I01
ss(Vbase
p782
Vmips64r6el
p783
tp784
(dp785
Vkernel-arch
p786
Vmips
p787
sg137
(lp788
g139
ass(Vbuild
p789
g783
tp790
(dp791
Vimage-file
p792
Vvmlinux
p793
sVsigned-modules
p794
I00
ss(Vimage
p795
g783
tp796
(dp797
Vinstall-stem
p798
Vvmlinux
p799
ss(Vdescription
p800
g783
NVmips64r6el
p801
tp802
(dp803
Vhardware
p804
VMIPS R6 (64 bit, little endian)
p805
sVhardware-long
p806
VMIPS R6 (64 bit, little endian)
p807
ss(Vimage
p808
g783
NVmips64r6el
p809
tp810
(dp811
Vconfigs
p812
(lp813
Vkernelarch-mips/config.malta
p814
aVkernelarch-mips/config.mips64r6
p815
ass(g169
g783
g139
tp816
(dp817
g172
(lp818
Vmips64r6el
p819
asg176
I01
ss(Vbase
p820
Vmipsel
p821
tp822
(dp823
Vkernel-arch
p824
Vmips
p825
sg137
(lp826
g139
ass(Vbuild
p827
g821
tp828
(dp829
Vimage-file
p830
Vvmlinux
p831
sVsigned-modules
p832
I00
ss(Vimage
p833
g821
tp834
(dp835
Vinstall-stem
p836
Vvmlinux
p837
ss(Vdescription
p838
g821
NV4kc-malta
p839
tp840
(dp841
Vhardware
p842
VMIPS Malta
p843
sVhardware-long
p844
VMIPS Malta boards
p845
ss(Vimage
p846
g821
NV4kc-malta
p847
tp848
(dp849
Vconfigs
p850
(lp851
Vkernelarch-mips/config.malta
p852
aVkernelarch-mips/config.mips32r2
p853
ass(Vdescription
p854
g821
NV5kc-malta
p855
tp856
(dp857
Vhardware
p858
VMIPS Malta (64-bit)
p859
sVhardware-long
p860
VMIPS Malta boards (64-bit)
p861
ss(Vimage
p862
g821
NV5kc-malta
p863
tp864
(dp865
Vconfigs
p866
(lp867
Vkernelarch-mips/config.malta
p868
aVkernelarch-mips/config.mips64r2
p869
ass(Vdescription
p870
g821
NVloongson-3
p871
tp872
(dp873
Vhardware
p874
VLoongson 3A/3B
p875
sVhardware-long
p876
VLoongson 3A or 3B based systems (e.g. from Loongson or Lemote)
p877
ss(Vimage
p878
g821
NVloongson-3
p879
tp880
(dp881
Vconfigs
p882
(lp883
Vkernelarch-mips/config.loongson-3
p884
ass(Vdescription
p885
g821
NVocteon
p886
tp887
(dp888
Vhardware
p889
VOcteon
p890
sVhardware-long
p891
VCavium Networks Octeon
p892
ss(Vimage
p893
g821
NVocteon
p894
tp895
(dp896
Vconfigs
p897
(lp898
Vkernelarch-mips/config.octeon
p899
ass(g169
g821
g139
tp900
(dp901
g172
(lp902
V4kc-malta
p903
aV5kc-malta
p904
aVloongson-3
p905
aVocteon
p906
asg176
I01
ss(Vbase
p907
Vmipsn32
p908
tp909
(dp910
Vkernel-arch
p911
Vmips
p912
sVfeaturesets
p913
(lp914
ss(Vbase
p915
Vmipsn32el
p916
tp917
(dp918
Vkernel-arch
p919
Vmips
p920
sVfeaturesets
p921
(lp922
ss(Vbase
p923
Vmipsn32r6
p924
tp925
(dp926
Vkernel-arch
p927
Vmips
p928
sVfeaturesets
p929
(lp930
ss(Vbase
p931
Vmipsn32r6el
p932
tp933
(dp934
Vkernel-arch
p935
Vmips
p936
sVfeaturesets
p937
(lp938
ss(Vbase
p939
Vmipsr6
p940
tp941
(dp942
Vkernel-arch
p943
Vmips
p944
sg137
(lp945
g139
ass(Vbuild
p946
g940
tp947
(dp948
Vimage-file
p949
Vvmlinux
p950
sVsigned-modules
p951
I00
ss(Vimage
p952
g940
tp953
(dp954
Vinstall-stem
p955
Vvmlinux
p956
ss(Vdescription
p957
g940
NVmips32r6
p958
tp959
(dp960
Vhardware
p961
VMIPS R6 (32 bit, big endian)
p962
sVhardware-long
p963
VMIPS R6 (32 bit, big endian)
p964
ss(Vimage
p965
g940
NVmips32r6
p966
tp967
(dp968
Vconfigs
p969
(lp970
Vkernelarch-mips/config.malta
p971
aVkernelarch-mips/config.mips32r6
p972
ass(Vdescription
p973
g940
NVmips64r6
p974
tp975
(dp976
Vhardware
p977
VMIPS R6 (64 bit, big endian)
p978
sVhardware-long
p979
VMIPS R6 (64 bit, big endian)
p980
ss(Vimage
p981
g940
NVmips64r6
p982
tp983
(dp984
Vconfigs
p985
(lp986
Vkernelarch-mips/config.malta
p987
aVkernelarch-mips/config.mips64r6
p988
ass(g169
g940
g139
tp989
(dp990
g172
(lp991
Vmips32r6
p992
aVmips64r6
p993
asg176
I01
ss(Vbase
p994
Vmipsr6el
p995
tp996
(dp997
Vkernel-arch
p998
Vmips
p999
sg137
(lp1000
g139
ass(Vbuild
p1001
g995
tp1002
(dp1003
Vimage-file
p1004
Vvmlinux
p1005
sVsigned-modules
p1006
I00
ss(Vimage
p1007
g995
tp1008
(dp1009
Vinstall-stem
p1010
Vvmlinux
p1011
ss(Vdescription
p1012
g995
NVmips32r6el
p1013
tp1014
(dp1015
Vhardware
p1016
VMIPS R6 (32 bit, little endian)
p1017
sVhardware-long
p1018
VMIPS R6 (32 bit, little endian)
p1019
ss(Vimage
p1020
g995
NVmips32r6el
p1021
tp1022
(dp1023
Vconfigs
p1024
(lp1025
Vkernelarch-mips/config.malta
p1026
aVkernelarch-mips/config.mips32r6
p1027
ass(Vdescription
p1028
g995
NVmips64r6el
p1029
tp1030
(dp1031
Vhardware
p1032
VMIPS R6 (64 bit, little endian)
p1033
sVhardware-long
p1034
VMIPS R6 (64 bit, little endian)
p1035
ss(Vimage
p1036
g995
NVmips64r6el
p1037
tp1038
(dp1039
Vconfigs
p1040
(lp1041
Vkernelarch-mips/config.malta
p1042
aVkernelarch-mips/config.mips64r6
p1043
ass(g169
g995
g139
tp1044
(dp1045
g172
(lp1046
Vmips32r6el
p1047
aVmips64r6el
p1048
asg176
I01
ss(Vbase
p1049
Vpowerpc
p1050
tp1051
(dp1052
Vkernel-arch
p1053
Vpowerpc
p1054
sg137
(lp1055
g139
ass(Vbuild
p1056
g1050
tp1057
(dp1058
Vimage-file
p1059
Vvmlinux
p1060
sVvdso
p1061
I01
ss(Vimage
p1062
g1050
tp1063
(dp1064
Vconfigs
p1065
(lp1066
sVsuggests
p1067
Vmkvmlinuz
p1068
sVinstall-stem
p1069
Vvmlinux
p1070
ss(Vdescription
p1071
g1050
NVpowerpc
p1072
tp1073
(dp1074
Vhardware
p1075
Vuniprocessor 32-bit PowerPC
p1076
ss(Vdescription
p1077
g1050
NVpowerpc-smp
p1078
tp1079
(dp1080
Vhardware
p1081
Vmultiprocessor 32-bit PowerPC
p1082
ss(Vimage
p1083
g1050
NVpowerpc-smp
p1084
tp1085
(dp1086
Vconfigs
p1087
(lp1088
Vpowerpc/config.powerpc
p1089
aVpowerpc/config.powerpc-smp
p1090
ass(Vdescription
p1091
g1050
NVpowerpc64
p1092
tp1093
(dp1094
Vhardware
p1095
V64-bit PowerPC
p1096
ss(Vimage
p1097
g1050
NVpowerpc64
p1098
tp1099
(dp1100
Vconfigs
p1101
(lp1102
Vkernelarch-powerpc/config-arch-64
p1103
aVkernelarch-powerpc/config-arch-64-be
p1104
ass(g169
g1050
g139
tp1105
(dp1106
g172
(lp1107
Vpowerpc
p1108
aVpowerpc-smp
p1109
aVpowerpc64
p1110
asg176
I01
ss(Vbase
p1111
Vpowerpcspe
p1112
tp1113
(dp1114
Vkernel-arch
p1115
Vpowerpc
p1116
sg137
(lp1117
g139
ass(Vbuild
p1118
g1112
tp1119
(dp1120
Vimage-file
p1121
Vvmlinux
p1122
sVsigned-modules
p1123
I00
sVvdso
p1124
I01
ss(Vimage
p1125
g1112
tp1126
(dp1127
Vsuggests
p1128
Vmkvmlinuz
p1129
sVinstall-stem
p1130
Vvmlinux
p1131
ss(Vdescription
p1132
g1112
tp1133
(dp1134
Vhardware
p1135
V32-bit PowerPC with SPE (instead of AltiVec) with SMP support
p1136
ss(g169
g1112
g139
tp1137
(dp1138
g172
(lp1139
Vpowerpcspe
p1140
asg176
I01
ss(Vbase
p1141
Vppc64
p1142
tp1143
(dp1144
Vkernel-arch
p1145
Vpowerpc
p1146
sg137
(lp1147
g139
ass(Vbuild
p1148
g1142
tp1149
(dp1150
Vimage-file
p1151
Vvmlinux
p1152
sVsigned-modules
p1153
I00
sVvdso
p1154
I01
ss(Vimage
p1155
g1142
tp1156
(dp1157
Vconfigs
p1158
(lp1159
sVsuggests
p1160
Vmkvmlinuz
p1161
sVinstall-stem
p1162
Vvmlinux
p1163
ss(Vdescription
p1164
g1142
NVpowerpc64
p1165
tp1166
(dp1167
Vhardware
p1168
V64-bit PowerPC
p1169
ss(Vimage
p1170
g1142
NVpowerpc64
p1171
tp1172
(dp1173
Vconfigs
p1174
(lp1175
Vkernelarch-powerpc/config-arch-64
p1176
aVkernelarch-powerpc/config-arch-64-be
p1177
ass(g169
g1142
g139
tp1178
(dp1179
g172
(lp1180
Vpowerpc64
p1181
asg176
I01
ss(Vbase
p1182
Vppc64el
p1183
tp1184
(dp1185
Vkernel-arch
p1186
Vpowerpc
p1187
sg137
(lp1188
g139
ass(Vbuild
p1189
g1183
tp1190
(dp1191
Vimage-file
p1192
Vvmlinux
p1193
sVvdso
p1194
I01
ss(Vimage
p1195
g1183
tp1196
(dp1197
Vconfigs
p1198
(lp1199
sVsuggests
p1200
Vmkvmlinuz
p1201
sVinstall-stem
p1202
Vvmlinux
p1203
ss(Vdescription
p1204
g1183
NVpowerpc64le
p1205
tp1206
(dp1207
Vhardware
p1208
VLittle-endian 64-bit PowerPC
p1209
ss(Vimage
p1210
g1183
NVpowerpc64le
p1211
tp1212
(dp1213
Vconfigs
p1214
(lp1215
Vkernelarch-powerpc/config-arch-64
p1216
aVkernelarch-powerpc/config-arch-64-le
p1217
ass(g169
g1183
g139
tp1218
(dp1219
g172
(lp1220
Vpowerpc64le
p1221
asg176
I01
ss(Vbase
p1222
Vs390
p1223
tp1224
(dp1225
Vkernel-arch
p1226
Vs390
p1227
sVfeaturesets
p1228
(lp1229
ss(Vbase
p1230
Vs390x
p1231
tp1232
(dp1233
Vkernel-arch
p1234
Vs390
p1235
sg137
(lp1236
g139
ass(Vbuild
p1237
g1231
tp1238
(dp1239
Vimage-file
p1240
Varch/s390/boot/image
p1241
sVvdso
p1242
I01
ss(Vimage
p1243
g1231
tp1244
(dp1245
Vbootloaders
p1246
(lp1247
Vs390-tools
p1248
asVinstall-stem
p1249
Vvmlinuz
p1250
ss(Vrelations
p1251
g1231
tp1252
(dp1253
Vheaders%gcc-6
p1254
Vlinux-compiler-gcc-6-s390
p1255
ss(Vbuild
p1256
g1231
NVs390x
p1257
tp1258
(dp1259
Vdebug-info
p1260
I01
ss(Vdescription
p1261
g1231
NVs390x
p1262
tp1263
(dp1264
Vhardware
p1265
VIBM zSeries
p1266
ss(g169
g1231
g139
tp1267
(dp1268
g172
(lp1269
Vs390x
p1270
asg176
I01
ss(Vbase
p1271
Vsh3
p1272
tp1273
(dp1274
Vkernel-arch
p1275
Vsh
p1276
sVfeaturesets
p1277
(lp1278
ss(Vbase
p1279
Vsh4
p1280
tp1281
(dp1282
Vkernel-arch
p1283
Vsh
p1284
sg137
(lp1285
g139
ass(Vbuild
p1286
g1280
tp1287
(dp1288
Vimage-file
p1289
Varch/sh/boot/zImage
p1290
sVsigned-modules
p1291
I00
ss(Vimage
p1292
g1280
tp1293
(dp1294
Vinstall-stem
p1295
Vvmlinuz
p1296
ss(Vdescription
p1297
g1280
NVsh7751r
p1298
tp1299
(dp1300
Vhardware
p1301
Vsh7751r
p1302
sVhardware-long
p1303
VRenesas SH7751R R2D plus board
p1304
ss(Vdescription
p1305
g1280
NVsh7785lcr
p1306
tp1307
(dp1308
Vhardware
p1309
Vsh7785lcr
p1310
sVhardware-long
p1311
VRenesas SH7785 reference board
p1312
ss(Vimage
p1313
g1280
NVsh7785lcr
p1314
tp1315
(dp1316
Vrecommends
p1317
Vu-boot-tools
p1318
sVcheck-size
p1319
L4194304L
ss(g169
g1280
g139
tp1320
(dp1321
g172
(lp1322
Vsh7751r
p1323
aVsh7785lcr
p1324
asg176
I01
ss(Vbase
p1325
Vsparc
p1326
tp1327
(dp1328
Vkernel-arch
p1329
Vsparc
p1330
sVfeaturesets
p1331
(lp1332
ss(Vbase
p1333
Vsparc64
p1334
tp1335
(dp1336
Vkernel-arch
p1337
Vsparc
p1338
sg137
(lp1339
g139
ass(Vbuild
p1340
g1334
tp1341
(dp1342
Vimage-file
p1343
Varch/sparc/boot/zImage
p1344
sVsigned-modules
p1345
I00
ss(Vimage
p1346
g1334
tp1347
(dp1348
Vconfigs
p1349
(lp1350
sVsuggests
p1351
Vsilo, fdutils
p1352
sVinstall-stem
p1353
Vvmlinuz
p1354
ss(Vdescription
p1355
g1334
NVsparc64
p1356
tp1357
(dp1358
Vhardware
p1359
Vuniprocessor 64-bit UltraSPARC
p1360
ss(Vimage
p1361
g1334
NVsparc64
p1362
tp1363
(dp1364
Vconfigs
p1365
(lp1366
Vkernelarch-sparc/config-up
p1367
ass(Vdescription
p1368
g1334
NVsparc64-smp
p1369
tp1370
(dp1371
Vhardware
p1372
Vmultiprocessor 64-bit UltraSPARC
p1373
ss(Vimage
p1374
g1334
NVsparc64-smp
p1375
tp1376
(dp1377
Vconfigs
p1378
(lp1379
Vkernelarch-sparc/config-smp
p1380
ass(g169
g1334
g139
tp1381
(dp1382
g172
(lp1383
Vsparc64
p1384
aVsparc64-smp
p1385
asg176
I01
ss(Vbase
p1386
Vtilegx
p1387
tp1388
(dp1389
Vkernel-arch
p1390
Vtile
p1391
sVfeaturesets
p1392
(lp1393
ss(Vbase
p1394
Vx32
p1395
tp1396
(dp1397
Vkernel-arch
p1398
Vx86
p1399
sVfeaturesets
p1400
(lp1401
ss(Vabi
p1402
NVrt
p1403
tp1404
(dp1405
Vignore-changes
p1406
(lp1407
V*
p1408
ass(Vdescription
p1409
Ng1403
tp1410
(dp1411
Vpart-long-rt
p1412
VThis kernel includes the PREEMPT_RT realtime patch set.
p1413
sVpart-short-rt
p1414
VPREEMPT_RT
p1415
sVparts
p1416
(lp1417
Vrt
p1418
ass(Vversion
p1419
tp1420
(dp1421
Vsource
p1422
V4.13.4-2
p1423
sVupstream
p1424
V4.13
p1425
sVabiname_base
p1426
V4.13.0
p1427
sVabiname
p1428
V4.13.0-1
p1429
ss.